ARM GAS  /tmp/ccMe0kQ8.s 			page 1


   1              		.cpu cortex-m3
   2              		.eabi_attribute 20, 1
   3              		.eabi_attribute 21, 1
   4              		.eabi_attribute 23, 3
   5              		.eabi_attribute 24, 1
   6              		.eabi_attribute 25, 1
   7              		.eabi_attribute 26, 1
   8              		.eabi_attribute 30, 1
   9              		.eabi_attribute 34, 1
  10              		.eabi_attribute 18, 4
  11              		.file	"Buffer_Gcode.c"
  12              		.text
  13              	.Ltext0:
  14              		.cfi_sections	.debug_frame
  15              		.section	.text.number,"ax",%progbits
  16              		.align	1
  17              		.arch armv7-m
  18              		.syntax unified
  19              		.thumb
  20              		.thumb_func
  21              		.fpu softvfp
  23              	number:
  24              	.LVL0:
  25              	.LFB0:
  26              		.file 1 "Src/Gcode/Buffer_Gcode.c"
   1:Src/Gcode/Buffer_Gcode.c **** #include "Buffer_Gcode.h"
   2:Src/Gcode/Buffer_Gcode.c **** 
   3:Src/Gcode/Buffer_Gcode.c **** #include "stdbool.h"
   4:Src/Gcode/Buffer_Gcode.c **** #include "math.h"
   5:Src/Gcode/Buffer_Gcode.c **** #include <stdlib.h>
   6:Src/Gcode/Buffer_Gcode.c **** 
   7:Src/Gcode/Buffer_Gcode.c **** const descreteCommand_Gcode defaultDescreteCommand = {EMPTY_COMMAND};
   8:Src/Gcode/Buffer_Gcode.c **** const command_Gcode defaultCommand = {EMPTY_COMMAND};
   9:Src/Gcode/Buffer_Gcode.c **** 
  10:Src/Gcode/Buffer_Gcode.c **** 
  11:Src/Gcode/Buffer_Gcode.c **** static descreteCommand_Gcode descreteBuffer[3];
  12:Src/Gcode/Buffer_Gcode.c **** 
  13:Src/Gcode/Buffer_Gcode.c **** static int number(int elementNumber) { return elementNumber - 1; }
  27              		.loc 1 13 38 view -0
  28              		.cfi_startproc
  29              		@ args = 0, pretend = 0, frame = 0
  30              		@ frame_needed = 0, uses_anonymous_args = 0
  31              		@ link register save eliminated.
  32              		.loc 1 13 40 view .LVU1
  33              		.loc 1 13 1 is_stmt 0 view .LVU2
  34 0000 0138     		subs	r0, r0, #1
  35              	.LVL1:
  36              		.loc 1 13 1 view .LVU3
  37 0002 7047     		bx	lr
  38              		.cfi_endproc
  39              	.LFE0:
  41              		.global	__aeabi_fcmplt
  42              		.section	.text.sign,"ax",%progbits
  43              		.align	1
  44              		.syntax unified
  45              		.thumb
  46              		.thumb_func
ARM GAS  /tmp/ccMe0kQ8.s 			page 2


  47              		.fpu softvfp
  49              	sign:
  50              	.LVL2:
  51              	.LFB12:
  14:Src/Gcode/Buffer_Gcode.c **** 
  15:Src/Gcode/Buffer_Gcode.c **** void createDescreteCommandBuffer_Gcode(void)
  16:Src/Gcode/Buffer_Gcode.c **** {
  17:Src/Gcode/Buffer_Gcode.c ****     descreteBuffer[number(1)] = defaultDescreteCommand;
  18:Src/Gcode/Buffer_Gcode.c ****     descreteBuffer[number(2)] = defaultDescreteCommand;
  19:Src/Gcode/Buffer_Gcode.c ****     descreteBuffer[number(3)] = defaultDescreteCommand;
  20:Src/Gcode/Buffer_Gcode.c **** }
  21:Src/Gcode/Buffer_Gcode.c **** 
  22:Src/Gcode/Buffer_Gcode.c **** void addElementToDescreteCommandBuffer_Gcode(descreteCommand_Gcode descreteCommand)
  23:Src/Gcode/Buffer_Gcode.c **** {
  24:Src/Gcode/Buffer_Gcode.c ****     descreteBuffer[number(1)] = descreteBuffer[number(2)];
  25:Src/Gcode/Buffer_Gcode.c ****     descreteBuffer[number(2)] = descreteBuffer[number(3)];
  26:Src/Gcode/Buffer_Gcode.c ****     descreteBuffer[number(3)] = descreteCommand;
  27:Src/Gcode/Buffer_Gcode.c **** }
  28:Src/Gcode/Buffer_Gcode.c **** 
  29:Src/Gcode/Buffer_Gcode.c **** void clearDescreteBuffer_Gcode(void)
  30:Src/Gcode/Buffer_Gcode.c **** {
  31:Src/Gcode/Buffer_Gcode.c ****     descreteBuffer[number(1)] = defaultDescreteCommand;
  32:Src/Gcode/Buffer_Gcode.c ****     descreteBuffer[number(2)] = defaultDescreteCommand;
  33:Src/Gcode/Buffer_Gcode.c ****     descreteBuffer[number(3)] = defaultDescreteCommand;
  34:Src/Gcode/Buffer_Gcode.c **** }
  35:Src/Gcode/Buffer_Gcode.c **** 
  36:Src/Gcode/Buffer_Gcode.c **** const descreteCommand_Gcode getDescreteCommandBufferElement_Gcode(int elementNumber)
  37:Src/Gcode/Buffer_Gcode.c **** {
  38:Src/Gcode/Buffer_Gcode.c ****     if (elementNumber < 1) elementNumber = 1;
  39:Src/Gcode/Buffer_Gcode.c ****     if (elementNumber > 3) elementNumber = 3;
  40:Src/Gcode/Buffer_Gcode.c ****     return descreteBuffer[number(elementNumber)];
  41:Src/Gcode/Buffer_Gcode.c **** }
  42:Src/Gcode/Buffer_Gcode.c **** 
  43:Src/Gcode/Buffer_Gcode.c **** 
  44:Src/Gcode/Buffer_Gcode.c **** static command_Gcode commandBuffer[COMMAND_BUFFER_LENGTH];
  45:Src/Gcode/Buffer_Gcode.c **** 
  46:Src/Gcode/Buffer_Gcode.c **** static int firstOccupedElementCommandBuffer;
  47:Src/Gcode/Buffer_Gcode.c **** static int firstFreeElementCommandBuffer;
  48:Src/Gcode/Buffer_Gcode.c **** static _Bool commandBufferIsFull;
  49:Src/Gcode/Buffer_Gcode.c **** 
  50:Src/Gcode/Buffer_Gcode.c **** void createCommandBuffer_Gcode(void)
  51:Src/Gcode/Buffer_Gcode.c **** {
  52:Src/Gcode/Buffer_Gcode.c ****     int n;
  53:Src/Gcode/Buffer_Gcode.c ****     for (n=1; n<=COMMAND_BUFFER_LENGTH; n++)
  54:Src/Gcode/Buffer_Gcode.c ****         commandBuffer[number(n)] = defaultCommand;
  55:Src/Gcode/Buffer_Gcode.c ****     firstOccupedElementCommandBuffer = 1;
  56:Src/Gcode/Buffer_Gcode.c ****     firstFreeElementCommandBuffer = 1;
  57:Src/Gcode/Buffer_Gcode.c ****     commandBufferIsFull = false;
  58:Src/Gcode/Buffer_Gcode.c **** }
  59:Src/Gcode/Buffer_Gcode.c **** 
  60:Src/Gcode/Buffer_Gcode.c **** const command_Gcode getCommandBufferElement_Gcode(int elementNumber)
  61:Src/Gcode/Buffer_Gcode.c **** {
  62:Src/Gcode/Buffer_Gcode.c ****     if (elementNumber < 1) elementNumber = 1;
  63:Src/Gcode/Buffer_Gcode.c ****     if (elementNumber > COMMAND_BUFFER_LENGTH) elementNumber = COMMAND_BUFFER_LENGTH;
  64:Src/Gcode/Buffer_Gcode.c ****     return commandBuffer[number(elementNumber)];
  65:Src/Gcode/Buffer_Gcode.c **** }
  66:Src/Gcode/Buffer_Gcode.c **** 
ARM GAS  /tmp/ccMe0kQ8.s 			page 3


  67:Src/Gcode/Buffer_Gcode.c **** void firstInCommandBuffer_Gcode(command_Gcode command)
  68:Src/Gcode/Buffer_Gcode.c **** {
  69:Src/Gcode/Buffer_Gcode.c ****     if (commandBufferIsFull)
  70:Src/Gcode/Buffer_Gcode.c ****         return;
  71:Src/Gcode/Buffer_Gcode.c **** 
  72:Src/Gcode/Buffer_Gcode.c ****     commandBuffer[number(firstFreeElementCommandBuffer)] = command;
  73:Src/Gcode/Buffer_Gcode.c **** 
  74:Src/Gcode/Buffer_Gcode.c ****     firstFreeElementCommandBuffer++;
  75:Src/Gcode/Buffer_Gcode.c ****     if (firstFreeElementCommandBuffer > COMMAND_BUFFER_LENGTH)
  76:Src/Gcode/Buffer_Gcode.c ****         firstFreeElementCommandBuffer = firstFreeElementCommandBuffer - COMMAND_BUFFER_LENGTH;
  77:Src/Gcode/Buffer_Gcode.c ****     if (firstFreeElementCommandBuffer == firstOccupedElementCommandBuffer)
  78:Src/Gcode/Buffer_Gcode.c ****         commandBufferIsFull = true;
  79:Src/Gcode/Buffer_Gcode.c **** }
  80:Src/Gcode/Buffer_Gcode.c **** 
  81:Src/Gcode/Buffer_Gcode.c **** const command_Gcode firstOutCommandBuffer_Gcode(void)
  82:Src/Gcode/Buffer_Gcode.c **** {
  83:Src/Gcode/Buffer_Gcode.c ****     return commandBuffer[number(firstOccupedElementCommandBuffer)];
  84:Src/Gcode/Buffer_Gcode.c **** }
  85:Src/Gcode/Buffer_Gcode.c **** 
  86:Src/Gcode/Buffer_Gcode.c **** void eraseFirstCommandBuffer_Gcode(void)
  87:Src/Gcode/Buffer_Gcode.c **** {
  88:Src/Gcode/Buffer_Gcode.c ****     if (firstOccupedElementCommandBuffer == firstFreeElementCommandBuffer)
  89:Src/Gcode/Buffer_Gcode.c ****         if (!commandBufferIsFull)
  90:Src/Gcode/Buffer_Gcode.c ****             return;
  91:Src/Gcode/Buffer_Gcode.c **** 
  92:Src/Gcode/Buffer_Gcode.c ****     commandBuffer[number(firstOccupedElementCommandBuffer)] = defaultCommand;
  93:Src/Gcode/Buffer_Gcode.c **** 
  94:Src/Gcode/Buffer_Gcode.c ****     if (firstOccupedElementCommandBuffer == COMMAND_BUFFER_LENGTH)
  95:Src/Gcode/Buffer_Gcode.c ****         firstOccupedElementCommandBuffer = firstOccupedElementCommandBuffer - COMMAND_BUFFER_LENGTH
  96:Src/Gcode/Buffer_Gcode.c ****     firstOccupedElementCommandBuffer++;
  97:Src/Gcode/Buffer_Gcode.c ****     commandBufferIsFull = false;
  98:Src/Gcode/Buffer_Gcode.c **** }
  99:Src/Gcode/Buffer_Gcode.c **** 
 100:Src/Gcode/Buffer_Gcode.c **** const int checkFreeSpaceCommandBuffer_Gcode(void)
 101:Src/Gcode/Buffer_Gcode.c **** {
 102:Src/Gcode/Buffer_Gcode.c ****     if (firstFreeElementCommandBuffer == firstOccupedElementCommandBuffer)
 103:Src/Gcode/Buffer_Gcode.c ****         if (commandBufferIsFull)
 104:Src/Gcode/Buffer_Gcode.c ****             return 0;
 105:Src/Gcode/Buffer_Gcode.c **** 
 106:Src/Gcode/Buffer_Gcode.c ****     int occupedSpace = firstFreeElementCommandBuffer - firstOccupedElementCommandBuffer;
 107:Src/Gcode/Buffer_Gcode.c ****     if (occupedSpace < 0)
 108:Src/Gcode/Buffer_Gcode.c ****         occupedSpace = occupedSpace + COMMAND_BUFFER_LENGTH;
 109:Src/Gcode/Buffer_Gcode.c ****     int freeSpace = COMMAND_BUFFER_LENGTH - occupedSpace;
 110:Src/Gcode/Buffer_Gcode.c ****     return freeSpace;
 111:Src/Gcode/Buffer_Gcode.c **** }
 112:Src/Gcode/Buffer_Gcode.c **** 
 113:Src/Gcode/Buffer_Gcode.c **** _Bool enoghSpaceIsReservedCommandBuffer_Gcode(void)
 114:Src/Gcode/Buffer_Gcode.c **** {
 115:Src/Gcode/Buffer_Gcode.c ****     return checkFreeSpaceCommandBuffer_Gcode() > RESERVE_LENGTH;
 116:Src/Gcode/Buffer_Gcode.c **** }
 117:Src/Gcode/Buffer_Gcode.c **** 
 118:Src/Gcode/Buffer_Gcode.c **** static const float ACCELERATION_XY_STEPS_PER_SS = (float)ACCELERATION_MM_MIN_S_XY*(float)STEPS_PER_
 119:Src/Gcode/Buffer_Gcode.c **** static const float ACCELERATION_Z_STEPS_PER_SS = (float)ACCELERATION_MM_MIN_S_Z*(float)STEPS_PER_MM
 120:Src/Gcode/Buffer_Gcode.c **** static const float MAX_SPEED_XY_STEPS_PER_SECOND = (float)MAX_SPEED_MM_MIN_XY*(float)STEPS_PER_MM_X
 121:Src/Gcode/Buffer_Gcode.c **** static const float MAX_SPEED_Z_STEPS_PER_SECOND = (float)MAX_SPEED_MM_MIN_Z*(float)STEPS_PER_MM_Z/(
 122:Src/Gcode/Buffer_Gcode.c **** static const float MAX_SPEED_E_STEPS_PER_SECOND = (float)MAX_SPEED_MM_MIN_E*(float)STEPS_PER_MM_E/(
 123:Src/Gcode/Buffer_Gcode.c **** 
ARM GAS  /tmp/ccMe0kQ8.s 			page 4


 124:Src/Gcode/Buffer_Gcode.c **** static long sign(float x)
 125:Src/Gcode/Buffer_Gcode.c **** {
  52              		.loc 1 125 1 is_stmt 1 view -0
  53              		.cfi_startproc
  54              		@ args = 0, pretend = 0, frame = 0
  55              		@ frame_needed = 0, uses_anonymous_args = 0
  56              		.loc 1 125 1 is_stmt 0 view .LVU5
  57 0000 08B5     		push	{r3, lr}
  58              	.LCFI0:
  59              		.cfi_def_cfa_offset 8
  60              		.cfi_offset 3, -8
  61              		.cfi_offset 14, -4
 126:Src/Gcode/Buffer_Gcode.c ****     if (x<0)
  62              		.loc 1 126 5 is_stmt 1 view .LVU6
  63              		.loc 1 126 8 is_stmt 0 view .LVU7
  64 0002 0021     		movs	r1, #0
  65 0004 FFF7FEFF 		bl	__aeabi_fcmplt
  66              	.LVL3:
  67              		.loc 1 126 8 view .LVU8
  68 0008 08B9     		cbnz	r0, .L4
 127:Src/Gcode/Buffer_Gcode.c ****         return -1;
 128:Src/Gcode/Buffer_Gcode.c ****     return 1;
  69              		.loc 1 128 12 view .LVU9
  70 000a 0120     		movs	r0, #1
  71              	.L2:
 129:Src/Gcode/Buffer_Gcode.c **** }
  72              		.loc 1 129 1 view .LVU10
  73 000c 08BD     		pop	{r3, pc}
  74              	.L4:
 127:Src/Gcode/Buffer_Gcode.c ****         return -1;
  75              		.loc 1 127 16 view .LVU11
  76 000e 4FF0FF30 		mov	r0, #-1
  77 0012 FBE7     		b	.L2
  78              		.cfi_endproc
  79              	.LFE12:
  81              		.global	__aeabi_fsub
  82              		.global	__aeabi_fdiv
  83              		.global	__aeabi_fmul
  84              		.global	__aeabi_fadd
  85              		.section	.text.distanceStartFastMove,"ax",%progbits
  86              		.align	1
  87              		.syntax unified
  88              		.thumb
  89              		.thumb_func
  90              		.fpu softvfp
  92              	distanceStartFastMove:
  93              	.LVL4:
  94              	.LFB16:
 130:Src/Gcode/Buffer_Gcode.c **** 
 131:Src/Gcode/Buffer_Gcode.c **** static const command_Gcode lastCommand(void)
 132:Src/Gcode/Buffer_Gcode.c **** {
 133:Src/Gcode/Buffer_Gcode.c ****     int number;
 134:Src/Gcode/Buffer_Gcode.c ****     number = firstFreeElementCommandBuffer - 1;
 135:Src/Gcode/Buffer_Gcode.c ****     if (number == 0)
 136:Src/Gcode/Buffer_Gcode.c ****         number = COMMAND_BUFFER_LENGTH;
 137:Src/Gcode/Buffer_Gcode.c ****     return getCommandBufferElement_Gcode(number);
 138:Src/Gcode/Buffer_Gcode.c **** }
ARM GAS  /tmp/ccMe0kQ8.s 			page 5


 139:Src/Gcode/Buffer_Gcode.c **** 
 140:Src/Gcode/Buffer_Gcode.c **** static _Bool conserveSpeedStart(long Xn, long Yn, long Zn)
 141:Src/Gcode/Buffer_Gcode.c **** {
 142:Src/Gcode/Buffer_Gcode.c ****     if (firstOccupedElementCommandBuffer == firstFreeElementCommandBuffer)
 143:Src/Gcode/Buffer_Gcode.c ****         return false;
 144:Src/Gcode/Buffer_Gcode.c ****     if (lastCommand().type != MOVE_COMMAND)
 145:Src/Gcode/Buffer_Gcode.c ****         return false;
 146:Src/Gcode/Buffer_Gcode.c ****     long XnPrevious = lastCommand().dXn;
 147:Src/Gcode/Buffer_Gcode.c ****     long YnPrevious = lastCommand().dYn;
 148:Src/Gcode/Buffer_Gcode.c ****     float xy1xy2 = (float)XnPrevious*(float)Xn + (float)YnPrevious*(float)Yn;
 149:Src/Gcode/Buffer_Gcode.c ****     float xy1xy1 = (float)XnPrevious*(float)XnPrevious + (float)YnPrevious*(float)YnPrevious;
 150:Src/Gcode/Buffer_Gcode.c ****     float xy2xy2 = (float)Xn*(float)Xn + (float)Yn*(float)Yn;
 151:Src/Gcode/Buffer_Gcode.c ****     float xy1xy2Critical = sqrtf(xy1xy1)*sqrtf(xy2xy2)*cos(3.14*(float)CRITICAL_ANGLE_XY/180.0);
 152:Src/Gcode/Buffer_Gcode.c ****     if (xy1xy2 < xy1xy2Critical)
 153:Src/Gcode/Buffer_Gcode.c ****         return false;
 154:Src/Gcode/Buffer_Gcode.c ****     return true;
 155:Src/Gcode/Buffer_Gcode.c **** }
 156:Src/Gcode/Buffer_Gcode.c **** 
 157:Src/Gcode/Buffer_Gcode.c **** static _Bool conserveSpeedFinish(long Xn, long Yn, long Zn)
 158:Src/Gcode/Buffer_Gcode.c **** {
 159:Src/Gcode/Buffer_Gcode.c ****     if (getDescreteCommandBufferElement_Gcode(3).type != MOVE_COMMAND)
 160:Src/Gcode/Buffer_Gcode.c ****         return false;
 161:Src/Gcode/Buffer_Gcode.c ****     long XnNext = getDescreteCommandBufferElement_Gcode(3).Xn - getDescreteCommandBufferElement_Gco
 162:Src/Gcode/Buffer_Gcode.c ****     long YnNext = getDescreteCommandBufferElement_Gcode(3).Yn - getDescreteCommandBufferElement_Gco
 163:Src/Gcode/Buffer_Gcode.c ****     float xy1xy2 = (float)XnNext*(float)Xn + (float)YnNext*(float)Yn;
 164:Src/Gcode/Buffer_Gcode.c ****     float xy1xy1 = (float)XnNext*(float)XnNext + (float)YnNext*(float)YnNext;
 165:Src/Gcode/Buffer_Gcode.c ****     float xy2xy2 = (float)Xn*(float)Xn + (float)Yn*(float)Yn;
 166:Src/Gcode/Buffer_Gcode.c ****     float xy1xy2Critical = sqrtf(xy1xy1)*sqrtf(xy2xy2)*cos(3.14*(float)CRITICAL_ANGLE_XY/180.0);
 167:Src/Gcode/Buffer_Gcode.c ****     if (xy1xy2 < xy1xy2Critical)
 168:Src/Gcode/Buffer_Gcode.c ****         return false;
 169:Src/Gcode/Buffer_Gcode.c ****     return true;
 170:Src/Gcode/Buffer_Gcode.c **** }
 171:Src/Gcode/Buffer_Gcode.c **** 
 172:Src/Gcode/Buffer_Gcode.c **** static float distanceStartFastMove(float totalDistance, float speedStart, float speedFinish, float 
 173:Src/Gcode/Buffer_Gcode.c **** {
  95              		.loc 1 173 1 is_stmt 1 view -0
  96              		.cfi_startproc
  97              		@ args = 4, pretend = 0, frame = 0
  98              		@ frame_needed = 0, uses_anonymous_args = 0
  99              		.loc 1 173 1 is_stmt 0 view .LVU13
 100 0000 2DE9F041 		push	{r4, r5, r6, r7, r8, lr}
 101              	.LCFI1:
 102              		.cfi_def_cfa_offset 24
 103              		.cfi_offset 4, -24
 104              		.cfi_offset 5, -20
 105              		.cfi_offset 6, -16
 106              		.cfi_offset 7, -12
 107              		.cfi_offset 8, -8
 108              		.cfi_offset 14, -4
 109 0004 0746     		mov	r7, r0
 110 0006 0D46     		mov	r5, r1
 111 0008 1646     		mov	r6, r2
 112 000a DDF81880 		ldr	r8, [sp, #24]	@ float
 174:Src/Gcode/Buffer_Gcode.c ****     float distance_float;
 113              		.loc 1 174 5 is_stmt 1 view .LVU14
 175:Src/Gcode/Buffer_Gcode.c ****     distance_float = (float)totalDistance*(accelerationFinish/(accelerationFinish-accelerationStart
 114              		.loc 1 175 5 view .LVU15
ARM GAS  /tmp/ccMe0kQ8.s 			page 6


 115              		.loc 1 175 82 is_stmt 0 view .LVU16
 116 000e 1946     		mov	r1, r3
 117              	.LVL5:
 118              		.loc 1 175 82 view .LVU17
 119 0010 4046     		mov	r0, r8
 120              	.LVL6:
 121              		.loc 1 175 82 view .LVU18
 122 0012 FFF7FEFF 		bl	__aeabi_fsub
 123              	.LVL7:
 124              		.loc 1 175 82 view .LVU19
 125 0016 0446     		mov	r4, r0
 126              		.loc 1 175 62 view .LVU20
 127 0018 0146     		mov	r1, r0
 128 001a 4046     		mov	r0, r8
 129 001c FFF7FEFF 		bl	__aeabi_fdiv
 130              	.LVL8:
 131              		.loc 1 175 42 view .LVU21
 132 0020 3946     		mov	r1, r7
 133 0022 FFF7FEFF 		bl	__aeabi_fmul
 134              	.LVL9:
 135 0026 0746     		mov	r7, r0
 136              	.LVL10:
 176:Src/Gcode/Buffer_Gcode.c ****                     +(speedFinish*speedFinish-speedStart*speedStart)/(2*(accelerationFinish-acceler
 137              		.loc 1 176 34 view .LVU22
 138 0028 3146     		mov	r1, r6
 139 002a 3046     		mov	r0, r6
 140 002c FFF7FEFF 		bl	__aeabi_fmul
 141              	.LVL11:
 142 0030 0646     		mov	r6, r0
 143              	.LVL12:
 144              		.loc 1 176 57 view .LVU23
 145 0032 2946     		mov	r1, r5
 146 0034 2846     		mov	r0, r5
 147 0036 FFF7FEFF 		bl	__aeabi_fmul
 148              	.LVL13:
 149 003a 0146     		mov	r1, r0
 150              		.loc 1 176 46 view .LVU24
 151 003c 3046     		mov	r0, r6
 152 003e FFF7FEFF 		bl	__aeabi_fsub
 153              	.LVL14:
 154 0042 0546     		mov	r5, r0
 155              	.LVL15:
 156              		.loc 1 176 72 view .LVU25
 157 0044 2146     		mov	r1, r4
 158 0046 2046     		mov	r0, r4
 159 0048 FFF7FEFF 		bl	__aeabi_fadd
 160              	.LVL16:
 161 004c 0146     		mov	r1, r0
 162              		.loc 1 176 69 view .LVU26
 163 004e 2846     		mov	r0, r5
 164 0050 FFF7FEFF 		bl	__aeabi_fdiv
 165              	.LVL17:
 166 0054 0146     		mov	r1, r0
 175:Src/Gcode/Buffer_Gcode.c ****     distance_float = (float)totalDistance*(accelerationFinish/(accelerationFinish-accelerationStart
 167              		.loc 1 175 20 view .LVU27
 168 0056 3846     		mov	r0, r7
 169 0058 FFF7FEFF 		bl	__aeabi_fadd
ARM GAS  /tmp/ccMe0kQ8.s 			page 7


 170              	.LVL18:
 177:Src/Gcode/Buffer_Gcode.c ****     return distance_float;
 171              		.loc 1 177 5 is_stmt 1 view .LVU28
 178:Src/Gcode/Buffer_Gcode.c **** }
 172              		.loc 1 178 1 is_stmt 0 view .LVU29
 173 005c BDE8F081 		pop	{r4, r5, r6, r7, r8, pc}
 174              		.loc 1 178 1 view .LVU30
 175              		.cfi_endproc
 176              	.LFE16:
 178              		.section	.text.lastCommandNumber,"ax",%progbits
 179              		.align	1
 180              		.syntax unified
 181              		.thumb
 182              		.thumb_func
 183              		.fpu softvfp
 185              	lastCommandNumber:
 186              	.LFB30:
 179:Src/Gcode/Buffer_Gcode.c **** 
 180:Src/Gcode/Buffer_Gcode.c **** static float speedMaxFastMove(float totalDistance, float speedStart, float speedFinish, float accel
 181:Src/Gcode/Buffer_Gcode.c **** {
 182:Src/Gcode/Buffer_Gcode.c ****     float speed;
 183:Src/Gcode/Buffer_Gcode.c ****     speed = (float)sign(totalDistance)*sqrt(
 184:Src/Gcode/Buffer_Gcode.c ****                 (float)totalDistance*(2*accelerationStart*accelerationFinish/(accelerationFinish-ac
 185:Src/Gcode/Buffer_Gcode.c ****                 -(speedFinish*speedFinish*accelerationStart-speedStart*speedStart*accelerationFinis
 186:Src/Gcode/Buffer_Gcode.c ****                 );
 187:Src/Gcode/Buffer_Gcode.c ****     return speed;
 188:Src/Gcode/Buffer_Gcode.c **** }
 189:Src/Gcode/Buffer_Gcode.c **** 
 190:Src/Gcode/Buffer_Gcode.c **** static void MoveXY_Analyser(void)
 191:Src/Gcode/Buffer_Gcode.c **** {
 192:Src/Gcode/Buffer_Gcode.c ****     long Xn = getDescreteCommandBufferElement_Gcode(2).Xn - getDescreteCommandBufferElement_Gcode(1
 193:Src/Gcode/Buffer_Gcode.c ****     long Yn = getDescreteCommandBufferElement_Gcode(2).Yn - getDescreteCommandBufferElement_Gcode(1
 194:Src/Gcode/Buffer_Gcode.c ****     long En = getDescreteCommandBufferElement_Gcode(2).En - getDescreteCommandBufferElement_Gcode(1
 195:Src/Gcode/Buffer_Gcode.c ****     float distance_XY = sqrtf(pow(Xn,2)+pow(Yn,2)); float cosX = (float)Xn/distance_XY; float cosY 
 196:Src/Gcode/Buffer_Gcode.c ****     float speedTarget = getDescreteCommandBufferElement_Gcode(2).FnXY;  if ( getDescreteCommandBuff
 197:Src/Gcode/Buffer_Gcode.c ****     if (En != 0) if ( fabs(speedTarget*cosE) > MAX_SPEED_E_STEPS_PER_SECOND ) speedTarget = sign(sp
 198:Src/Gcode/Buffer_Gcode.c ****     float speedStart = 0;                                               if ( conserveSpeedStart(Xn,
 199:Src/Gcode/Buffer_Gcode.c ****     float speedFinish = 0;                                              if ( conserveSpeedFinish(Xn
 200:Src/Gcode/Buffer_Gcode.c ****     float accelerationStart = ACCELERATION_XY_STEPS_PER_SS*sign(speedTarget-speedStart);
 201:Src/Gcode/Buffer_Gcode.c ****     float accelerationFinish = ACCELERATION_XY_STEPS_PER_SS*sign(speedFinish-speedTarget);
 202:Src/Gcode/Buffer_Gcode.c ****     float LnStart  = 0.5*(pow(speedTarget,2)-pow(speedStart,2))/accelerationStart;
 203:Src/Gcode/Buffer_Gcode.c ****     float LnFinish = 0.5*(pow(speedFinish,2)-pow(speedTarget,2))/accelerationFinish;
 204:Src/Gcode/Buffer_Gcode.c ****     float LnMiddle = distance_XY - LnStart - LnFinish;
 205:Src/Gcode/Buffer_Gcode.c ****     if( LnMiddle < 0 )
 206:Src/Gcode/Buffer_Gcode.c ****     {
 207:Src/Gcode/Buffer_Gcode.c ****         if( conserveSpeedFinish(Xn, Yn, 0) )
 208:Src/Gcode/Buffer_Gcode.c ****         {
 209:Src/Gcode/Buffer_Gcode.c ****             long x1 = Xn;                           long y1 = Yn;                           long e1
 210:Src/Gcode/Buffer_Gcode.c ****             float vX1 = speedStart*cosX;            float vY1 = speedStart*cosY;            float v
 211:Src/Gcode/Buffer_Gcode.c ****             float aX1 = accelerationStart*cosX;     float aY1 = accelerationStart*cosY;     float a
 212:Src/Gcode/Buffer_Gcode.c ****             command_Gcode command1 = {MOVE_COMMAND, x1, y1, 0, e1,    vX1, vY1, 0, vE1,    aX1, aY1
 213:Src/Gcode/Buffer_Gcode.c ****         }
 214:Src/Gcode/Buffer_Gcode.c ****         if( conserveSpeedStart(Xn, Yn, 0) )
 215:Src/Gcode/Buffer_Gcode.c ****         {
 216:Src/Gcode/Buffer_Gcode.c ****             long x1 = Xn;                           long y1 = Yn;                           long e1
 217:Src/Gcode/Buffer_Gcode.c ****             float vX1 = speedStart*cosX;            float vY1 = speedStart*cosY;            float v
 218:Src/Gcode/Buffer_Gcode.c ****             float aX1 = accelerationFinish*cosX;    float aY1 = accelerationFinish*cosY;    float a
ARM GAS  /tmp/ccMe0kQ8.s 			page 8


 219:Src/Gcode/Buffer_Gcode.c ****             command_Gcode command1 = {MOVE_COMMAND, x1, y1, 0, e1,    vX1, vY1, 0, vE1,    aX1, aY1
 220:Src/Gcode/Buffer_Gcode.c ****         }
 221:Src/Gcode/Buffer_Gcode.c ****         float distance_XY_buffer = distanceStartFastMove(distance_XY, speedStart, speedFinish, acce
 222:Src/Gcode/Buffer_Gcode.c ****         float speed_XY_buffer = speedMaxFastMove(distance_XY, speedStart, speedFinish, acceleration
 223:Src/Gcode/Buffer_Gcode.c ****         long x1 = lroundf(distance_XY_buffer*cosX); long y1 = lroundf(distance_XY_buffer*cosY);    
 224:Src/Gcode/Buffer_Gcode.c ****         float vX1 = speedStart*cosX;                float vY1 = speedStart*cosY;                   
 225:Src/Gcode/Buffer_Gcode.c ****         float aX1 = accelerationStart*cosX;         float aY1 = accelerationStart*cosY;            
 226:Src/Gcode/Buffer_Gcode.c ****         command_Gcode command1 = {MOVE_COMMAND, x1, y1, 0, e1,    vX1, vY1, 0, vE1,    aX1, aY1, 0,
 227:Src/Gcode/Buffer_Gcode.c ****         long x2 = Xn - x1;                          long y2 = Yn - y1;                             
 228:Src/Gcode/Buffer_Gcode.c ****         float vX2 = speed_XY_buffer*cosX;           float vY2 = speed_XY_buffer*cosY;              
 229:Src/Gcode/Buffer_Gcode.c ****         float aX2 = accelerationFinish*cosX;        float aY2 = accelerationFinish*cosY;           
 230:Src/Gcode/Buffer_Gcode.c ****         command_Gcode command2 = {MOVE_COMMAND, x2, y2, 0, e2,    vX2, vY2, 0, vE2,    aX2, aY2, 0,
 231:Src/Gcode/Buffer_Gcode.c ****     }
 232:Src/Gcode/Buffer_Gcode.c ****     long x1 = lroundf(LnStart*cosX);        long y1 = lroundf(LnStart*cosY);        long e1 = lroun
 233:Src/Gcode/Buffer_Gcode.c ****     float vX1 = speedStart*cosX;            float vY1 = speedStart*cosY;            float vE1 = spe
 234:Src/Gcode/Buffer_Gcode.c ****     float aX1 = accelerationStart*cosX;     float aY1 = accelerationStart*cosY;     float aE1 = acc
 235:Src/Gcode/Buffer_Gcode.c ****     command_Gcode command1 = {MOVE_COMMAND, x1, y1, 0, e1,    vX1, vY1, 0, vE1,    aX1, aY1, 0, aE1
 236:Src/Gcode/Buffer_Gcode.c ****     long x2 = lroundf(LnMiddle*cosX);       long y2 = lroundf(LnMiddle*cosY);       long e2 = lroun
 237:Src/Gcode/Buffer_Gcode.c ****     float vX2 = speedTarget*cosX;           float vY2 = speedTarget*cosY;           float vE2 = spe
 238:Src/Gcode/Buffer_Gcode.c ****     float aX2 = 0;                          float aY2 = 0;                          float aE2 = 0;
 239:Src/Gcode/Buffer_Gcode.c ****     command_Gcode command2 = {MOVE_COMMAND, x2, y2, 0, e2,    vX2, vY2, 0, vE2,    aX2, aY2, 0, aE2
 240:Src/Gcode/Buffer_Gcode.c ****     long x3 = Xn - x1 - x2;                 long y3 = Yn - y2 - y1;                 long e3 = En - 
 241:Src/Gcode/Buffer_Gcode.c ****     float vX3 = speedTarget*cosX;           float vY3 = speedTarget*cosY;           float vE3 = spe
 242:Src/Gcode/Buffer_Gcode.c ****     float aX3 = accelerationFinish*cosX;    float aY3 = accelerationFinish*cosY;    float aE3 = acc
 243:Src/Gcode/Buffer_Gcode.c ****     command_Gcode command3 = {MOVE_COMMAND, x3, y3, 0, e3,    vX3, vY3, 0, vE3,    aX3, aY3, 0, aE3
 244:Src/Gcode/Buffer_Gcode.c **** }
 245:Src/Gcode/Buffer_Gcode.c **** 
 246:Src/Gcode/Buffer_Gcode.c **** static void MoveE_Analyser(void)
 247:Src/Gcode/Buffer_Gcode.c **** {
 248:Src/Gcode/Buffer_Gcode.c ****     long En = getDescreteCommandBufferElement_Gcode(2).En - getDescreteCommandBufferElement_Gcode(1
 249:Src/Gcode/Buffer_Gcode.c ****     float speedTarget = sign(En)*getDescreteCommandBufferElement_Gcode(2).FnE;
 250:Src/Gcode/Buffer_Gcode.c ****     if (getDescreteCommandBufferElement_Gcode(2).FnE > MAX_SPEED_E_STEPS_PER_SECOND) speedTarget = 
 251:Src/Gcode/Buffer_Gcode.c ****     long e1 = En;
 252:Src/Gcode/Buffer_Gcode.c ****     float vE1 = speedTarget;
 253:Src/Gcode/Buffer_Gcode.c ****     command_Gcode command1 = {MOVE_COMMAND, 0, 0, 0, e1,    0, 0, 0, vE1,    0, 0, 0,   0, 0}; firs
 254:Src/Gcode/Buffer_Gcode.c **** }
 255:Src/Gcode/Buffer_Gcode.c **** 
 256:Src/Gcode/Buffer_Gcode.c **** static void MoveZ_Analyser(void)
 257:Src/Gcode/Buffer_Gcode.c **** {
 258:Src/Gcode/Buffer_Gcode.c **** 
 259:Src/Gcode/Buffer_Gcode.c ****     long Zn = getDescreteCommandBufferElement_Gcode(2).Zn - getDescreteCommandBufferElement_Gcode(1
 260:Src/Gcode/Buffer_Gcode.c ****     float speedTarget = getDescreteCommandBufferElement_Gcode(2).FnZ;
 261:Src/Gcode/Buffer_Gcode.c ****     if ( getDescreteCommandBufferElement_Gcode(2).FnZ > MAX_SPEED_Z_STEPS_PER_SECOND ) speedTarget 
 262:Src/Gcode/Buffer_Gcode.c ****     float speedStart = 0;
 263:Src/Gcode/Buffer_Gcode.c ****     float speedFinish = 0;
 264:Src/Gcode/Buffer_Gcode.c ****     float accelerationStart = ACCELERATION_Z_STEPS_PER_SS*sign(speedTarget-speedStart);
 265:Src/Gcode/Buffer_Gcode.c ****     float accelerationFinish = ACCELERATION_Z_STEPS_PER_SS*sign(speedFinish-speedTarget);
 266:Src/Gcode/Buffer_Gcode.c ****     float LnStart  = 0.5*(pow(speedTarget,2)-pow(speedStart,2))/accelerationStart;
 267:Src/Gcode/Buffer_Gcode.c ****     float LnFinish = 0.5*(pow(speedFinish,2)-pow(speedTarget,2))/accelerationFinish;
 268:Src/Gcode/Buffer_Gcode.c ****     float LnMiddle = (float)abs(Zn) - LnStart - LnFinish;
 269:Src/Gcode/Buffer_Gcode.c ****     if( LnMiddle < 0 )
 270:Src/Gcode/Buffer_Gcode.c ****     {
 271:Src/Gcode/Buffer_Gcode.c ****         float distance_Z_buffer = distanceStartFastMove( (float)abs(Zn), speedStart, speedFinish, a
 272:Src/Gcode/Buffer_Gcode.c ****         float speed_Z_buffer = speedMaxFastMove( (float)abs(Zn), speedStart, speedFinish, accelerat
 273:Src/Gcode/Buffer_Gcode.c ****         long z1 = lroundf(distance_Z_buffer*sign(Zn));
 274:Src/Gcode/Buffer_Gcode.c ****         float vZ1 = speedStart;
 275:Src/Gcode/Buffer_Gcode.c ****         float aZ1 = accelerationStart*sign(Zn);
ARM GAS  /tmp/ccMe0kQ8.s 			page 9


 276:Src/Gcode/Buffer_Gcode.c ****         command_Gcode command1 = {MOVE_COMMAND, 0, 0, z1, 0,    0, 0, vZ1, 0,    0, 0, aZ1, 0,   0,
 277:Src/Gcode/Buffer_Gcode.c ****         long z2 = Zn - z1;
 278:Src/Gcode/Buffer_Gcode.c ****         float vZ2 = speed_Z_buffer*sign(Zn);
 279:Src/Gcode/Buffer_Gcode.c ****         float aZ2 = accelerationFinish*sign(Zn);
 280:Src/Gcode/Buffer_Gcode.c ****         command_Gcode command2 = {MOVE_COMMAND, 0, 0, z2, 0,    0, 0, vZ2, 0,    0, 0, aZ2, 0,   0,
 281:Src/Gcode/Buffer_Gcode.c ****     }
 282:Src/Gcode/Buffer_Gcode.c ****     long z1 = lroundf(LnStart*sign(Zn));
 283:Src/Gcode/Buffer_Gcode.c ****     float vZ1 = speedStart*sign(Zn);
 284:Src/Gcode/Buffer_Gcode.c ****     float aZ1 = accelerationStart*sign(Zn);
 285:Src/Gcode/Buffer_Gcode.c ****     command_Gcode command1 = {MOVE_COMMAND, 0, 0, z1, 0,    0, 0, vZ1, 0,    0, 0, aZ1, 0,   0, 0};
 286:Src/Gcode/Buffer_Gcode.c ****     long z2 = lroundf(LnMiddle*sign(Zn));
 287:Src/Gcode/Buffer_Gcode.c ****     float vZ2 = speedTarget*sign(Zn);
 288:Src/Gcode/Buffer_Gcode.c ****     float aZ2 = 0;
 289:Src/Gcode/Buffer_Gcode.c ****     command_Gcode command2 = {MOVE_COMMAND, 0, 0, z2, 0,    0, 0, vZ2, 0,    0, 0, aZ2, 0,   0, 0};
 290:Src/Gcode/Buffer_Gcode.c ****     long z3 = Zn - z1 - z2;
 291:Src/Gcode/Buffer_Gcode.c ****     float vZ3 = speedTarget*sign(Zn);
 292:Src/Gcode/Buffer_Gcode.c ****     float aZ3 = accelerationFinish*sign(Zn);
 293:Src/Gcode/Buffer_Gcode.c ****     command_Gcode command3 = {MOVE_COMMAND, 0, 0, z3, 0,    0, 0, vZ3, 0,    0, 0, aZ3, 0,   0, 0};
 294:Src/Gcode/Buffer_Gcode.c **** }
 295:Src/Gcode/Buffer_Gcode.c **** 
 296:Src/Gcode/Buffer_Gcode.c **** static const float HOME_COARSE_SPEED_XY_STEPS_PER_SECOND = (float)HOME_COARSE_SPEED*(float)STEPS_PE
 297:Src/Gcode/Buffer_Gcode.c **** static const float HOME_COARSE_SPEED_Z_STEPS_PER_SECOND = (float)HOME_COARSE_SPEED*(float)STEPS_PER
 298:Src/Gcode/Buffer_Gcode.c **** static const float HOME_FINE_SPEED_XY_STEPS_PER_SECOND = (float)HOME_FINE_SPEED*(float)STEPS_PER_MM
 299:Src/Gcode/Buffer_Gcode.c **** static const float HOME_FINE_SPEED_Z_STEPS_PER_SECOND = (float)HOME_FINE_SPEED*(float)STEPS_PER_MM_
 300:Src/Gcode/Buffer_Gcode.c **** static const long  HOME_FINE_STEPS_XY = HOME_FINE_DISTANCE*STEPS_PER_MM_XY;
 301:Src/Gcode/Buffer_Gcode.c **** static const long  HOME_FINE_STEPS_Z = HOME_FINE_DISTANCE*STEPS_PER_MM_Z;
 302:Src/Gcode/Buffer_Gcode.c **** 
 303:Src/Gcode/Buffer_Gcode.c **** 
 304:Src/Gcode/Buffer_Gcode.c **** static void HomeX_Analyser(void)
 305:Src/Gcode/Buffer_Gcode.c **** {
 306:Src/Gcode/Buffer_Gcode.c ****     long dXn = getDescreteCommandBufferElement_Gcode(2).Xn;
 307:Src/Gcode/Buffer_Gcode.c ****     long x; float v; float a;
 308:Src/Gcode/Buffer_Gcode.c **** 
 309:Src/Gcode/Buffer_Gcode.c ****     long  L_HOME_XY = lroundf(pow(HOME_COARSE_SPEED_XY_STEPS_PER_SECOND,2)/(2*ACCELERATION_XY_STEPS
 310:Src/Gcode/Buffer_Gcode.c **** 
 311:Src/Gcode/Buffer_Gcode.c ****     x = 0;                          v = -HOME_COARSE_SPEED_XY_STEPS_PER_SECOND;         a = 0;
 312:Src/Gcode/Buffer_Gcode.c ****     command_Gcode command1 = {GO_HOME_X_COMMAND, x, 0, 0, 0,    v, 0, 0, 0,    a, 0, 0, 0,   0, 0};
 313:Src/Gcode/Buffer_Gcode.c ****     x = HOME_FINE_STEPS_XY;         v = HOME_COARSE_SPEED_XY_STEPS_PER_SECOND;          a = 0;
 314:Src/Gcode/Buffer_Gcode.c ****     command_Gcode command2 = {MOVE_COMMAND,      x, 0, 0, 0,    v, 0, 0, 0,    a, 0, 0, 0,   0, 0};
 315:Src/Gcode/Buffer_Gcode.c ****     x = 0;                          v = -HOME_FINE_SPEED_XY_STEPS_PER_SECOND;           a = 0;
 316:Src/Gcode/Buffer_Gcode.c ****     command_Gcode command3 = {GO_HOME_X_COMMAND, x, 0, 0, 0,    v, 0, 0, 0,    a, 0, 0, 0,   0, 0};
 317:Src/Gcode/Buffer_Gcode.c ****     if (dXn <= 0)
 318:Src/Gcode/Buffer_Gcode.c ****         return;
 319:Src/Gcode/Buffer_Gcode.c **** 
 320:Src/Gcode/Buffer_Gcode.c ****     if (dXn < 2*L_HOME_XY)
 321:Src/Gcode/Buffer_Gcode.c ****     {
 322:Src/Gcode/Buffer_Gcode.c ****         long  xStar = lroundf(0.25+(float)dXn/2);
 323:Src/Gcode/Buffer_Gcode.c ****         float vStar = sqrtf(2*ACCELERATION_XY_STEPS_PER_SS*xStar);
 324:Src/Gcode/Buffer_Gcode.c ****         x = xStar;                  v = 0;                                              a = ACCELER
 325:Src/Gcode/Buffer_Gcode.c ****         command_Gcode command4 = {MOVE_COMMAND,      x, 0, 0, 0,    v, 0, 0, 0,    a, 0, 0, 0,   0,
 326:Src/Gcode/Buffer_Gcode.c ****         x = dXn-xStar;              v = vStar;                                          a = -ACCELE
 327:Src/Gcode/Buffer_Gcode.c ****         command_Gcode command5 = {MOVE_COMMAND,      x, 0, 0, 0,    v, 0, 0, 0,    a, 0, 0, 0,   0,
 328:Src/Gcode/Buffer_Gcode.c ****         return;
 329:Src/Gcode/Buffer_Gcode.c ****     }
 330:Src/Gcode/Buffer_Gcode.c **** 
 331:Src/Gcode/Buffer_Gcode.c ****     x = L_HOME_XY;              v = 0;                                              a = ACCELERATIO
 332:Src/Gcode/Buffer_Gcode.c ****     command_Gcode command4 = {MOVE_COMMAND,      x, 0, 0, 0,    v, 0, 0, 0,    a, 0, 0, 0,   0, 0};
ARM GAS  /tmp/ccMe0kQ8.s 			page 10


 333:Src/Gcode/Buffer_Gcode.c ****     x = dXn-2*L_HOME_XY;        v = HOME_COARSE_SPEED_XY_STEPS_PER_SECOND;          a = 0;
 334:Src/Gcode/Buffer_Gcode.c ****     command_Gcode command5 = {MOVE_COMMAND,      x, 0, 0, 0,    v, 0, 0, 0,    a, 0, 0, 0,   0, 0};
 335:Src/Gcode/Buffer_Gcode.c ****     x = L_HOME_XY;              v = HOME_COARSE_SPEED_XY_STEPS_PER_SECOND;          a = -ACCELERATI
 336:Src/Gcode/Buffer_Gcode.c ****     command_Gcode command6 = {MOVE_COMMAND,      x, 0, 0, 0,    v, 0, 0, 0,    a, 0, 0, 0,   0, 0};
 337:Src/Gcode/Buffer_Gcode.c **** }
 338:Src/Gcode/Buffer_Gcode.c **** 
 339:Src/Gcode/Buffer_Gcode.c **** static void HomeY_Analyser(void)
 340:Src/Gcode/Buffer_Gcode.c **** {
 341:Src/Gcode/Buffer_Gcode.c ****     long dYn = getDescreteCommandBufferElement_Gcode(2).Yn;
 342:Src/Gcode/Buffer_Gcode.c ****     long y; float v; float a;
 343:Src/Gcode/Buffer_Gcode.c **** 
 344:Src/Gcode/Buffer_Gcode.c ****     long  L_HOME_XY = lroundf(pow(HOME_COARSE_SPEED_XY_STEPS_PER_SECOND,2)/(2*ACCELERATION_XY_STEPS
 345:Src/Gcode/Buffer_Gcode.c **** 
 346:Src/Gcode/Buffer_Gcode.c ****     y = 0;                          v = -HOME_COARSE_SPEED_XY_STEPS_PER_SECOND;         a = 0;
 347:Src/Gcode/Buffer_Gcode.c ****     command_Gcode command1 = {GO_HOME_Y_COMMAND, 0, y, 0, 0,    0, v, 0, 0,    0, a, 0, 0,   0, 0};
 348:Src/Gcode/Buffer_Gcode.c ****     y = HOME_FINE_STEPS_XY;         v = HOME_COARSE_SPEED_XY_STEPS_PER_SECOND;          a = 0;
 349:Src/Gcode/Buffer_Gcode.c ****     command_Gcode command2 = {MOVE_COMMAND,      0, y, 0, 0,    0, v, 0, 0,    0, a, 0, 0,   0, 0};
 350:Src/Gcode/Buffer_Gcode.c ****     y = 0;                          v = -HOME_FINE_SPEED_XY_STEPS_PER_SECOND;           a = 0;
 351:Src/Gcode/Buffer_Gcode.c ****     command_Gcode command3 = {GO_HOME_Y_COMMAND, 0, y, 0, 0,    0, v, 0, 0,    0, a, 0, 0,   0, 0};
 352:Src/Gcode/Buffer_Gcode.c ****     if (dYn <= 0)
 353:Src/Gcode/Buffer_Gcode.c ****         return;
 354:Src/Gcode/Buffer_Gcode.c **** 
 355:Src/Gcode/Buffer_Gcode.c ****     if (dYn < 2*L_HOME_XY)
 356:Src/Gcode/Buffer_Gcode.c ****     {
 357:Src/Gcode/Buffer_Gcode.c ****         long  yStar = lroundf(0.25+(float)dYn/2);
 358:Src/Gcode/Buffer_Gcode.c ****         float vStar = sqrtf(2*ACCELERATION_XY_STEPS_PER_SS*yStar);
 359:Src/Gcode/Buffer_Gcode.c ****         y = yStar;                  v = 0;                                              a = ACCELER
 360:Src/Gcode/Buffer_Gcode.c ****         command_Gcode command4 = {MOVE_COMMAND,      0, y, 0, 0,    0, v, 0, 0,    0, a, 0, 0,   0,
 361:Src/Gcode/Buffer_Gcode.c ****         y = dYn-yStar;              v = vStar;                                          a = -ACCELE
 362:Src/Gcode/Buffer_Gcode.c ****         command_Gcode command5 = {MOVE_COMMAND,      0, y, 0, 0,    0, v, 0, 0,    0, a, 0, 0,   0,
 363:Src/Gcode/Buffer_Gcode.c ****         return;
 364:Src/Gcode/Buffer_Gcode.c ****     }
 365:Src/Gcode/Buffer_Gcode.c **** 
 366:Src/Gcode/Buffer_Gcode.c ****     y = L_HOME_XY;              v = 0;                                              a = ACCELERATIO
 367:Src/Gcode/Buffer_Gcode.c ****     command_Gcode command4 = {MOVE_COMMAND,      0, y, 0, 0,    0, v, 0, 0,    0, a, 0, 0,   0, 0};
 368:Src/Gcode/Buffer_Gcode.c ****     y = dYn-2*L_HOME_XY;        v = HOME_COARSE_SPEED_XY_STEPS_PER_SECOND;          a = 0;
 369:Src/Gcode/Buffer_Gcode.c ****     command_Gcode command5 = {MOVE_COMMAND,      0, y, 0, 0,    0, v, 0, 0,    0, a, 0, 0,   0, 0};
 370:Src/Gcode/Buffer_Gcode.c ****     y = L_HOME_XY;              v = HOME_COARSE_SPEED_XY_STEPS_PER_SECOND;          a = -ACCELERATI
 371:Src/Gcode/Buffer_Gcode.c ****     command_Gcode command6 = {MOVE_COMMAND,      0, y, 0, 0,    0, v, 0, 0,    0, a, 0, 0,   0, 0};
 372:Src/Gcode/Buffer_Gcode.c **** }
 373:Src/Gcode/Buffer_Gcode.c **** 
 374:Src/Gcode/Buffer_Gcode.c **** static void HomeZ_Analyser(void)
 375:Src/Gcode/Buffer_Gcode.c **** {
 376:Src/Gcode/Buffer_Gcode.c ****     long dZn = getDescreteCommandBufferElement_Gcode(2).Zn;
 377:Src/Gcode/Buffer_Gcode.c ****     long z; float v; float a;
 378:Src/Gcode/Buffer_Gcode.c **** 
 379:Src/Gcode/Buffer_Gcode.c ****     long  L_HOME_Z = lroundf(pow(HOME_COARSE_SPEED_Z_STEPS_PER_SECOND,2)/(2*ACCELERATION_Z_STEPS_PE
 380:Src/Gcode/Buffer_Gcode.c **** 
 381:Src/Gcode/Buffer_Gcode.c ****     z = 0;                          v = HOME_COARSE_SPEED_Z_STEPS_PER_SECOND;           a = 0;
 382:Src/Gcode/Buffer_Gcode.c ****     command_Gcode command1 = {GO_HOME_Z_COMMAND, 0, 0, z, 0,    0, 0, v, 0,    0, 0, a, 0,   0, 0};
 383:Src/Gcode/Buffer_Gcode.c ****     z = -HOME_FINE_STEPS_Z;         v = -HOME_COARSE_SPEED_Z_STEPS_PER_SECOND;          a = 0;
 384:Src/Gcode/Buffer_Gcode.c ****     command_Gcode command2 = {MOVE_COMMAND,      0, 0, z, 0,    0, 0, v, 0,    0, 0, a, 0,   0, 0};
 385:Src/Gcode/Buffer_Gcode.c ****     z = 0;                          v = HOME_FINE_SPEED_Z_STEPS_PER_SECOND;             a = 0;
 386:Src/Gcode/Buffer_Gcode.c ****     command_Gcode command3 = {GO_HOME_Z_COMMAND, 0, 0, z, 0,    0, 0, v, 0,    0, 0, a, 0,   0, 0};
 387:Src/Gcode/Buffer_Gcode.c ****     if (dZn >= 0)
 388:Src/Gcode/Buffer_Gcode.c ****         return;
 389:Src/Gcode/Buffer_Gcode.c **** 
ARM GAS  /tmp/ccMe0kQ8.s 			page 11


 390:Src/Gcode/Buffer_Gcode.c ****     if (abs(dZn) < 2*L_HOME_Z)
 391:Src/Gcode/Buffer_Gcode.c ****     {
 392:Src/Gcode/Buffer_Gcode.c ****         long  zStar = abs(lroundf(-0.25+(float)dZn/2));
 393:Src/Gcode/Buffer_Gcode.c ****         float vStar = sqrtf(2*ACCELERATION_Z_STEPS_PER_SS*zStar);
 394:Src/Gcode/Buffer_Gcode.c ****         z = -zStar;                 v = 0;                                              a = -ACCELE
 395:Src/Gcode/Buffer_Gcode.c ****         command_Gcode command4 = {MOVE_COMMAND,      0, 0, z, 0,    0, 0, v, 0,    0, 0, a, 0,   0,
 396:Src/Gcode/Buffer_Gcode.c ****         z = dZn+zStar;              v = -vStar;                                         a = ACCELER
 397:Src/Gcode/Buffer_Gcode.c ****         command_Gcode command5 = {MOVE_COMMAND,      0, 0, z, 0,    0, 0, v, 0,    0, 0, a, 0,   0,
 398:Src/Gcode/Buffer_Gcode.c ****         return;
 399:Src/Gcode/Buffer_Gcode.c ****     }
 400:Src/Gcode/Buffer_Gcode.c **** 
 401:Src/Gcode/Buffer_Gcode.c ****     z = -L_HOME_Z;              v = 0;                                              a = -ACCELERATI
 402:Src/Gcode/Buffer_Gcode.c ****     command_Gcode command4 = {MOVE_COMMAND,      0, 0, z, 0,    0, 0, v, 0,    0, 0, a, 0,   0, 0};
 403:Src/Gcode/Buffer_Gcode.c ****     z = dZn+2*L_HOME_Z;         v = -HOME_COARSE_SPEED_Z_STEPS_PER_SECOND;          a = 0;
 404:Src/Gcode/Buffer_Gcode.c ****     command_Gcode command5 = {MOVE_COMMAND,      0, 0, z, 0,    0, 0, v, 0,    0, 0, a, 0,   0, 0};
 405:Src/Gcode/Buffer_Gcode.c ****     z = -L_HOME_Z;              v = -HOME_COARSE_SPEED_Z_STEPS_PER_SECOND;          a = ACCELERATIO
 406:Src/Gcode/Buffer_Gcode.c ****     command_Gcode command6 = {MOVE_COMMAND,      0, 0, z, 0,    0, 0, v, 0,    0, 0, a, 0,   0, 0};
 407:Src/Gcode/Buffer_Gcode.c **** }
 408:Src/Gcode/Buffer_Gcode.c **** 
 409:Src/Gcode/Buffer_Gcode.c **** static void HomeXY_Analyser(void)
 410:Src/Gcode/Buffer_Gcode.c **** {
 411:Src/Gcode/Buffer_Gcode.c ****     long dXn = getDescreteCommandBufferElement_Gcode(2).Xn;
 412:Src/Gcode/Buffer_Gcode.c ****     long dYn = getDescreteCommandBufferElement_Gcode(2).Yn;
 413:Src/Gcode/Buffer_Gcode.c **** 
 414:Src/Gcode/Buffer_Gcode.c ****     long x; long y; float v; float a;   float vX; float vY; float aX; float aY;
 415:Src/Gcode/Buffer_Gcode.c **** 
 416:Src/Gcode/Buffer_Gcode.c ****     x = 0;                      y = 0;                          v = -HOME_COARSE_SPEED_XY_STEPS_PER
 417:Src/Gcode/Buffer_Gcode.c ****     command_Gcode command1 = {GO_HOME_XY_COMMAND, x, y, 0, 0,   v, v, 0, 0,    a, 0, 0, 0,   0, 0};
 418:Src/Gcode/Buffer_Gcode.c ****     x = HOME_FINE_STEPS_XY;     y = HOME_FINE_STEPS_XY;         v = HOME_COARSE_SPEED_XY_STEPS_PER_
 419:Src/Gcode/Buffer_Gcode.c ****     command_Gcode command2 = {MOVE_COMMAND,       x, y, 0, 0,   v, v, 0, 0,    a, 0, 0, 0,   0, 0};
 420:Src/Gcode/Buffer_Gcode.c ****     x = 0;                      y = 0;                          v = -HOME_FINE_SPEED_XY_STEPS_PER_S
 421:Src/Gcode/Buffer_Gcode.c ****     command_Gcode command3 = {GO_HOME_XY_COMMAND, x, y, 0, 0,   v, v, 0, 0,    a, 0, 0, 0,   0, 0};
 422:Src/Gcode/Buffer_Gcode.c **** 
 423:Src/Gcode/Buffer_Gcode.c ****     if (dXn == 0 && dYn == 0) return;
 424:Src/Gcode/Buffer_Gcode.c ****     if (dXn <  0 || dYn <  0) return;
 425:Src/Gcode/Buffer_Gcode.c **** 
 426:Src/Gcode/Buffer_Gcode.c ****     float distance_XY = sqrtf(pow(dXn,2)+pow(dYn,2));
 427:Src/Gcode/Buffer_Gcode.c ****     float cosX = (float)dXn/distance_XY;    float targetSpeedX = HOME_COARSE_SPEED_XY_STEPS_PER_SEC
 428:Src/Gcode/Buffer_Gcode.c ****     float cosY = (float)dYn/distance_XY;    float targetSpeedY = HOME_COARSE_SPEED_XY_STEPS_PER_SEC
 429:Src/Gcode/Buffer_Gcode.c ****     float startDistance_XY = pow(HOME_COARSE_SPEED_XY_STEPS_PER_SECOND,2)/(2*ACCELERATION_XY_STEPS_
 430:Src/Gcode/Buffer_Gcode.c ****     long l_HOME_X = lroundf(startDistance_XY*cosX);     long l_HOME_Y = lroundf(startDistance_XY*co
 431:Src/Gcode/Buffer_Gcode.c **** 
 432:Src/Gcode/Buffer_Gcode.c ****     if (distance_XY < 2*startDistance_XY)
 433:Src/Gcode/Buffer_Gcode.c ****     {
 434:Src/Gcode/Buffer_Gcode.c ****         long xStar = lroundf(0.25+(float)dXn/2);   float vStarX = cosX*sqrtf(2*ACCELERATION_XY_STEP
 435:Src/Gcode/Buffer_Gcode.c ****         long yStar = lroundf(0.25+(float)dYn/2);   float vStarY = cosY*sqrtf(2*ACCELERATION_XY_STEP
 436:Src/Gcode/Buffer_Gcode.c ****         x = xStar;              y = yStar;              vX = 0;                vY = 0;             
 437:Src/Gcode/Buffer_Gcode.c ****         command_Gcode command4 = {MOVE_COMMAND,      x, y, 0, 0,    vX, vY, 0, 0,    aX, aY, 0, 0, 
 438:Src/Gcode/Buffer_Gcode.c ****         x = dXn-xStar;          y = dYn-yStar;          vX = vStarX;           vY = vStarY;        
 439:Src/Gcode/Buffer_Gcode.c ****         command_Gcode command5 = {MOVE_COMMAND,      x, y, 0, 0,    vX, vY, 0, 0,    aX, aY, 0, 0, 
 440:Src/Gcode/Buffer_Gcode.c ****         return;
 441:Src/Gcode/Buffer_Gcode.c ****     }
 442:Src/Gcode/Buffer_Gcode.c **** 
 443:Src/Gcode/Buffer_Gcode.c ****     x = l_HOME_X;           y = l_HOME_Y;           vX = 0;                vY = 0;                a
 444:Src/Gcode/Buffer_Gcode.c ****     command_Gcode command4 = {MOVE_COMMAND,      x, y, 0, 0,    vX, vY, 0, 0,    aX, aY, 0, 0,   0,
 445:Src/Gcode/Buffer_Gcode.c ****     x = dXn-2*l_HOME_X;     y = dYn-2*l_HOME_Y;     vX = targetSpeedX;     vY = targetSpeedY;     a
 446:Src/Gcode/Buffer_Gcode.c ****     command_Gcode command5 = {MOVE_COMMAND,      x, y, 0, 0,    vX, vY, 0, 0,    aX, aY, 0, 0,   0,
ARM GAS  /tmp/ccMe0kQ8.s 			page 12


 447:Src/Gcode/Buffer_Gcode.c ****     x = l_HOME_X;           y = l_HOME_Y;           vX = targetSpeedX;     vY = targetSpeedY;     a
 448:Src/Gcode/Buffer_Gcode.c ****     command_Gcode command6 = {MOVE_COMMAND,      x, y, 0, 0,    vX, vY, 0, 0,    aX, aY, 0, 0,   0,
 449:Src/Gcode/Buffer_Gcode.c **** }
 450:Src/Gcode/Buffer_Gcode.c **** 
 451:Src/Gcode/Buffer_Gcode.c **** static void SetExtrTemp_Analyser(void)
 452:Src/Gcode/Buffer_Gcode.c **** {
 453:Src/Gcode/Buffer_Gcode.c ****     float t  = getDescreteCommandBufferElement_Gcode(2).extrT;
 454:Src/Gcode/Buffer_Gcode.c ****     command_Gcode command = {HEAT_EXTRUDER_COMMAND, 0, 0, 0, 0,   0, 0, 0, 0,    0, 0, 0, 0,   t, 0
 455:Src/Gcode/Buffer_Gcode.c **** }
 456:Src/Gcode/Buffer_Gcode.c **** 
 457:Src/Gcode/Buffer_Gcode.c **** static void SetBedTemp_Analyser(void)
 458:Src/Gcode/Buffer_Gcode.c **** {
 459:Src/Gcode/Buffer_Gcode.c ****     float t  = getDescreteCommandBufferElement_Gcode(2).bedT;
 460:Src/Gcode/Buffer_Gcode.c ****     command_Gcode command = {HEAT_BED_COMMAND, 0, 0, 0, 0,   0, 0, 0, 0,    0, 0, 0, 0,   0, t};   
 461:Src/Gcode/Buffer_Gcode.c **** }
 462:Src/Gcode/Buffer_Gcode.c **** 
 463:Src/Gcode/Buffer_Gcode.c **** static void WaitExtrTemp_Analyser(void)
 464:Src/Gcode/Buffer_Gcode.c **** {
 465:Src/Gcode/Buffer_Gcode.c ****     float t  = getDescreteCommandBufferElement_Gcode(2).extrT;
 466:Src/Gcode/Buffer_Gcode.c ****     command_Gcode command = {WAIT_HEAT_EXTRUDER_COMMAND, 0, 0, 0, 0,   0, 0, 0, 0,    0, 0, 0, 0,  
 467:Src/Gcode/Buffer_Gcode.c **** }
 468:Src/Gcode/Buffer_Gcode.c **** 
 469:Src/Gcode/Buffer_Gcode.c **** static void WaitBedTemp_Analyser(void)
 470:Src/Gcode/Buffer_Gcode.c **** {
 471:Src/Gcode/Buffer_Gcode.c ****     float t  = getDescreteCommandBufferElement_Gcode(2).bedT;
 472:Src/Gcode/Buffer_Gcode.c ****     command_Gcode command = {WAIT_HEAT_BED_COMMAND, 0, 0, 0, 0,   0, 0, 0, 0,    0, 0, 0, 0,   0, t
 473:Src/Gcode/Buffer_Gcode.c **** }
 474:Src/Gcode/Buffer_Gcode.c **** 
 475:Src/Gcode/Buffer_Gcode.c **** void descreteCommandAnalyser_Gcode(void)
 476:Src/Gcode/Buffer_Gcode.c **** {
 477:Src/Gcode/Buffer_Gcode.c ****     commandType_Gcode typeOfCommand = getDescreteCommandBufferElement_Gcode(2).type;
 478:Src/Gcode/Buffer_Gcode.c ****     long dXn = getDescreteCommandBufferElement_Gcode(2).Xn - getDescreteCommandBufferElement_Gcode(
 479:Src/Gcode/Buffer_Gcode.c ****     long dYn = getDescreteCommandBufferElement_Gcode(2).Yn - getDescreteCommandBufferElement_Gcode(
 480:Src/Gcode/Buffer_Gcode.c ****     long dZn = getDescreteCommandBufferElement_Gcode(2).Zn - getDescreteCommandBufferElement_Gcode(
 481:Src/Gcode/Buffer_Gcode.c ****     long dEn = getDescreteCommandBufferElement_Gcode(2).En - getDescreteCommandBufferElement_Gcode(
 482:Src/Gcode/Buffer_Gcode.c **** 
 483:Src/Gcode/Buffer_Gcode.c ****     if (typeOfCommand == MOVE_COMMAND)
 484:Src/Gcode/Buffer_Gcode.c ****     {
 485:Src/Gcode/Buffer_Gcode.c ****         if (dZn != 0)
 486:Src/Gcode/Buffer_Gcode.c ****             MoveZ_Analyser();
 487:Src/Gcode/Buffer_Gcode.c ****         if (dXn != 0 || dYn != 0)
 488:Src/Gcode/Buffer_Gcode.c ****         {
 489:Src/Gcode/Buffer_Gcode.c ****             MoveXY_Analyser();
 490:Src/Gcode/Buffer_Gcode.c ****             return;
 491:Src/Gcode/Buffer_Gcode.c ****         }
 492:Src/Gcode/Buffer_Gcode.c ****         if (dEn != 0)
 493:Src/Gcode/Buffer_Gcode.c ****             MoveE_Analyser();
 494:Src/Gcode/Buffer_Gcode.c ****         return;
 495:Src/Gcode/Buffer_Gcode.c ****     }
 496:Src/Gcode/Buffer_Gcode.c **** 
 497:Src/Gcode/Buffer_Gcode.c ****     if (typeOfCommand == GO_HOME_X_COMMAND)   {HomeX_Analyser();  return;}
 498:Src/Gcode/Buffer_Gcode.c ****     if (typeOfCommand == GO_HOME_Y_COMMAND)   {HomeY_Analyser();  return;}
 499:Src/Gcode/Buffer_Gcode.c ****     if (typeOfCommand == GO_HOME_Z_COMMAND)   {HomeZ_Analyser();  return;}
 500:Src/Gcode/Buffer_Gcode.c ****     if (typeOfCommand == GO_HOME_XY_COMMAND)  {HomeXY_Analyser(); return;}
 501:Src/Gcode/Buffer_Gcode.c ****     if (typeOfCommand == GO_HOME_XZ_COMMAND)  {HomeZ_Analyser();  HomeX_Analyser();  return;}
 502:Src/Gcode/Buffer_Gcode.c ****     if (typeOfCommand == GO_HOME_YZ_COMMAND)  {HomeZ_Analyser();  HomeY_Analyser();  return;}
 503:Src/Gcode/Buffer_Gcode.c ****     if (typeOfCommand == GO_HOME_XYZ_COMMAND) {HomeZ_Analyser();  HomeXY_Analyser(); return;}
ARM GAS  /tmp/ccMe0kQ8.s 			page 13


 504:Src/Gcode/Buffer_Gcode.c **** 
 505:Src/Gcode/Buffer_Gcode.c ****     if (typeOfCommand == HEAT_EXTRUDER_COMMAND)   {SetExtrTemp_Analyser();  return;}
 506:Src/Gcode/Buffer_Gcode.c ****     if (typeOfCommand == HEAT_BED_COMMAND)        {SetBedTemp_Analyser();   return;}
 507:Src/Gcode/Buffer_Gcode.c **** 
 508:Src/Gcode/Buffer_Gcode.c ****     if (typeOfCommand == WAIT_HEAT_EXTRUDER_COMMAND)   {WaitExtrTemp_Analyser();  return;}
 509:Src/Gcode/Buffer_Gcode.c ****     if (typeOfCommand == WAIT_HEAT_BED_COMMAND)        {WaitBedTemp_Analyser();   return;}
 510:Src/Gcode/Buffer_Gcode.c **** }
 511:Src/Gcode/Buffer_Gcode.c **** 
 512:Src/Gcode/Buffer_Gcode.c **** 
 513:Src/Gcode/Buffer_Gcode.c **** 
 514:Src/Gcode/Buffer_Gcode.c **** 
 515:Src/Gcode/Buffer_Gcode.c **** static int lastCommandNumber(void)
 516:Src/Gcode/Buffer_Gcode.c **** {
 187              		.loc 1 516 1 is_stmt 1 view -0
 188              		.cfi_startproc
 189              		@ args = 0, pretend = 0, frame = 0
 190              		@ frame_needed = 0, uses_anonymous_args = 0
 191              		@ link register save eliminated.
 517:Src/Gcode/Buffer_Gcode.c ****     if (firstFreeElementCommandBuffer == 1)
 192              		.loc 1 517 5 view .LVU32
 193              		.loc 1 517 39 is_stmt 0 view .LVU33
 194 0000 034B     		ldr	r3, .L11
 195 0002 1868     		ldr	r0, [r3]
 196              		.loc 1 517 8 view .LVU34
 197 0004 0128     		cmp	r0, #1
 198 0006 01D0     		beq	.L10
 518:Src/Gcode/Buffer_Gcode.c ****         return COMMAND_BUFFER_LENGTH;
 519:Src/Gcode/Buffer_Gcode.c ****     return firstFreeElementCommandBuffer - 1;
 199              		.loc 1 519 5 is_stmt 1 view .LVU35
 200              		.loc 1 519 42 is_stmt 0 view .LVU36
 201 0008 0138     		subs	r0, r0, #1
 202 000a 7047     		bx	lr
 203              	.L10:
 518:Src/Gcode/Buffer_Gcode.c ****         return COMMAND_BUFFER_LENGTH;
 204              		.loc 1 518 16 view .LVU37
 205 000c 3220     		movs	r0, #50
 520:Src/Gcode/Buffer_Gcode.c **** }
 206              		.loc 1 520 1 view .LVU38
 207 000e 7047     		bx	lr
 208              	.L12:
 209              		.align	2
 210              	.L11:
 211 0010 00000000 		.word	.LANCHOR0
 212              		.cfi_endproc
 213              	.LFE30:
 215              		.section	.text.prevoiusCommandNumber,"ax",%progbits
 216              		.align	1
 217              		.syntax unified
 218              		.thumb
 219              		.thumb_func
 220              		.fpu softvfp
 222              	prevoiusCommandNumber:
 223              	.LVL19:
 224              	.LFB31:
 521:Src/Gcode/Buffer_Gcode.c **** 
 522:Src/Gcode/Buffer_Gcode.c **** static int prevoiusCommandNumber(int commandNumber)
 523:Src/Gcode/Buffer_Gcode.c **** {
ARM GAS  /tmp/ccMe0kQ8.s 			page 14


 225              		.loc 1 523 1 is_stmt 1 view -0
 226              		.cfi_startproc
 227              		@ args = 0, pretend = 0, frame = 0
 228              		@ frame_needed = 0, uses_anonymous_args = 0
 229              		@ link register save eliminated.
 524:Src/Gcode/Buffer_Gcode.c ****     if (commandNumber == 1)
 230              		.loc 1 524 5 view .LVU40
 231              		.loc 1 524 8 is_stmt 0 view .LVU41
 232 0000 0128     		cmp	r0, #1
 233 0002 01D0     		beq	.L15
 525:Src/Gcode/Buffer_Gcode.c ****         return COMMAND_BUFFER_LENGTH;
 526:Src/Gcode/Buffer_Gcode.c ****     return commandNumber - 1;
 234              		.loc 1 526 5 is_stmt 1 view .LVU42
 235              		.loc 1 526 26 is_stmt 0 view .LVU43
 236 0004 0138     		subs	r0, r0, #1
 237              	.LVL20:
 238              		.loc 1 526 26 view .LVU44
 239 0006 7047     		bx	lr
 240              	.LVL21:
 241              	.L15:
 525:Src/Gcode/Buffer_Gcode.c ****         return COMMAND_BUFFER_LENGTH;
 242              		.loc 1 525 16 view .LVU45
 243 0008 3220     		movs	r0, #50
 244              	.LVL22:
 527:Src/Gcode/Buffer_Gcode.c **** }
 245              		.loc 1 527 1 view .LVU46
 246 000a 7047     		bx	lr
 247              		.cfi_endproc
 248              	.LFE31:
 250              		.section	.text.nextCommandNumber,"ax",%progbits
 251              		.align	1
 252              		.syntax unified
 253              		.thumb
 254              		.thumb_func
 255              		.fpu softvfp
 257              	nextCommandNumber:
 258              	.LVL23:
 259              	.LFB32:
 528:Src/Gcode/Buffer_Gcode.c **** 
 529:Src/Gcode/Buffer_Gcode.c **** static int nextCommandNumber(int commandNumber)
 530:Src/Gcode/Buffer_Gcode.c **** {
 260              		.loc 1 530 1 is_stmt 1 view -0
 261              		.cfi_startproc
 262              		@ args = 0, pretend = 0, frame = 0
 263              		@ frame_needed = 0, uses_anonymous_args = 0
 264              		@ link register save eliminated.
 531:Src/Gcode/Buffer_Gcode.c ****     if (commandNumber == COMMAND_BUFFER_LENGTH)
 265              		.loc 1 531 5 view .LVU48
 266              		.loc 1 531 8 is_stmt 0 view .LVU49
 267 0000 3228     		cmp	r0, #50
 268 0002 01D0     		beq	.L18
 532:Src/Gcode/Buffer_Gcode.c ****         return 1;
 533:Src/Gcode/Buffer_Gcode.c ****     return commandNumber + 1;
 269              		.loc 1 533 5 is_stmt 1 view .LVU50
 270              		.loc 1 533 26 is_stmt 0 view .LVU51
 271 0004 0130     		adds	r0, r0, #1
 272              	.LVL24:
ARM GAS  /tmp/ccMe0kQ8.s 			page 15


 273              		.loc 1 533 26 view .LVU52
 274 0006 7047     		bx	lr
 275              	.LVL25:
 276              	.L18:
 532:Src/Gcode/Buffer_Gcode.c ****         return 1;
 277              		.loc 1 532 16 view .LVU53
 278 0008 0120     		movs	r0, #1
 279              	.LVL26:
 534:Src/Gcode/Buffer_Gcode.c **** }
 280              		.loc 1 534 1 view .LVU54
 281 000a 7047     		bx	lr
 282              		.cfi_endproc
 283              	.LFE32:
 285              		.section	.text.smoothable,"ax",%progbits
 286              		.align	1
 287              		.syntax unified
 288              		.thumb
 289              		.thumb_func
 290              		.fpu softvfp
 292              	smoothable:
 293              	.LVL27:
 294              	.LFB35:
 535:Src/Gcode/Buffer_Gcode.c **** 
 536:Src/Gcode/Buffer_Gcode.c **** static long distanceRequired(float speedStart, float speedFinish, float acceleration)
 537:Src/Gcode/Buffer_Gcode.c **** {
 538:Src/Gcode/Buffer_Gcode.c ****     return lroundf(fabs(pow(speedFinish,2)-pow(speedStart,2))/fabs(2*acceleration));
 539:Src/Gcode/Buffer_Gcode.c **** }
 540:Src/Gcode/Buffer_Gcode.c **** 
 541:Src/Gcode/Buffer_Gcode.c **** static void shiftRightAllTheCommandsTillThis(int commandNumber)
 542:Src/Gcode/Buffer_Gcode.c **** {
 543:Src/Gcode/Buffer_Gcode.c ****     int currentCommandNumber = lastCommandNumber();
 544:Src/Gcode/Buffer_Gcode.c ****     firstInCommandBuffer_Gcode(lastCommand());
 545:Src/Gcode/Buffer_Gcode.c ****     while ((currentCommandNumber != commandNumber))
 546:Src/Gcode/Buffer_Gcode.c ****     {
 547:Src/Gcode/Buffer_Gcode.c ****         commandBuffer[number(currentCommandNumber)] = commandBuffer[number(prevoiusCommandNumber(cu
 548:Src/Gcode/Buffer_Gcode.c ****         currentCommandNumber = prevoiusCommandNumber(currentCommandNumber);
 549:Src/Gcode/Buffer_Gcode.c ****     }
 550:Src/Gcode/Buffer_Gcode.c **** }
 551:Src/Gcode/Buffer_Gcode.c **** 
 552:Src/Gcode/Buffer_Gcode.c **** static _Bool smoothable(commandType_Gcode commandType)
 553:Src/Gcode/Buffer_Gcode.c **** {
 295              		.loc 1 553 1 is_stmt 1 view -0
 296              		.cfi_startproc
 297              		@ args = 0, pretend = 0, frame = 0
 298              		@ frame_needed = 0, uses_anonymous_args = 0
 299              		@ link register save eliminated.
 554:Src/Gcode/Buffer_Gcode.c ****     if( commandType == MOVE_COMMAND) return true;
 300              		.loc 1 554 5 view .LVU56
 301              		.loc 1 554 7 is_stmt 0 view .LVU57
 302 0000 0128     		cmp	r0, #1
 303 0002 01D0     		beq	.L21
 555:Src/Gcode/Buffer_Gcode.c ****     return false;
 304              		.loc 1 555 12 view .LVU58
 305 0004 0020     		movs	r0, #0
 306              	.LVL28:
 307              		.loc 1 555 12 view .LVU59
 308 0006 7047     		bx	lr
ARM GAS  /tmp/ccMe0kQ8.s 			page 16


 309              	.LVL29:
 310              	.L21:
 554:Src/Gcode/Buffer_Gcode.c ****     if( commandType == MOVE_COMMAND) return true;
 311              		.loc 1 554 45 view .LVU60
 312 0008 0120     		movs	r0, #1
 313              	.LVL30:
 556:Src/Gcode/Buffer_Gcode.c **** }
 314              		.loc 1 556 1 view .LVU61
 315 000a 7047     		bx	lr
 316              		.cfi_endproc
 317              	.LFE35:
 319              		.global	__aeabi_f2d
 320              		.global	__aeabi_dsub
 321              		.global	__aeabi_ddiv
 322              		.global	__aeabi_d2f
 323              		.section	.text.distanceRequired,"ax",%progbits
 324              		.align	1
 325              		.syntax unified
 326              		.thumb
 327              		.thumb_func
 328              		.fpu softvfp
 330              	distanceRequired:
 331              	.LVL31:
 332              	.LFB33:
 537:Src/Gcode/Buffer_Gcode.c ****     return lroundf(fabs(pow(speedFinish,2)-pow(speedStart,2))/fabs(2*acceleration));
 333              		.loc 1 537 1 is_stmt 1 view -0
 334              		.cfi_startproc
 335              		@ args = 0, pretend = 0, frame = 0
 336              		@ frame_needed = 0, uses_anonymous_args = 0
 537:Src/Gcode/Buffer_Gcode.c ****     return lroundf(fabs(pow(speedFinish,2)-pow(speedStart,2))/fabs(2*acceleration));
 337              		.loc 1 537 1 is_stmt 0 view .LVU63
 338 0000 2DE9F843 		push	{r3, r4, r5, r6, r7, r8, r9, lr}
 339              	.LCFI2:
 340              		.cfi_def_cfa_offset 32
 341              		.cfi_offset 3, -32
 342              		.cfi_offset 4, -28
 343              		.cfi_offset 5, -24
 344              		.cfi_offset 6, -20
 345              		.cfi_offset 7, -16
 346              		.cfi_offset 8, -12
 347              		.cfi_offset 9, -8
 348              		.cfi_offset 14, -4
 349 0004 0746     		mov	r7, r0
 350 0006 1646     		mov	r6, r2
 538:Src/Gcode/Buffer_Gcode.c **** }
 351              		.loc 1 538 5 is_stmt 1 view .LVU64
 538:Src/Gcode/Buffer_Gcode.c **** }
 352              		.loc 1 538 25 is_stmt 0 view .LVU65
 353 0008 4FF00008 		mov	r8, #0
 354 000c 4FF08049 		mov	r9, #1073741824
 355 0010 0846     		mov	r0, r1
 356              	.LVL32:
 538:Src/Gcode/Buffer_Gcode.c **** }
 357              		.loc 1 538 25 view .LVU66
 358 0012 FFF7FEFF 		bl	__aeabi_f2d
 359              	.LVL33:
 538:Src/Gcode/Buffer_Gcode.c **** }
ARM GAS  /tmp/ccMe0kQ8.s 			page 17


 360              		.loc 1 538 25 view .LVU67
 361 0016 4246     		mov	r2, r8
 362 0018 4B46     		mov	r3, r9
 363 001a FFF7FEFF 		bl	pow
 364              	.LVL34:
 365 001e 0446     		mov	r4, r0
 366 0020 0D46     		mov	r5, r1
 538:Src/Gcode/Buffer_Gcode.c **** }
 367              		.loc 1 538 44 view .LVU68
 368 0022 3846     		mov	r0, r7
 369 0024 FFF7FEFF 		bl	__aeabi_f2d
 370              	.LVL35:
 371 0028 4246     		mov	r2, r8
 372 002a 4B46     		mov	r3, r9
 373 002c FFF7FEFF 		bl	pow
 374              	.LVL36:
 375 0030 0246     		mov	r2, r0
 376 0032 0B46     		mov	r3, r1
 538:Src/Gcode/Buffer_Gcode.c **** }
 377              		.loc 1 538 43 view .LVU69
 378 0034 2046     		mov	r0, r4
 379 0036 2946     		mov	r1, r5
 380 0038 FFF7FEFF 		bl	__aeabi_dsub
 381              	.LVL37:
 382 003c 0546     		mov	r5, r0
 538:Src/Gcode/Buffer_Gcode.c **** }
 383              		.loc 1 538 20 view .LVU70
 384 003e 21F00044 		bic	r4, r1, #-2147483648
 538:Src/Gcode/Buffer_Gcode.c **** }
 385              		.loc 1 538 69 view .LVU71
 386 0042 3146     		mov	r1, r6
 387 0044 3046     		mov	r0, r6
 388 0046 FFF7FEFF 		bl	__aeabi_fadd
 389              	.LVL38:
 538:Src/Gcode/Buffer_Gcode.c **** }
 390              		.loc 1 538 63 view .LVU72
 391 004a 20F00040 		bic	r0, r0, #-2147483648
 392 004e FFF7FEFF 		bl	__aeabi_f2d
 393              	.LVL39:
 394 0052 0246     		mov	r2, r0
 395 0054 0B46     		mov	r3, r1
 538:Src/Gcode/Buffer_Gcode.c **** }
 396              		.loc 1 538 62 view .LVU73
 397 0056 2846     		mov	r0, r5
 398 0058 2146     		mov	r1, r4
 399 005a FFF7FEFF 		bl	__aeabi_ddiv
 400              	.LVL40:
 538:Src/Gcode/Buffer_Gcode.c **** }
 401              		.loc 1 538 12 view .LVU74
 402 005e FFF7FEFF 		bl	__aeabi_d2f
 403              	.LVL41:
 404 0062 FFF7FEFF 		bl	lroundf
 405              	.LVL42:
 539:Src/Gcode/Buffer_Gcode.c **** 
 406              		.loc 1 539 1 view .LVU75
 407 0066 BDE8F883 		pop	{r3, r4, r5, r6, r7, r8, r9, pc}
 539:Src/Gcode/Buffer_Gcode.c **** 
ARM GAS  /tmp/ccMe0kQ8.s 			page 18


 408              		.loc 1 539 1 view .LVU76
 409              		.cfi_endproc
 410              	.LFE33:
 412              		.global	__aeabi_i2f
 413              		.global	__aeabi_dmul
 414              		.section	.text.speedMaxFastMove,"ax",%progbits
 415              		.align	1
 416              		.syntax unified
 417              		.thumb
 418              		.thumb_func
 419              		.fpu softvfp
 421              	speedMaxFastMove:
 422              	.LVL43:
 423              	.LFB17:
 181:Src/Gcode/Buffer_Gcode.c ****     float speed;
 424              		.loc 1 181 1 is_stmt 1 view -0
 425              		.cfi_startproc
 426              		@ args = 4, pretend = 0, frame = 8
 427              		@ frame_needed = 0, uses_anonymous_args = 0
 181:Src/Gcode/Buffer_Gcode.c ****     float speed;
 428              		.loc 1 181 1 is_stmt 0 view .LVU78
 429 0000 2DE9F047 		push	{r4, r5, r6, r7, r8, r9, r10, lr}
 430              	.LCFI3:
 431              		.cfi_def_cfa_offset 32
 432              		.cfi_offset 4, -32
 433              		.cfi_offset 5, -28
 434              		.cfi_offset 6, -24
 435              		.cfi_offset 7, -20
 436              		.cfi_offset 8, -16
 437              		.cfi_offset 9, -12
 438              		.cfi_offset 10, -8
 439              		.cfi_offset 14, -4
 440 0004 82B0     		sub	sp, sp, #8
 441              	.LCFI4:
 442              		.cfi_def_cfa_offset 40
 443 0006 8146     		mov	r9, r0
 444 0008 0E46     		mov	r6, r1
 445 000a 1746     		mov	r7, r2
 446 000c 1C46     		mov	r4, r3
 447 000e DDF82880 		ldr	r8, [sp, #40]	@ float
 182:Src/Gcode/Buffer_Gcode.c ****     speed = (float)sign(totalDistance)*sqrt(
 448              		.loc 1 182 5 is_stmt 1 view .LVU79
 183:Src/Gcode/Buffer_Gcode.c ****                 (float)totalDistance*(2*accelerationStart*accelerationFinish/(accelerationFinish-ac
 449              		.loc 1 183 5 view .LVU80
 183:Src/Gcode/Buffer_Gcode.c ****                 (float)totalDistance*(2*accelerationStart*accelerationFinish/(accelerationFinish-ac
 450              		.loc 1 183 20 is_stmt 0 view .LVU81
 451 0012 FFF7FEFF 		bl	sign
 452              	.LVL44:
 183:Src/Gcode/Buffer_Gcode.c ****                 (float)totalDistance*(2*accelerationStart*accelerationFinish/(accelerationFinish-ac
 453              		.loc 1 183 13 view .LVU82
 454 0016 FFF7FEFF 		bl	__aeabi_i2f
 455              	.LVL45:
 456 001a FFF7FEFF 		bl	__aeabi_f2d
 457              	.LVL46:
 458 001e CDE90001 		strd	r0, [sp]
 184:Src/Gcode/Buffer_Gcode.c ****                 -(speedFinish*speedFinish*accelerationStart-speedStart*speedStart*accelerationFinis
 459              		.loc 1 184 40 view .LVU83
ARM GAS  /tmp/ccMe0kQ8.s 			page 19


 460 0022 2146     		mov	r1, r4
 461 0024 2046     		mov	r0, r4
 462 0026 FFF7FEFF 		bl	__aeabi_fadd
 463              	.LVL47:
 184:Src/Gcode/Buffer_Gcode.c ****                 -(speedFinish*speedFinish*accelerationStart-speedStart*speedStart*accelerationFinis
 464              		.loc 1 184 58 view .LVU84
 465 002a 4146     		mov	r1, r8
 466 002c FFF7FEFF 		bl	__aeabi_fmul
 467              	.LVL48:
 468 0030 8246     		mov	r10, r0
 184:Src/Gcode/Buffer_Gcode.c ****                 -(speedFinish*speedFinish*accelerationStart-speedStart*speedStart*accelerationFinis
 469              		.loc 1 184 97 view .LVU85
 470 0032 2146     		mov	r1, r4
 471 0034 4046     		mov	r0, r8
 472 0036 FFF7FEFF 		bl	__aeabi_fsub
 473              	.LVL49:
 474 003a 0546     		mov	r5, r0
 184:Src/Gcode/Buffer_Gcode.c ****                 -(speedFinish*speedFinish*accelerationStart-speedStart*speedStart*accelerationFinis
 475              		.loc 1 184 77 view .LVU86
 476 003c 0146     		mov	r1, r0
 477 003e 5046     		mov	r0, r10
 478 0040 FFF7FEFF 		bl	__aeabi_fdiv
 479              	.LVL50:
 184:Src/Gcode/Buffer_Gcode.c ****                 -(speedFinish*speedFinish*accelerationStart-speedStart*speedStart*accelerationFinis
 480              		.loc 1 184 37 view .LVU87
 481 0044 4946     		mov	r1, r9
 482 0046 FFF7FEFF 		bl	__aeabi_fmul
 483              	.LVL51:
 484 004a 8146     		mov	r9, r0
 485              	.LVL52:
 185:Src/Gcode/Buffer_Gcode.c ****                 );
 486              		.loc 1 185 30 view .LVU88
 487 004c 3946     		mov	r1, r7
 488 004e 3846     		mov	r0, r7
 489 0050 FFF7FEFF 		bl	__aeabi_fmul
 490              	.LVL53:
 185:Src/Gcode/Buffer_Gcode.c ****                 );
 491              		.loc 1 185 42 view .LVU89
 492 0054 2146     		mov	r1, r4
 493 0056 FFF7FEFF 		bl	__aeabi_fmul
 494              	.LVL54:
 495 005a 0446     		mov	r4, r0
 496              	.LVL55:
 185:Src/Gcode/Buffer_Gcode.c ****                 );
 497              		.loc 1 185 71 view .LVU90
 498 005c 3146     		mov	r1, r6
 499 005e 3046     		mov	r0, r6
 500 0060 FFF7FEFF 		bl	__aeabi_fmul
 501              	.LVL56:
 185:Src/Gcode/Buffer_Gcode.c ****                 );
 502              		.loc 1 185 82 view .LVU91
 503 0064 4146     		mov	r1, r8
 504 0066 FFF7FEFF 		bl	__aeabi_fmul
 505              	.LVL57:
 506 006a 0146     		mov	r1, r0
 185:Src/Gcode/Buffer_Gcode.c ****                 );
 507              		.loc 1 185 60 view .LVU92
ARM GAS  /tmp/ccMe0kQ8.s 			page 20


 508 006c 2046     		mov	r0, r4
 509 006e FFF7FEFF 		bl	__aeabi_fsub
 510              	.LVL58:
 185:Src/Gcode/Buffer_Gcode.c ****                 );
 511              		.loc 1 185 102 view .LVU93
 512 0072 2946     		mov	r1, r5
 513 0074 FFF7FEFF 		bl	__aeabi_fdiv
 514              	.LVL59:
 515 0078 0146     		mov	r1, r0
 185:Src/Gcode/Buffer_Gcode.c ****                 );
 516              		.loc 1 185 17 view .LVU94
 517 007a 4846     		mov	r0, r9
 518 007c FFF7FEFF 		bl	__aeabi_fsub
 519              	.LVL60:
 183:Src/Gcode/Buffer_Gcode.c ****                 (float)totalDistance*(2*accelerationStart*accelerationFinish/(accelerationFinish-ac
 520              		.loc 1 183 40 view .LVU95
 521 0080 FFF7FEFF 		bl	__aeabi_f2d
 522              	.LVL61:
 523 0084 FFF7FEFF 		bl	sqrt
 524              	.LVL62:
 525 0088 0246     		mov	r2, r0
 526 008a 0B46     		mov	r3, r1
 183:Src/Gcode/Buffer_Gcode.c ****                 (float)totalDistance*(2*accelerationStart*accelerationFinish/(accelerationFinish-ac
 527              		.loc 1 183 39 view .LVU96
 528 008c DDE90001 		ldrd	r0, [sp]
 529 0090 FFF7FEFF 		bl	__aeabi_dmul
 530              	.LVL63:
 183:Src/Gcode/Buffer_Gcode.c ****                 (float)totalDistance*(2*accelerationStart*accelerationFinish/(accelerationFinish-ac
 531              		.loc 1 183 11 view .LVU97
 532 0094 FFF7FEFF 		bl	__aeabi_d2f
 533              	.LVL64:
 187:Src/Gcode/Buffer_Gcode.c **** }
 534              		.loc 1 187 5 is_stmt 1 view .LVU98
 188:Src/Gcode/Buffer_Gcode.c **** 
 535              		.loc 1 188 1 is_stmt 0 view .LVU99
 536 0098 02B0     		add	sp, sp, #8
 537              	.LCFI5:
 538              		.cfi_def_cfa_offset 32
 539              		@ sp needed
 540 009a BDE8F087 		pop	{r4, r5, r6, r7, r8, r9, r10, pc}
 188:Src/Gcode/Buffer_Gcode.c **** 
 541              		.loc 1 188 1 view .LVU100
 542              		.cfi_endproc
 543              	.LFE17:
 545              		.section	.text.createDescreteCommandBuffer_Gcode,"ax",%progbits
 546              		.align	1
 547              		.global	createDescreteCommandBuffer_Gcode
 548              		.syntax unified
 549              		.thumb
 550              		.thumb_func
 551              		.fpu softvfp
 553              	createDescreteCommandBuffer_Gcode:
 554              	.LFB1:
  16:Src/Gcode/Buffer_Gcode.c ****     descreteBuffer[number(1)] = defaultDescreteCommand;
 555              		.loc 1 16 1 is_stmt 1 view -0
 556              		.cfi_startproc
 557              		@ args = 0, pretend = 0, frame = 0
ARM GAS  /tmp/ccMe0kQ8.s 			page 21


 558              		@ frame_needed = 0, uses_anonymous_args = 0
 559 0000 38B5     		push	{r3, r4, r5, lr}
 560              	.LCFI6:
 561              		.cfi_def_cfa_offset 16
 562              		.cfi_offset 3, -16
 563              		.cfi_offset 4, -12
 564              		.cfi_offset 5, -8
 565              		.cfi_offset 14, -4
  17:Src/Gcode/Buffer_Gcode.c ****     descreteBuffer[number(2)] = defaultDescreteCommand;
 566              		.loc 1 17 5 view .LVU102
  17:Src/Gcode/Buffer_Gcode.c ****     descreteBuffer[number(2)] = defaultDescreteCommand;
 567              		.loc 1 17 20 is_stmt 0 view .LVU103
 568 0002 0120     		movs	r0, #1
 569 0004 FFF7FEFF 		bl	number
 570              	.LVL65:
  17:Src/Gcode/Buffer_Gcode.c ****     descreteBuffer[number(2)] = defaultDescreteCommand;
 571              		.loc 1 17 31 view .LVU104
 572 0008 104C     		ldr	r4, .L28
 573 000a 00EB8000 		add	r0, r0, r0, lsl #2
 574 000e 2825     		movs	r5, #40
 575 0010 2A46     		mov	r2, r5
 576 0012 0021     		movs	r1, #0
 577 0014 04EBC000 		add	r0, r4, r0, lsl #3
 578 0018 FFF7FEFF 		bl	memset
 579              	.LVL66:
  18:Src/Gcode/Buffer_Gcode.c ****     descreteBuffer[number(3)] = defaultDescreteCommand;
 580              		.loc 1 18 5 is_stmt 1 view .LVU105
  18:Src/Gcode/Buffer_Gcode.c ****     descreteBuffer[number(3)] = defaultDescreteCommand;
 581              		.loc 1 18 20 is_stmt 0 view .LVU106
 582 001c 0220     		movs	r0, #2
 583 001e FFF7FEFF 		bl	number
 584              	.LVL67:
  18:Src/Gcode/Buffer_Gcode.c ****     descreteBuffer[number(3)] = defaultDescreteCommand;
 585              		.loc 1 18 31 view .LVU107
 586 0022 00EB8000 		add	r0, r0, r0, lsl #2
 587 0026 2A46     		mov	r2, r5
 588 0028 0021     		movs	r1, #0
 589 002a 04EBC000 		add	r0, r4, r0, lsl #3
 590 002e FFF7FEFF 		bl	memset
 591              	.LVL68:
  19:Src/Gcode/Buffer_Gcode.c **** }
 592              		.loc 1 19 5 is_stmt 1 view .LVU108
  19:Src/Gcode/Buffer_Gcode.c **** }
 593              		.loc 1 19 20 is_stmt 0 view .LVU109
 594 0032 0320     		movs	r0, #3
 595 0034 FFF7FEFF 		bl	number
 596              	.LVL69:
  19:Src/Gcode/Buffer_Gcode.c **** }
 597              		.loc 1 19 31 view .LVU110
 598 0038 00EB8000 		add	r0, r0, r0, lsl #2
 599 003c 2A46     		mov	r2, r5
 600 003e 0021     		movs	r1, #0
 601 0040 04EBC000 		add	r0, r4, r0, lsl #3
 602 0044 FFF7FEFF 		bl	memset
 603              	.LVL70:
  20:Src/Gcode/Buffer_Gcode.c **** 
 604              		.loc 1 20 1 view .LVU111
ARM GAS  /tmp/ccMe0kQ8.s 			page 22


 605 0048 38BD     		pop	{r3, r4, r5, pc}
 606              	.L29:
 607 004a 00BF     		.align	2
 608              	.L28:
 609 004c 00000000 		.word	.LANCHOR1
 610              		.cfi_endproc
 611              	.LFE1:
 613              		.section	.text.addElementToDescreteCommandBuffer_Gcode,"ax",%progbits
 614              		.align	1
 615              		.global	addElementToDescreteCommandBuffer_Gcode
 616              		.syntax unified
 617              		.thumb
 618              		.thumb_func
 619              		.fpu softvfp
 621              	addElementToDescreteCommandBuffer_Gcode:
 622              	.LFB2:
  23:Src/Gcode/Buffer_Gcode.c ****     descreteBuffer[number(1)] = descreteBuffer[number(2)];
 623              		.loc 1 23 1 is_stmt 1 view -0
 624              		.cfi_startproc
 625              		@ args = 40, pretend = 16, frame = 0
 626              		@ frame_needed = 0, uses_anonymous_args = 0
 627 0000 84B0     		sub	sp, sp, #16
 628              	.LCFI7:
 629              		.cfi_def_cfa_offset 16
 630 0002 2DE9F041 		push	{r4, r5, r6, r7, r8, lr}
 631              	.LCFI8:
 632              		.cfi_def_cfa_offset 40
 633              		.cfi_offset 4, -40
 634              		.cfi_offset 5, -36
 635              		.cfi_offset 6, -32
 636              		.cfi_offset 7, -28
 637              		.cfi_offset 8, -24
 638              		.cfi_offset 14, -20
 639 0006 06AC     		add	r4, sp, #24
 640 0008 84E80F00 		stm	r4, {r0, r1, r2, r3}
  24:Src/Gcode/Buffer_Gcode.c ****     descreteBuffer[number(2)] = descreteBuffer[number(3)];
 641              		.loc 1 24 5 view .LVU113
  24:Src/Gcode/Buffer_Gcode.c ****     descreteBuffer[number(2)] = descreteBuffer[number(3)];
 642              		.loc 1 24 48 is_stmt 0 view .LVU114
 643 000c 0220     		movs	r0, #2
 644 000e FFF7FEFF 		bl	number
 645              	.LVL71:
 646 0012 8046     		mov	r8, r0
  24:Src/Gcode/Buffer_Gcode.c ****     descreteBuffer[number(2)] = descreteBuffer[number(3)];
 647              		.loc 1 24 20 view .LVU115
 648 0014 0120     		movs	r0, #1
 649 0016 FFF7FEFF 		bl	number
 650              	.LVL72:
  24:Src/Gcode/Buffer_Gcode.c ****     descreteBuffer[number(2)] = descreteBuffer[number(3)];
 651              		.loc 1 24 31 view .LVU116
 652 001a 1B4D     		ldr	r5, .L32
 653 001c 00EB8004 		add	r4, r0, r0, lsl #2
 654 0020 4FEA8806 		lsl	r6, r8, #2
 655 0024 08EB8807 		add	r7, r8, r8, lsl #2
 656 0028 05EBC404 		add	r4, r5, r4, lsl #3
 657 002c 05EBC707 		add	r7, r5, r7, lsl #3
 658 0030 0FCF     		ldmia	r7!, {r0, r1, r2, r3}
ARM GAS  /tmp/ccMe0kQ8.s 			page 23


 659 0032 0FC4     		stmia	r4!, {r0, r1, r2, r3}
 660 0034 0FCF     		ldmia	r7!, {r0, r1, r2, r3}
 661 0036 0FC4     		stmia	r4!, {r0, r1, r2, r3}
 662 0038 97E80300 		ldm	r7, {r0, r1}
 663 003c 84E80300 		stm	r4, {r0, r1}
  25:Src/Gcode/Buffer_Gcode.c ****     descreteBuffer[number(3)] = descreteCommand;
 664              		.loc 1 25 5 is_stmt 1 view .LVU117
  25:Src/Gcode/Buffer_Gcode.c ****     descreteBuffer[number(3)] = descreteCommand;
 665              		.loc 1 25 48 is_stmt 0 view .LVU118
 666 0040 0320     		movs	r0, #3
 667 0042 FFF7FEFF 		bl	number
 668              	.LVL73:
 669 0046 0446     		mov	r4, r0
  25:Src/Gcode/Buffer_Gcode.c ****     descreteBuffer[number(3)] = descreteCommand;
 670              		.loc 1 25 31 view .LVU119
 671 0048 4644     		add	r6, r6, r8
 672 004a 00EB8007 		add	r7, r0, r0, lsl #2
 673 004e 05EBC606 		add	r6, r5, r6, lsl #3
 674 0052 05EBC707 		add	r7, r5, r7, lsl #3
 675 0056 0FCF     		ldmia	r7!, {r0, r1, r2, r3}
 676 0058 0FC6     		stmia	r6!, {r0, r1, r2, r3}
 677 005a 0FCF     		ldmia	r7!, {r0, r1, r2, r3}
 678 005c 0FC6     		stmia	r6!, {r0, r1, r2, r3}
 679 005e 97E80300 		ldm	r7, {r0, r1}
 680 0062 86E80300 		stm	r6, {r0, r1}
  26:Src/Gcode/Buffer_Gcode.c **** }
 681              		.loc 1 26 5 is_stmt 1 view .LVU120
  26:Src/Gcode/Buffer_Gcode.c **** }
 682              		.loc 1 26 31 is_stmt 0 view .LVU121
 683 0066 04EB8404 		add	r4, r4, r4, lsl #2
 684 006a 05EBC404 		add	r4, r5, r4, lsl #3
 685 006e 06AD     		add	r5, sp, #24
 686 0070 0FCD     		ldmia	r5!, {r0, r1, r2, r3}
 687 0072 0FC4     		stmia	r4!, {r0, r1, r2, r3}
 688 0074 0FCD     		ldmia	r5!, {r0, r1, r2, r3}
 689 0076 0FC4     		stmia	r4!, {r0, r1, r2, r3}
 690 0078 95E80300 		ldm	r5, {r0, r1}
 691 007c 84E80300 		stm	r4, {r0, r1}
  27:Src/Gcode/Buffer_Gcode.c **** 
 692              		.loc 1 27 1 view .LVU122
 693 0080 BDE8F041 		pop	{r4, r5, r6, r7, r8, lr}
 694              	.LCFI9:
 695              		.cfi_restore 14
 696              		.cfi_restore 8
 697              		.cfi_restore 7
 698              		.cfi_restore 6
 699              		.cfi_restore 5
 700              		.cfi_restore 4
 701              		.cfi_def_cfa_offset 16
 702 0084 04B0     		add	sp, sp, #16
 703              	.LCFI10:
 704              		.cfi_def_cfa_offset 0
 705 0086 7047     		bx	lr
 706              	.L33:
 707              		.align	2
 708              	.L32:
 709 0088 00000000 		.word	.LANCHOR1
ARM GAS  /tmp/ccMe0kQ8.s 			page 24


 710              		.cfi_endproc
 711              	.LFE2:
 713              		.section	.text.clearDescreteBuffer_Gcode,"ax",%progbits
 714              		.align	1
 715              		.global	clearDescreteBuffer_Gcode
 716              		.syntax unified
 717              		.thumb
 718              		.thumb_func
 719              		.fpu softvfp
 721              	clearDescreteBuffer_Gcode:
 722              	.LFB3:
  30:Src/Gcode/Buffer_Gcode.c ****     descreteBuffer[number(1)] = defaultDescreteCommand;
 723              		.loc 1 30 1 is_stmt 1 view -0
 724              		.cfi_startproc
 725              		@ args = 0, pretend = 0, frame = 0
 726              		@ frame_needed = 0, uses_anonymous_args = 0
 727 0000 38B5     		push	{r3, r4, r5, lr}
 728              	.LCFI11:
 729              		.cfi_def_cfa_offset 16
 730              		.cfi_offset 3, -16
 731              		.cfi_offset 4, -12
 732              		.cfi_offset 5, -8
 733              		.cfi_offset 14, -4
  31:Src/Gcode/Buffer_Gcode.c ****     descreteBuffer[number(2)] = defaultDescreteCommand;
 734              		.loc 1 31 5 view .LVU124
  31:Src/Gcode/Buffer_Gcode.c ****     descreteBuffer[number(2)] = defaultDescreteCommand;
 735              		.loc 1 31 20 is_stmt 0 view .LVU125
 736 0002 0120     		movs	r0, #1
 737 0004 FFF7FEFF 		bl	number
 738              	.LVL74:
  31:Src/Gcode/Buffer_Gcode.c ****     descreteBuffer[number(2)] = defaultDescreteCommand;
 739              		.loc 1 31 31 view .LVU126
 740 0008 104C     		ldr	r4, .L36
 741 000a 00EB8000 		add	r0, r0, r0, lsl #2
 742 000e 2825     		movs	r5, #40
 743 0010 2A46     		mov	r2, r5
 744 0012 0021     		movs	r1, #0
 745 0014 04EBC000 		add	r0, r4, r0, lsl #3
 746 0018 FFF7FEFF 		bl	memset
 747              	.LVL75:
  32:Src/Gcode/Buffer_Gcode.c ****     descreteBuffer[number(3)] = defaultDescreteCommand;
 748              		.loc 1 32 5 is_stmt 1 view .LVU127
  32:Src/Gcode/Buffer_Gcode.c ****     descreteBuffer[number(3)] = defaultDescreteCommand;
 749              		.loc 1 32 20 is_stmt 0 view .LVU128
 750 001c 0220     		movs	r0, #2
 751 001e FFF7FEFF 		bl	number
 752              	.LVL76:
  32:Src/Gcode/Buffer_Gcode.c ****     descreteBuffer[number(3)] = defaultDescreteCommand;
 753              		.loc 1 32 31 view .LVU129
 754 0022 00EB8000 		add	r0, r0, r0, lsl #2
 755 0026 2A46     		mov	r2, r5
 756 0028 0021     		movs	r1, #0
 757 002a 04EBC000 		add	r0, r4, r0, lsl #3
 758 002e FFF7FEFF 		bl	memset
 759              	.LVL77:
  33:Src/Gcode/Buffer_Gcode.c **** }
 760              		.loc 1 33 5 is_stmt 1 view .LVU130
ARM GAS  /tmp/ccMe0kQ8.s 			page 25


  33:Src/Gcode/Buffer_Gcode.c **** }
 761              		.loc 1 33 20 is_stmt 0 view .LVU131
 762 0032 0320     		movs	r0, #3
 763 0034 FFF7FEFF 		bl	number
 764              	.LVL78:
  33:Src/Gcode/Buffer_Gcode.c **** }
 765              		.loc 1 33 31 view .LVU132
 766 0038 00EB8000 		add	r0, r0, r0, lsl #2
 767 003c 2A46     		mov	r2, r5
 768 003e 0021     		movs	r1, #0
 769 0040 04EBC000 		add	r0, r4, r0, lsl #3
 770 0044 FFF7FEFF 		bl	memset
 771              	.LVL79:
  34:Src/Gcode/Buffer_Gcode.c **** 
 772              		.loc 1 34 1 view .LVU133
 773 0048 38BD     		pop	{r3, r4, r5, pc}
 774              	.L37:
 775 004a 00BF     		.align	2
 776              	.L36:
 777 004c 00000000 		.word	.LANCHOR1
 778              		.cfi_endproc
 779              	.LFE3:
 781              		.section	.text.getDescreteCommandBufferElement_Gcode,"ax",%progbits
 782              		.align	1
 783              		.global	getDescreteCommandBufferElement_Gcode
 784              		.syntax unified
 785              		.thumb
 786              		.thumb_func
 787              		.fpu softvfp
 789              	getDescreteCommandBufferElement_Gcode:
 790              	.LVL80:
 791              	.LFB4:
  37:Src/Gcode/Buffer_Gcode.c ****     if (elementNumber < 1) elementNumber = 1;
 792              		.loc 1 37 1 is_stmt 1 view -0
 793              		.cfi_startproc
 794              		@ args = 0, pretend = 0, frame = 0
 795              		@ frame_needed = 0, uses_anonymous_args = 0
  37:Src/Gcode/Buffer_Gcode.c ****     if (elementNumber < 1) elementNumber = 1;
 796              		.loc 1 37 1 is_stmt 0 view .LVU135
 797 0000 70B5     		push	{r4, r5, r6, lr}
 798              	.LCFI12:
 799              		.cfi_def_cfa_offset 16
 800              		.cfi_offset 4, -16
 801              		.cfi_offset 5, -12
 802              		.cfi_offset 6, -8
 803              		.cfi_offset 14, -4
 804 0002 0646     		mov	r6, r0
  38:Src/Gcode/Buffer_Gcode.c ****     if (elementNumber > 3) elementNumber = 3;
 805              		.loc 1 38 5 is_stmt 1 view .LVU136
  38:Src/Gcode/Buffer_Gcode.c ****     if (elementNumber > 3) elementNumber = 3;
 806              		.loc 1 38 8 is_stmt 0 view .LVU137
 807 0004 081E     		subs	r0, r1, #0
 808              	.LVL81:
  38:Src/Gcode/Buffer_Gcode.c ****     if (elementNumber > 3) elementNumber = 3;
 809              		.loc 1 38 8 view .LVU138
 810 0006 03DD     		ble	.L40
  39:Src/Gcode/Buffer_Gcode.c ****     return descreteBuffer[number(elementNumber)];
ARM GAS  /tmp/ccMe0kQ8.s 			page 26


 811              		.loc 1 39 5 is_stmt 1 view .LVU139
  39:Src/Gcode/Buffer_Gcode.c ****     return descreteBuffer[number(elementNumber)];
 812              		.loc 1 39 8 is_stmt 0 view .LVU140
 813 0008 0328     		cmp	r0, #3
 814 000a 02DD     		ble	.L39
  39:Src/Gcode/Buffer_Gcode.c ****     return descreteBuffer[number(elementNumber)];
 815              		.loc 1 39 42 view .LVU141
 816 000c 0320     		movs	r0, #3
 817 000e 00E0     		b	.L39
 818              	.LVL82:
 819              	.L40:
  38:Src/Gcode/Buffer_Gcode.c ****     if (elementNumber > 3) elementNumber = 3;
 820              		.loc 1 38 42 view .LVU142
 821 0010 0120     		movs	r0, #1
 822              	.LVL83:
 823              	.L39:
  40:Src/Gcode/Buffer_Gcode.c **** }
 824              		.loc 1 40 5 is_stmt 1 view .LVU143
  40:Src/Gcode/Buffer_Gcode.c **** }
 825              		.loc 1 40 27 is_stmt 0 view .LVU144
 826 0012 FFF7FEFF 		bl	number
 827              	.LVL84:
  40:Src/Gcode/Buffer_Gcode.c **** }
 828              		.loc 1 40 26 view .LVU145
 829 0016 00EB8000 		add	r0, r0, r0, lsl #2
 830 001a 3546     		mov	r5, r6
 831 001c 064C     		ldr	r4, .L43
 832 001e 04EBC004 		add	r4, r4, r0, lsl #3
 833 0022 0FCC     		ldmia	r4!, {r0, r1, r2, r3}
 834 0024 0FC5     		stmia	r5!, {r0, r1, r2, r3}
 835 0026 0FCC     		ldmia	r4!, {r0, r1, r2, r3}
 836 0028 0FC5     		stmia	r5!, {r0, r1, r2, r3}
 837 002a 94E80300 		ldm	r4, {r0, r1}
 838 002e 85E80300 		stm	r5, {r0, r1}
  41:Src/Gcode/Buffer_Gcode.c **** 
 839              		.loc 1 41 1 view .LVU146
 840 0032 3046     		mov	r0, r6
 841 0034 70BD     		pop	{r4, r5, r6, pc}
 842              	.LVL85:
 843              	.L44:
  41:Src/Gcode/Buffer_Gcode.c **** 
 844              		.loc 1 41 1 view .LVU147
 845 0036 00BF     		.align	2
 846              	.L43:
 847 0038 00000000 		.word	.LANCHOR1
 848              		.cfi_endproc
 849              	.LFE4:
 851              		.section	.text.conserveSpeedFinish,"ax",%progbits
 852              		.align	1
 853              		.syntax unified
 854              		.thumb
 855              		.thumb_func
 856              		.fpu softvfp
 858              	conserveSpeedFinish:
 859              	.LVL86:
 860              	.LFB15:
 158:Src/Gcode/Buffer_Gcode.c ****     if (getDescreteCommandBufferElement_Gcode(3).type != MOVE_COMMAND)
ARM GAS  /tmp/ccMe0kQ8.s 			page 27


 861              		.loc 1 158 1 is_stmt 1 view -0
 862              		.cfi_startproc
 863              		@ args = 0, pretend = 0, frame = 200
 864              		@ frame_needed = 0, uses_anonymous_args = 0
 158:Src/Gcode/Buffer_Gcode.c ****     if (getDescreteCommandBufferElement_Gcode(3).type != MOVE_COMMAND)
 865              		.loc 1 158 1 is_stmt 0 view .LVU149
 866 0000 2DE9F041 		push	{r4, r5, r6, r7, r8, lr}
 867              	.LCFI13:
 868              		.cfi_def_cfa_offset 24
 869              		.cfi_offset 4, -24
 870              		.cfi_offset 5, -20
 871              		.cfi_offset 6, -16
 872              		.cfi_offset 7, -12
 873              		.cfi_offset 8, -8
 874              		.cfi_offset 14, -4
 875 0004 B2B0     		sub	sp, sp, #200
 876              	.LCFI14:
 877              		.cfi_def_cfa_offset 224
 878 0006 0546     		mov	r5, r0
 879 0008 0C46     		mov	r4, r1
 159:Src/Gcode/Buffer_Gcode.c ****         return false;
 880              		.loc 1 159 5 is_stmt 1 view .LVU150
 159:Src/Gcode/Buffer_Gcode.c ****         return false;
 881              		.loc 1 159 9 is_stmt 0 view .LVU151
 882 000a 0321     		movs	r1, #3
 883              	.LVL87:
 159:Src/Gcode/Buffer_Gcode.c ****         return false;
 884              		.loc 1 159 9 view .LVU152
 885 000c 6846     		mov	r0, sp
 886              	.LVL88:
 159:Src/Gcode/Buffer_Gcode.c ****         return false;
 887              		.loc 1 159 9 view .LVU153
 888 000e FFF7FEFF 		bl	getDescreteCommandBufferElement_Gcode
 889              	.LVL89:
 159:Src/Gcode/Buffer_Gcode.c ****         return false;
 890              		.loc 1 159 49 view .LVU154
 891 0012 9DF80030 		ldrb	r3, [sp]	@ zero_extendqisi2
 159:Src/Gcode/Buffer_Gcode.c ****         return false;
 892              		.loc 1 159 8 view .LVU155
 893 0016 012B     		cmp	r3, #1
 894 0018 03D0     		beq	.L50
 160:Src/Gcode/Buffer_Gcode.c ****     long XnNext = getDescreteCommandBufferElement_Gcode(3).Xn - getDescreteCommandBufferElement_Gco
 895              		.loc 1 160 16 view .LVU156
 896 001a 0020     		movs	r0, #0
 897              	.LVL90:
 898              	.L46:
 170:Src/Gcode/Buffer_Gcode.c **** 
 899              		.loc 1 170 1 view .LVU157
 900 001c 32B0     		add	sp, sp, #200
 901              	.LCFI15:
 902              		.cfi_remember_state
 903              		.cfi_def_cfa_offset 24
 904              		@ sp needed
 905 001e BDE8F081 		pop	{r4, r5, r6, r7, r8, pc}
 906              	.LVL91:
 907              	.L50:
 908              	.LCFI16:
ARM GAS  /tmp/ccMe0kQ8.s 			page 28


 909              		.cfi_restore_state
 161:Src/Gcode/Buffer_Gcode.c ****     long YnNext = getDescreteCommandBufferElement_Gcode(3).Yn - getDescreteCommandBufferElement_Gco
 910              		.loc 1 161 5 is_stmt 1 view .LVU158
 161:Src/Gcode/Buffer_Gcode.c ****     long YnNext = getDescreteCommandBufferElement_Gcode(3).Yn - getDescreteCommandBufferElement_Gco
 911              		.loc 1 161 19 is_stmt 0 view .LVU159
 912 0022 0321     		movs	r1, #3
 913 0024 0AA8     		add	r0, sp, #40
 914 0026 FFF7FEFF 		bl	getDescreteCommandBufferElement_Gcode
 915              	.LVL92:
 161:Src/Gcode/Buffer_Gcode.c ****     long YnNext = getDescreteCommandBufferElement_Gcode(3).Yn - getDescreteCommandBufferElement_Gco
 916              		.loc 1 161 59 view .LVU160
 917 002a 0B9F     		ldr	r7, [sp, #44]
 161:Src/Gcode/Buffer_Gcode.c ****     long YnNext = getDescreteCommandBufferElement_Gcode(3).Yn - getDescreteCommandBufferElement_Gco
 918              		.loc 1 161 65 view .LVU161
 919 002c 0221     		movs	r1, #2
 920 002e 14A8     		add	r0, sp, #80
 921 0030 FFF7FEFF 		bl	getDescreteCommandBufferElement_Gcode
 922              	.LVL93:
 161:Src/Gcode/Buffer_Gcode.c ****     long YnNext = getDescreteCommandBufferElement_Gcode(3).Yn - getDescreteCommandBufferElement_Gco
 923              		.loc 1 161 105 view .LVU162
 924 0034 159B     		ldr	r3, [sp, #84]
 161:Src/Gcode/Buffer_Gcode.c ****     long YnNext = getDescreteCommandBufferElement_Gcode(3).Yn - getDescreteCommandBufferElement_Gco
 925              		.loc 1 161 10 view .LVU163
 926 0036 FF1A     		subs	r7, r7, r3
 927              	.LVL94:
 162:Src/Gcode/Buffer_Gcode.c ****     float xy1xy2 = (float)XnNext*(float)Xn + (float)YnNext*(float)Yn;
 928              		.loc 1 162 5 is_stmt 1 view .LVU164
 162:Src/Gcode/Buffer_Gcode.c ****     float xy1xy2 = (float)XnNext*(float)Xn + (float)YnNext*(float)Yn;
 929              		.loc 1 162 19 is_stmt 0 view .LVU165
 930 0038 0321     		movs	r1, #3
 931 003a 1EA8     		add	r0, sp, #120
 932 003c FFF7FEFF 		bl	getDescreteCommandBufferElement_Gcode
 933              	.LVL95:
 162:Src/Gcode/Buffer_Gcode.c ****     float xy1xy2 = (float)XnNext*(float)Xn + (float)YnNext*(float)Yn;
 934              		.loc 1 162 59 view .LVU166
 935 0040 209E     		ldr	r6, [sp, #128]
 162:Src/Gcode/Buffer_Gcode.c ****     float xy1xy2 = (float)XnNext*(float)Xn + (float)YnNext*(float)Yn;
 936              		.loc 1 162 65 view .LVU167
 937 0042 0221     		movs	r1, #2
 938 0044 28A8     		add	r0, sp, #160
 939 0046 FFF7FEFF 		bl	getDescreteCommandBufferElement_Gcode
 940              	.LVL96:
 162:Src/Gcode/Buffer_Gcode.c ****     float xy1xy2 = (float)XnNext*(float)Xn + (float)YnNext*(float)Yn;
 941              		.loc 1 162 105 view .LVU168
 942 004a 2A9B     		ldr	r3, [sp, #168]
 162:Src/Gcode/Buffer_Gcode.c ****     float xy1xy2 = (float)XnNext*(float)Xn + (float)YnNext*(float)Yn;
 943              		.loc 1 162 10 view .LVU169
 944 004c F61A     		subs	r6, r6, r3
 945              	.LVL97:
 163:Src/Gcode/Buffer_Gcode.c ****     float xy1xy1 = (float)XnNext*(float)XnNext + (float)YnNext*(float)YnNext;
 946              		.loc 1 163 5 is_stmt 1 view .LVU170
 163:Src/Gcode/Buffer_Gcode.c ****     float xy1xy1 = (float)XnNext*(float)XnNext + (float)YnNext*(float)YnNext;
 947              		.loc 1 163 20 is_stmt 0 view .LVU171
 948 004e 3846     		mov	r0, r7
 949 0050 FFF7FEFF 		bl	__aeabi_i2f
 950              	.LVL98:
 951 0054 0746     		mov	r7, r0
ARM GAS  /tmp/ccMe0kQ8.s 			page 29


 952              	.LVL99:
 163:Src/Gcode/Buffer_Gcode.c ****     float xy1xy1 = (float)XnNext*(float)XnNext + (float)YnNext*(float)YnNext;
 953              		.loc 1 163 34 view .LVU172
 954 0056 2846     		mov	r0, r5
 955 0058 FFF7FEFF 		bl	__aeabi_i2f
 956              	.LVL100:
 957 005c 0546     		mov	r5, r0
 958              	.LVL101:
 163:Src/Gcode/Buffer_Gcode.c ****     float xy1xy1 = (float)XnNext*(float)XnNext + (float)YnNext*(float)YnNext;
 959              		.loc 1 163 33 view .LVU173
 960 005e 0146     		mov	r1, r0
 961 0060 3846     		mov	r0, r7
 962 0062 FFF7FEFF 		bl	__aeabi_fmul
 963              	.LVL102:
 964 0066 8046     		mov	r8, r0
 163:Src/Gcode/Buffer_Gcode.c ****     float xy1xy1 = (float)XnNext*(float)XnNext + (float)YnNext*(float)YnNext;
 965              		.loc 1 163 46 view .LVU174
 966 0068 3046     		mov	r0, r6
 967 006a FFF7FEFF 		bl	__aeabi_i2f
 968              	.LVL103:
 969 006e 0646     		mov	r6, r0
 970              	.LVL104:
 163:Src/Gcode/Buffer_Gcode.c ****     float xy1xy1 = (float)XnNext*(float)XnNext + (float)YnNext*(float)YnNext;
 971              		.loc 1 163 60 view .LVU175
 972 0070 2046     		mov	r0, r4
 973 0072 FFF7FEFF 		bl	__aeabi_i2f
 974              	.LVL105:
 975 0076 0446     		mov	r4, r0
 976              	.LVL106:
 163:Src/Gcode/Buffer_Gcode.c ****     float xy1xy1 = (float)XnNext*(float)XnNext + (float)YnNext*(float)YnNext;
 977              		.loc 1 163 59 view .LVU176
 978 0078 0146     		mov	r1, r0
 979 007a 3046     		mov	r0, r6
 980 007c FFF7FEFF 		bl	__aeabi_fmul
 981              	.LVL107:
 982 0080 0146     		mov	r1, r0
 163:Src/Gcode/Buffer_Gcode.c ****     float xy1xy1 = (float)XnNext*(float)XnNext + (float)YnNext*(float)YnNext;
 983              		.loc 1 163 11 view .LVU177
 984 0082 4046     		mov	r0, r8
 985 0084 FFF7FEFF 		bl	__aeabi_fadd
 986              	.LVL108:
 987 0088 8046     		mov	r8, r0
 988              	.LVL109:
 164:Src/Gcode/Buffer_Gcode.c ****     float xy2xy2 = (float)Xn*(float)Xn + (float)Yn*(float)Yn;
 989              		.loc 1 164 5 is_stmt 1 view .LVU178
 164:Src/Gcode/Buffer_Gcode.c ****     float xy2xy2 = (float)Xn*(float)Xn + (float)Yn*(float)Yn;
 990              		.loc 1 164 33 is_stmt 0 view .LVU179
 991 008a 3946     		mov	r1, r7
 992 008c 3846     		mov	r0, r7
 993              	.LVL110:
 164:Src/Gcode/Buffer_Gcode.c ****     float xy2xy2 = (float)Xn*(float)Xn + (float)Yn*(float)Yn;
 994              		.loc 1 164 33 view .LVU180
 995 008e FFF7FEFF 		bl	__aeabi_fmul
 996              	.LVL111:
 997 0092 0746     		mov	r7, r0
 164:Src/Gcode/Buffer_Gcode.c ****     float xy2xy2 = (float)Xn*(float)Xn + (float)Yn*(float)Yn;
 998              		.loc 1 164 63 view .LVU181
ARM GAS  /tmp/ccMe0kQ8.s 			page 30


 999 0094 3146     		mov	r1, r6
 1000 0096 3046     		mov	r0, r6
 1001 0098 FFF7FEFF 		bl	__aeabi_fmul
 1002              	.LVL112:
 1003 009c 0146     		mov	r1, r0
 164:Src/Gcode/Buffer_Gcode.c ****     float xy2xy2 = (float)Xn*(float)Xn + (float)Yn*(float)Yn;
 1004              		.loc 1 164 11 view .LVU182
 1005 009e 3846     		mov	r0, r7
 1006 00a0 FFF7FEFF 		bl	__aeabi_fadd
 1007              	.LVL113:
 1008 00a4 0646     		mov	r6, r0
 1009              	.LVL114:
 165:Src/Gcode/Buffer_Gcode.c ****     float xy1xy2Critical = sqrtf(xy1xy1)*sqrtf(xy2xy2)*cos(3.14*(float)CRITICAL_ANGLE_XY/180.0);
 1010              		.loc 1 165 5 is_stmt 1 view .LVU183
 165:Src/Gcode/Buffer_Gcode.c ****     float xy1xy2Critical = sqrtf(xy1xy1)*sqrtf(xy2xy2)*cos(3.14*(float)CRITICAL_ANGLE_XY/180.0);
 1011              		.loc 1 165 29 is_stmt 0 view .LVU184
 1012 00a6 2946     		mov	r1, r5
 1013 00a8 2846     		mov	r0, r5
 1014              	.LVL115:
 165:Src/Gcode/Buffer_Gcode.c ****     float xy1xy2Critical = sqrtf(xy1xy1)*sqrtf(xy2xy2)*cos(3.14*(float)CRITICAL_ANGLE_XY/180.0);
 1015              		.loc 1 165 29 view .LVU185
 1016 00aa FFF7FEFF 		bl	__aeabi_fmul
 1017              	.LVL116:
 1018 00ae 0546     		mov	r5, r0
 165:Src/Gcode/Buffer_Gcode.c ****     float xy1xy2Critical = sqrtf(xy1xy1)*sqrtf(xy2xy2)*cos(3.14*(float)CRITICAL_ANGLE_XY/180.0);
 1019              		.loc 1 165 51 view .LVU186
 1020 00b0 2146     		mov	r1, r4
 1021 00b2 2046     		mov	r0, r4
 1022 00b4 FFF7FEFF 		bl	__aeabi_fmul
 1023              	.LVL117:
 1024 00b8 0146     		mov	r1, r0
 165:Src/Gcode/Buffer_Gcode.c ****     float xy1xy2Critical = sqrtf(xy1xy1)*sqrtf(xy2xy2)*cos(3.14*(float)CRITICAL_ANGLE_XY/180.0);
 1025              		.loc 1 165 11 view .LVU187
 1026 00ba 2846     		mov	r0, r5
 1027 00bc FFF7FEFF 		bl	__aeabi_fadd
 1028              	.LVL118:
 1029 00c0 0546     		mov	r5, r0
 1030              	.LVL119:
 166:Src/Gcode/Buffer_Gcode.c ****     if (xy1xy2 < xy1xy2Critical)
 1031              		.loc 1 166 5 is_stmt 1 view .LVU188
 166:Src/Gcode/Buffer_Gcode.c ****     if (xy1xy2 < xy1xy2Critical)
 1032              		.loc 1 166 28 is_stmt 0 view .LVU189
 1033 00c2 3046     		mov	r0, r6
 1034              	.LVL120:
 166:Src/Gcode/Buffer_Gcode.c ****     if (xy1xy2 < xy1xy2Critical)
 1035              		.loc 1 166 28 view .LVU190
 1036 00c4 FFF7FEFF 		bl	sqrtf
 1037              	.LVL121:
 1038 00c8 0446     		mov	r4, r0
 166:Src/Gcode/Buffer_Gcode.c ****     if (xy1xy2 < xy1xy2Critical)
 1039              		.loc 1 166 42 view .LVU191
 1040 00ca 2846     		mov	r0, r5
 1041 00cc FFF7FEFF 		bl	sqrtf
 1042              	.LVL122:
 1043 00d0 0146     		mov	r1, r0
 166:Src/Gcode/Buffer_Gcode.c ****     if (xy1xy2 < xy1xy2Critical)
 1044              		.loc 1 166 41 view .LVU192
ARM GAS  /tmp/ccMe0kQ8.s 			page 31


 1045 00d2 2046     		mov	r0, r4
 1046 00d4 FFF7FEFF 		bl	__aeabi_fmul
 1047              	.LVL123:
 1048 00d8 FFF7FEFF 		bl	__aeabi_f2d
 1049              	.LVL124:
 166:Src/Gcode/Buffer_Gcode.c ****     if (xy1xy2 < xy1xy2Critical)
 1050              		.loc 1 166 55 view .LVU193
 1051 00dc 08A3     		adr	r3, .L51
 1052 00de D3E90023 		ldrd	r2, [r3]
 1053 00e2 FFF7FEFF 		bl	__aeabi_dmul
 1054              	.LVL125:
 166:Src/Gcode/Buffer_Gcode.c ****     if (xy1xy2 < xy1xy2Critical)
 1055              		.loc 1 166 11 view .LVU194
 1056 00e6 FFF7FEFF 		bl	__aeabi_d2f
 1057              	.LVL126:
 1058 00ea 0146     		mov	r1, r0
 1059              	.LVL127:
 167:Src/Gcode/Buffer_Gcode.c ****         return false;
 1060              		.loc 1 167 5 is_stmt 1 view .LVU195
 167:Src/Gcode/Buffer_Gcode.c ****         return false;
 1061              		.loc 1 167 8 is_stmt 0 view .LVU196
 1062 00ec 4046     		mov	r0, r8
 1063              	.LVL128:
 167:Src/Gcode/Buffer_Gcode.c ****         return false;
 1064              		.loc 1 167 8 view .LVU197
 1065 00ee FFF7FEFF 		bl	__aeabi_fcmplt
 1066              	.LVL129:
 167:Src/Gcode/Buffer_Gcode.c ****         return false;
 1067              		.loc 1 167 8 view .LVU198
 1068 00f2 08B9     		cbnz	r0, .L48
 169:Src/Gcode/Buffer_Gcode.c **** }
 1069              		.loc 1 169 12 view .LVU199
 1070 00f4 0120     		movs	r0, #1
 1071 00f6 91E7     		b	.L46
 1072              	.L48:
 168:Src/Gcode/Buffer_Gcode.c ****     return true;
 1073              		.loc 1 168 16 view .LVU200
 1074 00f8 0020     		movs	r0, #0
 1075 00fa 8FE7     		b	.L46
 1076              	.L52:
 1077 00fc AFF30080 		.align	3
 1078              	.L51:
 1079 0100 32453628 		.word	674645298
 1080 0104 7512EE3F 		.word	1072566901
 1081              		.cfi_endproc
 1082              	.LFE15:
 1084              		.section	.text.createCommandBuffer_Gcode,"ax",%progbits
 1085              		.align	1
 1086              		.global	createCommandBuffer_Gcode
 1087              		.syntax unified
 1088              		.thumb
 1089              		.thumb_func
 1090              		.fpu softvfp
 1092              	createCommandBuffer_Gcode:
 1093              	.LFB5:
  51:Src/Gcode/Buffer_Gcode.c ****     int n;
 1094              		.loc 1 51 1 is_stmt 1 view -0
ARM GAS  /tmp/ccMe0kQ8.s 			page 32


 1095              		.cfi_startproc
 1096              		@ args = 0, pretend = 0, frame = 0
 1097              		@ frame_needed = 0, uses_anonymous_args = 0
 1098 0000 10B5     		push	{r4, lr}
 1099              	.LCFI17:
 1100              		.cfi_def_cfa_offset 8
 1101              		.cfi_offset 4, -8
 1102              		.cfi_offset 14, -4
  52:Src/Gcode/Buffer_Gcode.c ****     for (n=1; n<=COMMAND_BUFFER_LENGTH; n++)
 1103              		.loc 1 52 5 view .LVU202
  53:Src/Gcode/Buffer_Gcode.c ****         commandBuffer[number(n)] = defaultCommand;
 1104              		.loc 1 53 5 view .LVU203
 1105              	.LVL130:
  53:Src/Gcode/Buffer_Gcode.c ****         commandBuffer[number(n)] = defaultCommand;
 1106              		.loc 1 53 11 is_stmt 0 view .LVU204
 1107 0002 0124     		movs	r4, #1
 1108              	.LVL131:
 1109              	.L54:
  53:Src/Gcode/Buffer_Gcode.c ****         commandBuffer[number(n)] = defaultCommand;
 1110              		.loc 1 53 15 is_stmt 1 discriminator 1 view .LVU205
  53:Src/Gcode/Buffer_Gcode.c ****         commandBuffer[number(n)] = defaultCommand;
 1111              		.loc 1 53 5 is_stmt 0 discriminator 1 view .LVU206
 1112 0004 322C     		cmp	r4, #50
 1113 0006 0DDC     		bgt	.L57
  54:Src/Gcode/Buffer_Gcode.c ****     firstOccupedElementCommandBuffer = 1;
 1114              		.loc 1 54 9 is_stmt 1 discriminator 3 view .LVU207
  54:Src/Gcode/Buffer_Gcode.c ****     firstOccupedElementCommandBuffer = 1;
 1115              		.loc 1 54 23 is_stmt 0 discriminator 3 view .LVU208
 1116 0008 2046     		mov	r0, r4
 1117 000a FFF7FEFF 		bl	number
 1118              	.LVL132:
  54:Src/Gcode/Buffer_Gcode.c ****     firstOccupedElementCommandBuffer = 1;
 1119              		.loc 1 54 34 discriminator 3 view .LVU209
 1120 000e C0EB0010 		rsb	r0, r0, r0, lsl #4
 1121 0012 3C22     		movs	r2, #60
 1122 0014 0021     		movs	r1, #0
 1123 0016 084B     		ldr	r3, .L58
 1124 0018 03EB8000 		add	r0, r3, r0, lsl #2
 1125 001c FFF7FEFF 		bl	memset
 1126              	.LVL133:
  53:Src/Gcode/Buffer_Gcode.c ****         commandBuffer[number(n)] = defaultCommand;
 1127              		.loc 1 53 41 is_stmt 1 discriminator 3 view .LVU210
  53:Src/Gcode/Buffer_Gcode.c ****         commandBuffer[number(n)] = defaultCommand;
 1128              		.loc 1 53 42 is_stmt 0 discriminator 3 view .LVU211
 1129 0020 0134     		adds	r4, r4, #1
 1130              	.LVL134:
  53:Src/Gcode/Buffer_Gcode.c ****         commandBuffer[number(n)] = defaultCommand;
 1131              		.loc 1 53 42 discriminator 3 view .LVU212
 1132 0022 EFE7     		b	.L54
 1133              	.L57:
  55:Src/Gcode/Buffer_Gcode.c ****     firstFreeElementCommandBuffer = 1;
 1134              		.loc 1 55 5 is_stmt 1 view .LVU213
  55:Src/Gcode/Buffer_Gcode.c ****     firstFreeElementCommandBuffer = 1;
 1135              		.loc 1 55 38 is_stmt 0 view .LVU214
 1136 0024 0123     		movs	r3, #1
 1137 0026 054A     		ldr	r2, .L58+4
 1138 0028 1360     		str	r3, [r2]
ARM GAS  /tmp/ccMe0kQ8.s 			page 33


  56:Src/Gcode/Buffer_Gcode.c ****     commandBufferIsFull = false;
 1139              		.loc 1 56 5 is_stmt 1 view .LVU215
  56:Src/Gcode/Buffer_Gcode.c ****     commandBufferIsFull = false;
 1140              		.loc 1 56 35 is_stmt 0 view .LVU216
 1141 002a 054A     		ldr	r2, .L58+8
 1142 002c 1360     		str	r3, [r2]
  57:Src/Gcode/Buffer_Gcode.c **** }
 1143              		.loc 1 57 5 is_stmt 1 view .LVU217
  57:Src/Gcode/Buffer_Gcode.c **** }
 1144              		.loc 1 57 25 is_stmt 0 view .LVU218
 1145 002e 054B     		ldr	r3, .L58+12
 1146 0030 0022     		movs	r2, #0
 1147 0032 1A70     		strb	r2, [r3]
  58:Src/Gcode/Buffer_Gcode.c **** 
 1148              		.loc 1 58 1 view .LVU219
 1149 0034 10BD     		pop	{r4, pc}
 1150              	.LVL135:
 1151              	.L59:
  58:Src/Gcode/Buffer_Gcode.c **** 
 1152              		.loc 1 58 1 view .LVU220
 1153 0036 00BF     		.align	2
 1154              	.L58:
 1155 0038 00000000 		.word	.LANCHOR2
 1156 003c 00000000 		.word	.LANCHOR3
 1157 0040 00000000 		.word	.LANCHOR0
 1158 0044 00000000 		.word	.LANCHOR4
 1159              		.cfi_endproc
 1160              	.LFE5:
 1162              		.section	.text.getCommandBufferElement_Gcode,"ax",%progbits
 1163              		.align	1
 1164              		.global	getCommandBufferElement_Gcode
 1165              		.syntax unified
 1166              		.thumb
 1167              		.thumb_func
 1168              		.fpu softvfp
 1170              	getCommandBufferElement_Gcode:
 1171              	.LVL136:
 1172              	.LFB6:
  61:Src/Gcode/Buffer_Gcode.c ****     if (elementNumber < 1) elementNumber = 1;
 1173              		.loc 1 61 1 is_stmt 1 view -0
 1174              		.cfi_startproc
 1175              		@ args = 0, pretend = 0, frame = 0
 1176              		@ frame_needed = 0, uses_anonymous_args = 0
  61:Src/Gcode/Buffer_Gcode.c ****     if (elementNumber < 1) elementNumber = 1;
 1177              		.loc 1 61 1 is_stmt 0 view .LVU222
 1178 0000 70B5     		push	{r4, r5, r6, lr}
 1179              	.LCFI18:
 1180              		.cfi_def_cfa_offset 16
 1181              		.cfi_offset 4, -16
 1182              		.cfi_offset 5, -12
 1183              		.cfi_offset 6, -8
 1184              		.cfi_offset 14, -4
 1185 0002 0646     		mov	r6, r0
  62:Src/Gcode/Buffer_Gcode.c ****     if (elementNumber > COMMAND_BUFFER_LENGTH) elementNumber = COMMAND_BUFFER_LENGTH;
 1186              		.loc 1 62 5 is_stmt 1 view .LVU223
  62:Src/Gcode/Buffer_Gcode.c ****     if (elementNumber > COMMAND_BUFFER_LENGTH) elementNumber = COMMAND_BUFFER_LENGTH;
 1187              		.loc 1 62 8 is_stmt 0 view .LVU224
ARM GAS  /tmp/ccMe0kQ8.s 			page 34


 1188 0004 081E     		subs	r0, r1, #0
 1189              	.LVL137:
  62:Src/Gcode/Buffer_Gcode.c ****     if (elementNumber > COMMAND_BUFFER_LENGTH) elementNumber = COMMAND_BUFFER_LENGTH;
 1190              		.loc 1 62 8 view .LVU225
 1191 0006 03DD     		ble	.L62
  63:Src/Gcode/Buffer_Gcode.c ****     return commandBuffer[number(elementNumber)];
 1192              		.loc 1 63 5 is_stmt 1 view .LVU226
  63:Src/Gcode/Buffer_Gcode.c ****     return commandBuffer[number(elementNumber)];
 1193              		.loc 1 63 8 is_stmt 0 view .LVU227
 1194 0008 3228     		cmp	r0, #50
 1195 000a 02DD     		ble	.L61
  63:Src/Gcode/Buffer_Gcode.c ****     return commandBuffer[number(elementNumber)];
 1196              		.loc 1 63 62 view .LVU228
 1197 000c 3220     		movs	r0, #50
 1198 000e 00E0     		b	.L61
 1199              	.LVL138:
 1200              	.L62:
  62:Src/Gcode/Buffer_Gcode.c ****     if (elementNumber > COMMAND_BUFFER_LENGTH) elementNumber = COMMAND_BUFFER_LENGTH;
 1201              		.loc 1 62 42 view .LVU229
 1202 0010 0120     		movs	r0, #1
 1203              	.LVL139:
 1204              	.L61:
  64:Src/Gcode/Buffer_Gcode.c **** }
 1205              		.loc 1 64 5 is_stmt 1 view .LVU230
  64:Src/Gcode/Buffer_Gcode.c **** }
 1206              		.loc 1 64 26 is_stmt 0 view .LVU231
 1207 0012 FFF7FEFF 		bl	number
 1208              	.LVL140:
  64:Src/Gcode/Buffer_Gcode.c **** }
 1209              		.loc 1 64 25 view .LVU232
 1210 0016 C0EB0010 		rsb	r0, r0, r0, lsl #4
 1211 001a 3546     		mov	r5, r6
 1212 001c 074C     		ldr	r4, .L65
 1213 001e 04EB8004 		add	r4, r4, r0, lsl #2
 1214 0022 0FCC     		ldmia	r4!, {r0, r1, r2, r3}
 1215 0024 0FC5     		stmia	r5!, {r0, r1, r2, r3}
 1216 0026 0FCC     		ldmia	r4!, {r0, r1, r2, r3}
 1217 0028 0FC5     		stmia	r5!, {r0, r1, r2, r3}
 1218 002a 0FCC     		ldmia	r4!, {r0, r1, r2, r3}
 1219 002c 0FC5     		stmia	r5!, {r0, r1, r2, r3}
 1220 002e 94E80700 		ldm	r4, {r0, r1, r2}
 1221 0032 85E80700 		stm	r5, {r0, r1, r2}
  65:Src/Gcode/Buffer_Gcode.c **** 
 1222              		.loc 1 65 1 view .LVU233
 1223 0036 3046     		mov	r0, r6
 1224 0038 70BD     		pop	{r4, r5, r6, pc}
 1225              	.LVL141:
 1226              	.L66:
  65:Src/Gcode/Buffer_Gcode.c **** 
 1227              		.loc 1 65 1 view .LVU234
 1228 003a 00BF     		.align	2
 1229              	.L65:
 1230 003c 00000000 		.word	.LANCHOR2
 1231              		.cfi_endproc
 1232              	.LFE6:
 1234              		.section	.text.lastCommand,"ax",%progbits
 1235              		.align	1
ARM GAS  /tmp/ccMe0kQ8.s 			page 35


 1236              		.syntax unified
 1237              		.thumb
 1238              		.thumb_func
 1239              		.fpu softvfp
 1241              	lastCommand:
 1242              	.LVL142:
 1243              	.LFB13:
 132:Src/Gcode/Buffer_Gcode.c ****     int number;
 1244              		.loc 1 132 1 is_stmt 1 view -0
 1245              		.cfi_startproc
 1246              		@ args = 0, pretend = 0, frame = 0
 1247              		@ frame_needed = 0, uses_anonymous_args = 0
 132:Src/Gcode/Buffer_Gcode.c ****     int number;
 1248              		.loc 1 132 1 is_stmt 0 view .LVU236
 1249 0000 10B5     		push	{r4, lr}
 1250              	.LCFI19:
 1251              		.cfi_def_cfa_offset 8
 1252              		.cfi_offset 4, -8
 1253              		.cfi_offset 14, -4
 1254 0002 0446     		mov	r4, r0
 133:Src/Gcode/Buffer_Gcode.c ****     number = firstFreeElementCommandBuffer - 1;
 1255              		.loc 1 133 5 is_stmt 1 view .LVU237
 134:Src/Gcode/Buffer_Gcode.c ****     if (number == 0)
 1256              		.loc 1 134 5 view .LVU238
 134:Src/Gcode/Buffer_Gcode.c ****     if (number == 0)
 1257              		.loc 1 134 44 is_stmt 0 view .LVU239
 1258 0004 044B     		ldr	r3, .L71
 1259 0006 1968     		ldr	r1, [r3]
 1260              	.LVL143:
 135:Src/Gcode/Buffer_Gcode.c ****         number = COMMAND_BUFFER_LENGTH;
 1261              		.loc 1 135 5 is_stmt 1 view .LVU240
 135:Src/Gcode/Buffer_Gcode.c ****         number = COMMAND_BUFFER_LENGTH;
 1262              		.loc 1 135 8 is_stmt 0 view .LVU241
 1263 0008 0139     		subs	r1, r1, #1
 1264              	.LVL144:
 135:Src/Gcode/Buffer_Gcode.c ****         number = COMMAND_BUFFER_LENGTH;
 1265              		.loc 1 135 8 view .LVU242
 1266 000a 00D1     		bne	.L68
 136:Src/Gcode/Buffer_Gcode.c ****     return getCommandBufferElement_Gcode(number);
 1267              		.loc 1 136 16 view .LVU243
 1268 000c 3221     		movs	r1, #50
 1269              	.LVL145:
 1270              	.L68:
 137:Src/Gcode/Buffer_Gcode.c **** }
 1271              		.loc 1 137 5 is_stmt 1 view .LVU244
 137:Src/Gcode/Buffer_Gcode.c **** }
 1272              		.loc 1 137 12 is_stmt 0 view .LVU245
 1273 000e 2046     		mov	r0, r4
 1274              	.LVL146:
 137:Src/Gcode/Buffer_Gcode.c **** }
 1275              		.loc 1 137 12 view .LVU246
 1276 0010 FFF7FEFF 		bl	getCommandBufferElement_Gcode
 1277              	.LVL147:
 138:Src/Gcode/Buffer_Gcode.c **** 
 1278              		.loc 1 138 1 view .LVU247
 1279 0014 2046     		mov	r0, r4
 1280 0016 10BD     		pop	{r4, pc}
ARM GAS  /tmp/ccMe0kQ8.s 			page 36


 1281              	.LVL148:
 1282              	.L72:
 138:Src/Gcode/Buffer_Gcode.c **** 
 1283              		.loc 1 138 1 view .LVU248
 1284              		.align	2
 1285              	.L71:
 1286 0018 00000000 		.word	.LANCHOR0
 1287              		.cfi_endproc
 1288              	.LFE13:
 1290              		.section	.text.conserveSpeedStart,"ax",%progbits
 1291              		.align	1
 1292              		.syntax unified
 1293              		.thumb
 1294              		.thumb_func
 1295              		.fpu softvfp
 1297              	conserveSpeedStart:
 1298              	.LVL149:
 1299              	.LFB14:
 141:Src/Gcode/Buffer_Gcode.c ****     if (firstOccupedElementCommandBuffer == firstFreeElementCommandBuffer)
 1300              		.loc 1 141 1 is_stmt 1 view -0
 1301              		.cfi_startproc
 1302              		@ args = 0, pretend = 0, frame = 184
 1303              		@ frame_needed = 0, uses_anonymous_args = 0
 142:Src/Gcode/Buffer_Gcode.c ****         return false;
 1304              		.loc 1 142 5 view .LVU250
 142:Src/Gcode/Buffer_Gcode.c ****         return false;
 1305              		.loc 1 142 42 is_stmt 0 view .LVU251
 1306 0000 3D4B     		ldr	r3, .L83+8
 1307 0002 1A68     		ldr	r2, [r3]
 1308              	.LVL150:
 142:Src/Gcode/Buffer_Gcode.c ****         return false;
 1309              		.loc 1 142 42 view .LVU252
 1310 0004 3D4B     		ldr	r3, .L83+12
 1311 0006 1B68     		ldr	r3, [r3]
 142:Src/Gcode/Buffer_Gcode.c ****         return false;
 1312              		.loc 1 142 8 view .LVU253
 1313 0008 9A42     		cmp	r2, r3
 1314 000a 6BD0     		beq	.L75
 141:Src/Gcode/Buffer_Gcode.c ****     if (firstOccupedElementCommandBuffer == firstFreeElementCommandBuffer)
 1315              		.loc 1 141 1 view .LVU254
 1316 000c 2DE9F041 		push	{r4, r5, r6, r7, r8, lr}
 1317              	.LCFI20:
 1318              		.cfi_def_cfa_offset 24
 1319              		.cfi_offset 4, -24
 1320              		.cfi_offset 5, -20
 1321              		.cfi_offset 6, -16
 1322              		.cfi_offset 7, -12
 1323              		.cfi_offset 8, -8
 1324              		.cfi_offset 14, -4
 1325 0010 AEB0     		sub	sp, sp, #184
 1326              	.LCFI21:
 1327              		.cfi_def_cfa_offset 208
 1328 0012 0546     		mov	r5, r0
 1329 0014 0C46     		mov	r4, r1
 144:Src/Gcode/Buffer_Gcode.c ****         return false;
 1330              		.loc 1 144 5 is_stmt 1 view .LVU255
 144:Src/Gcode/Buffer_Gcode.c ****         return false;
ARM GAS  /tmp/ccMe0kQ8.s 			page 37


 1331              		.loc 1 144 9 is_stmt 0 view .LVU256
 1332 0016 01A8     		add	r0, sp, #4
 1333              	.LVL151:
 144:Src/Gcode/Buffer_Gcode.c ****         return false;
 1334              		.loc 1 144 9 view .LVU257
 1335 0018 FFF7FEFF 		bl	lastCommand
 1336              	.LVL152:
 144:Src/Gcode/Buffer_Gcode.c ****         return false;
 1337              		.loc 1 144 22 view .LVU258
 1338 001c 9DF80430 		ldrb	r3, [sp, #4]	@ zero_extendqisi2
 144:Src/Gcode/Buffer_Gcode.c ****         return false;
 1339              		.loc 1 144 8 view .LVU259
 1340 0020 012B     		cmp	r3, #1
 1341 0022 03D0     		beq	.L82
 145:Src/Gcode/Buffer_Gcode.c ****     long XnPrevious = lastCommand().dXn;
 1342              		.loc 1 145 16 view .LVU260
 1343 0024 0020     		movs	r0, #0
 1344              	.LVL153:
 1345              	.L74:
 155:Src/Gcode/Buffer_Gcode.c **** 
 1346              		.loc 1 155 1 view .LVU261
 1347 0026 2EB0     		add	sp, sp, #184
 1348              	.LCFI22:
 1349              		.cfi_remember_state
 1350              		.cfi_def_cfa_offset 24
 1351              		@ sp needed
 1352 0028 BDE8F081 		pop	{r4, r5, r6, r7, r8, pc}
 1353              	.LVL154:
 1354              	.L82:
 1355              	.LCFI23:
 1356              		.cfi_restore_state
 146:Src/Gcode/Buffer_Gcode.c ****     long YnPrevious = lastCommand().dYn;
 1357              		.loc 1 146 5 is_stmt 1 view .LVU262
 146:Src/Gcode/Buffer_Gcode.c ****     long YnPrevious = lastCommand().dYn;
 1358              		.loc 1 146 23 is_stmt 0 view .LVU263
 1359 002c 10A8     		add	r0, sp, #64
 1360 002e FFF7FEFF 		bl	lastCommand
 1361              	.LVL155:
 146:Src/Gcode/Buffer_Gcode.c ****     long YnPrevious = lastCommand().dYn;
 1362              		.loc 1 146 10 view .LVU264
 1363 0032 119E     		ldr	r6, [sp, #68]
 1364              	.LVL156:
 147:Src/Gcode/Buffer_Gcode.c ****     float xy1xy2 = (float)XnPrevious*(float)Xn + (float)YnPrevious*(float)Yn;
 1365              		.loc 1 147 5 is_stmt 1 view .LVU265
 147:Src/Gcode/Buffer_Gcode.c ****     float xy1xy2 = (float)XnPrevious*(float)Xn + (float)YnPrevious*(float)Yn;
 1366              		.loc 1 147 23 is_stmt 0 view .LVU266
 1367 0034 1FA8     		add	r0, sp, #124
 1368 0036 FFF7FEFF 		bl	lastCommand
 1369              	.LVL157:
 148:Src/Gcode/Buffer_Gcode.c ****     float xy1xy1 = (float)XnPrevious*(float)XnPrevious + (float)YnPrevious*(float)YnPrevious;
 1370              		.loc 1 148 5 is_stmt 1 view .LVU267
 148:Src/Gcode/Buffer_Gcode.c ****     float xy1xy1 = (float)XnPrevious*(float)XnPrevious + (float)YnPrevious*(float)YnPrevious;
 1371              		.loc 1 148 20 is_stmt 0 view .LVU268
 1372 003a 3046     		mov	r0, r6
 1373 003c FFF7FEFF 		bl	__aeabi_i2f
 1374              	.LVL158:
 1375 0040 0746     		mov	r7, r0
ARM GAS  /tmp/ccMe0kQ8.s 			page 38


 148:Src/Gcode/Buffer_Gcode.c ****     float xy1xy1 = (float)XnPrevious*(float)XnPrevious + (float)YnPrevious*(float)YnPrevious;
 1376              		.loc 1 148 38 view .LVU269
 1377 0042 2846     		mov	r0, r5
 1378 0044 FFF7FEFF 		bl	__aeabi_i2f
 1379              	.LVL159:
 1380 0048 0546     		mov	r5, r0
 1381              	.LVL160:
 148:Src/Gcode/Buffer_Gcode.c ****     float xy1xy1 = (float)XnPrevious*(float)XnPrevious + (float)YnPrevious*(float)YnPrevious;
 1382              		.loc 1 148 37 view .LVU270
 1383 004a 0146     		mov	r1, r0
 1384 004c 3846     		mov	r0, r7
 1385 004e FFF7FEFF 		bl	__aeabi_fmul
 1386              	.LVL161:
 1387 0052 8046     		mov	r8, r0
 148:Src/Gcode/Buffer_Gcode.c ****     float xy1xy1 = (float)XnPrevious*(float)XnPrevious + (float)YnPrevious*(float)YnPrevious;
 1388              		.loc 1 148 50 view .LVU271
 1389 0054 2198     		ldr	r0, [sp, #132]
 1390 0056 FFF7FEFF 		bl	__aeabi_i2f
 1391              	.LVL162:
 1392 005a 0646     		mov	r6, r0
 1393              	.LVL163:
 148:Src/Gcode/Buffer_Gcode.c ****     float xy1xy1 = (float)XnPrevious*(float)XnPrevious + (float)YnPrevious*(float)YnPrevious;
 1394              		.loc 1 148 68 view .LVU272
 1395 005c 2046     		mov	r0, r4
 1396 005e FFF7FEFF 		bl	__aeabi_i2f
 1397              	.LVL164:
 1398 0062 0446     		mov	r4, r0
 1399              	.LVL165:
 148:Src/Gcode/Buffer_Gcode.c ****     float xy1xy1 = (float)XnPrevious*(float)XnPrevious + (float)YnPrevious*(float)YnPrevious;
 1400              		.loc 1 148 67 view .LVU273
 1401 0064 0146     		mov	r1, r0
 1402 0066 3046     		mov	r0, r6
 1403 0068 FFF7FEFF 		bl	__aeabi_fmul
 1404              	.LVL166:
 1405 006c 0146     		mov	r1, r0
 148:Src/Gcode/Buffer_Gcode.c ****     float xy1xy1 = (float)XnPrevious*(float)XnPrevious + (float)YnPrevious*(float)YnPrevious;
 1406              		.loc 1 148 11 view .LVU274
 1407 006e 4046     		mov	r0, r8
 1408 0070 FFF7FEFF 		bl	__aeabi_fadd
 1409              	.LVL167:
 1410 0074 8046     		mov	r8, r0
 1411              	.LVL168:
 149:Src/Gcode/Buffer_Gcode.c ****     float xy2xy2 = (float)Xn*(float)Xn + (float)Yn*(float)Yn;
 1412              		.loc 1 149 5 is_stmt 1 view .LVU275
 149:Src/Gcode/Buffer_Gcode.c ****     float xy2xy2 = (float)Xn*(float)Xn + (float)Yn*(float)Yn;
 1413              		.loc 1 149 37 is_stmt 0 view .LVU276
 1414 0076 3946     		mov	r1, r7
 1415 0078 3846     		mov	r0, r7
 1416              	.LVL169:
 149:Src/Gcode/Buffer_Gcode.c ****     float xy2xy2 = (float)Xn*(float)Xn + (float)Yn*(float)Yn;
 1417              		.loc 1 149 37 view .LVU277
 1418 007a FFF7FEFF 		bl	__aeabi_fmul
 1419              	.LVL170:
 1420 007e 0746     		mov	r7, r0
 149:Src/Gcode/Buffer_Gcode.c ****     float xy2xy2 = (float)Xn*(float)Xn + (float)Yn*(float)Yn;
 1421              		.loc 1 149 75 view .LVU278
 1422 0080 3146     		mov	r1, r6
ARM GAS  /tmp/ccMe0kQ8.s 			page 39


 1423 0082 3046     		mov	r0, r6
 1424 0084 FFF7FEFF 		bl	__aeabi_fmul
 1425              	.LVL171:
 1426 0088 0146     		mov	r1, r0
 149:Src/Gcode/Buffer_Gcode.c ****     float xy2xy2 = (float)Xn*(float)Xn + (float)Yn*(float)Yn;
 1427              		.loc 1 149 11 view .LVU279
 1428 008a 3846     		mov	r0, r7
 1429 008c FFF7FEFF 		bl	__aeabi_fadd
 1430              	.LVL172:
 1431 0090 0646     		mov	r6, r0
 1432              	.LVL173:
 150:Src/Gcode/Buffer_Gcode.c ****     float xy1xy2Critical = sqrtf(xy1xy1)*sqrtf(xy2xy2)*cos(3.14*(float)CRITICAL_ANGLE_XY/180.0);
 1433              		.loc 1 150 5 is_stmt 1 view .LVU280
 150:Src/Gcode/Buffer_Gcode.c ****     float xy1xy2Critical = sqrtf(xy1xy1)*sqrtf(xy2xy2)*cos(3.14*(float)CRITICAL_ANGLE_XY/180.0);
 1434              		.loc 1 150 29 is_stmt 0 view .LVU281
 1435 0092 2946     		mov	r1, r5
 1436 0094 2846     		mov	r0, r5
 1437              	.LVL174:
 150:Src/Gcode/Buffer_Gcode.c ****     float xy1xy2Critical = sqrtf(xy1xy1)*sqrtf(xy2xy2)*cos(3.14*(float)CRITICAL_ANGLE_XY/180.0);
 1438              		.loc 1 150 29 view .LVU282
 1439 0096 FFF7FEFF 		bl	__aeabi_fmul
 1440              	.LVL175:
 1441 009a 0546     		mov	r5, r0
 150:Src/Gcode/Buffer_Gcode.c ****     float xy1xy2Critical = sqrtf(xy1xy1)*sqrtf(xy2xy2)*cos(3.14*(float)CRITICAL_ANGLE_XY/180.0);
 1442              		.loc 1 150 51 view .LVU283
 1443 009c 2146     		mov	r1, r4
 1444 009e 2046     		mov	r0, r4
 1445 00a0 FFF7FEFF 		bl	__aeabi_fmul
 1446              	.LVL176:
 1447 00a4 0146     		mov	r1, r0
 150:Src/Gcode/Buffer_Gcode.c ****     float xy1xy2Critical = sqrtf(xy1xy1)*sqrtf(xy2xy2)*cos(3.14*(float)CRITICAL_ANGLE_XY/180.0);
 1448              		.loc 1 150 11 view .LVU284
 1449 00a6 2846     		mov	r0, r5
 1450 00a8 FFF7FEFF 		bl	__aeabi_fadd
 1451              	.LVL177:
 1452 00ac 0546     		mov	r5, r0
 1453              	.LVL178:
 151:Src/Gcode/Buffer_Gcode.c ****     if (xy1xy2 < xy1xy2Critical)
 1454              		.loc 1 151 5 is_stmt 1 view .LVU285
 151:Src/Gcode/Buffer_Gcode.c ****     if (xy1xy2 < xy1xy2Critical)
 1455              		.loc 1 151 28 is_stmt 0 view .LVU286
 1456 00ae 3046     		mov	r0, r6
 1457              	.LVL179:
 151:Src/Gcode/Buffer_Gcode.c ****     if (xy1xy2 < xy1xy2Critical)
 1458              		.loc 1 151 28 view .LVU287
 1459 00b0 FFF7FEFF 		bl	sqrtf
 1460              	.LVL180:
 1461 00b4 0446     		mov	r4, r0
 151:Src/Gcode/Buffer_Gcode.c ****     if (xy1xy2 < xy1xy2Critical)
 1462              		.loc 1 151 42 view .LVU288
 1463 00b6 2846     		mov	r0, r5
 1464 00b8 FFF7FEFF 		bl	sqrtf
 1465              	.LVL181:
 1466 00bc 0146     		mov	r1, r0
 151:Src/Gcode/Buffer_Gcode.c ****     if (xy1xy2 < xy1xy2Critical)
 1467              		.loc 1 151 41 view .LVU289
 1468 00be 2046     		mov	r0, r4
ARM GAS  /tmp/ccMe0kQ8.s 			page 40


 1469 00c0 FFF7FEFF 		bl	__aeabi_fmul
 1470              	.LVL182:
 1471 00c4 FFF7FEFF 		bl	__aeabi_f2d
 1472              	.LVL183:
 151:Src/Gcode/Buffer_Gcode.c ****     if (xy1xy2 < xy1xy2Critical)
 1473              		.loc 1 151 55 view .LVU290
 1474 00c8 09A3     		adr	r3, .L83
 1475 00ca D3E90023 		ldrd	r2, [r3]
 1476 00ce FFF7FEFF 		bl	__aeabi_dmul
 1477              	.LVL184:
 151:Src/Gcode/Buffer_Gcode.c ****     if (xy1xy2 < xy1xy2Critical)
 1478              		.loc 1 151 11 view .LVU291
 1479 00d2 FFF7FEFF 		bl	__aeabi_d2f
 1480              	.LVL185:
 1481 00d6 0146     		mov	r1, r0
 1482              	.LVL186:
 152:Src/Gcode/Buffer_Gcode.c ****         return false;
 1483              		.loc 1 152 5 is_stmt 1 view .LVU292
 152:Src/Gcode/Buffer_Gcode.c ****         return false;
 1484              		.loc 1 152 8 is_stmt 0 view .LVU293
 1485 00d8 4046     		mov	r0, r8
 1486              	.LVL187:
 152:Src/Gcode/Buffer_Gcode.c ****         return false;
 1487              		.loc 1 152 8 view .LVU294
 1488 00da FFF7FEFF 		bl	__aeabi_fcmplt
 1489              	.LVL188:
 152:Src/Gcode/Buffer_Gcode.c ****         return false;
 1490              		.loc 1 152 8 view .LVU295
 1491 00de 18B9     		cbnz	r0, .L77
 154:Src/Gcode/Buffer_Gcode.c **** }
 1492              		.loc 1 154 12 view .LVU296
 1493 00e0 0120     		movs	r0, #1
 1494 00e2 A0E7     		b	.L74
 1495              	.LVL189:
 1496              	.L75:
 1497              	.LCFI24:
 1498              		.cfi_def_cfa_offset 0
 1499              		.cfi_restore 4
 1500              		.cfi_restore 5
 1501              		.cfi_restore 6
 1502              		.cfi_restore 7
 1503              		.cfi_restore 8
 1504              		.cfi_restore 14
 143:Src/Gcode/Buffer_Gcode.c ****     if (lastCommand().type != MOVE_COMMAND)
 1505              		.loc 1 143 16 view .LVU297
 1506 00e4 0020     		movs	r0, #0
 1507              	.LVL190:
 155:Src/Gcode/Buffer_Gcode.c **** 
 1508              		.loc 1 155 1 view .LVU298
 1509 00e6 7047     		bx	lr
 1510              	.LVL191:
 1511              	.L77:
 1512              	.LCFI25:
 1513              		.cfi_def_cfa_offset 208
 1514              		.cfi_offset 4, -24
 1515              		.cfi_offset 5, -20
 1516              		.cfi_offset 6, -16
ARM GAS  /tmp/ccMe0kQ8.s 			page 41


 1517              		.cfi_offset 7, -12
 1518              		.cfi_offset 8, -8
 1519              		.cfi_offset 14, -4
 153:Src/Gcode/Buffer_Gcode.c ****     return true;
 1520              		.loc 1 153 16 view .LVU299
 1521 00e8 0020     		movs	r0, #0
 1522 00ea 9CE7     		b	.L74
 1523              	.L84:
 1524 00ec AFF30080 		.align	3
 1525              	.L83:
 1526 00f0 32453628 		.word	674645298
 1527 00f4 7512EE3F 		.word	1072566901
 1528 00f8 00000000 		.word	.LANCHOR3
 1529 00fc 00000000 		.word	.LANCHOR0
 1530              		.cfi_endproc
 1531              	.LFE14:
 1533              		.section	.text.firstInCommandBuffer_Gcode,"ax",%progbits
 1534              		.align	1
 1535              		.global	firstInCommandBuffer_Gcode
 1536              		.syntax unified
 1537              		.thumb
 1538              		.thumb_func
 1539              		.fpu softvfp
 1541              	firstInCommandBuffer_Gcode:
 1542              	.LFB7:
  68:Src/Gcode/Buffer_Gcode.c ****     if (commandBufferIsFull)
 1543              		.loc 1 68 1 is_stmt 1 view -0
 1544              		.cfi_startproc
 1545              		@ args = 60, pretend = 16, frame = 0
 1546              		@ frame_needed = 0, uses_anonymous_args = 0
 1547 0000 84B0     		sub	sp, sp, #16
 1548              	.LCFI26:
 1549              		.cfi_def_cfa_offset 16
 1550 0002 F8B5     		push	{r3, r4, r5, r6, r7, lr}
 1551              	.LCFI27:
 1552              		.cfi_def_cfa_offset 40
 1553              		.cfi_offset 3, -40
 1554              		.cfi_offset 4, -36
 1555              		.cfi_offset 5, -32
 1556              		.cfi_offset 6, -28
 1557              		.cfi_offset 7, -24
 1558              		.cfi_offset 14, -20
 1559 0004 06AC     		add	r4, sp, #24
 1560 0006 84E80F00 		stm	r4, {r0, r1, r2, r3}
  69:Src/Gcode/Buffer_Gcode.c ****         return;
 1561              		.loc 1 69 5 view .LVU301
  69:Src/Gcode/Buffer_Gcode.c ****         return;
 1562              		.loc 1 69 9 is_stmt 0 view .LVU302
 1563 000a 164B     		ldr	r3, .L90
 1564 000c 1B78     		ldrb	r3, [r3]	@ zero_extendqisi2
  69:Src/Gcode/Buffer_Gcode.c ****         return;
 1565              		.loc 1 69 8 view .LVU303
 1566 000e 0BBB     		cbnz	r3, .L85
  72:Src/Gcode/Buffer_Gcode.c **** 
 1567              		.loc 1 72 5 is_stmt 1 view .LVU304
  72:Src/Gcode/Buffer_Gcode.c **** 
 1568              		.loc 1 72 19 is_stmt 0 view .LVU305
ARM GAS  /tmp/ccMe0kQ8.s 			page 42


 1569 0010 154F     		ldr	r7, .L90+4
 1570 0012 3E68     		ldr	r6, [r7]
 1571 0014 3046     		mov	r0, r6
 1572 0016 FFF7FEFF 		bl	number
 1573              	.LVL192:
  72:Src/Gcode/Buffer_Gcode.c **** 
 1574              		.loc 1 72 58 view .LVU306
 1575 001a C0EB0010 		rsb	r0, r0, r0, lsl #4
 1576 001e 134C     		ldr	r4, .L90+8
 1577 0020 04EB8004 		add	r4, r4, r0, lsl #2
 1578 0024 06AD     		add	r5, sp, #24
 1579 0026 0FCD     		ldmia	r5!, {r0, r1, r2, r3}
 1580 0028 0FC4     		stmia	r4!, {r0, r1, r2, r3}
 1581 002a 0FCD     		ldmia	r5!, {r0, r1, r2, r3}
 1582 002c 0FC4     		stmia	r4!, {r0, r1, r2, r3}
 1583 002e 0FCD     		ldmia	r5!, {r0, r1, r2, r3}
 1584 0030 0FC4     		stmia	r4!, {r0, r1, r2, r3}
 1585 0032 95E80700 		ldm	r5, {r0, r1, r2}
 1586 0036 84E80700 		stm	r4, {r0, r1, r2}
  74:Src/Gcode/Buffer_Gcode.c ****     if (firstFreeElementCommandBuffer > COMMAND_BUFFER_LENGTH)
 1587              		.loc 1 74 5 is_stmt 1 view .LVU307
  74:Src/Gcode/Buffer_Gcode.c ****     if (firstFreeElementCommandBuffer > COMMAND_BUFFER_LENGTH)
 1588              		.loc 1 74 34 is_stmt 0 view .LVU308
 1589 003a 0136     		adds	r6, r6, #1
 1590 003c 3E60     		str	r6, [r7]
  75:Src/Gcode/Buffer_Gcode.c ****         firstFreeElementCommandBuffer = firstFreeElementCommandBuffer - COMMAND_BUFFER_LENGTH;
 1591              		.loc 1 75 5 is_stmt 1 view .LVU309
  75:Src/Gcode/Buffer_Gcode.c ****         firstFreeElementCommandBuffer = firstFreeElementCommandBuffer - COMMAND_BUFFER_LENGTH;
 1592              		.loc 1 75 8 is_stmt 0 view .LVU310
 1593 003e 322E     		cmp	r6, #50
 1594 0040 02DD     		ble	.L87
  76:Src/Gcode/Buffer_Gcode.c ****     if (firstFreeElementCommandBuffer == firstOccupedElementCommandBuffer)
 1595              		.loc 1 76 9 is_stmt 1 view .LVU311
  76:Src/Gcode/Buffer_Gcode.c ****     if (firstFreeElementCommandBuffer == firstOccupedElementCommandBuffer)
 1596              		.loc 1 76 71 is_stmt 0 view .LVU312
 1597 0042 A6F13200 		sub	r0, r6, #50
  76:Src/Gcode/Buffer_Gcode.c ****     if (firstFreeElementCommandBuffer == firstOccupedElementCommandBuffer)
 1598              		.loc 1 76 39 view .LVU313
 1599 0046 3860     		str	r0, [r7]
 1600              	.L87:
  77:Src/Gcode/Buffer_Gcode.c ****         commandBufferIsFull = true;
 1601              		.loc 1 77 5 is_stmt 1 view .LVU314
  77:Src/Gcode/Buffer_Gcode.c ****         commandBufferIsFull = true;
 1602              		.loc 1 77 39 is_stmt 0 view .LVU315
 1603 0048 074B     		ldr	r3, .L90+4
 1604 004a 1A68     		ldr	r2, [r3]
 1605 004c 084B     		ldr	r3, .L90+12
 1606 004e 1B68     		ldr	r3, [r3]
  77:Src/Gcode/Buffer_Gcode.c ****         commandBufferIsFull = true;
 1607              		.loc 1 77 8 view .LVU316
 1608 0050 9A42     		cmp	r2, r3
 1609 0052 03D0     		beq	.L89
 1610              	.L85:
  79:Src/Gcode/Buffer_Gcode.c **** 
 1611              		.loc 1 79 1 view .LVU317
 1612 0054 BDE8F840 		pop	{r3, r4, r5, r6, r7, lr}
 1613              	.LCFI28:
ARM GAS  /tmp/ccMe0kQ8.s 			page 43


 1614              		.cfi_remember_state
 1615              		.cfi_restore 14
 1616              		.cfi_restore 7
 1617              		.cfi_restore 6
 1618              		.cfi_restore 5
 1619              		.cfi_restore 4
 1620              		.cfi_restore 3
 1621              		.cfi_def_cfa_offset 16
 1622 0058 04B0     		add	sp, sp, #16
 1623              	.LCFI29:
 1624              		.cfi_def_cfa_offset 0
 1625 005a 7047     		bx	lr
 1626              	.L89:
 1627              	.LCFI30:
 1628              		.cfi_restore_state
  78:Src/Gcode/Buffer_Gcode.c **** }
 1629              		.loc 1 78 9 is_stmt 1 view .LVU318
  78:Src/Gcode/Buffer_Gcode.c **** }
 1630              		.loc 1 78 29 is_stmt 0 view .LVU319
 1631 005c 014B     		ldr	r3, .L90
 1632 005e 0122     		movs	r2, #1
 1633 0060 1A70     		strb	r2, [r3]
 1634 0062 F7E7     		b	.L85
 1635              	.L91:
 1636              		.align	2
 1637              	.L90:
 1638 0064 00000000 		.word	.LANCHOR4
 1639 0068 00000000 		.word	.LANCHOR0
 1640 006c 00000000 		.word	.LANCHOR2
 1641 0070 00000000 		.word	.LANCHOR3
 1642              		.cfi_endproc
 1643              	.LFE7:
 1645              		.global	__aeabi_fcmpgt
 1646              		.section	.text.MoveZ_Analyser,"ax",%progbits
 1647              		.align	1
 1648              		.syntax unified
 1649              		.thumb
 1650              		.thumb_func
 1651              		.fpu softvfp
 1653              	MoveZ_Analyser:
 1654              	.LFB20:
 257:Src/Gcode/Buffer_Gcode.c **** 
 1655              		.loc 1 257 1 is_stmt 1 view -0
 1656              		.cfi_startproc
 1657              		@ args = 0, pretend = 0, frame = 472
 1658              		@ frame_needed = 0, uses_anonymous_args = 0
 1659 0000 2DE9F04F 		push	{r4, r5, r6, r7, r8, r9, r10, fp, lr}
 1660              	.LCFI31:
 1661              		.cfi_def_cfa_offset 36
 1662              		.cfi_offset 4, -36
 1663              		.cfi_offset 5, -32
 1664              		.cfi_offset 6, -28
 1665              		.cfi_offset 7, -24
 1666              		.cfi_offset 8, -20
 1667              		.cfi_offset 9, -16
 1668              		.cfi_offset 10, -12
 1669              		.cfi_offset 11, -8
ARM GAS  /tmp/ccMe0kQ8.s 			page 44


 1670              		.cfi_offset 14, -4
 1671 0004 ADF5037D 		sub	sp, sp, #524
 1672              	.LCFI32:
 1673              		.cfi_def_cfa_offset 560
 259:Src/Gcode/Buffer_Gcode.c ****     float speedTarget = getDescreteCommandBufferElement_Gcode(2).FnZ;
 1674              		.loc 1 259 5 view .LVU321
 259:Src/Gcode/Buffer_Gcode.c ****     float speedTarget = getDescreteCommandBufferElement_Gcode(2).FnZ;
 1675              		.loc 1 259 15 is_stmt 0 view .LVU322
 1676 0008 0221     		movs	r1, #2
 1677 000a 0FA8     		add	r0, sp, #60
 1678 000c FFF7FEFF 		bl	getDescreteCommandBufferElement_Gcode
 1679              	.LVL193:
 259:Src/Gcode/Buffer_Gcode.c ****     float speedTarget = getDescreteCommandBufferElement_Gcode(2).FnZ;
 1680              		.loc 1 259 55 view .LVU323
 1681 0010 129C     		ldr	r4, [sp, #72]
 259:Src/Gcode/Buffer_Gcode.c ****     float speedTarget = getDescreteCommandBufferElement_Gcode(2).FnZ;
 1682              		.loc 1 259 61 view .LVU324
 1683 0012 0121     		movs	r1, #1
 1684 0014 19A8     		add	r0, sp, #100
 1685 0016 FFF7FEFF 		bl	getDescreteCommandBufferElement_Gcode
 1686              	.LVL194:
 259:Src/Gcode/Buffer_Gcode.c ****     float speedTarget = getDescreteCommandBufferElement_Gcode(2).FnZ;
 1687              		.loc 1 259 101 view .LVU325
 1688 001a 1C98     		ldr	r0, [sp, #112]
 259:Src/Gcode/Buffer_Gcode.c ****     float speedTarget = getDescreteCommandBufferElement_Gcode(2).FnZ;
 1689              		.loc 1 259 10 view .LVU326
 1690 001c A4EB000A 		sub	r10, r4, r0
 1691              	.LVL195:
 260:Src/Gcode/Buffer_Gcode.c ****     if ( getDescreteCommandBufferElement_Gcode(2).FnZ > MAX_SPEED_Z_STEPS_PER_SECOND ) speedTarget 
 1692              		.loc 1 260 5 is_stmt 1 view .LVU327
 260:Src/Gcode/Buffer_Gcode.c ****     if ( getDescreteCommandBufferElement_Gcode(2).FnZ > MAX_SPEED_Z_STEPS_PER_SECOND ) speedTarget 
 1693              		.loc 1 260 25 is_stmt 0 view .LVU328
 1694 0020 0221     		movs	r1, #2
 1695 0022 23A8     		add	r0, sp, #140
 1696 0024 FFF7FEFF 		bl	getDescreteCommandBufferElement_Gcode
 1697              	.LVL196:
 260:Src/Gcode/Buffer_Gcode.c ****     if ( getDescreteCommandBufferElement_Gcode(2).FnZ > MAX_SPEED_Z_STEPS_PER_SECOND ) speedTarget 
 1698              		.loc 1 260 11 view .LVU329
 1699 0028 DDF8A4B0 		ldr	fp, [sp, #164]	@ float
 1700              	.LVL197:
 261:Src/Gcode/Buffer_Gcode.c ****     float speedStart = 0;
 1701              		.loc 1 261 5 is_stmt 1 view .LVU330
 261:Src/Gcode/Buffer_Gcode.c ****     float speedStart = 0;
 1702              		.loc 1 261 10 is_stmt 0 view .LVU331
 1703 002c 0221     		movs	r1, #2
 1704 002e 2DA8     		add	r0, sp, #180
 1705 0030 FFF7FEFF 		bl	getDescreteCommandBufferElement_Gcode
 1706              	.LVL198:
 261:Src/Gcode/Buffer_Gcode.c ****     float speedStart = 0;
 1707              		.loc 1 261 8 view .LVU332
 1708 0034 8149     		ldr	r1, .L102
 1709 0036 3398     		ldr	r0, [sp, #204]	@ float
 1710 0038 FFF7FEFF 		bl	__aeabi_fcmpgt
 1711              	.LVL199:
 1712 003c 08B1     		cbz	r0, .L93
 261:Src/Gcode/Buffer_Gcode.c ****     float speedStart = 0;
 1713              		.loc 1 261 100 view .LVU333
ARM GAS  /tmp/ccMe0kQ8.s 			page 45


 1714 003e DFF8FCB1 		ldr	fp, .L102
 1715              	.LVL200:
 1716              	.L93:
 262:Src/Gcode/Buffer_Gcode.c ****     float speedFinish = 0;
 1717              		.loc 1 262 5 is_stmt 1 view .LVU334
 263:Src/Gcode/Buffer_Gcode.c ****     float accelerationStart = ACCELERATION_Z_STEPS_PER_SS*sign(speedTarget-speedStart);
 1718              		.loc 1 263 5 view .LVU335
 264:Src/Gcode/Buffer_Gcode.c ****     float accelerationFinish = ACCELERATION_Z_STEPS_PER_SS*sign(speedFinish-speedTarget);
 1719              		.loc 1 264 5 view .LVU336
 264:Src/Gcode/Buffer_Gcode.c ****     float accelerationFinish = ACCELERATION_Z_STEPS_PER_SS*sign(speedFinish-speedTarget);
 1720              		.loc 1 264 59 is_stmt 0 view .LVU337
 1721 0042 5846     		mov	r0, fp
 1722 0044 FFF7FEFF 		bl	sign
 1723              	.LVL201:
 264:Src/Gcode/Buffer_Gcode.c ****     float accelerationFinish = ACCELERATION_Z_STEPS_PER_SS*sign(speedFinish-speedTarget);
 1724              		.loc 1 264 58 view .LVU338
 1725 0048 FFF7FEFF 		bl	__aeabi_i2f
 1726              	.LVL202:
 264:Src/Gcode/Buffer_Gcode.c ****     float accelerationFinish = ACCELERATION_Z_STEPS_PER_SS*sign(speedFinish-speedTarget);
 1727              		.loc 1 264 11 view .LVU339
 1728 004c 7C49     		ldr	r1, .L102+4
 1729 004e FFF7FEFF 		bl	__aeabi_fmul
 1730              	.LVL203:
 1731 0052 0D90     		str	r0, [sp, #52]	@ float
 1732              	.LVL204:
 265:Src/Gcode/Buffer_Gcode.c ****     float LnStart  = 0.5*(pow(speedTarget,2)-pow(speedStart,2))/accelerationStart;
 1733              		.loc 1 265 5 is_stmt 1 view .LVU340
 265:Src/Gcode/Buffer_Gcode.c ****     float LnStart  = 0.5*(pow(speedTarget,2)-pow(speedStart,2))/accelerationStart;
 1734              		.loc 1 265 60 is_stmt 0 view .LVU341
 1735 0054 5946     		mov	r1, fp
 1736 0056 0020     		movs	r0, #0
 1737              	.LVL205:
 265:Src/Gcode/Buffer_Gcode.c ****     float LnStart  = 0.5*(pow(speedTarget,2)-pow(speedStart,2))/accelerationStart;
 1738              		.loc 1 265 60 view .LVU342
 1739 0058 FFF7FEFF 		bl	__aeabi_fsub
 1740              	.LVL206:
 1741 005c FFF7FEFF 		bl	sign
 1742              	.LVL207:
 265:Src/Gcode/Buffer_Gcode.c ****     float LnStart  = 0.5*(pow(speedTarget,2)-pow(speedStart,2))/accelerationStart;
 1743              		.loc 1 265 59 view .LVU343
 1744 0060 FFF7FEFF 		bl	__aeabi_i2f
 1745              	.LVL208:
 265:Src/Gcode/Buffer_Gcode.c ****     float LnStart  = 0.5*(pow(speedTarget,2)-pow(speedStart,2))/accelerationStart;
 1746              		.loc 1 265 11 view .LVU344
 1747 0064 7649     		ldr	r1, .L102+4
 1748 0066 FFF7FEFF 		bl	__aeabi_fmul
 1749              	.LVL209:
 1750 006a 0C90     		str	r0, [sp, #48]	@ float
 1751              	.LVL210:
 266:Src/Gcode/Buffer_Gcode.c ****     float LnFinish = 0.5*(pow(speedFinish,2)-pow(speedTarget,2))/accelerationFinish;
 1752              		.loc 1 266 5 is_stmt 1 view .LVU345
 266:Src/Gcode/Buffer_Gcode.c ****     float LnFinish = 0.5*(pow(speedFinish,2)-pow(speedTarget,2))/accelerationFinish;
 1753              		.loc 1 266 27 is_stmt 0 view .LVU346
 1754 006c 5846     		mov	r0, fp
 1755              	.LVL211:
 266:Src/Gcode/Buffer_Gcode.c ****     float LnFinish = 0.5*(pow(speedFinish,2)-pow(speedTarget,2))/accelerationFinish;
 1756              		.loc 1 266 27 view .LVU347
ARM GAS  /tmp/ccMe0kQ8.s 			page 46


 1757 006e FFF7FEFF 		bl	__aeabi_f2d
 1758              	.LVL212:
 1759 0072 0446     		mov	r4, r0
 1760 0074 0D46     		mov	r5, r1
 1761 0076 4FF00008 		mov	r8, #0
 1762 007a 4FF08049 		mov	r9, #1073741824
 1763 007e 4246     		mov	r2, r8
 1764 0080 4B46     		mov	r3, r9
 1765 0082 FFF7FEFF 		bl	pow
 1766              	.LVL213:
 266:Src/Gcode/Buffer_Gcode.c ****     float LnFinish = 0.5*(pow(speedFinish,2)-pow(speedTarget,2))/accelerationFinish;
 1767              		.loc 1 266 25 view .LVU348
 1768 0086 0022     		movs	r2, #0
 1769 0088 6E4B     		ldr	r3, .L102+8
 1770 008a FFF7FEFF 		bl	__aeabi_dmul
 1771              	.LVL214:
 1772 008e 0646     		mov	r6, r0
 1773 0090 0F46     		mov	r7, r1
 266:Src/Gcode/Buffer_Gcode.c ****     float LnFinish = 0.5*(pow(speedFinish,2)-pow(speedTarget,2))/accelerationFinish;
 1774              		.loc 1 266 64 view .LVU349
 1775 0092 0D98     		ldr	r0, [sp, #52]	@ float
 1776 0094 FFF7FEFF 		bl	__aeabi_f2d
 1777              	.LVL215:
 1778 0098 0246     		mov	r2, r0
 1779 009a 0B46     		mov	r3, r1
 1780 009c 3046     		mov	r0, r6
 1781 009e 3946     		mov	r1, r7
 1782 00a0 FFF7FEFF 		bl	__aeabi_ddiv
 1783              	.LVL216:
 266:Src/Gcode/Buffer_Gcode.c ****     float LnFinish = 0.5*(pow(speedFinish,2)-pow(speedTarget,2))/accelerationFinish;
 1784              		.loc 1 266 11 view .LVU350
 1785 00a4 FFF7FEFF 		bl	__aeabi_d2f
 1786              	.LVL217:
 1787 00a8 0646     		mov	r6, r0
 1788              	.LVL218:
 267:Src/Gcode/Buffer_Gcode.c ****     float LnMiddle = (float)abs(Zn) - LnStart - LnFinish;
 1789              		.loc 1 267 5 is_stmt 1 view .LVU351
 267:Src/Gcode/Buffer_Gcode.c ****     float LnMiddle = (float)abs(Zn) - LnStart - LnFinish;
 1790              		.loc 1 267 46 is_stmt 0 view .LVU352
 1791 00aa 4246     		mov	r2, r8
 1792 00ac 4B46     		mov	r3, r9
 1793 00ae 2046     		mov	r0, r4
 1794              	.LVL219:
 267:Src/Gcode/Buffer_Gcode.c ****     float LnMiddle = (float)abs(Zn) - LnStart - LnFinish;
 1795              		.loc 1 267 46 view .LVU353
 1796 00b0 2946     		mov	r1, r5
 1797 00b2 FFF7FEFF 		bl	pow
 1798              	.LVL220:
 1799 00b6 0246     		mov	r2, r0
 1800 00b8 0B46     		mov	r3, r1
 267:Src/Gcode/Buffer_Gcode.c ****     float LnMiddle = (float)abs(Zn) - LnStart - LnFinish;
 1801              		.loc 1 267 45 view .LVU354
 1802 00ba 0020     		movs	r0, #0
 1803 00bc 0021     		movs	r1, #0
 1804 00be FFF7FEFF 		bl	__aeabi_dsub
 1805              	.LVL221:
 267:Src/Gcode/Buffer_Gcode.c ****     float LnMiddle = (float)abs(Zn) - LnStart - LnFinish;
ARM GAS  /tmp/ccMe0kQ8.s 			page 47


 1806              		.loc 1 267 25 view .LVU355
 1807 00c2 0022     		movs	r2, #0
 1808 00c4 5F4B     		ldr	r3, .L102+8
 1809 00c6 FFF7FEFF 		bl	__aeabi_dmul
 1810              	.LVL222:
 1811 00ca 0446     		mov	r4, r0
 1812 00cc 0D46     		mov	r5, r1
 267:Src/Gcode/Buffer_Gcode.c ****     float LnMiddle = (float)abs(Zn) - LnStart - LnFinish;
 1813              		.loc 1 267 65 view .LVU356
 1814 00ce 0C98     		ldr	r0, [sp, #48]	@ float
 1815 00d0 FFF7FEFF 		bl	__aeabi_f2d
 1816              	.LVL223:
 1817 00d4 0246     		mov	r2, r0
 1818 00d6 0B46     		mov	r3, r1
 1819 00d8 2046     		mov	r0, r4
 1820 00da 2946     		mov	r1, r5
 1821 00dc FFF7FEFF 		bl	__aeabi_ddiv
 1822              	.LVL224:
 267:Src/Gcode/Buffer_Gcode.c ****     float LnMiddle = (float)abs(Zn) - LnStart - LnFinish;
 1823              		.loc 1 267 11 view .LVU357
 1824 00e0 FFF7FEFF 		bl	__aeabi_d2f
 1825              	.LVL225:
 1826 00e4 0446     		mov	r4, r0
 1827              	.LVL226:
 268:Src/Gcode/Buffer_Gcode.c ****     if( LnMiddle < 0 )
 1828              		.loc 1 268 5 is_stmt 1 view .LVU358
 268:Src/Gcode/Buffer_Gcode.c ****     if( LnMiddle < 0 )
 1829              		.loc 1 268 22 is_stmt 0 view .LVU359
 1830 00e6 8AEAEA70 		eor	r0, r10, r10, asr #31
 1831              	.LVL227:
 268:Src/Gcode/Buffer_Gcode.c ****     if( LnMiddle < 0 )
 1832              		.loc 1 268 22 view .LVU360
 1833 00ea A0EBEA70 		sub	r0, r0, r10, asr #31
 1834 00ee FFF7FEFF 		bl	__aeabi_i2f
 1835              	.LVL228:
 1836 00f2 0546     		mov	r5, r0
 268:Src/Gcode/Buffer_Gcode.c ****     if( LnMiddle < 0 )
 1837              		.loc 1 268 37 view .LVU361
 1838 00f4 3146     		mov	r1, r6
 1839 00f6 FFF7FEFF 		bl	__aeabi_fsub
 1840              	.LVL229:
 268:Src/Gcode/Buffer_Gcode.c ****     if( LnMiddle < 0 )
 1841              		.loc 1 268 11 view .LVU362
 1842 00fa 2146     		mov	r1, r4
 1843 00fc FFF7FEFF 		bl	__aeabi_fsub
 1844              	.LVL230:
 1845 0100 8146     		mov	r9, r0
 1846              	.LVL231:
 269:Src/Gcode/Buffer_Gcode.c ****     {
 1847              		.loc 1 269 5 is_stmt 1 view .LVU363
 269:Src/Gcode/Buffer_Gcode.c ****     {
 1848              		.loc 1 269 7 is_stmt 0 view .LVU364
 1849 0102 0021     		movs	r1, #0
 1850 0104 FFF7FEFF 		bl	__aeabi_fcmplt
 1851              	.LVL232:
 269:Src/Gcode/Buffer_Gcode.c ****     {
 1852              		.loc 1 269 7 view .LVU365
ARM GAS  /tmp/ccMe0kQ8.s 			page 48


 1853 0108 0028     		cmp	r0, #0
 1854 010a 40F09D80 		bne	.L101
 282:Src/Gcode/Buffer_Gcode.c ****     float vZ1 = speedStart*sign(Zn);
 1855              		.loc 1 282 5 is_stmt 1 view .LVU366
 282:Src/Gcode/Buffer_Gcode.c ****     float vZ1 = speedStart*sign(Zn);
 1856              		.loc 1 282 31 is_stmt 0 view .LVU367
 1857 010e 5046     		mov	r0, r10
 1858 0110 FFF7FEFF 		bl	__aeabi_i2f
 1859              	.LVL233:
 1860 0114 FFF7FEFF 		bl	sign
 1861              	.LVL234:
 282:Src/Gcode/Buffer_Gcode.c ****     float vZ1 = speedStart*sign(Zn);
 1862              		.loc 1 282 15 view .LVU368
 1863 0118 FFF7FEFF 		bl	__aeabi_i2f
 1864              	.LVL235:
 1865 011c 0746     		mov	r7, r0
 1866 011e 3146     		mov	r1, r6
 1867 0120 FFF7FEFF 		bl	__aeabi_fmul
 1868              	.LVL236:
 1869 0124 FFF7FEFF 		bl	lroundf
 1870              	.LVL237:
 1871 0128 0446     		mov	r4, r0
 1872              	.LVL238:
 283:Src/Gcode/Buffer_Gcode.c ****     float aZ1 = accelerationStart*sign(Zn);
 1873              		.loc 1 283 5 is_stmt 1 view .LVU369
 283:Src/Gcode/Buffer_Gcode.c ****     float aZ1 = accelerationStart*sign(Zn);
 1874              		.loc 1 283 11 is_stmt 0 view .LVU370
 1875 012a 0021     		movs	r1, #0
 1876 012c 3846     		mov	r0, r7
 1877              	.LVL239:
 283:Src/Gcode/Buffer_Gcode.c ****     float aZ1 = accelerationStart*sign(Zn);
 1878              		.loc 1 283 11 view .LVU371
 1879 012e FFF7FEFF 		bl	__aeabi_fmul
 1880              	.LVL240:
 1881 0132 0646     		mov	r6, r0
 1882              	.LVL241:
 284:Src/Gcode/Buffer_Gcode.c ****     command_Gcode command1 = {MOVE_COMMAND, 0, 0, z1, 0,    0, 0, vZ1, 0,    0, 0, aZ1, 0,   0, 0};
 1883              		.loc 1 284 5 is_stmt 1 view .LVU372
 284:Src/Gcode/Buffer_Gcode.c ****     command_Gcode command1 = {MOVE_COMMAND, 0, 0, z1, 0,    0, 0, vZ1, 0,    0, 0, aZ1, 0,   0, 0};
 1884              		.loc 1 284 11 is_stmt 0 view .LVU373
 1885 0134 0D99     		ldr	r1, [sp, #52]	@ float
 1886 0136 3846     		mov	r0, r7
 1887              	.LVL242:
 284:Src/Gcode/Buffer_Gcode.c ****     command_Gcode command1 = {MOVE_COMMAND, 0, 0, z1, 0,    0, 0, vZ1, 0,    0, 0, aZ1, 0,   0, 0};
 1888              		.loc 1 284 11 view .LVU374
 1889 0138 FFF7FEFF 		bl	__aeabi_fmul
 1890              	.LVL243:
 285:Src/Gcode/Buffer_Gcode.c ****     long z2 = lroundf(LnMiddle*sign(Zn));
 1891              		.loc 1 285 5 is_stmt 1 view .LVU375
 285:Src/Gcode/Buffer_Gcode.c ****     long z2 = lroundf(LnMiddle*sign(Zn));
 1892              		.loc 1 285 19 is_stmt 0 view .LVU376
 1893 013c 4FF00108 		mov	r8, #1
 1894 0140 8DF8CC81 		strb	r8, [sp, #460]
 1895 0144 0025     		movs	r5, #0
 1896 0146 7495     		str	r5, [sp, #464]
 1897 0148 7595     		str	r5, [sp, #468]
 1898 014a 0D94     		str	r4, [sp, #52]
ARM GAS  /tmp/ccMe0kQ8.s 			page 49


 1899              	.LVL244:
 285:Src/Gcode/Buffer_Gcode.c ****     long z2 = lroundf(LnMiddle*sign(Zn));
 1900              		.loc 1 285 19 view .LVU377
 1901 014c 7694     		str	r4, [sp, #472]
 1902 014e 7795     		str	r5, [sp, #476]
 1903 0150 0024     		movs	r4, #0
 1904              	.LVL245:
 285:Src/Gcode/Buffer_Gcode.c ****     long z2 = lroundf(LnMiddle*sign(Zn));
 1905              		.loc 1 285 19 view .LVU378
 1906 0152 7894     		str	r4, [sp, #480]	@ float
 1907 0154 7994     		str	r4, [sp, #484]	@ float
 1908 0156 7A96     		str	r6, [sp, #488]	@ float
 1909 0158 7B94     		str	r4, [sp, #492]	@ float
 1910 015a 7C94     		str	r4, [sp, #496]	@ float
 1911 015c 7D94     		str	r4, [sp, #500]	@ float
 1912 015e 7E90     		str	r0, [sp, #504]	@ float
 1913 0160 7F94     		str	r4, [sp, #508]	@ float
 1914 0162 8094     		str	r4, [sp, #512]	@ float
 1915 0164 8194     		str	r4, [sp, #516]	@ float
 285:Src/Gcode/Buffer_Gcode.c ****     long z2 = lroundf(LnMiddle*sign(Zn));
 1916              		.loc 1 285 102 is_stmt 1 view .LVU379
 1917 0166 6E46     		mov	r6, sp
 1918              	.LVL246:
 285:Src/Gcode/Buffer_Gcode.c ****     long z2 = lroundf(LnMiddle*sign(Zn));
 1919              		.loc 1 285 102 is_stmt 0 view .LVU380
 1920 0168 0DF5EE7C 		add	ip, sp, #476
 1921 016c BCE80F00 		ldmia	ip!, {r0, r1, r2, r3}
 1922              	.LVL247:
 285:Src/Gcode/Buffer_Gcode.c ****     long z2 = lroundf(LnMiddle*sign(Zn));
 1923              		.loc 1 285 102 view .LVU381
 1924 0170 0FC6     		stmia	r6!, {r0, r1, r2, r3}
 1925 0172 BCE80F00 		ldmia	ip!, {r0, r1, r2, r3}
 1926 0176 0FC6     		stmia	r6!, {r0, r1, r2, r3}
 1927 0178 9CE80700 		ldm	ip, {r0, r1, r2}
 1928 017c 86E80700 		stm	r6, {r0, r1, r2}
 1929 0180 73AB     		add	r3, sp, #460
 1930 0182 0FCB     		ldm	r3, {r0, r1, r2, r3}
 1931 0184 FFF7FEFF 		bl	firstInCommandBuffer_Gcode
 1932              	.LVL248:
 286:Src/Gcode/Buffer_Gcode.c ****     float vZ2 = speedTarget*sign(Zn);
 1933              		.loc 1 286 5 is_stmt 1 view .LVU382
 286:Src/Gcode/Buffer_Gcode.c ****     float vZ2 = speedTarget*sign(Zn);
 1934              		.loc 1 286 15 is_stmt 0 view .LVU383
 1935 0188 4946     		mov	r1, r9
 1936 018a 3846     		mov	r0, r7
 1937 018c FFF7FEFF 		bl	__aeabi_fmul
 1938              	.LVL249:
 1939 0190 FFF7FEFF 		bl	lroundf
 1940              	.LVL250:
 1941 0194 0646     		mov	r6, r0
 1942              	.LVL251:
 287:Src/Gcode/Buffer_Gcode.c ****     float aZ2 = 0;
 1943              		.loc 1 287 5 is_stmt 1 view .LVU384
 287:Src/Gcode/Buffer_Gcode.c ****     float aZ2 = 0;
 1944              		.loc 1 287 11 is_stmt 0 view .LVU385
 1945 0196 5946     		mov	r1, fp
 1946 0198 3846     		mov	r0, r7
ARM GAS  /tmp/ccMe0kQ8.s 			page 50


 1947              	.LVL252:
 287:Src/Gcode/Buffer_Gcode.c ****     float aZ2 = 0;
 1948              		.loc 1 287 11 view .LVU386
 1949 019a FFF7FEFF 		bl	__aeabi_fmul
 1950              	.LVL253:
 1951 019e 8146     		mov	r9, r0
 1952              	.LVL254:
 288:Src/Gcode/Buffer_Gcode.c ****     command_Gcode command2 = {MOVE_COMMAND, 0, 0, z2, 0,    0, 0, vZ2, 0,    0, 0, aZ2, 0,   0, 0};
 1953              		.loc 1 288 5 is_stmt 1 view .LVU387
 289:Src/Gcode/Buffer_Gcode.c ****     long z3 = Zn - z1 - z2;
 1954              		.loc 1 289 5 view .LVU388
 289:Src/Gcode/Buffer_Gcode.c ****     long z3 = Zn - z1 - z2;
 1955              		.loc 1 289 19 is_stmt 0 view .LVU389
 1956 01a0 8DF89081 		strb	r8, [sp, #400]
 1957 01a4 6595     		str	r5, [sp, #404]
 1958 01a6 6695     		str	r5, [sp, #408]
 1959 01a8 6796     		str	r6, [sp, #412]
 1960 01aa 6895     		str	r5, [sp, #416]
 1961 01ac 6994     		str	r4, [sp, #420]	@ float
 1962 01ae 6A94     		str	r4, [sp, #424]	@ float
 1963 01b0 6B90     		str	r0, [sp, #428]	@ float
 1964 01b2 6C94     		str	r4, [sp, #432]	@ float
 1965 01b4 6D94     		str	r4, [sp, #436]	@ float
 1966 01b6 6E94     		str	r4, [sp, #440]	@ float
 1967 01b8 6F94     		str	r4, [sp, #444]	@ float
 1968 01ba 7094     		str	r4, [sp, #448]	@ float
 1969 01bc 7194     		str	r4, [sp, #452]	@ float
 1970 01be 7294     		str	r4, [sp, #456]	@ float
 289:Src/Gcode/Buffer_Gcode.c ****     long z3 = Zn - z1 - z2;
 1971              		.loc 1 289 102 is_stmt 1 view .LVU390
 1972 01c0 EC46     		mov	ip, sp
 1973 01c2 0DF5D07E 		add	lr, sp, #416
 1974 01c6 BEE80F00 		ldmia	lr!, {r0, r1, r2, r3}
 1975              	.LVL255:
 289:Src/Gcode/Buffer_Gcode.c ****     long z3 = Zn - z1 - z2;
 1976              		.loc 1 289 102 is_stmt 0 view .LVU391
 1977 01ca ACE80F00 		stmia	ip!, {r0, r1, r2, r3}
 1978 01ce BEE80F00 		ldmia	lr!, {r0, r1, r2, r3}
 1979 01d2 ACE80F00 		stmia	ip!, {r0, r1, r2, r3}
 1980 01d6 9EE80700 		ldm	lr, {r0, r1, r2}
 1981 01da 8CE80700 		stm	ip, {r0, r1, r2}
 1982 01de 64AB     		add	r3, sp, #400
 1983 01e0 0FCB     		ldm	r3, {r0, r1, r2, r3}
 1984 01e2 FFF7FEFF 		bl	firstInCommandBuffer_Gcode
 1985              	.LVL256:
 290:Src/Gcode/Buffer_Gcode.c ****     float vZ3 = speedTarget*sign(Zn);
 1986              		.loc 1 290 5 is_stmt 1 view .LVU392
 290:Src/Gcode/Buffer_Gcode.c ****     float vZ3 = speedTarget*sign(Zn);
 1987              		.loc 1 290 18 is_stmt 0 view .LVU393
 1988 01e6 0D9B     		ldr	r3, [sp, #52]
 1989 01e8 AAEB0300 		sub	r0, r10, r3
 290:Src/Gcode/Buffer_Gcode.c ****     float vZ3 = speedTarget*sign(Zn);
 1990              		.loc 1 290 10 view .LVU394
 1991 01ec 861B     		subs	r6, r0, r6
 1992              	.LVL257:
 291:Src/Gcode/Buffer_Gcode.c ****     float aZ3 = accelerationFinish*sign(Zn);
 1993              		.loc 1 291 5 is_stmt 1 view .LVU395
ARM GAS  /tmp/ccMe0kQ8.s 			page 51


 292:Src/Gcode/Buffer_Gcode.c ****     command_Gcode command3 = {MOVE_COMMAND, 0, 0, z3, 0,    0, 0, vZ3, 0,    0, 0, aZ3, 0,   0, 0};
 1994              		.loc 1 292 5 view .LVU396
 292:Src/Gcode/Buffer_Gcode.c ****     command_Gcode command3 = {MOVE_COMMAND, 0, 0, z3, 0,    0, 0, vZ3, 0,    0, 0, aZ3, 0,   0, 0};
 1995              		.loc 1 292 11 is_stmt 0 view .LVU397
 1996 01ee 0C99     		ldr	r1, [sp, #48]	@ float
 1997 01f0 3846     		mov	r0, r7
 1998 01f2 FFF7FEFF 		bl	__aeabi_fmul
 1999              	.LVL258:
 293:Src/Gcode/Buffer_Gcode.c **** }
 2000              		.loc 1 293 5 is_stmt 1 view .LVU398
 293:Src/Gcode/Buffer_Gcode.c **** }
 2001              		.loc 1 293 19 is_stmt 0 view .LVU399
 2002 01f6 8DF85481 		strb	r8, [sp, #340]
 2003 01fa 5695     		str	r5, [sp, #344]
 2004 01fc 5795     		str	r5, [sp, #348]
 2005 01fe 5896     		str	r6, [sp, #352]
 2006 0200 5995     		str	r5, [sp, #356]
 2007 0202 5A94     		str	r4, [sp, #360]	@ float
 2008 0204 5B94     		str	r4, [sp, #364]	@ float
 2009 0206 CDF87091 		str	r9, [sp, #368]	@ float
 2010 020a 5D94     		str	r4, [sp, #372]	@ float
 2011 020c 5E94     		str	r4, [sp, #376]	@ float
 2012 020e 5F94     		str	r4, [sp, #380]	@ float
 2013 0210 6090     		str	r0, [sp, #384]	@ float
 2014 0212 6194     		str	r4, [sp, #388]	@ float
 2015 0214 6294     		str	r4, [sp, #392]	@ float
 2016 0216 6394     		str	r4, [sp, #396]	@ float
 293:Src/Gcode/Buffer_Gcode.c **** }
 2017              		.loc 1 293 102 is_stmt 1 view .LVU400
 2018 0218 6C46     		mov	r4, sp
 2019 021a 59AD     		add	r5, sp, #356
 2020 021c 0FCD     		ldmia	r5!, {r0, r1, r2, r3}
 2021              	.LVL259:
 293:Src/Gcode/Buffer_Gcode.c **** }
 2022              		.loc 1 293 102 is_stmt 0 view .LVU401
 2023 021e 0FC4     		stmia	r4!, {r0, r1, r2, r3}
 2024 0220 0FCD     		ldmia	r5!, {r0, r1, r2, r3}
 2025 0222 0FC4     		stmia	r4!, {r0, r1, r2, r3}
 2026 0224 95E80700 		ldm	r5, {r0, r1, r2}
 2027 0228 84E80700 		stm	r4, {r0, r1, r2}
 2028 022c 55AB     		add	r3, sp, #340
 2029 022e 0FCB     		ldm	r3, {r0, r1, r2, r3}
 2030 0230 FFF7FEFF 		bl	firstInCommandBuffer_Gcode
 2031              	.LVL260:
 2032              	.L92:
 294:Src/Gcode/Buffer_Gcode.c **** 
 2033              		.loc 1 294 1 view .LVU402
 2034 0234 0DF5037D 		add	sp, sp, #524
 2035              	.LCFI33:
 2036              		.cfi_remember_state
 2037              		.cfi_def_cfa_offset 36
 2038              		@ sp needed
 2039 0238 BDE8F08F 		pop	{r4, r5, r6, r7, r8, r9, r10, fp, pc}
 2040              	.LVL261:
 2041              	.L103:
 294:Src/Gcode/Buffer_Gcode.c **** 
 2042              		.loc 1 294 1 view .LVU403
ARM GAS  /tmp/ccMe0kQ8.s 			page 52


 2043              		.align	2
 2044              	.L102:
 2045 023c 5555D046 		.word	1188058453
 2046 0240 5555D045 		.word	1171281237
 2047 0244 0000E03F 		.word	1071644672
 2048              	.LVL262:
 2049              	.L101:
 2050              	.LCFI34:
 2051              		.cfi_restore_state
 2052              	.LBB2:
 271:Src/Gcode/Buffer_Gcode.c ****         float speed_Z_buffer = speedMaxFastMove( (float)abs(Zn), speedStart, speedFinish, accelerat
 2053              		.loc 1 271 9 is_stmt 1 view .LVU404
 271:Src/Gcode/Buffer_Gcode.c ****         float speed_Z_buffer = speedMaxFastMove( (float)abs(Zn), speedStart, speedFinish, accelerat
 2054              		.loc 1 271 35 is_stmt 0 view .LVU405
 2055 0248 0024     		movs	r4, #0
 2056              	.LVL263:
 271:Src/Gcode/Buffer_Gcode.c ****         float speed_Z_buffer = speedMaxFastMove( (float)abs(Zn), speedStart, speedFinish, accelerat
 2057              		.loc 1 271 35 view .LVU406
 2058 024a 0C9F     		ldr	r7, [sp, #48]	@ float
 2059 024c 0097     		str	r7, [sp]	@ float
 2060 024e DDF83490 		ldr	r9, [sp, #52]	@ float
 2061              	.LVL264:
 271:Src/Gcode/Buffer_Gcode.c ****         float speed_Z_buffer = speedMaxFastMove( (float)abs(Zn), speedStart, speedFinish, accelerat
 2062              		.loc 1 271 35 view .LVU407
 2063 0252 4B46     		mov	r3, r9
 2064 0254 2246     		mov	r2, r4
 2065 0256 2146     		mov	r1, r4
 2066 0258 2846     		mov	r0, r5
 2067 025a FFF7FEFF 		bl	distanceStartFastMove
 2068              	.LVL265:
 2069 025e 0646     		mov	r6, r0
 2070              	.LVL266:
 272:Src/Gcode/Buffer_Gcode.c ****         long z1 = lroundf(distance_Z_buffer*sign(Zn));
 2071              		.loc 1 272 9 is_stmt 1 view .LVU408
 272:Src/Gcode/Buffer_Gcode.c ****         long z1 = lroundf(distance_Z_buffer*sign(Zn));
 2072              		.loc 1 272 32 is_stmt 0 view .LVU409
 2073 0260 0C97     		str	r7, [sp, #48]	@ float
 2074              	.LVL267:
 272:Src/Gcode/Buffer_Gcode.c ****         long z1 = lroundf(distance_Z_buffer*sign(Zn));
 2075              		.loc 1 272 32 view .LVU410
 2076 0262 0097     		str	r7, [sp]	@ float
 2077 0264 4B46     		mov	r3, r9
 2078 0266 2246     		mov	r2, r4
 2079 0268 2146     		mov	r1, r4
 2080 026a 2846     		mov	r0, r5
 2081              	.LVL268:
 272:Src/Gcode/Buffer_Gcode.c ****         long z1 = lroundf(distance_Z_buffer*sign(Zn));
 2082              		.loc 1 272 32 view .LVU411
 2083 026c FFF7FEFF 		bl	speedMaxFastMove
 2084              	.LVL269:
 2085 0270 8346     		mov	fp, r0
 2086              	.LVL270:
 273:Src/Gcode/Buffer_Gcode.c ****         float vZ1 = speedStart;
 2087              		.loc 1 273 9 is_stmt 1 view .LVU412
 273:Src/Gcode/Buffer_Gcode.c ****         float vZ1 = speedStart;
 2088              		.loc 1 273 45 is_stmt 0 view .LVU413
 2089 0272 5046     		mov	r0, r10
ARM GAS  /tmp/ccMe0kQ8.s 			page 53


 2090              	.LVL271:
 273:Src/Gcode/Buffer_Gcode.c ****         float vZ1 = speedStart;
 2091              		.loc 1 273 45 view .LVU414
 2092 0274 FFF7FEFF 		bl	__aeabi_i2f
 2093              	.LVL272:
 2094 0278 FFF7FEFF 		bl	sign
 2095              	.LVL273:
 273:Src/Gcode/Buffer_Gcode.c ****         float vZ1 = speedStart;
 2096              		.loc 1 273 19 view .LVU415
 2097 027c FFF7FEFF 		bl	__aeabi_i2f
 2098              	.LVL274:
 2099 0280 8046     		mov	r8, r0
 2100 0282 3146     		mov	r1, r6
 2101 0284 FFF7FEFF 		bl	__aeabi_fmul
 2102              	.LVL275:
 2103 0288 FFF7FEFF 		bl	lroundf
 2104              	.LVL276:
 2105 028c 0746     		mov	r7, r0
 2106              	.LVL277:
 274:Src/Gcode/Buffer_Gcode.c ****         float aZ1 = accelerationStart*sign(Zn);
 2107              		.loc 1 274 9 is_stmt 1 view .LVU416
 275:Src/Gcode/Buffer_Gcode.c ****         command_Gcode command1 = {MOVE_COMMAND, 0, 0, z1, 0,    0, 0, vZ1, 0,    0, 0, aZ1, 0,   0,
 2108              		.loc 1 275 9 view .LVU417
 275:Src/Gcode/Buffer_Gcode.c ****         command_Gcode command1 = {MOVE_COMMAND, 0, 0, z1, 0,    0, 0, vZ1, 0,    0, 0, aZ1, 0,   0,
 2109              		.loc 1 275 15 is_stmt 0 view .LVU418
 2110 028e 4946     		mov	r1, r9
 2111 0290 4046     		mov	r0, r8
 2112              	.LVL278:
 275:Src/Gcode/Buffer_Gcode.c ****         command_Gcode command1 = {MOVE_COMMAND, 0, 0, z1, 0,    0, 0, vZ1, 0,    0, 0, aZ1, 0,   0,
 2113              		.loc 1 275 15 view .LVU419
 2114 0292 FFF7FEFF 		bl	__aeabi_fmul
 2115              	.LVL279:
 276:Src/Gcode/Buffer_Gcode.c ****         long z2 = Zn - z1;
 2116              		.loc 1 276 9 is_stmt 1 view .LVU420
 276:Src/Gcode/Buffer_Gcode.c ****         long z2 = Zn - z1;
 2117              		.loc 1 276 23 is_stmt 0 view .LVU421
 2118 0296 37AD     		add	r5, sp, #220
 2119 0298 4FF00109 		mov	r9, #1
 2120 029c 85F80090 		strb	r9, [r5]
 2121 02a0 0026     		movs	r6, #0
 2122              	.LVL280:
 276:Src/Gcode/Buffer_Gcode.c ****         long z2 = Zn - z1;
 2123              		.loc 1 276 23 view .LVU422
 2124 02a2 6E60     		str	r6, [r5, #4]
 2125 02a4 AE60     		str	r6, [r5, #8]
 2126 02a6 EF60     		str	r7, [r5, #12]
 2127 02a8 2E61     		str	r6, [r5, #16]
 2128 02aa 6C61     		str	r4, [r5, #20]	@ float
 2129 02ac AC61     		str	r4, [r5, #24]	@ float
 2130 02ae EC61     		str	r4, [r5, #28]	@ float
 2131 02b0 2C62     		str	r4, [r5, #32]	@ float
 2132 02b2 6C62     		str	r4, [r5, #36]	@ float
 2133 02b4 AC62     		str	r4, [r5, #40]	@ float
 2134 02b6 E862     		str	r0, [r5, #44]	@ float
 2135 02b8 2C63     		str	r4, [r5, #48]	@ float
 2136 02ba 6C63     		str	r4, [r5, #52]	@ float
 2137 02bc AC63     		str	r4, [r5, #56]	@ float
ARM GAS  /tmp/ccMe0kQ8.s 			page 54


 276:Src/Gcode/Buffer_Gcode.c ****         long z2 = Zn - z1;
 2138              		.loc 1 276 106 is_stmt 1 view .LVU423
 2139 02be EC46     		mov	ip, sp
 2140 02c0 0DF1EC0E 		add	lr, sp, #236
 2141 02c4 BEE80F00 		ldmia	lr!, {r0, r1, r2, r3}
 2142              	.LVL281:
 276:Src/Gcode/Buffer_Gcode.c ****         long z2 = Zn - z1;
 2143              		.loc 1 276 106 is_stmt 0 view .LVU424
 2144 02c8 ACE80F00 		stmia	ip!, {r0, r1, r2, r3}
 2145 02cc BEE80F00 		ldmia	lr!, {r0, r1, r2, r3}
 2146 02d0 ACE80F00 		stmia	ip!, {r0, r1, r2, r3}
 2147 02d4 9EE80700 		ldm	lr, {r0, r1, r2}
 2148 02d8 8CE80700 		stm	ip, {r0, r1, r2}
 2149 02dc 95E80F00 		ldm	r5, {r0, r1, r2, r3}
 2150 02e0 FFF7FEFF 		bl	firstInCommandBuffer_Gcode
 2151              	.LVL282:
 277:Src/Gcode/Buffer_Gcode.c ****         float vZ2 = speed_Z_buffer*sign(Zn);
 2152              		.loc 1 277 9 is_stmt 1 view .LVU425
 277:Src/Gcode/Buffer_Gcode.c ****         float vZ2 = speed_Z_buffer*sign(Zn);
 2153              		.loc 1 277 14 is_stmt 0 view .LVU426
 2154 02e4 AAEB0707 		sub	r7, r10, r7
 2155              	.LVL283:
 278:Src/Gcode/Buffer_Gcode.c ****         float aZ2 = accelerationFinish*sign(Zn);
 2156              		.loc 1 278 9 is_stmt 1 view .LVU427
 278:Src/Gcode/Buffer_Gcode.c ****         float aZ2 = accelerationFinish*sign(Zn);
 2157              		.loc 1 278 15 is_stmt 0 view .LVU428
 2158 02e8 5946     		mov	r1, fp
 2159 02ea 4046     		mov	r0, r8
 2160 02ec FFF7FEFF 		bl	__aeabi_fmul
 2161              	.LVL284:
 2162 02f0 0546     		mov	r5, r0
 2163              	.LVL285:
 279:Src/Gcode/Buffer_Gcode.c ****         command_Gcode command2 = {MOVE_COMMAND, 0, 0, z2, 0,    0, 0, vZ2, 0,    0, 0, aZ2, 0,   0,
 2164              		.loc 1 279 9 is_stmt 1 view .LVU429
 279:Src/Gcode/Buffer_Gcode.c ****         command_Gcode command2 = {MOVE_COMMAND, 0, 0, z2, 0,    0, 0, vZ2, 0,    0, 0, aZ2, 0,   0,
 2165              		.loc 1 279 15 is_stmt 0 view .LVU430
 2166 02f2 0C99     		ldr	r1, [sp, #48]	@ float
 2167 02f4 4046     		mov	r0, r8
 2168              	.LVL286:
 279:Src/Gcode/Buffer_Gcode.c ****         command_Gcode command2 = {MOVE_COMMAND, 0, 0, z2, 0,    0, 0, vZ2, 0,    0, 0, aZ2, 0,   0,
 2169              		.loc 1 279 15 view .LVU431
 2170 02f6 FFF7FEFF 		bl	__aeabi_fmul
 2171              	.LVL287:
 280:Src/Gcode/Buffer_Gcode.c ****     }
 2172              		.loc 1 280 9 is_stmt 1 view .LVU432
 280:Src/Gcode/Buffer_Gcode.c ****     }
 2173              		.loc 1 280 23 is_stmt 0 view .LVU433
 2174 02fa 8DF81891 		strb	r9, [sp, #280]
 2175 02fe 4796     		str	r6, [sp, #284]
 2176 0300 4896     		str	r6, [sp, #288]
 2177 0302 4997     		str	r7, [sp, #292]
 2178 0304 4A96     		str	r6, [sp, #296]
 2179 0306 4B94     		str	r4, [sp, #300]	@ float
 2180 0308 4C94     		str	r4, [sp, #304]	@ float
 2181 030a 4D95     		str	r5, [sp, #308]	@ float
 2182 030c 4E94     		str	r4, [sp, #312]	@ float
 2183 030e 4F94     		str	r4, [sp, #316]	@ float
ARM GAS  /tmp/ccMe0kQ8.s 			page 55


 2184 0310 5094     		str	r4, [sp, #320]	@ float
 2185 0312 5190     		str	r0, [sp, #324]	@ float
 2186 0314 5294     		str	r4, [sp, #328]	@ float
 2187 0316 5394     		str	r4, [sp, #332]	@ float
 2188 0318 5494     		str	r4, [sp, #336]	@ float
 280:Src/Gcode/Buffer_Gcode.c ****     }
 2189              		.loc 1 280 106 is_stmt 1 view .LVU434
 2190 031a 6C46     		mov	r4, sp
 2191 031c 4AAD     		add	r5, sp, #296
 2192              	.LVL288:
 280:Src/Gcode/Buffer_Gcode.c ****     }
 2193              		.loc 1 280 106 is_stmt 0 view .LVU435
 2194 031e 0FCD     		ldmia	r5!, {r0, r1, r2, r3}
 2195              	.LVL289:
 280:Src/Gcode/Buffer_Gcode.c ****     }
 2196              		.loc 1 280 106 view .LVU436
 2197 0320 0FC4     		stmia	r4!, {r0, r1, r2, r3}
 2198 0322 0FCD     		ldmia	r5!, {r0, r1, r2, r3}
 2199 0324 0FC4     		stmia	r4!, {r0, r1, r2, r3}
 2200 0326 95E80700 		ldm	r5, {r0, r1, r2}
 2201 032a 84E80700 		stm	r4, {r0, r1, r2}
 2202 032e 46AB     		add	r3, sp, #280
 2203 0330 0FCB     		ldm	r3, {r0, r1, r2, r3}
 2204 0332 FFF7FEFF 		bl	firstInCommandBuffer_Gcode
 2205              	.LVL290:
 280:Src/Gcode/Buffer_Gcode.c ****     }
 2206              		.loc 1 280 145 is_stmt 1 view .LVU437
 2207 0336 7DE7     		b	.L92
 2208              	.LBE2:
 2209              		.cfi_endproc
 2210              	.LFE20:
 2212              		.global	__aeabi_i2d
 2213              		.global	__aeabi_dadd
 2214              		.section	.text.MoveXY_Analyser,"ax",%progbits
 2215              		.align	1
 2216              		.syntax unified
 2217              		.thumb
 2218              		.thumb_func
 2219              		.fpu softvfp
 2221              	MoveXY_Analyser:
 2222              	.LFB18:
 191:Src/Gcode/Buffer_Gcode.c ****     long Xn = getDescreteCommandBufferElement_Gcode(2).Xn - getDescreteCommandBufferElement_Gcode(1
 2223              		.loc 1 191 1 view -0
 2224              		.cfi_startproc
 2225              		@ args = 0, pretend = 0, frame = 1040
 2226              		@ frame_needed = 0, uses_anonymous_args = 0
 2227 0000 2DE9F04F 		push	{r4, r5, r6, r7, r8, r9, r10, fp, lr}
 2228              	.LCFI35:
 2229              		.cfi_def_cfa_offset 36
 2230              		.cfi_offset 4, -36
 2231              		.cfi_offset 5, -32
 2232              		.cfi_offset 6, -28
 2233              		.cfi_offset 7, -24
 2234              		.cfi_offset 8, -20
 2235              		.cfi_offset 9, -16
 2236              		.cfi_offset 10, -12
 2237              		.cfi_offset 11, -8
ARM GAS  /tmp/ccMe0kQ8.s 			page 56


 2238              		.cfi_offset 14, -4
 2239 0004 ADF2444D 		subw	sp, sp, #1092
 2240              	.LCFI36:
 2241              		.cfi_def_cfa_offset 1128
 192:Src/Gcode/Buffer_Gcode.c ****     long Yn = getDescreteCommandBufferElement_Gcode(2).Yn - getDescreteCommandBufferElement_Gcode(1
 2242              		.loc 1 192 5 view .LVU439
 192:Src/Gcode/Buffer_Gcode.c ****     long Yn = getDescreteCommandBufferElement_Gcode(2).Yn - getDescreteCommandBufferElement_Gcode(1
 2243              		.loc 1 192 15 is_stmt 0 view .LVU440
 2244 0008 0221     		movs	r1, #2
 2245 000a 1BA8     		add	r0, sp, #108
 2246 000c FFF7FEFF 		bl	getDescreteCommandBufferElement_Gcode
 2247              	.LVL291:
 192:Src/Gcode/Buffer_Gcode.c ****     long Yn = getDescreteCommandBufferElement_Gcode(2).Yn - getDescreteCommandBufferElement_Gcode(1
 2248              		.loc 1 192 55 view .LVU441
 2249 0010 1C9C     		ldr	r4, [sp, #112]
 192:Src/Gcode/Buffer_Gcode.c ****     long Yn = getDescreteCommandBufferElement_Gcode(2).Yn - getDescreteCommandBufferElement_Gcode(1
 2250              		.loc 1 192 61 view .LVU442
 2251 0012 0121     		movs	r1, #1
 2252 0014 25A8     		add	r0, sp, #148
 2253 0016 FFF7FEFF 		bl	getDescreteCommandBufferElement_Gcode
 2254              	.LVL292:
 192:Src/Gcode/Buffer_Gcode.c ****     long Yn = getDescreteCommandBufferElement_Gcode(2).Yn - getDescreteCommandBufferElement_Gcode(1
 2255              		.loc 1 192 101 view .LVU443
 2256 001a 269E     		ldr	r6, [sp, #152]
 192:Src/Gcode/Buffer_Gcode.c ****     long Yn = getDescreteCommandBufferElement_Gcode(2).Yn - getDescreteCommandBufferElement_Gcode(1
 2257              		.loc 1 192 10 view .LVU444
 2258 001c A4EB060B 		sub	fp, r4, r6
 2259              	.LVL293:
 193:Src/Gcode/Buffer_Gcode.c ****     long En = getDescreteCommandBufferElement_Gcode(2).En - getDescreteCommandBufferElement_Gcode(1
 2260              		.loc 1 193 5 is_stmt 1 view .LVU445
 193:Src/Gcode/Buffer_Gcode.c ****     long En = getDescreteCommandBufferElement_Gcode(2).En - getDescreteCommandBufferElement_Gcode(1
 2261              		.loc 1 193 15 is_stmt 0 view .LVU446
 2262 0020 0221     		movs	r1, #2
 2263 0022 2FA8     		add	r0, sp, #188
 2264 0024 FFF7FEFF 		bl	getDescreteCommandBufferElement_Gcode
 2265              	.LVL294:
 193:Src/Gcode/Buffer_Gcode.c ****     long En = getDescreteCommandBufferElement_Gcode(2).En - getDescreteCommandBufferElement_Gcode(1
 2266              		.loc 1 193 55 view .LVU447
 2267 0028 319C     		ldr	r4, [sp, #196]
 193:Src/Gcode/Buffer_Gcode.c ****     long En = getDescreteCommandBufferElement_Gcode(2).En - getDescreteCommandBufferElement_Gcode(1
 2268              		.loc 1 193 61 view .LVU448
 2269 002a 0121     		movs	r1, #1
 2270 002c 39A8     		add	r0, sp, #228
 2271 002e FFF7FEFF 		bl	getDescreteCommandBufferElement_Gcode
 2272              	.LVL295:
 193:Src/Gcode/Buffer_Gcode.c ****     long En = getDescreteCommandBufferElement_Gcode(2).En - getDescreteCommandBufferElement_Gcode(1
 2273              		.loc 1 193 101 view .LVU449
 2274 0032 3B9D     		ldr	r5, [sp, #236]
 193:Src/Gcode/Buffer_Gcode.c ****     long En = getDescreteCommandBufferElement_Gcode(2).En - getDescreteCommandBufferElement_Gcode(1
 2275              		.loc 1 193 10 view .LVU450
 2276 0034 A4EB050A 		sub	r10, r4, r5
 2277              	.LVL296:
 194:Src/Gcode/Buffer_Gcode.c ****     float distance_XY = sqrtf(pow(Xn,2)+pow(Yn,2)); float cosX = (float)Xn/distance_XY; float cosY 
 2278              		.loc 1 194 5 is_stmt 1 view .LVU451
 194:Src/Gcode/Buffer_Gcode.c ****     float distance_XY = sqrtf(pow(Xn,2)+pow(Yn,2)); float cosX = (float)Xn/distance_XY; float cosY 
 2279              		.loc 1 194 15 is_stmt 0 view .LVU452
 2280 0038 0221     		movs	r1, #2
ARM GAS  /tmp/ccMe0kQ8.s 			page 57


 2281 003a 43A8     		add	r0, sp, #268
 2282 003c FFF7FEFF 		bl	getDescreteCommandBufferElement_Gcode
 2283              	.LVL297:
 194:Src/Gcode/Buffer_Gcode.c ****     float distance_XY = sqrtf(pow(Xn,2)+pow(Yn,2)); float cosX = (float)Xn/distance_XY; float cosY 
 2284              		.loc 1 194 55 view .LVU453
 2285 0040 479C     		ldr	r4, [sp, #284]
 194:Src/Gcode/Buffer_Gcode.c ****     float distance_XY = sqrtf(pow(Xn,2)+pow(Yn,2)); float cosX = (float)Xn/distance_XY; float cosY 
 2286              		.loc 1 194 61 view .LVU454
 2287 0042 0121     		movs	r1, #1
 2288 0044 4DA8     		add	r0, sp, #308
 2289 0046 FFF7FEFF 		bl	getDescreteCommandBufferElement_Gcode
 2290              	.LVL298:
 194:Src/Gcode/Buffer_Gcode.c ****     float distance_XY = sqrtf(pow(Xn,2)+pow(Yn,2)); float cosX = (float)Xn/distance_XY; float cosY 
 2291              		.loc 1 194 101 view .LVU455
 2292 004a 519F     		ldr	r7, [sp, #324]
 194:Src/Gcode/Buffer_Gcode.c ****     float distance_XY = sqrtf(pow(Xn,2)+pow(Yn,2)); float cosX = (float)Xn/distance_XY; float cosY 
 2293              		.loc 1 194 10 view .LVU456
 2294 004c E31B     		subs	r3, r4, r7
 2295 004e 1093     		str	r3, [sp, #64]
 2296              	.LVL299:
 195:Src/Gcode/Buffer_Gcode.c ****     float speedTarget = getDescreteCommandBufferElement_Gcode(2).FnXY;  if ( getDescreteCommandBuff
 2297              		.loc 1 195 5 is_stmt 1 view .LVU457
 195:Src/Gcode/Buffer_Gcode.c ****     float speedTarget = getDescreteCommandBufferElement_Gcode(2).FnXY;  if ( getDescreteCommandBuff
 2298              		.loc 1 195 31 is_stmt 0 view .LVU458
 2299 0050 0026     		movs	r6, #0
 2300 0052 4FF08047 		mov	r7, #1073741824
 2301 0056 5846     		mov	r0, fp
 2302 0058 FFF7FEFF 		bl	__aeabi_i2d
 2303              	.LVL300:
 195:Src/Gcode/Buffer_Gcode.c ****     float speedTarget = getDescreteCommandBufferElement_Gcode(2).FnXY;  if ( getDescreteCommandBuff
 2304              		.loc 1 195 31 view .LVU459
 2305 005c 3246     		mov	r2, r6
 2306 005e 3B46     		mov	r3, r7
 2307 0060 FFF7FEFF 		bl	pow
 2308              	.LVL301:
 2309 0064 0446     		mov	r4, r0
 2310 0066 0D46     		mov	r5, r1
 195:Src/Gcode/Buffer_Gcode.c ****     float speedTarget = getDescreteCommandBufferElement_Gcode(2).FnXY;  if ( getDescreteCommandBuff
 2311              		.loc 1 195 41 view .LVU460
 2312 0068 5046     		mov	r0, r10
 2313 006a FFF7FEFF 		bl	__aeabi_i2d
 2314              	.LVL302:
 2315 006e 3246     		mov	r2, r6
 2316 0070 3B46     		mov	r3, r7
 2317 0072 FFF7FEFF 		bl	pow
 2318              	.LVL303:
 2319 0076 0246     		mov	r2, r0
 2320 0078 0B46     		mov	r3, r1
 195:Src/Gcode/Buffer_Gcode.c ****     float speedTarget = getDescreteCommandBufferElement_Gcode(2).FnXY;  if ( getDescreteCommandBuff
 2321              		.loc 1 195 40 view .LVU461
 2322 007a 2046     		mov	r0, r4
 2323 007c 2946     		mov	r1, r5
 2324 007e FFF7FEFF 		bl	__aeabi_dadd
 2325              	.LVL304:
 195:Src/Gcode/Buffer_Gcode.c ****     float speedTarget = getDescreteCommandBufferElement_Gcode(2).FnXY;  if ( getDescreteCommandBuff
 2326              		.loc 1 195 25 view .LVU462
 2327 0082 FFF7FEFF 		bl	__aeabi_d2f
ARM GAS  /tmp/ccMe0kQ8.s 			page 58


 2328              	.LVL305:
 2329 0086 FFF7FEFF 		bl	sqrtf
 2330              	.LVL306:
 2331 008a 0546     		mov	r5, r0
 2332              	.LVL307:
 195:Src/Gcode/Buffer_Gcode.c ****     float speedTarget = getDescreteCommandBufferElement_Gcode(2).FnXY;  if ( getDescreteCommandBuff
 2333              		.loc 1 195 53 is_stmt 1 view .LVU463
 195:Src/Gcode/Buffer_Gcode.c ****     float speedTarget = getDescreteCommandBufferElement_Gcode(2).FnXY;  if ( getDescreteCommandBuff
 2334              		.loc 1 195 66 is_stmt 0 view .LVU464
 2335 008c 5846     		mov	r0, fp
 2336              	.LVL308:
 195:Src/Gcode/Buffer_Gcode.c ****     float speedTarget = getDescreteCommandBufferElement_Gcode(2).FnXY;  if ( getDescreteCommandBuff
 2337              		.loc 1 195 66 view .LVU465
 2338 008e FFF7FEFF 		bl	__aeabi_i2f
 2339              	.LVL309:
 195:Src/Gcode/Buffer_Gcode.c ****     float speedTarget = getDescreteCommandBufferElement_Gcode(2).FnXY;  if ( getDescreteCommandBuff
 2340              		.loc 1 195 59 view .LVU466
 2341 0092 2946     		mov	r1, r5
 2342 0094 FFF7FEFF 		bl	__aeabi_fdiv
 2343              	.LVL310:
 2344 0098 0E90     		str	r0, [sp, #56]	@ float
 2345              	.LVL311:
 195:Src/Gcode/Buffer_Gcode.c ****     float speedTarget = getDescreteCommandBufferElement_Gcode(2).FnXY;  if ( getDescreteCommandBuff
 2346              		.loc 1 195 89 is_stmt 1 view .LVU467
 195:Src/Gcode/Buffer_Gcode.c ****     float speedTarget = getDescreteCommandBufferElement_Gcode(2).FnXY;  if ( getDescreteCommandBuff
 2347              		.loc 1 195 102 is_stmt 0 view .LVU468
 2348 009a 5046     		mov	r0, r10
 2349              	.LVL312:
 195:Src/Gcode/Buffer_Gcode.c ****     float speedTarget = getDescreteCommandBufferElement_Gcode(2).FnXY;  if ( getDescreteCommandBuff
 2350              		.loc 1 195 102 view .LVU469
 2351 009c FFF7FEFF 		bl	__aeabi_i2f
 2352              	.LVL313:
 195:Src/Gcode/Buffer_Gcode.c ****     float speedTarget = getDescreteCommandBufferElement_Gcode(2).FnXY;  if ( getDescreteCommandBuff
 2353              		.loc 1 195 95 view .LVU470
 2354 00a0 2946     		mov	r1, r5
 2355 00a2 FFF7FEFF 		bl	__aeabi_fdiv
 2356              	.LVL314:
 2357 00a6 0F90     		str	r0, [sp, #60]	@ float
 2358              	.LVL315:
 195:Src/Gcode/Buffer_Gcode.c ****     float speedTarget = getDescreteCommandBufferElement_Gcode(2).FnXY;  if ( getDescreteCommandBuff
 2359              		.loc 1 195 125 is_stmt 1 view .LVU471
 195:Src/Gcode/Buffer_Gcode.c ****     float speedTarget = getDescreteCommandBufferElement_Gcode(2).FnXY;  if ( getDescreteCommandBuff
 2360              		.loc 1 195 138 is_stmt 0 view .LVU472
 2361 00a8 1098     		ldr	r0, [sp, #64]
 2362              	.LVL316:
 195:Src/Gcode/Buffer_Gcode.c ****     float speedTarget = getDescreteCommandBufferElement_Gcode(2).FnXY;  if ( getDescreteCommandBuff
 2363              		.loc 1 195 138 view .LVU473
 2364 00aa FFF7FEFF 		bl	__aeabi_i2f
 2365              	.LVL317:
 195:Src/Gcode/Buffer_Gcode.c ****     float speedTarget = getDescreteCommandBufferElement_Gcode(2).FnXY;  if ( getDescreteCommandBuff
 2366              		.loc 1 195 131 view .LVU474
 2367 00ae 2946     		mov	r1, r5
 2368 00b0 FFF7FEFF 		bl	__aeabi_fdiv
 2369              	.LVL318:
 2370 00b4 0D90     		str	r0, [sp, #52]	@ float
 2371              	.LVL319:
 196:Src/Gcode/Buffer_Gcode.c ****     if (En != 0) if ( fabs(speedTarget*cosE) > MAX_SPEED_E_STEPS_PER_SECOND ) speedTarget = sign(sp
ARM GAS  /tmp/ccMe0kQ8.s 			page 59


 2372              		.loc 1 196 5 is_stmt 1 view .LVU475
 196:Src/Gcode/Buffer_Gcode.c ****     if (En != 0) if ( fabs(speedTarget*cosE) > MAX_SPEED_E_STEPS_PER_SECOND ) speedTarget = sign(sp
 2373              		.loc 1 196 25 is_stmt 0 view .LVU476
 2374 00b6 0221     		movs	r1, #2
 2375 00b8 57A8     		add	r0, sp, #348
 2376              	.LVL320:
 196:Src/Gcode/Buffer_Gcode.c ****     if (En != 0) if ( fabs(speedTarget*cosE) > MAX_SPEED_E_STEPS_PER_SECOND ) speedTarget = sign(sp
 2377              		.loc 1 196 25 view .LVU477
 2378 00ba FFF7FEFF 		bl	getDescreteCommandBufferElement_Gcode
 2379              	.LVL321:
 196:Src/Gcode/Buffer_Gcode.c ****     if (En != 0) if ( fabs(speedTarget*cosE) > MAX_SPEED_E_STEPS_PER_SECOND ) speedTarget = sign(sp
 2380              		.loc 1 196 11 view .LVU478
 2381 00be 5C9C     		ldr	r4, [sp, #368]	@ float
 2382              	.LVL322:
 196:Src/Gcode/Buffer_Gcode.c ****     if (En != 0) if ( fabs(speedTarget*cosE) > MAX_SPEED_E_STEPS_PER_SECOND ) speedTarget = sign(sp
 2383              		.loc 1 196 73 is_stmt 1 view .LVU479
 196:Src/Gcode/Buffer_Gcode.c ****     if (En != 0) if ( fabs(speedTarget*cosE) > MAX_SPEED_E_STEPS_PER_SECOND ) speedTarget = sign(sp
 2384              		.loc 1 196 78 is_stmt 0 view .LVU480
 2385 00c0 0221     		movs	r1, #2
 2386 00c2 61A8     		add	r0, sp, #388
 2387 00c4 FFF7FEFF 		bl	getDescreteCommandBufferElement_Gcode
 2388              	.LVL323:
 196:Src/Gcode/Buffer_Gcode.c ****     if (En != 0) if ( fabs(speedTarget*cosE) > MAX_SPEED_E_STEPS_PER_SECOND ) speedTarget = sign(sp
 2389              		.loc 1 196 76 view .LVU481
 2390 00c8 8949     		ldr	r1, .L131
 2391 00ca 6698     		ldr	r0, [sp, #408]	@ float
 2392 00cc FFF7FEFF 		bl	__aeabi_fcmpgt
 2393              	.LVL324:
 2394 00d0 00B1     		cbz	r0, .L105
 196:Src/Gcode/Buffer_Gcode.c ****     if (En != 0) if ( fabs(speedTarget*cosE) > MAX_SPEED_E_STEPS_PER_SECOND ) speedTarget = sign(sp
 2395              		.loc 1 196 170 view .LVU482
 2396 00d2 874C     		ldr	r4, .L131
 2397              	.LVL325:
 2398              	.L105:
 197:Src/Gcode/Buffer_Gcode.c ****     float speedStart = 0;                                               if ( conserveSpeedStart(Xn,
 2399              		.loc 1 197 5 is_stmt 1 view .LVU483
 197:Src/Gcode/Buffer_Gcode.c ****     float speedStart = 0;                                               if ( conserveSpeedStart(Xn,
 2400              		.loc 1 197 8 is_stmt 0 view .LVU484
 2401 00d4 109B     		ldr	r3, [sp, #64]
 2402 00d6 BBB1     		cbz	r3, .L106
 197:Src/Gcode/Buffer_Gcode.c ****     float speedStart = 0;                                               if ( conserveSpeedStart(Xn,
 2403              		.loc 1 197 18 is_stmt 1 discriminator 1 view .LVU485
 197:Src/Gcode/Buffer_Gcode.c ****     float speedStart = 0;                                               if ( conserveSpeedStart(Xn,
 2404              		.loc 1 197 39 is_stmt 0 discriminator 1 view .LVU486
 2405 00d8 0D9E     		ldr	r6, [sp, #52]	@ float
 2406 00da 3146     		mov	r1, r6
 2407 00dc 2046     		mov	r0, r4
 2408 00de FFF7FEFF 		bl	__aeabi_fmul
 2409              	.LVL326:
 197:Src/Gcode/Buffer_Gcode.c ****     float speedStart = 0;                                               if ( conserveSpeedStart(Xn,
 2410              		.loc 1 197 23 discriminator 1 view .LVU487
 2411 00e2 20F00040 		bic	r0, r0, #-2147483648
 197:Src/Gcode/Buffer_Gcode.c ****     float speedStart = 0;                                               if ( conserveSpeedStart(Xn,
 2412              		.loc 1 197 21 discriminator 1 view .LVU488
 2413 00e6 8349     		ldr	r1, .L131+4
 2414 00e8 FFF7FEFF 		bl	__aeabi_fcmpgt
 2415              	.LVL327:
ARM GAS  /tmp/ccMe0kQ8.s 			page 60


 2416 00ec 60B1     		cbz	r0, .L106
 197:Src/Gcode/Buffer_Gcode.c ****     float speedStart = 0;                                               if ( conserveSpeedStart(Xn,
 2417              		.loc 1 197 79 is_stmt 1 discriminator 2 view .LVU489
 197:Src/Gcode/Buffer_Gcode.c ****     float speedStart = 0;                                               if ( conserveSpeedStart(Xn,
 2418              		.loc 1 197 93 is_stmt 0 discriminator 2 view .LVU490
 2419 00ee 2046     		mov	r0, r4
 2420 00f0 FFF7FEFF 		bl	sign
 2421              	.LVL328:
 197:Src/Gcode/Buffer_Gcode.c ****     float speedStart = 0;                                               if ( conserveSpeedStart(Xn,
 2422              		.loc 1 197 110 discriminator 2 view .LVU491
 2423 00f4 FFF7FEFF 		bl	__aeabi_i2f
 2424              	.LVL329:
 2425 00f8 7E49     		ldr	r1, .L131+4
 2426 00fa FFF7FEFF 		bl	__aeabi_fmul
 2427              	.LVL330:
 197:Src/Gcode/Buffer_Gcode.c ****     float speedStart = 0;                                               if ( conserveSpeedStart(Xn,
 2428              		.loc 1 197 147 discriminator 2 view .LVU492
 2429 00fe 26F00041 		bic	r1, r6, #-2147483648
 197:Src/Gcode/Buffer_Gcode.c ****     float speedStart = 0;                                               if ( conserveSpeedStart(Xn,
 2430              		.loc 1 197 91 discriminator 2 view .LVU493
 2431 0102 FFF7FEFF 		bl	__aeabi_fdiv
 2432              	.LVL331:
 2433 0106 0446     		mov	r4, r0
 2434              	.LVL332:
 2435              	.L106:
 198:Src/Gcode/Buffer_Gcode.c ****     float speedFinish = 0;                                              if ( conserveSpeedFinish(Xn
 2436              		.loc 1 198 5 is_stmt 1 view .LVU494
 198:Src/Gcode/Buffer_Gcode.c ****     float speedFinish = 0;                                              if ( conserveSpeedFinish(Xn
 2437              		.loc 1 198 73 view .LVU495
 198:Src/Gcode/Buffer_Gcode.c ****     float speedFinish = 0;                                              if ( conserveSpeedFinish(Xn
 2438              		.loc 1 198 78 is_stmt 0 view .LVU496
 2439 0108 0022     		movs	r2, #0
 2440 010a 5146     		mov	r1, r10
 2441 010c 5846     		mov	r0, fp
 2442 010e FFF7FEFF 		bl	conserveSpeedStart
 2443              	.LVL333:
 198:Src/Gcode/Buffer_Gcode.c ****     float speedFinish = 0;                                              if ( conserveSpeedFinish(Xn
 2444              		.loc 1 198 76 view .LVU497
 2445 0112 0028     		cmp	r0, #0
 2446 0114 40F0A781 		bne	.L128
 198:Src/Gcode/Buffer_Gcode.c ****     float speedFinish = 0;                                              if ( conserveSpeedFinish(Xn
 2447              		.loc 1 198 11 view .LVU498
 2448 0118 0026     		movs	r6, #0
 2449              	.LVL334:
 2450              	.L108:
 199:Src/Gcode/Buffer_Gcode.c ****     float accelerationStart = ACCELERATION_XY_STEPS_PER_SS*sign(speedTarget-speedStart);
 2451              		.loc 1 199 5 is_stmt 1 view .LVU499
 199:Src/Gcode/Buffer_Gcode.c ****     float accelerationStart = ACCELERATION_XY_STEPS_PER_SS*sign(speedTarget-speedStart);
 2452              		.loc 1 199 73 view .LVU500
 199:Src/Gcode/Buffer_Gcode.c ****     float accelerationStart = ACCELERATION_XY_STEPS_PER_SS*sign(speedTarget-speedStart);
 2453              		.loc 1 199 78 is_stmt 0 view .LVU501
 2454 011a 0022     		movs	r2, #0
 2455 011c 5146     		mov	r1, r10
 2456 011e 5846     		mov	r0, fp
 2457 0120 FFF7FEFF 		bl	conserveSpeedFinish
 2458              	.LVL335:
 199:Src/Gcode/Buffer_Gcode.c ****     float accelerationStart = ACCELERATION_XY_STEPS_PER_SS*sign(speedTarget-speedStart);
ARM GAS  /tmp/ccMe0kQ8.s 			page 61


 2459              		.loc 1 199 76 view .LVU502
 2460 0124 0028     		cmp	r0, #0
 2461 0126 40F0F281 		bne	.L123
 199:Src/Gcode/Buffer_Gcode.c ****     float accelerationStart = ACCELERATION_XY_STEPS_PER_SS*sign(speedTarget-speedStart);
 2462              		.loc 1 199 11 view .LVU503
 2463 012a 0023     		movs	r3, #0
 2464 012c 1393     		str	r3, [sp, #76]	@ float
 2465              	.L109:
 2466              	.LVL336:
 200:Src/Gcode/Buffer_Gcode.c ****     float accelerationFinish = ACCELERATION_XY_STEPS_PER_SS*sign(speedFinish-speedTarget);
 2467              		.loc 1 200 5 is_stmt 1 view .LVU504
 200:Src/Gcode/Buffer_Gcode.c ****     float accelerationFinish = ACCELERATION_XY_STEPS_PER_SS*sign(speedFinish-speedTarget);
 2468              		.loc 1 200 60 is_stmt 0 view .LVU505
 2469 012e 3146     		mov	r1, r6
 2470 0130 2046     		mov	r0, r4
 2471 0132 FFF7FEFF 		bl	__aeabi_fsub
 2472              	.LVL337:
 2473 0136 FFF7FEFF 		bl	sign
 2474              	.LVL338:
 200:Src/Gcode/Buffer_Gcode.c ****     float accelerationFinish = ACCELERATION_XY_STEPS_PER_SS*sign(speedFinish-speedTarget);
 2475              		.loc 1 200 59 view .LVU506
 2476 013a FFF7FEFF 		bl	__aeabi_i2f
 2477              	.LVL339:
 200:Src/Gcode/Buffer_Gcode.c ****     float accelerationFinish = ACCELERATION_XY_STEPS_PER_SS*sign(speedFinish-speedTarget);
 2478              		.loc 1 200 11 view .LVU507
 2479 013e 6E49     		ldr	r1, .L131+8
 2480 0140 FFF7FEFF 		bl	__aeabi_fmul
 2481              	.LVL340:
 2482 0144 0746     		mov	r7, r0
 2483 0146 1190     		str	r0, [sp, #68]	@ float
 2484              	.LVL341:
 201:Src/Gcode/Buffer_Gcode.c ****     float LnStart  = 0.5*(pow(speedTarget,2)-pow(speedStart,2))/accelerationStart;
 2485              		.loc 1 201 5 is_stmt 1 view .LVU508
 201:Src/Gcode/Buffer_Gcode.c ****     float LnStart  = 0.5*(pow(speedTarget,2)-pow(speedStart,2))/accelerationStart;
 2486              		.loc 1 201 61 is_stmt 0 view .LVU509
 2487 0148 2146     		mov	r1, r4
 2488 014a 1398     		ldr	r0, [sp, #76]	@ float
 2489              	.LVL342:
 201:Src/Gcode/Buffer_Gcode.c ****     float LnStart  = 0.5*(pow(speedTarget,2)-pow(speedStart,2))/accelerationStart;
 2490              		.loc 1 201 61 view .LVU510
 2491 014c FFF7FEFF 		bl	__aeabi_fsub
 2492              	.LVL343:
 2493 0150 FFF7FEFF 		bl	sign
 2494              	.LVL344:
 201:Src/Gcode/Buffer_Gcode.c ****     float LnStart  = 0.5*(pow(speedTarget,2)-pow(speedStart,2))/accelerationStart;
 2495              		.loc 1 201 60 view .LVU511
 2496 0154 FFF7FEFF 		bl	__aeabi_i2f
 2497              	.LVL345:
 201:Src/Gcode/Buffer_Gcode.c ****     float LnStart  = 0.5*(pow(speedTarget,2)-pow(speedStart,2))/accelerationStart;
 2498              		.loc 1 201 11 view .LVU512
 2499 0158 6749     		ldr	r1, .L131+8
 2500 015a FFF7FEFF 		bl	__aeabi_fmul
 2501              	.LVL346:
 2502 015e 1290     		str	r0, [sp, #72]	@ float
 2503              	.LVL347:
 202:Src/Gcode/Buffer_Gcode.c ****     float LnFinish = 0.5*(pow(speedFinish,2)-pow(speedTarget,2))/accelerationFinish;
 2504              		.loc 1 202 5 is_stmt 1 view .LVU513
ARM GAS  /tmp/ccMe0kQ8.s 			page 62


 202:Src/Gcode/Buffer_Gcode.c ****     float LnFinish = 0.5*(pow(speedFinish,2)-pow(speedTarget,2))/accelerationFinish;
 2505              		.loc 1 202 27 is_stmt 0 view .LVU514
 2506 0160 2046     		mov	r0, r4
 2507              	.LVL348:
 202:Src/Gcode/Buffer_Gcode.c ****     float LnFinish = 0.5*(pow(speedFinish,2)-pow(speedTarget,2))/accelerationFinish;
 2508              		.loc 1 202 27 view .LVU515
 2509 0162 FFF7FEFF 		bl	__aeabi_f2d
 2510              	.LVL349:
 2511 0166 0246     		mov	r2, r0
 2512 0168 0B46     		mov	r3, r1
 2513 016a CDE91423 		strd	r2, [sp, #80]
 2514 016e 4FF00008 		mov	r8, #0
 2515 0172 4FF08049 		mov	r9, #1073741824
 2516 0176 4246     		mov	r2, r8
 2517 0178 4B46     		mov	r3, r9
 2518 017a FFF7FEFF 		bl	pow
 2519              	.LVL350:
 2520 017e CDE91601 		strd	r0, [sp, #88]
 202:Src/Gcode/Buffer_Gcode.c ****     float LnFinish = 0.5*(pow(speedFinish,2)-pow(speedTarget,2))/accelerationFinish;
 2521              		.loc 1 202 46 view .LVU516
 2522 0182 3046     		mov	r0, r6
 2523 0184 FFF7FEFF 		bl	__aeabi_f2d
 2524              	.LVL351:
 2525 0188 4246     		mov	r2, r8
 2526 018a 4B46     		mov	r3, r9
 2527 018c FFF7FEFF 		bl	pow
 2528              	.LVL352:
 2529 0190 0246     		mov	r2, r0
 2530 0192 0B46     		mov	r3, r1
 202:Src/Gcode/Buffer_Gcode.c ****     float LnFinish = 0.5*(pow(speedFinish,2)-pow(speedTarget,2))/accelerationFinish;
 2531              		.loc 1 202 45 view .LVU517
 2532 0194 DDE91601 		ldrd	r0, [sp, #88]
 2533 0198 FFF7FEFF 		bl	__aeabi_dsub
 2534              	.LVL353:
 202:Src/Gcode/Buffer_Gcode.c ****     float LnFinish = 0.5*(pow(speedFinish,2)-pow(speedTarget,2))/accelerationFinish;
 2535              		.loc 1 202 25 view .LVU518
 2536 019c 0022     		movs	r2, #0
 2537 019e 574B     		ldr	r3, .L131+12
 2538 01a0 FFF7FEFF 		bl	__aeabi_dmul
 2539              	.LVL354:
 2540 01a4 CDE91601 		strd	r0, [sp, #88]
 202:Src/Gcode/Buffer_Gcode.c ****     float LnFinish = 0.5*(pow(speedFinish,2)-pow(speedTarget,2))/accelerationFinish;
 2541              		.loc 1 202 64 view .LVU519
 2542 01a8 3846     		mov	r0, r7
 2543 01aa FFF7FEFF 		bl	__aeabi_f2d
 2544              	.LVL355:
 2545 01ae 0246     		mov	r2, r0
 2546 01b0 0B46     		mov	r3, r1
 2547 01b2 DDE91601 		ldrd	r0, [sp, #88]
 2548 01b6 FFF7FEFF 		bl	__aeabi_ddiv
 2549              	.LVL356:
 202:Src/Gcode/Buffer_Gcode.c ****     float LnFinish = 0.5*(pow(speedFinish,2)-pow(speedTarget,2))/accelerationFinish;
 2550              		.loc 1 202 11 view .LVU520
 2551 01ba FFF7FEFF 		bl	__aeabi_d2f
 2552              	.LVL357:
 2553 01be 0746     		mov	r7, r0
 2554              	.LVL358:
ARM GAS  /tmp/ccMe0kQ8.s 			page 63


 203:Src/Gcode/Buffer_Gcode.c ****     float LnMiddle = distance_XY - LnStart - LnFinish;
 2555              		.loc 1 203 5 is_stmt 1 view .LVU521
 203:Src/Gcode/Buffer_Gcode.c ****     float LnMiddle = distance_XY - LnStart - LnFinish;
 2556              		.loc 1 203 27 is_stmt 0 view .LVU522
 2557 01c0 1398     		ldr	r0, [sp, #76]	@ float
 2558              	.LVL359:
 203:Src/Gcode/Buffer_Gcode.c ****     float LnMiddle = distance_XY - LnStart - LnFinish;
 2559              		.loc 1 203 27 view .LVU523
 2560 01c2 FFF7FEFF 		bl	__aeabi_f2d
 2561              	.LVL360:
 2562 01c6 4246     		mov	r2, r8
 2563 01c8 4B46     		mov	r3, r9
 2564 01ca FFF7FEFF 		bl	pow
 2565              	.LVL361:
 2566 01ce CDE91601 		strd	r0, [sp, #88]
 203:Src/Gcode/Buffer_Gcode.c ****     float LnMiddle = distance_XY - LnStart - LnFinish;
 2567              		.loc 1 203 46 view .LVU524
 2568 01d2 4246     		mov	r2, r8
 2569 01d4 4B46     		mov	r3, r9
 2570 01d6 DDE91401 		ldrd	r0, [sp, #80]
 2571 01da FFF7FEFF 		bl	pow
 2572              	.LVL362:
 2573 01de 0246     		mov	r2, r0
 2574 01e0 0B46     		mov	r3, r1
 203:Src/Gcode/Buffer_Gcode.c ****     float LnMiddle = distance_XY - LnStart - LnFinish;
 2575              		.loc 1 203 45 view .LVU525
 2576 01e2 DDE91601 		ldrd	r0, [sp, #88]
 2577 01e6 FFF7FEFF 		bl	__aeabi_dsub
 2578              	.LVL363:
 203:Src/Gcode/Buffer_Gcode.c ****     float LnMiddle = distance_XY - LnStart - LnFinish;
 2579              		.loc 1 203 25 view .LVU526
 2580 01ea 0022     		movs	r2, #0
 2581 01ec 434B     		ldr	r3, .L131+12
 2582 01ee FFF7FEFF 		bl	__aeabi_dmul
 2583              	.LVL364:
 2584 01f2 8046     		mov	r8, r0
 2585 01f4 8946     		mov	r9, r1
 203:Src/Gcode/Buffer_Gcode.c ****     float LnMiddle = distance_XY - LnStart - LnFinish;
 2586              		.loc 1 203 65 view .LVU527
 2587 01f6 1298     		ldr	r0, [sp, #72]	@ float
 2588 01f8 FFF7FEFF 		bl	__aeabi_f2d
 2589              	.LVL365:
 2590 01fc 0246     		mov	r2, r0
 2591 01fe 0B46     		mov	r3, r1
 2592 0200 4046     		mov	r0, r8
 2593 0202 4946     		mov	r1, r9
 2594 0204 FFF7FEFF 		bl	__aeabi_ddiv
 2595              	.LVL366:
 203:Src/Gcode/Buffer_Gcode.c ****     float LnMiddle = distance_XY - LnStart - LnFinish;
 2596              		.loc 1 203 11 view .LVU528
 2597 0208 FFF7FEFF 		bl	__aeabi_d2f
 2598              	.LVL367:
 2599 020c 8046     		mov	r8, r0
 2600 020e 1890     		str	r0, [sp, #96]	@ float
 2601              	.LVL368:
 204:Src/Gcode/Buffer_Gcode.c ****     if( LnMiddle < 0 )
 2602              		.loc 1 204 5 is_stmt 1 view .LVU529
ARM GAS  /tmp/ccMe0kQ8.s 			page 64


 204:Src/Gcode/Buffer_Gcode.c ****     if( LnMiddle < 0 )
 2603              		.loc 1 204 34 is_stmt 0 view .LVU530
 2604 0210 3946     		mov	r1, r7
 2605 0212 2846     		mov	r0, r5
 2606              	.LVL369:
 204:Src/Gcode/Buffer_Gcode.c ****     if( LnMiddle < 0 )
 2607              		.loc 1 204 34 view .LVU531
 2608 0214 FFF7FEFF 		bl	__aeabi_fsub
 2609              	.LVL370:
 204:Src/Gcode/Buffer_Gcode.c ****     if( LnMiddle < 0 )
 2610              		.loc 1 204 11 view .LVU532
 2611 0218 4146     		mov	r1, r8
 2612 021a FFF7FEFF 		bl	__aeabi_fsub
 2613              	.LVL371:
 2614 021e 8146     		mov	r9, r0
 2615              	.LVL372:
 205:Src/Gcode/Buffer_Gcode.c ****     {
 2616              		.loc 1 205 5 is_stmt 1 view .LVU533
 205:Src/Gcode/Buffer_Gcode.c ****     {
 2617              		.loc 1 205 7 is_stmt 0 view .LVU534
 2618 0220 0021     		movs	r1, #0
 2619 0222 FFF7FEFF 		bl	__aeabi_fcmplt
 2620              	.LVL373:
 205:Src/Gcode/Buffer_Gcode.c ****     {
 2621              		.loc 1 205 7 view .LVU535
 2622 0226 0028     		cmp	r0, #0
 2623 0228 40F07381 		bne	.L129
 232:Src/Gcode/Buffer_Gcode.c ****     float vX1 = speedStart*cosX;            float vY1 = speedStart*cosY;            float vE1 = spe
 2624              		.loc 1 232 5 is_stmt 1 view .LVU536
 232:Src/Gcode/Buffer_Gcode.c ****     float vX1 = speedStart*cosX;            float vY1 = speedStart*cosY;            float vE1 = spe
 2625              		.loc 1 232 15 is_stmt 0 view .LVU537
 2626 022c 3946     		mov	r1, r7
 2627 022e 0E98     		ldr	r0, [sp, #56]	@ float
 2628 0230 FFF7FEFF 		bl	__aeabi_fmul
 2629              	.LVL374:
 2630 0234 FFF7FEFF 		bl	lroundf
 2631              	.LVL375:
 2632 0238 1390     		str	r0, [sp, #76]
 2633              	.LVL376:
 232:Src/Gcode/Buffer_Gcode.c ****     float vX1 = speedStart*cosX;            float vY1 = speedStart*cosY;            float vE1 = spe
 2634              		.loc 1 232 45 is_stmt 1 view .LVU538
 232:Src/Gcode/Buffer_Gcode.c ****     float vX1 = speedStart*cosX;            float vY1 = speedStart*cosY;            float vE1 = spe
 2635              		.loc 1 232 55 is_stmt 0 view .LVU539
 2636 023a 3946     		mov	r1, r7
 2637 023c DDF83C80 		ldr	r8, [sp, #60]	@ float
 2638              	.LVL377:
 232:Src/Gcode/Buffer_Gcode.c ****     float vX1 = speedStart*cosX;            float vY1 = speedStart*cosY;            float vE1 = spe
 2639              		.loc 1 232 55 view .LVU540
 2640 0240 4046     		mov	r0, r8
 2641              	.LVL378:
 232:Src/Gcode/Buffer_Gcode.c ****     float vX1 = speedStart*cosX;            float vY1 = speedStart*cosY;            float vE1 = spe
 2642              		.loc 1 232 55 view .LVU541
 2643 0242 FFF7FEFF 		bl	__aeabi_fmul
 2644              	.LVL379:
 2645 0246 FFF7FEFF 		bl	lroundf
 2646              	.LVL380:
 2647 024a 1490     		str	r0, [sp, #80]
ARM GAS  /tmp/ccMe0kQ8.s 			page 65


 2648              	.LVL381:
 232:Src/Gcode/Buffer_Gcode.c ****     float vX1 = speedStart*cosX;            float vY1 = speedStart*cosY;            float vE1 = spe
 2649              		.loc 1 232 85 is_stmt 1 view .LVU542
 232:Src/Gcode/Buffer_Gcode.c ****     float vX1 = speedStart*cosX;            float vY1 = speedStart*cosY;            float vE1 = spe
 2650              		.loc 1 232 95 is_stmt 0 view .LVU543
 2651 024c 3946     		mov	r1, r7
 2652 024e 0D9D     		ldr	r5, [sp, #52]	@ float
 2653              	.LVL382:
 232:Src/Gcode/Buffer_Gcode.c ****     float vX1 = speedStart*cosX;            float vY1 = speedStart*cosY;            float vE1 = spe
 2654              		.loc 1 232 95 view .LVU544
 2655 0250 2846     		mov	r0, r5
 2656              	.LVL383:
 232:Src/Gcode/Buffer_Gcode.c ****     float vX1 = speedStart*cosX;            float vY1 = speedStart*cosY;            float vE1 = spe
 2657              		.loc 1 232 95 view .LVU545
 2658 0252 FFF7FEFF 		bl	__aeabi_fmul
 2659              	.LVL384:
 2660 0256 FFF7FEFF 		bl	lroundf
 2661              	.LVL385:
 2662 025a 1690     		str	r0, [sp, #88]
 2663              	.LVL386:
 233:Src/Gcode/Buffer_Gcode.c ****     float aX1 = accelerationStart*cosX;     float aY1 = accelerationStart*cosY;     float aE1 = acc
 2664              		.loc 1 233 5 is_stmt 1 view .LVU546
 233:Src/Gcode/Buffer_Gcode.c ****     float aX1 = accelerationStart*cosX;     float aY1 = accelerationStart*cosY;     float aE1 = acc
 2665              		.loc 1 233 11 is_stmt 0 view .LVU547
 2666 025c 0E99     		ldr	r1, [sp, #56]	@ float
 2667 025e 3046     		mov	r0, r6
 2668              	.LVL387:
 233:Src/Gcode/Buffer_Gcode.c ****     float aX1 = accelerationStart*cosX;     float aY1 = accelerationStart*cosY;     float aE1 = acc
 2669              		.loc 1 233 11 view .LVU548
 2670 0260 FFF7FEFF 		bl	__aeabi_fmul
 2671              	.LVL388:
 2672 0264 1990     		str	r0, [sp, #100]	@ float
 2673              	.LVL389:
 233:Src/Gcode/Buffer_Gcode.c ****     float aX1 = accelerationStart*cosX;     float aY1 = accelerationStart*cosY;     float aE1 = acc
 2674              		.loc 1 233 45 is_stmt 1 view .LVU549
 233:Src/Gcode/Buffer_Gcode.c ****     float aX1 = accelerationStart*cosX;     float aY1 = accelerationStart*cosY;     float aE1 = acc
 2675              		.loc 1 233 51 is_stmt 0 view .LVU550
 2676 0266 CDF83C80 		str	r8, [sp, #60]	@ float
 2677              	.LVL390:
 233:Src/Gcode/Buffer_Gcode.c ****     float aX1 = accelerationStart*cosX;     float aY1 = accelerationStart*cosY;     float aE1 = acc
 2678              		.loc 1 233 51 view .LVU551
 2679 026a 4146     		mov	r1, r8
 2680 026c 3046     		mov	r0, r6
 2681              	.LVL391:
 233:Src/Gcode/Buffer_Gcode.c ****     float aX1 = accelerationStart*cosX;     float aY1 = accelerationStart*cosY;     float aE1 = acc
 2682              		.loc 1 233 51 view .LVU552
 2683 026e FFF7FEFF 		bl	__aeabi_fmul
 2684              	.LVL392:
 2685 0272 8046     		mov	r8, r0
 2686              	.LVL393:
 233:Src/Gcode/Buffer_Gcode.c ****     float aX1 = accelerationStart*cosX;     float aY1 = accelerationStart*cosY;     float aE1 = acc
 2687              		.loc 1 233 85 is_stmt 1 view .LVU553
 233:Src/Gcode/Buffer_Gcode.c ****     float aX1 = accelerationStart*cosX;     float aY1 = accelerationStart*cosY;     float aE1 = acc
 2688              		.loc 1 233 91 is_stmt 0 view .LVU554
 2689 0274 0D95     		str	r5, [sp, #52]	@ float
 2690              	.LVL394:
 233:Src/Gcode/Buffer_Gcode.c ****     float aX1 = accelerationStart*cosX;     float aY1 = accelerationStart*cosY;     float aE1 = acc
ARM GAS  /tmp/ccMe0kQ8.s 			page 66


 2691              		.loc 1 233 91 view .LVU555
 2692 0276 2946     		mov	r1, r5
 2693 0278 3046     		mov	r0, r6
 2694              	.LVL395:
 233:Src/Gcode/Buffer_Gcode.c ****     float aX1 = accelerationStart*cosX;     float aY1 = accelerationStart*cosY;     float aE1 = acc
 2695              		.loc 1 233 91 view .LVU556
 2696 027a FFF7FEFF 		bl	__aeabi_fmul
 2697              	.LVL396:
 2698 027e 0746     		mov	r7, r0
 2699              	.LVL397:
 234:Src/Gcode/Buffer_Gcode.c ****     command_Gcode command1 = {MOVE_COMMAND, x1, y1, 0, e1,    vX1, vY1, 0, vE1,    aX1, aY1, 0, aE1
 2700              		.loc 1 234 5 is_stmt 1 view .LVU557
 234:Src/Gcode/Buffer_Gcode.c ****     command_Gcode command1 = {MOVE_COMMAND, x1, y1, 0, e1,    vX1, vY1, 0, vE1,    aX1, aY1, 0, aE1
 2701              		.loc 1 234 11 is_stmt 0 view .LVU558
 2702 0280 119D     		ldr	r5, [sp, #68]	@ float
 2703 0282 2946     		mov	r1, r5
 2704 0284 0E98     		ldr	r0, [sp, #56]	@ float
 2705              	.LVL398:
 234:Src/Gcode/Buffer_Gcode.c ****     command_Gcode command1 = {MOVE_COMMAND, x1, y1, 0, e1,    vX1, vY1, 0, vE1,    aX1, aY1, 0, aE1
 2706              		.loc 1 234 11 view .LVU559
 2707 0286 FFF7FEFF 		bl	__aeabi_fmul
 2708              	.LVL399:
 2709 028a 0646     		mov	r6, r0
 2710              	.LVL400:
 234:Src/Gcode/Buffer_Gcode.c ****     command_Gcode command1 = {MOVE_COMMAND, x1, y1, 0, e1,    vX1, vY1, 0, vE1,    aX1, aY1, 0, aE1
 2711              		.loc 1 234 45 is_stmt 1 view .LVU560
 234:Src/Gcode/Buffer_Gcode.c ****     command_Gcode command1 = {MOVE_COMMAND, x1, y1, 0, e1,    vX1, vY1, 0, vE1,    aX1, aY1, 0, aE1
 2712              		.loc 1 234 51 is_stmt 0 view .LVU561
 2713 028c 1195     		str	r5, [sp, #68]	@ float
 2714              	.LVL401:
 234:Src/Gcode/Buffer_Gcode.c ****     command_Gcode command1 = {MOVE_COMMAND, x1, y1, 0, e1,    vX1, vY1, 0, vE1,    aX1, aY1, 0, aE1
 2715              		.loc 1 234 51 view .LVU562
 2716 028e 2946     		mov	r1, r5
 2717 0290 0F98     		ldr	r0, [sp, #60]	@ float
 2718              	.LVL402:
 234:Src/Gcode/Buffer_Gcode.c ****     command_Gcode command1 = {MOVE_COMMAND, x1, y1, 0, e1,    vX1, vY1, 0, vE1,    aX1, aY1, 0, aE1
 2719              		.loc 1 234 51 view .LVU563
 2720 0292 FFF7FEFF 		bl	__aeabi_fmul
 2721              	.LVL403:
 2722 0296 0546     		mov	r5, r0
 2723              	.LVL404:
 234:Src/Gcode/Buffer_Gcode.c ****     command_Gcode command1 = {MOVE_COMMAND, x1, y1, 0, e1,    vX1, vY1, 0, vE1,    aX1, aY1, 0, aE1
 2724              		.loc 1 234 85 is_stmt 1 view .LVU564
 234:Src/Gcode/Buffer_Gcode.c ****     command_Gcode command1 = {MOVE_COMMAND, x1, y1, 0, e1,    vX1, vY1, 0, vE1,    aX1, aY1, 0, aE1
 2725              		.loc 1 234 91 is_stmt 0 view .LVU565
 2726 0298 1199     		ldr	r1, [sp, #68]	@ float
 2727 029a 0D98     		ldr	r0, [sp, #52]	@ float
 2728              	.LVL405:
 234:Src/Gcode/Buffer_Gcode.c ****     command_Gcode command1 = {MOVE_COMMAND, x1, y1, 0, e1,    vX1, vY1, 0, vE1,    aX1, aY1, 0, aE1
 2729              		.loc 1 234 91 view .LVU566
 2730 029c FFF7FEFF 		bl	__aeabi_fmul
 2731              	.LVL406:
 235:Src/Gcode/Buffer_Gcode.c ****     long x2 = lroundf(LnMiddle*cosX);       long y2 = lroundf(LnMiddle*cosY);       long e2 = lroun
 2732              		.loc 1 235 5 is_stmt 1 view .LVU567
 235:Src/Gcode/Buffer_Gcode.c ****     long x2 = lroundf(LnMiddle*cosX);       long y2 = lroundf(LnMiddle*cosY);       long e2 = lroun
 2733              		.loc 1 235 19 is_stmt 0 view .LVU568
 2734 02a0 0123     		movs	r3, #1
ARM GAS  /tmp/ccMe0kQ8.s 			page 67


 2735 02a2 8DF80434 		strb	r3, [sp, #1028]
 2736 02a6 139A     		ldr	r2, [sp, #76]
 2737 02a8 CDF80824 		str	r2, [sp, #1032]
 2738 02ac 1499     		ldr	r1, [sp, #80]
 2739 02ae CDF80C14 		str	r1, [sp, #1036]
 2740 02b2 0023     		movs	r3, #0
 2741 02b4 CDF81034 		str	r3, [sp, #1040]
 2742 02b8 169B     		ldr	r3, [sp, #88]
 2743 02ba CDF81434 		str	r3, [sp, #1044]
 2744 02be 199B     		ldr	r3, [sp, #100]	@ float
 2745 02c0 CDF81834 		str	r3, [sp, #1048]	@ float
 2746 02c4 CDF81C84 		str	r8, [sp, #1052]	@ float
 2747 02c8 0023     		movs	r3, #0
 2748 02ca CDF82034 		str	r3, [sp, #1056]	@ float
 2749 02ce CDF82474 		str	r7, [sp, #1060]	@ float
 2750 02d2 CDF82864 		str	r6, [sp, #1064]	@ float
 2751 02d6 CDF82C54 		str	r5, [sp, #1068]	@ float
 2752 02da CDF83034 		str	r3, [sp, #1072]	@ float
 2753 02de CDF83404 		str	r0, [sp, #1076]	@ float
 2754 02e2 CDF83834 		str	r3, [sp, #1080]	@ float
 2755 02e6 CDF83C34 		str	r3, [sp, #1084]	@ float
 235:Src/Gcode/Buffer_Gcode.c ****     long x2 = lroundf(LnMiddle*cosX);       long y2 = lroundf(LnMiddle*cosY);       long e2 = lroun
 2756              		.loc 1 235 112 is_stmt 1 view .LVU569
 235:Src/Gcode/Buffer_Gcode.c ****     long x2 = lroundf(LnMiddle*cosX);       long y2 = lroundf(LnMiddle*cosY);       long e2 = lroun
 2757              		.loc 1 235 114 is_stmt 0 view .LVU570
 2758 02ea 4AB9     		cbnz	r2, .L116
 235:Src/Gcode/Buffer_Gcode.c ****     long x2 = lroundf(LnMiddle*cosX);       long y2 = lroundf(LnMiddle*cosY);       long e2 = lroun
 2759              		.loc 1 235 123 discriminator 2 view .LVU571
 2760 02ec C1B1     		cbz	r1, .L117
 2761 02ee 07E0     		b	.L132
 2762              	.L133:
 2763              		.align	2
 2764              	.L131:
 2765 02f0 ABAAA645 		.word	1168550571
 2766 02f4 ABAA2646 		.word	1176939179
 2767 02f8 ABAAA644 		.word	1151773355
 2768 02fc 0000E03F 		.word	1071644672
 2769              	.L132:
 2770              	.L116:
 235:Src/Gcode/Buffer_Gcode.c ****     long x2 = lroundf(LnMiddle*cosX);       long y2 = lroundf(LnMiddle*cosY);       long e2 = lroun
 2771              		.loc 1 235 135 is_stmt 1 discriminator 3 view .LVU572
 2772 0300 6D46     		mov	r5, sp
 2773              	.LVL407:
 235:Src/Gcode/Buffer_Gcode.c ****     long x2 = lroundf(LnMiddle*cosX);       long y2 = lroundf(LnMiddle*cosY);       long e2 = lroun
 2774              		.loc 1 235 135 is_stmt 0 discriminator 3 view .LVU573
 2775 0302 0DF21446 		addw	r6, sp, #1044
 2776              	.LVL408:
 235:Src/Gcode/Buffer_Gcode.c ****     long x2 = lroundf(LnMiddle*cosX);       long y2 = lroundf(LnMiddle*cosY);       long e2 = lroun
 2777              		.loc 1 235 135 discriminator 3 view .LVU574
 2778 0306 0FCE     		ldmia	r6!, {r0, r1, r2, r3}
 2779              	.LVL409:
 235:Src/Gcode/Buffer_Gcode.c ****     long x2 = lroundf(LnMiddle*cosX);       long y2 = lroundf(LnMiddle*cosY);       long e2 = lroun
 2780              		.loc 1 235 135 discriminator 3 view .LVU575
 2781 0308 0FC5     		stmia	r5!, {r0, r1, r2, r3}
 2782 030a 0FCE     		ldmia	r6!, {r0, r1, r2, r3}
 2783 030c 0FC5     		stmia	r5!, {r0, r1, r2, r3}
 2784 030e 96E80700 		ldm	r6, {r0, r1, r2}
ARM GAS  /tmp/ccMe0kQ8.s 			page 68


 2785 0312 85E80700 		stm	r5, {r0, r1, r2}
 2786 0316 0DF20443 		addw	r3, sp, #1028
 2787 031a 0FCB     		ldm	r3, {r0, r1, r2, r3}
 2788 031c FFF7FEFF 		bl	firstInCommandBuffer_Gcode
 2789              	.LVL410:
 2790              	.L117:
 236:Src/Gcode/Buffer_Gcode.c ****     float vX2 = speedTarget*cosX;           float vY2 = speedTarget*cosY;           float vE2 = spe
 2791              		.loc 1 236 5 is_stmt 1 view .LVU576
 236:Src/Gcode/Buffer_Gcode.c ****     float vX2 = speedTarget*cosX;           float vY2 = speedTarget*cosY;           float vE2 = spe
 2792              		.loc 1 236 15 is_stmt 0 view .LVU577
 2793 0320 4946     		mov	r1, r9
 2794 0322 0E98     		ldr	r0, [sp, #56]	@ float
 2795 0324 FFF7FEFF 		bl	__aeabi_fmul
 2796              	.LVL411:
 2797 0328 FFF7FEFF 		bl	lroundf
 2798              	.LVL412:
 2799 032c 8046     		mov	r8, r0
 2800              	.LVL413:
 236:Src/Gcode/Buffer_Gcode.c ****     float vX2 = speedTarget*cosX;           float vY2 = speedTarget*cosY;           float vE2 = spe
 2801              		.loc 1 236 45 is_stmt 1 view .LVU578
 236:Src/Gcode/Buffer_Gcode.c ****     float vX2 = speedTarget*cosX;           float vY2 = speedTarget*cosY;           float vE2 = spe
 2802              		.loc 1 236 55 is_stmt 0 view .LVU579
 2803 032e 4946     		mov	r1, r9
 2804 0330 0F98     		ldr	r0, [sp, #60]	@ float
 2805              	.LVL414:
 236:Src/Gcode/Buffer_Gcode.c ****     float vX2 = speedTarget*cosX;           float vY2 = speedTarget*cosY;           float vE2 = spe
 2806              		.loc 1 236 55 view .LVU580
 2807 0332 FFF7FEFF 		bl	__aeabi_fmul
 2808              	.LVL415:
 2809 0336 FFF7FEFF 		bl	lroundf
 2810              	.LVL416:
 2811 033a 0546     		mov	r5, r0
 2812              	.LVL417:
 236:Src/Gcode/Buffer_Gcode.c ****     float vX2 = speedTarget*cosX;           float vY2 = speedTarget*cosY;           float vE2 = spe
 2813              		.loc 1 236 85 is_stmt 1 view .LVU581
 236:Src/Gcode/Buffer_Gcode.c ****     float vX2 = speedTarget*cosX;           float vY2 = speedTarget*cosY;           float vE2 = spe
 2814              		.loc 1 236 95 is_stmt 0 view .LVU582
 2815 033c 4946     		mov	r1, r9
 2816 033e 0D98     		ldr	r0, [sp, #52]	@ float
 2817              	.LVL418:
 236:Src/Gcode/Buffer_Gcode.c ****     float vX2 = speedTarget*cosX;           float vY2 = speedTarget*cosY;           float vE2 = spe
 2818              		.loc 1 236 95 view .LVU583
 2819 0340 FFF7FEFF 		bl	__aeabi_fmul
 2820              	.LVL419:
 2821 0344 FFF7FEFF 		bl	lroundf
 2822              	.LVL420:
 2823 0348 0746     		mov	r7, r0
 2824              	.LVL421:
 236:Src/Gcode/Buffer_Gcode.c ****     float vX2 = speedTarget*cosX;           float vY2 = speedTarget*cosY;           float vE2 = spe
 2825              		.loc 1 236 123 is_stmt 1 view .LVU584
 236:Src/Gcode/Buffer_Gcode.c ****     float vX2 = speedTarget*cosX;           float vY2 = speedTarget*cosY;           float vE2 = spe
 2826              		.loc 1 236 126 is_stmt 0 view .LVU585
 2827 034a 1898     		ldr	r0, [sp, #96]	@ float
 2828              	.LVL422:
 236:Src/Gcode/Buffer_Gcode.c ****     float vX2 = speedTarget*cosX;           float vY2 = speedTarget*cosY;           float vE2 = spe
 2829              		.loc 1 236 126 view .LVU586
 2830 034c FFF7FEFF 		bl	lroundf
ARM GAS  /tmp/ccMe0kQ8.s 			page 69


 2831              	.LVL423:
 236:Src/Gcode/Buffer_Gcode.c ****     float vX2 = speedTarget*cosX;           float vY2 = speedTarget*cosY;           float vE2 = spe
 2832              		.loc 1 236 125 view .LVU587
 2833 0350 40B9     		cbnz	r0, .L118
 236:Src/Gcode/Buffer_Gcode.c ****     float vX2 = speedTarget*cosX;           float vY2 = speedTarget*cosY;           float vE2 = spe
 2834              		.loc 1 236 151 is_stmt 1 discriminator 1 view .LVU588
 236:Src/Gcode/Buffer_Gcode.c ****     float vX2 = speedTarget*cosX;           float vY2 = speedTarget*cosY;           float vE2 = spe
 2835              		.loc 1 236 154 is_stmt 0 discriminator 1 view .LVU589
 2836 0352 139B     		ldr	r3, [sp, #76]
 2837 0354 ABEB0308 		sub	r8, fp, r3
 2838              	.LVL424:
 236:Src/Gcode/Buffer_Gcode.c ****     float vX2 = speedTarget*cosX;           float vY2 = speedTarget*cosY;           float vE2 = spe
 2839              		.loc 1 236 165 is_stmt 1 discriminator 1 view .LVU590
 236:Src/Gcode/Buffer_Gcode.c ****     float vX2 = speedTarget*cosX;           float vY2 = speedTarget*cosY;           float vE2 = spe
 2840              		.loc 1 236 168 is_stmt 0 discriminator 1 view .LVU591
 2841 0358 149B     		ldr	r3, [sp, #80]
 2842 035a AAEB0305 		sub	r5, r10, r3
 2843              	.LVL425:
 236:Src/Gcode/Buffer_Gcode.c ****     float vX2 = speedTarget*cosX;           float vY2 = speedTarget*cosY;           float vE2 = spe
 2844              		.loc 1 236 179 is_stmt 1 discriminator 1 view .LVU592
 236:Src/Gcode/Buffer_Gcode.c ****     float vX2 = speedTarget*cosX;           float vY2 = speedTarget*cosY;           float vE2 = spe
 2845              		.loc 1 236 182 is_stmt 0 discriminator 1 view .LVU593
 2846 035e 109B     		ldr	r3, [sp, #64]
 2847 0360 169A     		ldr	r2, [sp, #88]
 2848 0362 9F1A     		subs	r7, r3, r2
 2849              	.LVL426:
 2850              	.L118:
 237:Src/Gcode/Buffer_Gcode.c ****     float aX2 = 0;                          float aY2 = 0;                          float aE2 = 0;
 2851              		.loc 1 237 5 is_stmt 1 view .LVU594
 237:Src/Gcode/Buffer_Gcode.c ****     float aX2 = 0;                          float aY2 = 0;                          float aE2 = 0;
 2852              		.loc 1 237 11 is_stmt 0 view .LVU595
 2853 0364 0E99     		ldr	r1, [sp, #56]	@ float
 2854 0366 2046     		mov	r0, r4
 2855 0368 FFF7FEFF 		bl	__aeabi_fmul
 2856              	.LVL427:
 2857 036c 0646     		mov	r6, r0
 2858              	.LVL428:
 237:Src/Gcode/Buffer_Gcode.c ****     float aX2 = 0;                          float aY2 = 0;                          float aE2 = 0;
 2859              		.loc 1 237 45 is_stmt 1 view .LVU596
 237:Src/Gcode/Buffer_Gcode.c ****     float aX2 = 0;                          float aY2 = 0;                          float aE2 = 0;
 2860              		.loc 1 237 51 is_stmt 0 view .LVU597
 2861 036e 0F99     		ldr	r1, [sp, #60]	@ float
 2862 0370 2046     		mov	r0, r4
 2863              	.LVL429:
 237:Src/Gcode/Buffer_Gcode.c ****     float aX2 = 0;                          float aY2 = 0;                          float aE2 = 0;
 2864              		.loc 1 237 51 view .LVU598
 2865 0372 FFF7FEFF 		bl	__aeabi_fmul
 2866              	.LVL430:
 2867 0376 1190     		str	r0, [sp, #68]	@ float
 2868              	.LVL431:
 237:Src/Gcode/Buffer_Gcode.c ****     float aX2 = 0;                          float aY2 = 0;                          float aE2 = 0;
 2869              		.loc 1 237 85 is_stmt 1 view .LVU599
 237:Src/Gcode/Buffer_Gcode.c ****     float aX2 = 0;                          float aY2 = 0;                          float aE2 = 0;
 2870              		.loc 1 237 91 is_stmt 0 view .LVU600
 2871 0378 0D99     		ldr	r1, [sp, #52]	@ float
 2872 037a 2046     		mov	r0, r4
 2873              	.LVL432:
ARM GAS  /tmp/ccMe0kQ8.s 			page 70


 237:Src/Gcode/Buffer_Gcode.c ****     float aX2 = 0;                          float aY2 = 0;                          float aE2 = 0;
 2874              		.loc 1 237 91 view .LVU601
 2875 037c FFF7FEFF 		bl	__aeabi_fmul
 2876              	.LVL433:
 2877 0380 8146     		mov	r9, r0
 2878              	.LVL434:
 238:Src/Gcode/Buffer_Gcode.c ****     command_Gcode command2 = {MOVE_COMMAND, x2, y2, 0, e2,    vX2, vY2, 0, vE2,    aX2, aY2, 0, aE2
 2879              		.loc 1 238 5 is_stmt 1 view .LVU602
 238:Src/Gcode/Buffer_Gcode.c ****     command_Gcode command2 = {MOVE_COMMAND, x2, y2, 0, e2,    vX2, vY2, 0, vE2,    aX2, aY2, 0, aE2
 2880              		.loc 1 238 45 view .LVU603
 238:Src/Gcode/Buffer_Gcode.c ****     command_Gcode command2 = {MOVE_COMMAND, x2, y2, 0, e2,    vX2, vY2, 0, vE2,    aX2, aY2, 0, aE2
 2881              		.loc 1 238 85 view .LVU604
 239:Src/Gcode/Buffer_Gcode.c ****     long x3 = Xn - x1 - x2;                 long y3 = Yn - y2 - y1;                 long e3 = En - 
 2882              		.loc 1 239 5 view .LVU605
 239:Src/Gcode/Buffer_Gcode.c ****     long x3 = Xn - x1 - x2;                 long y3 = Yn - y2 - y1;                 long e3 = En - 
 2883              		.loc 1 239 19 is_stmt 0 view .LVU606
 2884 0382 4FF00103 		mov	r3, #1
 2885 0386 8DF8C833 		strb	r3, [sp, #968]
 2886 038a CDF8CC83 		str	r8, [sp, #972]
 2887 038e F495     		str	r5, [sp, #976]
 2888 0390 0024     		movs	r4, #0
 2889              	.LVL435:
 239:Src/Gcode/Buffer_Gcode.c ****     long x3 = Xn - x1 - x2;                 long y3 = Yn - y2 - y1;                 long e3 = En - 
 2890              		.loc 1 239 19 view .LVU607
 2891 0392 F594     		str	r4, [sp, #980]
 2892 0394 F697     		str	r7, [sp, #984]
 2893 0396 1896     		str	r6, [sp, #96]	@ float
 2894              	.LVL436:
 239:Src/Gcode/Buffer_Gcode.c ****     long x3 = Xn - x1 - x2;                 long y3 = Yn - y2 - y1;                 long e3 = En - 
 2895              		.loc 1 239 19 view .LVU608
 2896 0398 F796     		str	r6, [sp, #988]	@ float
 2897 039a 119A     		ldr	r2, [sp, #68]	@ float
 2898 039c F892     		str	r2, [sp, #992]	@ float
 2899 039e 0026     		movs	r6, #0
 2900              	.LVL437:
 239:Src/Gcode/Buffer_Gcode.c ****     long x3 = Xn - x1 - x2;                 long y3 = Yn - y2 - y1;                 long e3 = En - 
 2901              		.loc 1 239 19 view .LVU609
 2902 03a0 F996     		str	r6, [sp, #996]	@ float
 2903 03a2 FA90     		str	r0, [sp, #1000]	@ float
 2904 03a4 FB96     		str	r6, [sp, #1004]	@ float
 2905 03a6 FC96     		str	r6, [sp, #1008]	@ float
 2906 03a8 FD96     		str	r6, [sp, #1012]	@ float
 2907 03aa FE96     		str	r6, [sp, #1016]	@ float
 2908 03ac FF96     		str	r6, [sp, #1020]	@ float
 2909 03ae CDF80064 		str	r6, [sp, #1024]	@ float
 239:Src/Gcode/Buffer_Gcode.c ****     long x3 = Xn - x1 - x2;                 long y3 = Yn - y2 - y1;                 long e3 = En - 
 2910              		.loc 1 239 112 is_stmt 1 view .LVU610
 2911 03b2 6C46     		mov	r4, sp
 2912 03b4 0DF5767C 		add	ip, sp, #984
 2913 03b8 BCE80F00 		ldmia	ip!, {r0, r1, r2, r3}
 2914              	.LVL438:
 239:Src/Gcode/Buffer_Gcode.c ****     long x3 = Xn - x1 - x2;                 long y3 = Yn - y2 - y1;                 long e3 = En - 
 2915              		.loc 1 239 112 is_stmt 0 view .LVU611
 2916 03bc 0FC4     		stmia	r4!, {r0, r1, r2, r3}
 2917 03be BCE80F00 		ldmia	ip!, {r0, r1, r2, r3}
 2918 03c2 0FC4     		stmia	r4!, {r0, r1, r2, r3}
 2919 03c4 9CE80700 		ldm	ip, {r0, r1, r2}
ARM GAS  /tmp/ccMe0kQ8.s 			page 71


 2920 03c8 84E80700 		stm	r4, {r0, r1, r2}
 2921 03cc F2AB     		add	r3, sp, #968
 2922 03ce 0FCB     		ldm	r3, {r0, r1, r2, r3}
 2923 03d0 FFF7FEFF 		bl	firstInCommandBuffer_Gcode
 2924              	.LVL439:
 240:Src/Gcode/Buffer_Gcode.c ****     float vX3 = speedTarget*cosX;           float vY3 = speedTarget*cosY;           float vE3 = spe
 2925              		.loc 1 240 5 is_stmt 1 view .LVU612
 240:Src/Gcode/Buffer_Gcode.c ****     float vX3 = speedTarget*cosX;           float vY3 = speedTarget*cosY;           float vE3 = spe
 2926              		.loc 1 240 18 is_stmt 0 view .LVU613
 2927 03d4 139B     		ldr	r3, [sp, #76]
 2928 03d6 ABEB0304 		sub	r4, fp, r3
 240:Src/Gcode/Buffer_Gcode.c ****     float vX3 = speedTarget*cosX;           float vY3 = speedTarget*cosY;           float vE3 = spe
 2929              		.loc 1 240 10 view .LVU614
 2930 03da A4EB0804 		sub	r4, r4, r8
 2931              	.LVL440:
 240:Src/Gcode/Buffer_Gcode.c ****     float vX3 = speedTarget*cosX;           float vY3 = speedTarget*cosY;           float vE3 = spe
 2932              		.loc 1 240 45 is_stmt 1 view .LVU615
 240:Src/Gcode/Buffer_Gcode.c ****     float vX3 = speedTarget*cosX;           float vY3 = speedTarget*cosY;           float vE3 = spe
 2933              		.loc 1 240 58 is_stmt 0 view .LVU616
 2934 03de AAEB0505 		sub	r5, r10, r5
 2935              	.LVL441:
 240:Src/Gcode/Buffer_Gcode.c ****     float vX3 = speedTarget*cosX;           float vY3 = speedTarget*cosY;           float vE3 = spe
 2936              		.loc 1 240 50 view .LVU617
 2937 03e2 149B     		ldr	r3, [sp, #80]
 2938 03e4 ED1A     		subs	r5, r5, r3
 2939              	.LVL442:
 240:Src/Gcode/Buffer_Gcode.c ****     float vX3 = speedTarget*cosX;           float vY3 = speedTarget*cosY;           float vE3 = spe
 2940              		.loc 1 240 85 is_stmt 1 view .LVU618
 240:Src/Gcode/Buffer_Gcode.c ****     float vX3 = speedTarget*cosX;           float vY3 = speedTarget*cosY;           float vE3 = spe
 2941              		.loc 1 240 98 is_stmt 0 view .LVU619
 2942 03e6 109B     		ldr	r3, [sp, #64]
 2943 03e8 DF1B     		subs	r7, r3, r7
 2944              	.LVL443:
 240:Src/Gcode/Buffer_Gcode.c ****     float vX3 = speedTarget*cosX;           float vY3 = speedTarget*cosY;           float vE3 = spe
 2945              		.loc 1 240 90 view .LVU620
 2946 03ea 169B     		ldr	r3, [sp, #88]
 2947 03ec FF1A     		subs	r7, r7, r3
 2948              	.LVL444:
 241:Src/Gcode/Buffer_Gcode.c ****     float aX3 = accelerationFinish*cosX;    float aY3 = accelerationFinish*cosY;    float aE3 = acc
 2949              		.loc 1 241 5 is_stmt 1 view .LVU621
 241:Src/Gcode/Buffer_Gcode.c ****     float aX3 = accelerationFinish*cosX;    float aY3 = accelerationFinish*cosY;    float aE3 = acc
 2950              		.loc 1 241 45 view .LVU622
 241:Src/Gcode/Buffer_Gcode.c ****     float aX3 = accelerationFinish*cosX;    float aY3 = accelerationFinish*cosY;    float aE3 = acc
 2951              		.loc 1 241 85 view .LVU623
 242:Src/Gcode/Buffer_Gcode.c ****     command_Gcode command3 = {MOVE_COMMAND, x3, y3, 0, e3,    vX3, vY3, 0, vE3,    aX3, aY3, 0, aE3
 2952              		.loc 1 242 5 view .LVU624
 242:Src/Gcode/Buffer_Gcode.c ****     command_Gcode command3 = {MOVE_COMMAND, x3, y3, 0, e3,    vX3, vY3, 0, vE3,    aX3, aY3, 0, aE3
 2953              		.loc 1 242 11 is_stmt 0 view .LVU625
 2954 03ee DDF848B0 		ldr	fp, [sp, #72]	@ float
 2955              	.LVL445:
 242:Src/Gcode/Buffer_Gcode.c ****     command_Gcode command3 = {MOVE_COMMAND, x3, y3, 0, e3,    vX3, vY3, 0, vE3,    aX3, aY3, 0, aE3
 2956              		.loc 1 242 11 view .LVU626
 2957 03f2 5946     		mov	r1, fp
 2958 03f4 0E98     		ldr	r0, [sp, #56]	@ float
 2959 03f6 FFF7FEFF 		bl	__aeabi_fmul
 2960              	.LVL446:
 2961 03fa 8246     		mov	r10, r0
ARM GAS  /tmp/ccMe0kQ8.s 			page 72


 2962              	.LVL447:
 242:Src/Gcode/Buffer_Gcode.c ****     command_Gcode command3 = {MOVE_COMMAND, x3, y3, 0, e3,    vX3, vY3, 0, vE3,    aX3, aY3, 0, aE3
 2963              		.loc 1 242 45 is_stmt 1 view .LVU627
 242:Src/Gcode/Buffer_Gcode.c ****     command_Gcode command3 = {MOVE_COMMAND, x3, y3, 0, e3,    vX3, vY3, 0, vE3,    aX3, aY3, 0, aE3
 2964              		.loc 1 242 51 is_stmt 0 view .LVU628
 2965 03fc 5946     		mov	r1, fp
 2966 03fe 0F98     		ldr	r0, [sp, #60]	@ float
 2967              	.LVL448:
 242:Src/Gcode/Buffer_Gcode.c ****     command_Gcode command3 = {MOVE_COMMAND, x3, y3, 0, e3,    vX3, vY3, 0, vE3,    aX3, aY3, 0, aE3
 2968              		.loc 1 242 51 view .LVU629
 2969 0400 FFF7FEFF 		bl	__aeabi_fmul
 2970              	.LVL449:
 2971 0404 8046     		mov	r8, r0
 2972              	.LVL450:
 242:Src/Gcode/Buffer_Gcode.c ****     command_Gcode command3 = {MOVE_COMMAND, x3, y3, 0, e3,    vX3, vY3, 0, vE3,    aX3, aY3, 0, aE3
 2973              		.loc 1 242 85 is_stmt 1 view .LVU630
 242:Src/Gcode/Buffer_Gcode.c ****     command_Gcode command3 = {MOVE_COMMAND, x3, y3, 0, e3,    vX3, vY3, 0, vE3,    aX3, aY3, 0, aE3
 2974              		.loc 1 242 91 is_stmt 0 view .LVU631
 2975 0406 5946     		mov	r1, fp
 2976 0408 0D98     		ldr	r0, [sp, #52]	@ float
 2977              	.LVL451:
 242:Src/Gcode/Buffer_Gcode.c ****     command_Gcode command3 = {MOVE_COMMAND, x3, y3, 0, e3,    vX3, vY3, 0, vE3,    aX3, aY3, 0, aE3
 2978              		.loc 1 242 91 view .LVU632
 2979 040a FFF7FEFF 		bl	__aeabi_fmul
 2980              	.LVL452:
 243:Src/Gcode/Buffer_Gcode.c **** }
 2981              		.loc 1 243 5 is_stmt 1 view .LVU633
 243:Src/Gcode/Buffer_Gcode.c **** }
 2982              		.loc 1 243 19 is_stmt 0 view .LVU634
 2983 040e 4FF00103 		mov	r3, #1
 2984 0412 8DF88C33 		strb	r3, [sp, #908]
 2985 0416 E494     		str	r4, [sp, #912]
 2986 0418 E595     		str	r5, [sp, #916]
 2987 041a 0023     		movs	r3, #0
 2988 041c E693     		str	r3, [sp, #920]
 2989 041e E797     		str	r7, [sp, #924]
 2990 0420 189B     		ldr	r3, [sp, #96]	@ float
 2991 0422 E893     		str	r3, [sp, #928]	@ float
 2992 0424 119A     		ldr	r2, [sp, #68]	@ float
 2993 0426 E992     		str	r2, [sp, #932]	@ float
 2994 0428 EA96     		str	r6, [sp, #936]	@ float
 2995 042a CDF8AC93 		str	r9, [sp, #940]	@ float
 2996 042e CDF8B0A3 		str	r10, [sp, #944]	@ float
 2997 0432 CDF8B483 		str	r8, [sp, #948]	@ float
 2998 0436 EE96     		str	r6, [sp, #952]	@ float
 2999 0438 EF90     		str	r0, [sp, #956]	@ float
 3000 043a F096     		str	r6, [sp, #960]	@ float
 3001 043c F196     		str	r6, [sp, #964]	@ float
 243:Src/Gcode/Buffer_Gcode.c **** }
 3002              		.loc 1 243 112 is_stmt 1 view .LVU635
 243:Src/Gcode/Buffer_Gcode.c **** }
 3003              		.loc 1 243 114 is_stmt 0 view .LVU636
 3004 043e 04B9     		cbnz	r4, .L119
 243:Src/Gcode/Buffer_Gcode.c **** }
 3005              		.loc 1 243 123 discriminator 2 view .LVU637
 3006 0440 6DB1     		cbz	r5, .L104
 3007              	.L119:
ARM GAS  /tmp/ccMe0kQ8.s 			page 73


 243:Src/Gcode/Buffer_Gcode.c **** }
 3008              		.loc 1 243 135 is_stmt 1 discriminator 3 view .LVU638
 3009 0442 6C46     		mov	r4, sp
 3010              	.LVL453:
 243:Src/Gcode/Buffer_Gcode.c **** }
 3011              		.loc 1 243 135 is_stmt 0 discriminator 3 view .LVU639
 3012 0444 E7AD     		add	r5, sp, #924
 3013              	.LVL454:
 243:Src/Gcode/Buffer_Gcode.c **** }
 3014              		.loc 1 243 135 discriminator 3 view .LVU640
 3015 0446 0FCD     		ldmia	r5!, {r0, r1, r2, r3}
 3016              	.LVL455:
 243:Src/Gcode/Buffer_Gcode.c **** }
 3017              		.loc 1 243 135 discriminator 3 view .LVU641
 3018 0448 0FC4     		stmia	r4!, {r0, r1, r2, r3}
 3019 044a 0FCD     		ldmia	r5!, {r0, r1, r2, r3}
 3020 044c 0FC4     		stmia	r4!, {r0, r1, r2, r3}
 3021 044e 95E80700 		ldm	r5, {r0, r1, r2}
 3022 0452 84E80700 		stm	r4, {r0, r1, r2}
 3023 0456 E3AB     		add	r3, sp, #908
 3024 0458 0FCB     		ldm	r3, {r0, r1, r2, r3}
 3025 045a FFF7FEFF 		bl	firstInCommandBuffer_Gcode
 3026              	.LVL456:
 3027              	.L104:
 244:Src/Gcode/Buffer_Gcode.c **** 
 3028              		.loc 1 244 1 view .LVU642
 3029 045e 0DF2444D 		addw	sp, sp, #1092
 3030              	.LCFI37:
 3031              		.cfi_remember_state
 3032              		.cfi_def_cfa_offset 36
 3033              		@ sp needed
 3034 0462 BDE8F08F 		pop	{r4, r5, r6, r7, r8, r9, r10, fp, pc}
 3035              	.LVL457:
 3036              	.L128:
 3037              	.LCFI38:
 3038              		.cfi_restore_state
 198:Src/Gcode/Buffer_Gcode.c ****     float speedFinish = 0;                                              if ( conserveSpeedFinish(Xn
 3039              		.loc 1 198 111 is_stmt 1 discriminator 1 view .LVU643
 198:Src/Gcode/Buffer_Gcode.c ****     float speedFinish = 0;                                              if ( conserveSpeedFinish(Xn
 3040              		.loc 1 198 132 is_stmt 0 discriminator 1 view .LVU644
 3041 0466 89A8     		add	r0, sp, #548
 3042 0468 FFF7FEFF 		bl	lastCommand
 3043              	.LVL458:
 198:Src/Gcode/Buffer_Gcode.c ****     float speedFinish = 0;                                              if ( conserveSpeedFinish(Xn
 3044              		.loc 1 198 145 discriminator 1 view .LVU645
 3045 046c 8A9E     		ldr	r6, [sp, #552]
 198:Src/Gcode/Buffer_Gcode.c ****     float speedFinish = 0;                                              if ( conserveSpeedFinish(Xn
 3046              		.loc 1 198 131 discriminator 1 view .LVU646
 3047 046e 7600     		lsls	r6, r6, #1
 198:Src/Gcode/Buffer_Gcode.c ****     float speedFinish = 0;                                              if ( conserveSpeedFinish(Xn
 3048              		.loc 1 198 150 discriminator 1 view .LVU647
 3049 0470 98A8     		add	r0, sp, #608
 3050 0472 FFF7FEFF 		bl	lastCommand
 3051              	.LVL459:
 198:Src/Gcode/Buffer_Gcode.c ****     float speedFinish = 0;                                              if ( conserveSpeedFinish(Xn
 3052              		.loc 1 198 163 discriminator 1 view .LVU648
 3053 0476 A19F     		ldr	r7, [sp, #644]	@ float
ARM GAS  /tmp/ccMe0kQ8.s 			page 74


 198:Src/Gcode/Buffer_Gcode.c ****     float speedFinish = 0;                                              if ( conserveSpeedFinish(Xn
 3054              		.loc 1 198 149 discriminator 1 view .LVU649
 3055 0478 3046     		mov	r0, r6
 3056 047a FFF7FEFF 		bl	__aeabi_i2f
 3057              	.LVL460:
 3058 047e 3946     		mov	r1, r7
 3059 0480 FFF7FEFF 		bl	__aeabi_fmul
 3060              	.LVL461:
 3061 0484 0646     		mov	r6, r0
 198:Src/Gcode/Buffer_Gcode.c ****     float speedFinish = 0;                                              if ( conserveSpeedFinish(Xn
 3062              		.loc 1 198 170 discriminator 1 view .LVU650
 3063 0486 A7A8     		add	r0, sp, #668
 3064 0488 FFF7FEFF 		bl	lastCommand
 3065              	.LVL462:
 198:Src/Gcode/Buffer_Gcode.c ****     float speedFinish = 0;                                              if ( conserveSpeedFinish(Xn
 3066              		.loc 1 198 183 discriminator 1 view .LVU651
 3067 048c A99F     		ldr	r7, [sp, #676]
 198:Src/Gcode/Buffer_Gcode.c ****     float speedFinish = 0;                                              if ( conserveSpeedFinish(Xn
 3068              		.loc 1 198 169 discriminator 1 view .LVU652
 3069 048e 7F00     		lsls	r7, r7, #1
 198:Src/Gcode/Buffer_Gcode.c ****     float speedFinish = 0;                                              if ( conserveSpeedFinish(Xn
 3070              		.loc 1 198 188 discriminator 1 view .LVU653
 3071 0490 B6A8     		add	r0, sp, #728
 3072 0492 FFF7FEFF 		bl	lastCommand
 3073              	.LVL463:
 198:Src/Gcode/Buffer_Gcode.c ****     float speedFinish = 0;                                              if ( conserveSpeedFinish(Xn
 3074              		.loc 1 198 201 discriminator 1 view .LVU654
 3075 0496 DDF80083 		ldr	r8, [sp, #768]	@ float
 198:Src/Gcode/Buffer_Gcode.c ****     float speedFinish = 0;                                              if ( conserveSpeedFinish(Xn
 3076              		.loc 1 198 187 discriminator 1 view .LVU655
 3077 049a 3846     		mov	r0, r7
 3078 049c FFF7FEFF 		bl	__aeabi_i2f
 3079              	.LVL464:
 3080 04a0 4146     		mov	r1, r8
 3081 04a2 FFF7FEFF 		bl	__aeabi_fmul
 3082              	.LVL465:
 3083 04a6 0146     		mov	r1, r0
 198:Src/Gcode/Buffer_Gcode.c ****     float speedFinish = 0;                                              if ( conserveSpeedFinish(Xn
 3084              		.loc 1 198 167 discriminator 1 view .LVU656
 3085 04a8 3046     		mov	r0, r6
 3086 04aa FFF7FEFF 		bl	__aeabi_fadd
 3087              	.LVL466:
 3088 04ae FFF7FEFF 		bl	__aeabi_f2d
 3089              	.LVL467:
 3090 04b2 0646     		mov	r6, r0
 3091 04b4 0F46     		mov	r7, r1
 198:Src/Gcode/Buffer_Gcode.c ****     float speedFinish = 0;                                              if ( conserveSpeedFinish(Xn
 3092              		.loc 1 198 210 discriminator 1 view .LVU657
 3093 04b6 C5A8     		add	r0, sp, #788
 3094 04b8 FFF7FEFF 		bl	lastCommand
 3095              	.LVL468:
 198:Src/Gcode/Buffer_Gcode.c ****     float speedFinish = 0;                                              if ( conserveSpeedFinish(Xn
 3096              		.loc 1 198 206 discriminator 1 view .LVU658
 3097 04bc 4FF00008 		mov	r8, #0
 3098 04c0 4FF08049 		mov	r9, #1073741824
 3099 04c4 CA98     		ldr	r0, [sp, #808]	@ float
 3100 04c6 FFF7FEFF 		bl	__aeabi_f2d
ARM GAS  /tmp/ccMe0kQ8.s 			page 75


 3101              	.LVL469:
 3102 04ca 4246     		mov	r2, r8
 3103 04cc 4B46     		mov	r3, r9
 3104 04ce FFF7FEFF 		bl	pow
 3105              	.LVL470:
 3106 04d2 0246     		mov	r2, r0
 3107 04d4 0B46     		mov	r3, r1
 198:Src/Gcode/Buffer_Gcode.c ****     float speedFinish = 0;                                              if ( conserveSpeedFinish(Xn
 3108              		.loc 1 198 205 discriminator 1 view .LVU659
 3109 04d6 3046     		mov	r0, r6
 3110 04d8 3946     		mov	r1, r7
 3111 04da FFF7FEFF 		bl	__aeabi_dadd
 3112              	.LVL471:
 3113 04de 0646     		mov	r6, r0
 3114 04e0 0F46     		mov	r7, r1
 198:Src/Gcode/Buffer_Gcode.c ****     float speedFinish = 0;                                              if ( conserveSpeedFinish(Xn
 3115              		.loc 1 198 235 discriminator 1 view .LVU660
 3116 04e2 D4A8     		add	r0, sp, #848
 3117 04e4 FFF7FEFF 		bl	lastCommand
 3118              	.LVL472:
 198:Src/Gcode/Buffer_Gcode.c ****     float speedFinish = 0;                                              if ( conserveSpeedFinish(Xn
 3119              		.loc 1 198 231 discriminator 1 view .LVU661
 3120 04e8 DA98     		ldr	r0, [sp, #872]	@ float
 3121 04ea FFF7FEFF 		bl	__aeabi_f2d
 3122              	.LVL473:
 3123 04ee 4246     		mov	r2, r8
 3124 04f0 4B46     		mov	r3, r9
 3125 04f2 FFF7FEFF 		bl	pow
 3126              	.LVL474:
 3127 04f6 0246     		mov	r2, r0
 3128 04f8 0B46     		mov	r3, r1
 198:Src/Gcode/Buffer_Gcode.c ****     float speedFinish = 0;                                              if ( conserveSpeedFinish(Xn
 3129              		.loc 1 198 230 discriminator 1 view .LVU662
 3130 04fa 3046     		mov	r0, r6
 3131 04fc 3946     		mov	r1, r7
 3132 04fe FFF7FEFF 		bl	__aeabi_dadd
 3133              	.LVL475:
 198:Src/Gcode/Buffer_Gcode.c ****     float speedFinish = 0;                                              if ( conserveSpeedFinish(Xn
 3134              		.loc 1 198 124 discriminator 1 view .LVU663
 3135 0502 FFF7FEFF 		bl	__aeabi_d2f
 3136              	.LVL476:
 3137 0506 FFF7FEFF 		bl	sqrtf
 3138              	.LVL477:
 3139 050a 0646     		mov	r6, r0
 3140              	.LVL478:
 198:Src/Gcode/Buffer_Gcode.c ****     float speedFinish = 0;                                              if ( conserveSpeedFinish(Xn
 3141              		.loc 1 198 124 discriminator 1 view .LVU664
 3142 050c 05E6     		b	.L108
 3143              	.LVL479:
 3144              	.L123:
 199:Src/Gcode/Buffer_Gcode.c ****     float accelerationStart = ACCELERATION_XY_STEPS_PER_SS*sign(speedTarget-speedStart);
 3145              		.loc 1 199 123 view .LVU665
 3146 050e 1394     		str	r4, [sp, #76]	@ float
 3147 0510 0DE6     		b	.L109
 3148              	.LVL480:
 3149              	.L129:
 3150              	.LBB3:
ARM GAS  /tmp/ccMe0kQ8.s 			page 76


 207:Src/Gcode/Buffer_Gcode.c ****         {
 3151              		.loc 1 207 9 is_stmt 1 view .LVU666
 207:Src/Gcode/Buffer_Gcode.c ****         {
 3152              		.loc 1 207 13 is_stmt 0 view .LVU667
 3153 0512 0022     		movs	r2, #0
 3154 0514 5146     		mov	r1, r10
 3155 0516 5846     		mov	r0, fp
 3156 0518 FFF7FEFF 		bl	conserveSpeedFinish
 3157              	.LVL481:
 207:Src/Gcode/Buffer_Gcode.c ****         {
 3158              		.loc 1 207 11 view .LVU668
 3159 051c 0028     		cmp	r0, #0
 3160 051e 5CD1     		bne	.L130
 214:Src/Gcode/Buffer_Gcode.c ****         {
 3161              		.loc 1 214 9 is_stmt 1 view .LVU669
 214:Src/Gcode/Buffer_Gcode.c ****         {
 3162              		.loc 1 214 13 is_stmt 0 view .LVU670
 3163 0520 0022     		movs	r2, #0
 3164 0522 5146     		mov	r1, r10
 3165 0524 5846     		mov	r0, fp
 3166 0526 FFF7FEFF 		bl	conserveSpeedStart
 3167              	.LVL482:
 214:Src/Gcode/Buffer_Gcode.c ****         {
 3168              		.loc 1 214 11 view .LVU671
 3169 052a 0028     		cmp	r0, #0
 3170 052c 00F0A980 		beq	.L114
 3171              	.LBB4:
 216:Src/Gcode/Buffer_Gcode.c ****             float vX1 = speedStart*cosX;            float vY1 = speedStart*cosY;            float v
 3172              		.loc 1 216 13 is_stmt 1 view .LVU672
 3173              	.LVL483:
 216:Src/Gcode/Buffer_Gcode.c ****             float vX1 = speedStart*cosX;            float vY1 = speedStart*cosY;            float v
 3174              		.loc 1 216 53 view .LVU673
 216:Src/Gcode/Buffer_Gcode.c ****             float vX1 = speedStart*cosX;            float vY1 = speedStart*cosY;            float v
 3175              		.loc 1 216 93 view .LVU674
 217:Src/Gcode/Buffer_Gcode.c ****             float aX1 = accelerationFinish*cosX;    float aY1 = accelerationFinish*cosY;    float a
 3176              		.loc 1 217 13 view .LVU675
 217:Src/Gcode/Buffer_Gcode.c ****             float aX1 = accelerationFinish*cosX;    float aY1 = accelerationFinish*cosY;    float a
 3177              		.loc 1 217 19 is_stmt 0 view .LVU676
 3178 0530 0E9F     		ldr	r7, [sp, #56]	@ float
 3179              	.LVL484:
 217:Src/Gcode/Buffer_Gcode.c ****             float aX1 = accelerationFinish*cosX;    float aY1 = accelerationFinish*cosY;    float a
 3180              		.loc 1 217 19 view .LVU677
 3181 0532 3946     		mov	r1, r7
 3182 0534 3046     		mov	r0, r6
 3183 0536 FFF7FEFF 		bl	__aeabi_fmul
 3184              	.LVL485:
 3185 053a 0546     		mov	r5, r0
 3186              	.LVL486:
 217:Src/Gcode/Buffer_Gcode.c ****             float aX1 = accelerationFinish*cosX;    float aY1 = accelerationFinish*cosY;    float a
 3187              		.loc 1 217 53 is_stmt 1 view .LVU678
 217:Src/Gcode/Buffer_Gcode.c ****             float aX1 = accelerationFinish*cosX;    float aY1 = accelerationFinish*cosY;    float a
 3188              		.loc 1 217 59 is_stmt 0 view .LVU679
 3189 053c DDF83C80 		ldr	r8, [sp, #60]	@ float
 3190              	.LVL487:
 217:Src/Gcode/Buffer_Gcode.c ****             float aX1 = accelerationFinish*cosX;    float aY1 = accelerationFinish*cosY;    float a
 3191              		.loc 1 217 59 view .LVU680
 3192 0540 4146     		mov	r1, r8
ARM GAS  /tmp/ccMe0kQ8.s 			page 77


 3193 0542 3046     		mov	r0, r6
 3194              	.LVL488:
 217:Src/Gcode/Buffer_Gcode.c ****             float aX1 = accelerationFinish*cosX;    float aY1 = accelerationFinish*cosY;    float a
 3195              		.loc 1 217 59 view .LVU681
 3196 0544 FFF7FEFF 		bl	__aeabi_fmul
 3197              	.LVL489:
 3198 0548 0446     		mov	r4, r0
 3199              	.LVL490:
 217:Src/Gcode/Buffer_Gcode.c ****             float aX1 = accelerationFinish*cosX;    float aY1 = accelerationFinish*cosY;    float a
 3200              		.loc 1 217 93 is_stmt 1 view .LVU682
 217:Src/Gcode/Buffer_Gcode.c ****             float aX1 = accelerationFinish*cosX;    float aY1 = accelerationFinish*cosY;    float a
 3201              		.loc 1 217 99 is_stmt 0 view .LVU683
 3202 054a 0D99     		ldr	r1, [sp, #52]	@ float
 3203 054c 3046     		mov	r0, r6
 3204              	.LVL491:
 217:Src/Gcode/Buffer_Gcode.c ****             float aX1 = accelerationFinish*cosX;    float aY1 = accelerationFinish*cosY;    float a
 3205              		.loc 1 217 99 view .LVU684
 3206 054e FFF7FEFF 		bl	__aeabi_fmul
 3207              	.LVL492:
 3208 0552 0646     		mov	r6, r0
 3209              	.LVL493:
 218:Src/Gcode/Buffer_Gcode.c ****             command_Gcode command1 = {MOVE_COMMAND, x1, y1, 0, e1,    vX1, vY1, 0, vE1,    aX1, aY1
 3210              		.loc 1 218 13 is_stmt 1 view .LVU685
 218:Src/Gcode/Buffer_Gcode.c ****             command_Gcode command1 = {MOVE_COMMAND, x1, y1, 0, e1,    vX1, vY1, 0, vE1,    aX1, aY1
 3211              		.loc 1 218 19 is_stmt 0 view .LVU686
 3212 0554 DDF84890 		ldr	r9, [sp, #72]	@ float
 3213              	.LVL494:
 218:Src/Gcode/Buffer_Gcode.c ****             command_Gcode command1 = {MOVE_COMMAND, x1, y1, 0, e1,    vX1, vY1, 0, vE1,    aX1, aY1
 3214              		.loc 1 218 19 view .LVU687
 3215 0558 4946     		mov	r1, r9
 3216 055a 3846     		mov	r0, r7
 3217              	.LVL495:
 218:Src/Gcode/Buffer_Gcode.c ****             command_Gcode command1 = {MOVE_COMMAND, x1, y1, 0, e1,    vX1, vY1, 0, vE1,    aX1, aY1
 3218              		.loc 1 218 19 view .LVU688
 3219 055c FFF7FEFF 		bl	__aeabi_fmul
 3220              	.LVL496:
 3221 0560 0746     		mov	r7, r0
 3222              	.LVL497:
 218:Src/Gcode/Buffer_Gcode.c ****             command_Gcode command1 = {MOVE_COMMAND, x1, y1, 0, e1,    vX1, vY1, 0, vE1,    aX1, aY1
 3223              		.loc 1 218 53 is_stmt 1 view .LVU689
 218:Src/Gcode/Buffer_Gcode.c ****             command_Gcode command1 = {MOVE_COMMAND, x1, y1, 0, e1,    vX1, vY1, 0, vE1,    aX1, aY1
 3224              		.loc 1 218 59 is_stmt 0 view .LVU690
 3225 0562 4946     		mov	r1, r9
 3226 0564 4046     		mov	r0, r8
 3227              	.LVL498:
 218:Src/Gcode/Buffer_Gcode.c ****             command_Gcode command1 = {MOVE_COMMAND, x1, y1, 0, e1,    vX1, vY1, 0, vE1,    aX1, aY1
 3228              		.loc 1 218 59 view .LVU691
 3229 0566 FFF7FEFF 		bl	__aeabi_fmul
 3230              	.LVL499:
 3231 056a 8046     		mov	r8, r0
 3232              	.LVL500:
 218:Src/Gcode/Buffer_Gcode.c ****             command_Gcode command1 = {MOVE_COMMAND, x1, y1, 0, e1,    vX1, vY1, 0, vE1,    aX1, aY1
 3233              		.loc 1 218 93 is_stmt 1 view .LVU692
 218:Src/Gcode/Buffer_Gcode.c ****             command_Gcode command1 = {MOVE_COMMAND, x1, y1, 0, e1,    vX1, vY1, 0, vE1,    aX1, aY1
 3234              		.loc 1 218 99 is_stmt 0 view .LVU693
 3235 056c 4946     		mov	r1, r9
 3236 056e 0D98     		ldr	r0, [sp, #52]	@ float
ARM GAS  /tmp/ccMe0kQ8.s 			page 78


 3237              	.LVL501:
 218:Src/Gcode/Buffer_Gcode.c ****             command_Gcode command1 = {MOVE_COMMAND, x1, y1, 0, e1,    vX1, vY1, 0, vE1,    aX1, aY1
 3238              		.loc 1 218 99 view .LVU694
 3239 0570 FFF7FEFF 		bl	__aeabi_fmul
 3240              	.LVL502:
 219:Src/Gcode/Buffer_Gcode.c ****         }
 3241              		.loc 1 219 13 is_stmt 1 view .LVU695
 219:Src/Gcode/Buffer_Gcode.c ****         }
 3242              		.loc 1 219 27 is_stmt 0 view .LVU696
 3243 0574 0DF5F47C 		add	ip, sp, #488
 3244 0578 0123     		movs	r3, #1
 3245 057a 8CF80030 		strb	r3, [ip]
 3246 057e CCF804B0 		str	fp, [ip, #4]
 3247 0582 CCF808A0 		str	r10, [ip, #8]
 3248 0586 0023     		movs	r3, #0
 3249 0588 CCF80C30 		str	r3, [ip, #12]
 3250 058c 109B     		ldr	r3, [sp, #64]
 3251 058e CCF81030 		str	r3, [ip, #16]
 3252 0592 CCF81450 		str	r5, [ip, #20]	@ float
 3253 0596 CCF81840 		str	r4, [ip, #24]	@ float
 3254 059a 0023     		movs	r3, #0
 3255 059c CCF81C30 		str	r3, [ip, #28]	@ float
 3256 05a0 CCF82060 		str	r6, [ip, #32]	@ float
 3257 05a4 CCF82470 		str	r7, [ip, #36]	@ float
 3258 05a8 CCF82880 		str	r8, [ip, #40]	@ float
 3259 05ac CCF82C30 		str	r3, [ip, #44]	@ float
 3260 05b0 CCF83000 		str	r0, [ip, #48]	@ float
 3261 05b4 CCF83430 		str	r3, [ip, #52]	@ float
 3262 05b8 CCF83830 		str	r3, [ip, #56]	@ float
 219:Src/Gcode/Buffer_Gcode.c ****         }
 3263              		.loc 1 219 120 is_stmt 1 view .LVU697
 3264 05bc 6C46     		mov	r4, sp
 3265              	.LVL503:
 219:Src/Gcode/Buffer_Gcode.c ****         }
 3266              		.loc 1 219 120 is_stmt 0 view .LVU698
 3267 05be 7EAD     		add	r5, sp, #504
 3268              	.LVL504:
 219:Src/Gcode/Buffer_Gcode.c ****         }
 3269              		.loc 1 219 120 view .LVU699
 3270 05c0 0FCD     		ldmia	r5!, {r0, r1, r2, r3}
 3271              	.LVL505:
 219:Src/Gcode/Buffer_Gcode.c ****         }
 3272              		.loc 1 219 120 view .LVU700
 3273 05c2 0FC4     		stmia	r4!, {r0, r1, r2, r3}
 3274 05c4 0FCD     		ldmia	r5!, {r0, r1, r2, r3}
 3275 05c6 0FC4     		stmia	r4!, {r0, r1, r2, r3}
 3276 05c8 95E80700 		ldm	r5, {r0, r1, r2}
 3277 05cc 84E80700 		stm	r4, {r0, r1, r2}
 3278 05d0 9CE80F00 		ldm	ip, {r0, r1, r2, r3}
 3279 05d4 FFF7FEFF 		bl	firstInCommandBuffer_Gcode
 3280              	.LVL506:
 219:Src/Gcode/Buffer_Gcode.c ****         }
 3281              		.loc 1 219 159 is_stmt 1 view .LVU701
 3282 05d8 41E7     		b	.L104
 3283              	.LVL507:
 3284              	.L130:
 219:Src/Gcode/Buffer_Gcode.c ****         }
ARM GAS  /tmp/ccMe0kQ8.s 			page 79


 3285              		.loc 1 219 159 is_stmt 0 view .LVU702
 3286              	.LBE4:
 3287              	.LBB5:
 209:Src/Gcode/Buffer_Gcode.c ****             float vX1 = speedStart*cosX;            float vY1 = speedStart*cosY;            float v
 3288              		.loc 1 209 13 is_stmt 1 view .LVU703
 209:Src/Gcode/Buffer_Gcode.c ****             float vX1 = speedStart*cosX;            float vY1 = speedStart*cosY;            float v
 3289              		.loc 1 209 53 view .LVU704
 209:Src/Gcode/Buffer_Gcode.c ****             float vX1 = speedStart*cosX;            float vY1 = speedStart*cosY;            float v
 3290              		.loc 1 209 93 view .LVU705
 210:Src/Gcode/Buffer_Gcode.c ****             float aX1 = accelerationStart*cosX;     float aY1 = accelerationStart*cosY;     float a
 3291              		.loc 1 210 13 view .LVU706
 210:Src/Gcode/Buffer_Gcode.c ****             float aX1 = accelerationStart*cosX;     float aY1 = accelerationStart*cosY;     float a
 3292              		.loc 1 210 19 is_stmt 0 view .LVU707
 3293 05da 0E9D     		ldr	r5, [sp, #56]	@ float
 3294              	.LVL508:
 210:Src/Gcode/Buffer_Gcode.c ****             float aX1 = accelerationStart*cosX;     float aY1 = accelerationStart*cosY;     float a
 3295              		.loc 1 210 19 view .LVU708
 3296 05dc 2946     		mov	r1, r5
 3297 05de 3046     		mov	r0, r6
 3298 05e0 FFF7FEFF 		bl	__aeabi_fmul
 3299              	.LVL509:
 3300 05e4 8046     		mov	r8, r0
 3301              	.LVL510:
 210:Src/Gcode/Buffer_Gcode.c ****             float aX1 = accelerationStart*cosX;     float aY1 = accelerationStart*cosY;     float a
 3302              		.loc 1 210 53 is_stmt 1 view .LVU709
 210:Src/Gcode/Buffer_Gcode.c ****             float aX1 = accelerationStart*cosX;     float aY1 = accelerationStart*cosY;     float a
 3303              		.loc 1 210 59 is_stmt 0 view .LVU710
 3304 05e6 0F9C     		ldr	r4, [sp, #60]	@ float
 3305              	.LVL511:
 210:Src/Gcode/Buffer_Gcode.c ****             float aX1 = accelerationStart*cosX;     float aY1 = accelerationStart*cosY;     float a
 3306              		.loc 1 210 59 view .LVU711
 3307 05e8 2146     		mov	r1, r4
 3308 05ea 3046     		mov	r0, r6
 3309              	.LVL512:
 210:Src/Gcode/Buffer_Gcode.c ****             float aX1 = accelerationStart*cosX;     float aY1 = accelerationStart*cosY;     float a
 3310              		.loc 1 210 59 view .LVU712
 3311 05ec FFF7FEFF 		bl	__aeabi_fmul
 3312              	.LVL513:
 3313 05f0 0746     		mov	r7, r0
 3314              	.LVL514:
 210:Src/Gcode/Buffer_Gcode.c ****             float aX1 = accelerationStart*cosX;     float aY1 = accelerationStart*cosY;     float a
 3315              		.loc 1 210 93 is_stmt 1 view .LVU713
 210:Src/Gcode/Buffer_Gcode.c ****             float aX1 = accelerationStart*cosX;     float aY1 = accelerationStart*cosY;     float a
 3316              		.loc 1 210 99 is_stmt 0 view .LVU714
 3317 05f2 0D99     		ldr	r1, [sp, #52]	@ float
 3318 05f4 3046     		mov	r0, r6
 3319              	.LVL515:
 210:Src/Gcode/Buffer_Gcode.c ****             float aX1 = accelerationStart*cosX;     float aY1 = accelerationStart*cosY;     float a
 3320              		.loc 1 210 99 view .LVU715
 3321 05f6 FFF7FEFF 		bl	__aeabi_fmul
 3322              	.LVL516:
 3323 05fa 0646     		mov	r6, r0
 3324              	.LVL517:
 211:Src/Gcode/Buffer_Gcode.c ****             command_Gcode command1 = {MOVE_COMMAND, x1, y1, 0, e1,    vX1, vY1, 0, vE1,    aX1, aY1
 3325              		.loc 1 211 13 is_stmt 1 view .LVU716
 211:Src/Gcode/Buffer_Gcode.c ****             command_Gcode command1 = {MOVE_COMMAND, x1, y1, 0, e1,    vX1, vY1, 0, vE1,    aX1, aY1
 3326              		.loc 1 211 19 is_stmt 0 view .LVU717
ARM GAS  /tmp/ccMe0kQ8.s 			page 80


 3327 05fc DDF84490 		ldr	r9, [sp, #68]	@ float
 3328              	.LVL518:
 211:Src/Gcode/Buffer_Gcode.c ****             command_Gcode command1 = {MOVE_COMMAND, x1, y1, 0, e1,    vX1, vY1, 0, vE1,    aX1, aY1
 3329              		.loc 1 211 19 view .LVU718
 3330 0600 4946     		mov	r1, r9
 3331 0602 2846     		mov	r0, r5
 3332              	.LVL519:
 211:Src/Gcode/Buffer_Gcode.c ****             command_Gcode command1 = {MOVE_COMMAND, x1, y1, 0, e1,    vX1, vY1, 0, vE1,    aX1, aY1
 3333              		.loc 1 211 19 view .LVU719
 3334 0604 FFF7FEFF 		bl	__aeabi_fmul
 3335              	.LVL520:
 3336 0608 0546     		mov	r5, r0
 3337              	.LVL521:
 211:Src/Gcode/Buffer_Gcode.c ****             command_Gcode command1 = {MOVE_COMMAND, x1, y1, 0, e1,    vX1, vY1, 0, vE1,    aX1, aY1
 3338              		.loc 1 211 53 is_stmt 1 view .LVU720
 211:Src/Gcode/Buffer_Gcode.c ****             command_Gcode command1 = {MOVE_COMMAND, x1, y1, 0, e1,    vX1, vY1, 0, vE1,    aX1, aY1
 3339              		.loc 1 211 59 is_stmt 0 view .LVU721
 3340 060a 4946     		mov	r1, r9
 3341 060c 2046     		mov	r0, r4
 3342              	.LVL522:
 211:Src/Gcode/Buffer_Gcode.c ****             command_Gcode command1 = {MOVE_COMMAND, x1, y1, 0, e1,    vX1, vY1, 0, vE1,    aX1, aY1
 3343              		.loc 1 211 59 view .LVU722
 3344 060e FFF7FEFF 		bl	__aeabi_fmul
 3345              	.LVL523:
 3346 0612 0446     		mov	r4, r0
 3347              	.LVL524:
 211:Src/Gcode/Buffer_Gcode.c ****             command_Gcode command1 = {MOVE_COMMAND, x1, y1, 0, e1,    vX1, vY1, 0, vE1,    aX1, aY1
 3348              		.loc 1 211 93 is_stmt 1 view .LVU723
 211:Src/Gcode/Buffer_Gcode.c ****             command_Gcode command1 = {MOVE_COMMAND, x1, y1, 0, e1,    vX1, vY1, 0, vE1,    aX1, aY1
 3349              		.loc 1 211 99 is_stmt 0 view .LVU724
 3350 0614 4946     		mov	r1, r9
 3351 0616 0D98     		ldr	r0, [sp, #52]	@ float
 3352              	.LVL525:
 211:Src/Gcode/Buffer_Gcode.c ****             command_Gcode command1 = {MOVE_COMMAND, x1, y1, 0, e1,    vX1, vY1, 0, vE1,    aX1, aY1
 3353              		.loc 1 211 99 view .LVU725
 3354 0618 FFF7FEFF 		bl	__aeabi_fmul
 3355              	.LVL526:
 212:Src/Gcode/Buffer_Gcode.c ****         }
 3356              		.loc 1 212 13 is_stmt 1 view .LVU726
 212:Src/Gcode/Buffer_Gcode.c ****         }
 3357              		.loc 1 212 27 is_stmt 0 view .LVU727
 3358 061c 0DF5F47C 		add	ip, sp, #488
 3359 0620 0123     		movs	r3, #1
 3360 0622 8CF80030 		strb	r3, [ip]
 3361 0626 CCF804B0 		str	fp, [ip, #4]
 3362 062a CCF808A0 		str	r10, [ip, #8]
 3363 062e 0023     		movs	r3, #0
 3364 0630 CCF80C30 		str	r3, [ip, #12]
 3365 0634 109B     		ldr	r3, [sp, #64]
 3366 0636 CCF81030 		str	r3, [ip, #16]
 3367 063a CCF81480 		str	r8, [ip, #20]	@ float
 3368 063e CCF81870 		str	r7, [ip, #24]	@ float
 3369 0642 0023     		movs	r3, #0
 3370 0644 CCF81C30 		str	r3, [ip, #28]	@ float
 3371 0648 CCF82060 		str	r6, [ip, #32]	@ float
 3372 064c CCF82450 		str	r5, [ip, #36]	@ float
 3373 0650 CCF82840 		str	r4, [ip, #40]	@ float
ARM GAS  /tmp/ccMe0kQ8.s 			page 81


 3374 0654 CCF82C30 		str	r3, [ip, #44]	@ float
 3375 0658 CCF83000 		str	r0, [ip, #48]	@ float
 3376 065c CCF83430 		str	r3, [ip, #52]	@ float
 3377 0660 CCF83830 		str	r3, [ip, #56]	@ float
 212:Src/Gcode/Buffer_Gcode.c ****         }
 3378              		.loc 1 212 120 is_stmt 1 view .LVU728
 3379 0664 6C46     		mov	r4, sp
 3380              	.LVL527:
 212:Src/Gcode/Buffer_Gcode.c ****         }
 3381              		.loc 1 212 120 is_stmt 0 view .LVU729
 3382 0666 7EAD     		add	r5, sp, #504
 3383              	.LVL528:
 212:Src/Gcode/Buffer_Gcode.c ****         }
 3384              		.loc 1 212 120 view .LVU730
 3385 0668 0FCD     		ldmia	r5!, {r0, r1, r2, r3}
 3386              	.LVL529:
 212:Src/Gcode/Buffer_Gcode.c ****         }
 3387              		.loc 1 212 120 view .LVU731
 3388 066a 0FC4     		stmia	r4!, {r0, r1, r2, r3}
 3389 066c 0FCD     		ldmia	r5!, {r0, r1, r2, r3}
 3390 066e 0FC4     		stmia	r4!, {r0, r1, r2, r3}
 3391 0670 95E80700 		ldm	r5, {r0, r1, r2}
 3392 0674 84E80700 		stm	r4, {r0, r1, r2}
 3393 0678 9CE80F00 		ldm	ip, {r0, r1, r2, r3}
 3394 067c FFF7FEFF 		bl	firstInCommandBuffer_Gcode
 3395              	.LVL530:
 212:Src/Gcode/Buffer_Gcode.c ****         }
 3396              		.loc 1 212 159 is_stmt 1 view .LVU732
 3397 0680 EDE6     		b	.L104
 3398              	.LVL531:
 3399              	.L114:
 212:Src/Gcode/Buffer_Gcode.c ****         }
 3400              		.loc 1 212 159 is_stmt 0 view .LVU733
 3401              	.LBE5:
 221:Src/Gcode/Buffer_Gcode.c ****         float speed_XY_buffer = speedMaxFastMove(distance_XY, speedStart, speedFinish, acceleration
 3402              		.loc 1 221 9 is_stmt 1 view .LVU734
 221:Src/Gcode/Buffer_Gcode.c ****         float speed_XY_buffer = speedMaxFastMove(distance_XY, speedStart, speedFinish, acceleration
 3403              		.loc 1 221 36 is_stmt 0 view .LVU735
 3404 0682 129C     		ldr	r4, [sp, #72]	@ float
 3405              	.LVL532:
 221:Src/Gcode/Buffer_Gcode.c ****         float speed_XY_buffer = speedMaxFastMove(distance_XY, speedStart, speedFinish, acceleration
 3406              		.loc 1 221 36 view .LVU736
 3407 0684 0094     		str	r4, [sp]	@ float
 3408 0686 DDF84490 		ldr	r9, [sp, #68]	@ float
 3409              	.LVL533:
 221:Src/Gcode/Buffer_Gcode.c ****         float speed_XY_buffer = speedMaxFastMove(distance_XY, speedStart, speedFinish, acceleration
 3410              		.loc 1 221 36 view .LVU737
 3411 068a 4B46     		mov	r3, r9
 3412 068c DDF84C80 		ldr	r8, [sp, #76]	@ float
 3413              	.LVL534:
 221:Src/Gcode/Buffer_Gcode.c ****         float speed_XY_buffer = speedMaxFastMove(distance_XY, speedStart, speedFinish, acceleration
 3414              		.loc 1 221 36 view .LVU738
 3415 0690 4246     		mov	r2, r8
 3416 0692 3146     		mov	r1, r6
 3417 0694 2846     		mov	r0, r5
 3418 0696 FFF7FEFF 		bl	distanceStartFastMove
 3419              	.LVL535:
ARM GAS  /tmp/ccMe0kQ8.s 			page 82


 3420 069a 0746     		mov	r7, r0
 3421              	.LVL536:
 222:Src/Gcode/Buffer_Gcode.c ****         long x1 = lroundf(distance_XY_buffer*cosX); long y1 = lroundf(distance_XY_buffer*cosY);    
 3422              		.loc 1 222 9 is_stmt 1 view .LVU739
 222:Src/Gcode/Buffer_Gcode.c ****         long x1 = lroundf(distance_XY_buffer*cosX); long y1 = lroundf(distance_XY_buffer*cosY);    
 3423              		.loc 1 222 33 is_stmt 0 view .LVU740
 3424 069c 1294     		str	r4, [sp, #72]	@ float
 3425              	.LVL537:
 222:Src/Gcode/Buffer_Gcode.c ****         long x1 = lroundf(distance_XY_buffer*cosX); long y1 = lroundf(distance_XY_buffer*cosY);    
 3426              		.loc 1 222 33 view .LVU741
 3427 069e 0094     		str	r4, [sp]	@ float
 3428 06a0 CDF84490 		str	r9, [sp, #68]	@ float
 3429              	.LVL538:
 222:Src/Gcode/Buffer_Gcode.c ****         long x1 = lroundf(distance_XY_buffer*cosX); long y1 = lroundf(distance_XY_buffer*cosY);    
 3430              		.loc 1 222 33 view .LVU742
 3431 06a4 4B46     		mov	r3, r9
 3432 06a6 4246     		mov	r2, r8
 3433 06a8 3146     		mov	r1, r6
 3434 06aa 2846     		mov	r0, r5
 3435              	.LVL539:
 222:Src/Gcode/Buffer_Gcode.c ****         long x1 = lroundf(distance_XY_buffer*cosX); long y1 = lroundf(distance_XY_buffer*cosY);    
 3436              		.loc 1 222 33 view .LVU743
 3437 06ac FFF7FEFF 		bl	speedMaxFastMove
 3438              	.LVL540:
 3439 06b0 8046     		mov	r8, r0
 3440              	.LVL541:
 223:Src/Gcode/Buffer_Gcode.c ****         float vX1 = speedStart*cosX;                float vY1 = speedStart*cosY;                   
 3441              		.loc 1 223 9 is_stmt 1 view .LVU744
 223:Src/Gcode/Buffer_Gcode.c ****         float vX1 = speedStart*cosX;                float vY1 = speedStart*cosY;                   
 3442              		.loc 1 223 19 is_stmt 0 view .LVU745
 3443 06b2 3946     		mov	r1, r7
 3444 06b4 0E9C     		ldr	r4, [sp, #56]	@ float
 3445 06b6 2046     		mov	r0, r4
 3446              	.LVL542:
 223:Src/Gcode/Buffer_Gcode.c ****         float vX1 = speedStart*cosX;                float vY1 = speedStart*cosY;                   
 3447              		.loc 1 223 19 view .LVU746
 3448 06b8 FFF7FEFF 		bl	__aeabi_fmul
 3449              	.LVL543:
 3450 06bc FFF7FEFF 		bl	lroundf
 3451              	.LVL544:
 3452 06c0 1390     		str	r0, [sp, #76]
 3453              	.LVL545:
 223:Src/Gcode/Buffer_Gcode.c ****         float vX1 = speedStart*cosX;                float vY1 = speedStart*cosY;                   
 3454              		.loc 1 223 53 is_stmt 1 view .LVU747
 223:Src/Gcode/Buffer_Gcode.c ****         float vX1 = speedStart*cosX;                float vY1 = speedStart*cosY;                   
 3455              		.loc 1 223 63 is_stmt 0 view .LVU748
 3456 06c2 3946     		mov	r1, r7
 3457 06c4 DDF83C90 		ldr	r9, [sp, #60]	@ float
 3458 06c8 4846     		mov	r0, r9
 3459              	.LVL546:
 223:Src/Gcode/Buffer_Gcode.c ****         float vX1 = speedStart*cosX;                float vY1 = speedStart*cosY;                   
 3460              		.loc 1 223 63 view .LVU749
 3461 06ca FFF7FEFF 		bl	__aeabi_fmul
 3462              	.LVL547:
 3463 06ce FFF7FEFF 		bl	lroundf
 3464              	.LVL548:
 3465 06d2 1490     		str	r0, [sp, #80]
ARM GAS  /tmp/ccMe0kQ8.s 			page 83


 3466              	.LVL549:
 223:Src/Gcode/Buffer_Gcode.c ****         float vX1 = speedStart*cosX;                float vY1 = speedStart*cosY;                   
 3467              		.loc 1 223 101 is_stmt 1 view .LVU750
 223:Src/Gcode/Buffer_Gcode.c ****         float vX1 = speedStart*cosX;                float vY1 = speedStart*cosY;                   
 3468              		.loc 1 223 111 is_stmt 0 view .LVU751
 3469 06d4 3946     		mov	r1, r7
 3470 06d6 0D9D     		ldr	r5, [sp, #52]	@ float
 3471              	.LVL550:
 223:Src/Gcode/Buffer_Gcode.c ****         float vX1 = speedStart*cosX;                float vY1 = speedStart*cosY;                   
 3472              		.loc 1 223 111 view .LVU752
 3473 06d8 2846     		mov	r0, r5
 3474              	.LVL551:
 223:Src/Gcode/Buffer_Gcode.c ****         float vX1 = speedStart*cosX;                float vY1 = speedStart*cosY;                   
 3475              		.loc 1 223 111 view .LVU753
 3476 06da FFF7FEFF 		bl	__aeabi_fmul
 3477              	.LVL552:
 3478 06de FFF7FEFF 		bl	lroundf
 3479              	.LVL553:
 3480 06e2 1690     		str	r0, [sp, #88]
 3481              	.LVL554:
 224:Src/Gcode/Buffer_Gcode.c ****         float aX1 = accelerationStart*cosX;         float aY1 = accelerationStart*cosY;            
 3482              		.loc 1 224 9 is_stmt 1 view .LVU754
 224:Src/Gcode/Buffer_Gcode.c ****         float aX1 = accelerationStart*cosX;         float aY1 = accelerationStart*cosY;            
 3483              		.loc 1 224 15 is_stmt 0 view .LVU755
 3484 06e4 2746     		mov	r7, r4
 3485              	.LVL555:
 224:Src/Gcode/Buffer_Gcode.c ****         float aX1 = accelerationStart*cosX;         float aY1 = accelerationStart*cosY;            
 3486              		.loc 1 224 15 view .LVU756
 3487 06e6 2146     		mov	r1, r4
 3488 06e8 3046     		mov	r0, r6
 3489              	.LVL556:
 224:Src/Gcode/Buffer_Gcode.c ****         float aX1 = accelerationStart*cosX;         float aY1 = accelerationStart*cosY;            
 3490              		.loc 1 224 15 view .LVU757
 3491 06ea FFF7FEFF 		bl	__aeabi_fmul
 3492              	.LVL557:
 3493 06ee 1890     		str	r0, [sp, #96]	@ float
 3494              	.LVL558:
 224:Src/Gcode/Buffer_Gcode.c ****         float aX1 = accelerationStart*cosX;         float aY1 = accelerationStart*cosY;            
 3495              		.loc 1 224 53 is_stmt 1 view .LVU758
 224:Src/Gcode/Buffer_Gcode.c ****         float aX1 = accelerationStart*cosX;         float aY1 = accelerationStart*cosY;            
 3496              		.loc 1 224 59 is_stmt 0 view .LVU759
 3497 06f0 4946     		mov	r1, r9
 3498 06f2 3046     		mov	r0, r6
 3499              	.LVL559:
 224:Src/Gcode/Buffer_Gcode.c ****         float aX1 = accelerationStart*cosX;         float aY1 = accelerationStart*cosY;            
 3500              		.loc 1 224 59 view .LVU760
 3501 06f4 FFF7FEFF 		bl	__aeabi_fmul
 3502              	.LVL560:
 3503 06f8 0446     		mov	r4, r0
 3504              	.LVL561:
 224:Src/Gcode/Buffer_Gcode.c ****         float aX1 = accelerationStart*cosX;         float aY1 = accelerationStart*cosY;            
 3505              		.loc 1 224 101 is_stmt 1 view .LVU761
 224:Src/Gcode/Buffer_Gcode.c ****         float aX1 = accelerationStart*cosX;         float aY1 = accelerationStart*cosY;            
 3506              		.loc 1 224 107 is_stmt 0 view .LVU762
 3507 06fa 2946     		mov	r1, r5
 3508 06fc 3046     		mov	r0, r6
 3509              	.LVL562:
ARM GAS  /tmp/ccMe0kQ8.s 			page 84


 224:Src/Gcode/Buffer_Gcode.c ****         float aX1 = accelerationStart*cosX;         float aY1 = accelerationStart*cosY;            
 3510              		.loc 1 224 107 view .LVU763
 3511 06fe FFF7FEFF 		bl	__aeabi_fmul
 3512              	.LVL563:
 3513 0702 1990     		str	r0, [sp, #100]	@ float
 3514              	.LVL564:
 225:Src/Gcode/Buffer_Gcode.c ****         command_Gcode command1 = {MOVE_COMMAND, x1, y1, 0, e1,    vX1, vY1, 0, vE1,    aX1, aY1, 0,
 3515              		.loc 1 225 9 is_stmt 1 view .LVU764
 225:Src/Gcode/Buffer_Gcode.c ****         command_Gcode command1 = {MOVE_COMMAND, x1, y1, 0, e1,    vX1, vY1, 0, vE1,    aX1, aY1, 0,
 3516              		.loc 1 225 15 is_stmt 0 view .LVU765
 3517 0704 119E     		ldr	r6, [sp, #68]	@ float
 3518              	.LVL565:
 225:Src/Gcode/Buffer_Gcode.c ****         command_Gcode command1 = {MOVE_COMMAND, x1, y1, 0, e1,    vX1, vY1, 0, vE1,    aX1, aY1, 0,
 3519              		.loc 1 225 15 view .LVU766
 3520 0706 3146     		mov	r1, r6
 3521 0708 0E97     		str	r7, [sp, #56]	@ float
 3522              	.LVL566:
 225:Src/Gcode/Buffer_Gcode.c ****         command_Gcode command1 = {MOVE_COMMAND, x1, y1, 0, e1,    vX1, vY1, 0, vE1,    aX1, aY1, 0,
 3523              		.loc 1 225 15 view .LVU767
 3524 070a 3846     		mov	r0, r7
 3525              	.LVL567:
 225:Src/Gcode/Buffer_Gcode.c ****         command_Gcode command1 = {MOVE_COMMAND, x1, y1, 0, e1,    vX1, vY1, 0, vE1,    aX1, aY1, 0,
 3526              		.loc 1 225 15 view .LVU768
 3527 070c FFF7FEFF 		bl	__aeabi_fmul
 3528              	.LVL568:
 3529 0710 0746     		mov	r7, r0
 3530              	.LVL569:
 225:Src/Gcode/Buffer_Gcode.c ****         command_Gcode command1 = {MOVE_COMMAND, x1, y1, 0, e1,    vX1, vY1, 0, vE1,    aX1, aY1, 0,
 3531              		.loc 1 225 53 is_stmt 1 view .LVU769
 225:Src/Gcode/Buffer_Gcode.c ****         command_Gcode command1 = {MOVE_COMMAND, x1, y1, 0, e1,    vX1, vY1, 0, vE1,    aX1, aY1, 0,
 3532              		.loc 1 225 59 is_stmt 0 view .LVU770
 3533 0712 1196     		str	r6, [sp, #68]	@ float
 3534 0714 3146     		mov	r1, r6
 3535 0716 CDF83C90 		str	r9, [sp, #60]	@ float
 3536              	.LVL570:
 225:Src/Gcode/Buffer_Gcode.c ****         command_Gcode command1 = {MOVE_COMMAND, x1, y1, 0, e1,    vX1, vY1, 0, vE1,    aX1, aY1, 0,
 3537              		.loc 1 225 59 view .LVU771
 3538 071a 4846     		mov	r0, r9
 3539              	.LVL571:
 225:Src/Gcode/Buffer_Gcode.c ****         command_Gcode command1 = {MOVE_COMMAND, x1, y1, 0, e1,    vX1, vY1, 0, vE1,    aX1, aY1, 0,
 3540              		.loc 1 225 59 view .LVU772
 3541 071c FFF7FEFF 		bl	__aeabi_fmul
 3542              	.LVL572:
 3543 0720 0646     		mov	r6, r0
 3544              	.LVL573:
 225:Src/Gcode/Buffer_Gcode.c ****         command_Gcode command1 = {MOVE_COMMAND, x1, y1, 0, e1,    vX1, vY1, 0, vE1,    aX1, aY1, 0,
 3545              		.loc 1 225 101 is_stmt 1 view .LVU773
 225:Src/Gcode/Buffer_Gcode.c ****         command_Gcode command1 = {MOVE_COMMAND, x1, y1, 0, e1,    vX1, vY1, 0, vE1,    aX1, aY1, 0,
 3546              		.loc 1 225 107 is_stmt 0 view .LVU774
 3547 0722 1199     		ldr	r1, [sp, #68]	@ float
 3548 0724 0D95     		str	r5, [sp, #52]	@ float
 3549              	.LVL574:
 225:Src/Gcode/Buffer_Gcode.c ****         command_Gcode command1 = {MOVE_COMMAND, x1, y1, 0, e1,    vX1, vY1, 0, vE1,    aX1, aY1, 0,
 3550              		.loc 1 225 107 view .LVU775
 3551 0726 2846     		mov	r0, r5
 3552              	.LVL575:
 225:Src/Gcode/Buffer_Gcode.c ****         command_Gcode command1 = {MOVE_COMMAND, x1, y1, 0, e1,    vX1, vY1, 0, vE1,    aX1, aY1, 0,
ARM GAS  /tmp/ccMe0kQ8.s 			page 85


 3553              		.loc 1 225 107 view .LVU776
 3554 0728 FFF7FEFF 		bl	__aeabi_fmul
 3555              	.LVL576:
 226:Src/Gcode/Buffer_Gcode.c ****         long x2 = Xn - x1;                          long y2 = Yn - y1;                             
 3556              		.loc 1 226 9 is_stmt 1 view .LVU777
 226:Src/Gcode/Buffer_Gcode.c ****         long x2 = Xn - x1;                          long y2 = Yn - y1;                             
 3557              		.loc 1 226 23 is_stmt 0 view .LVU778
 3558 072c 6BAD     		add	r5, sp, #428
 3559 072e 4FF00109 		mov	r9, #1
 3560 0732 85F80090 		strb	r9, [r5]
 3561 0736 139B     		ldr	r3, [sp, #76]
 3562 0738 6B60     		str	r3, [r5, #4]
 3563 073a 149A     		ldr	r2, [sp, #80]
 3564 073c AA60     		str	r2, [r5, #8]
 3565 073e 0021     		movs	r1, #0
 3566 0740 E960     		str	r1, [r5, #12]
 3567 0742 1699     		ldr	r1, [sp, #88]
 3568 0744 2961     		str	r1, [r5, #16]
 3569 0746 DDF860C0 		ldr	ip, [sp, #96]	@ float
 3570 074a C5F814C0 		str	ip, [r5, #20]	@ float
 3571 074e AC61     		str	r4, [r5, #24]	@ float
 3572 0750 0024     		movs	r4, #0
 3573              	.LVL577:
 226:Src/Gcode/Buffer_Gcode.c ****         long x2 = Xn - x1;                          long y2 = Yn - y1;                             
 3574              		.loc 1 226 23 view .LVU779
 3575 0752 EC61     		str	r4, [r5, #28]	@ float
 3576 0754 DDF864C0 		ldr	ip, [sp, #100]	@ float
 3577 0758 C5F820C0 		str	ip, [r5, #32]	@ float
 3578 075c 6F62     		str	r7, [r5, #36]	@ float
 3579 075e AE62     		str	r6, [r5, #40]	@ float
 3580 0760 EC62     		str	r4, [r5, #44]	@ float
 3581 0762 2863     		str	r0, [r5, #48]	@ float
 3582 0764 6C63     		str	r4, [r5, #52]	@ float
 3583 0766 AC63     		str	r4, [r5, #56]	@ float
 226:Src/Gcode/Buffer_Gcode.c ****         long x2 = Xn - x1;                          long y2 = Yn - y1;                             
 3584              		.loc 1 226 116 is_stmt 1 view .LVU780
 3585 0768 6E46     		mov	r6, sp
 3586              	.LVL578:
 226:Src/Gcode/Buffer_Gcode.c ****         long x2 = Xn - x1;                          long y2 = Yn - y1;                             
 3587              		.loc 1 226 116 is_stmt 0 view .LVU781
 3588 076a 6FAF     		add	r7, sp, #444
 3589              	.LVL579:
 226:Src/Gcode/Buffer_Gcode.c ****         long x2 = Xn - x1;                          long y2 = Yn - y1;                             
 3590              		.loc 1 226 116 view .LVU782
 3591 076c 0FCF     		ldmia	r7!, {r0, r1, r2, r3}
 3592              	.LVL580:
 226:Src/Gcode/Buffer_Gcode.c ****         long x2 = Xn - x1;                          long y2 = Yn - y1;                             
 3593              		.loc 1 226 116 view .LVU783
 3594 076e 0FC6     		stmia	r6!, {r0, r1, r2, r3}
 3595 0770 0FCF     		ldmia	r7!, {r0, r1, r2, r3}
 3596 0772 0FC6     		stmia	r6!, {r0, r1, r2, r3}
 3597 0774 97E80700 		ldm	r7, {r0, r1, r2}
 3598 0778 86E80700 		stm	r6, {r0, r1, r2}
 3599 077c 95E80F00 		ldm	r5, {r0, r1, r2, r3}
 3600 0780 FFF7FEFF 		bl	firstInCommandBuffer_Gcode
 3601              	.LVL581:
 227:Src/Gcode/Buffer_Gcode.c ****         float vX2 = speed_XY_buffer*cosX;           float vY2 = speed_XY_buffer*cosY;              
ARM GAS  /tmp/ccMe0kQ8.s 			page 86


 3602              		.loc 1 227 9 is_stmt 1 view .LVU784
 227:Src/Gcode/Buffer_Gcode.c ****         float vX2 = speed_XY_buffer*cosX;           float vY2 = speed_XY_buffer*cosY;              
 3603              		.loc 1 227 14 is_stmt 0 view .LVU785
 3604 0784 139B     		ldr	r3, [sp, #76]
 3605 0786 ABEB0306 		sub	r6, fp, r3
 3606              	.LVL582:
 227:Src/Gcode/Buffer_Gcode.c ****         float vX2 = speed_XY_buffer*cosX;           float vY2 = speed_XY_buffer*cosY;              
 3607              		.loc 1 227 53 is_stmt 1 view .LVU786
 227:Src/Gcode/Buffer_Gcode.c ****         float vX2 = speed_XY_buffer*cosX;           float vY2 = speed_XY_buffer*cosY;              
 3608              		.loc 1 227 58 is_stmt 0 view .LVU787
 3609 078a 149A     		ldr	r2, [sp, #80]
 3610 078c AAEB0205 		sub	r5, r10, r2
 3611              	.LVL583:
 227:Src/Gcode/Buffer_Gcode.c ****         float vX2 = speed_XY_buffer*cosX;           float vY2 = speed_XY_buffer*cosY;              
 3612              		.loc 1 227 101 is_stmt 1 view .LVU788
 227:Src/Gcode/Buffer_Gcode.c ****         float vX2 = speed_XY_buffer*cosX;           float vY2 = speed_XY_buffer*cosY;              
 3613              		.loc 1 227 106 is_stmt 0 view .LVU789
 3614 0790 109B     		ldr	r3, [sp, #64]
 3615 0792 1699     		ldr	r1, [sp, #88]
 3616 0794 5F1A     		subs	r7, r3, r1
 3617              	.LVL584:
 228:Src/Gcode/Buffer_Gcode.c ****         float aX2 = accelerationFinish*cosX;        float aY2 = accelerationFinish*cosY;           
 3618              		.loc 1 228 9 is_stmt 1 view .LVU790
 228:Src/Gcode/Buffer_Gcode.c ****         float aX2 = accelerationFinish*cosX;        float aY2 = accelerationFinish*cosY;           
 3619              		.loc 1 228 15 is_stmt 0 view .LVU791
 3620 0796 4146     		mov	r1, r8
 3621 0798 0E98     		ldr	r0, [sp, #56]	@ float
 3622 079a FFF7FEFF 		bl	__aeabi_fmul
 3623              	.LVL585:
 3624 079e 1090     		str	r0, [sp, #64]	@ float
 3625              	.LVL586:
 228:Src/Gcode/Buffer_Gcode.c ****         float aX2 = accelerationFinish*cosX;        float aY2 = accelerationFinish*cosY;           
 3626              		.loc 1 228 53 is_stmt 1 view .LVU792
 228:Src/Gcode/Buffer_Gcode.c ****         float aX2 = accelerationFinish*cosX;        float aY2 = accelerationFinish*cosY;           
 3627              		.loc 1 228 59 is_stmt 0 view .LVU793
 3628 07a0 4146     		mov	r1, r8
 3629 07a2 0F98     		ldr	r0, [sp, #60]	@ float
 3630              	.LVL587:
 228:Src/Gcode/Buffer_Gcode.c ****         float aX2 = accelerationFinish*cosX;        float aY2 = accelerationFinish*cosY;           
 3631              		.loc 1 228 59 view .LVU794
 3632 07a4 FFF7FEFF 		bl	__aeabi_fmul
 3633              	.LVL588:
 3634 07a8 8346     		mov	fp, r0
 3635              	.LVL589:
 228:Src/Gcode/Buffer_Gcode.c ****         float aX2 = accelerationFinish*cosX;        float aY2 = accelerationFinish*cosY;           
 3636              		.loc 1 228 101 is_stmt 1 view .LVU795
 228:Src/Gcode/Buffer_Gcode.c ****         float aX2 = accelerationFinish*cosX;        float aY2 = accelerationFinish*cosY;           
 3637              		.loc 1 228 107 is_stmt 0 view .LVU796
 3638 07aa 4146     		mov	r1, r8
 3639 07ac 0D98     		ldr	r0, [sp, #52]	@ float
 3640              	.LVL590:
 228:Src/Gcode/Buffer_Gcode.c ****         float aX2 = accelerationFinish*cosX;        float aY2 = accelerationFinish*cosY;           
 3641              		.loc 1 228 107 view .LVU797
 3642 07ae FFF7FEFF 		bl	__aeabi_fmul
 3643              	.LVL591:
 3644 07b2 8246     		mov	r10, r0
 3645              	.LVL592:
ARM GAS  /tmp/ccMe0kQ8.s 			page 87


 229:Src/Gcode/Buffer_Gcode.c ****         command_Gcode command2 = {MOVE_COMMAND, x2, y2, 0, e2,    vX2, vY2, 0, vE2,    aX2, aY2, 0,
 3646              		.loc 1 229 9 is_stmt 1 view .LVU798
 229:Src/Gcode/Buffer_Gcode.c ****         command_Gcode command2 = {MOVE_COMMAND, x2, y2, 0, e2,    vX2, vY2, 0, vE2,    aX2, aY2, 0,
 3647              		.loc 1 229 15 is_stmt 0 view .LVU799
 3648 07b4 DDF84880 		ldr	r8, [sp, #72]	@ float
 3649              	.LVL593:
 229:Src/Gcode/Buffer_Gcode.c ****         command_Gcode command2 = {MOVE_COMMAND, x2, y2, 0, e2,    vX2, vY2, 0, vE2,    aX2, aY2, 0,
 3650              		.loc 1 229 15 view .LVU800
 3651 07b8 4146     		mov	r1, r8
 3652 07ba 0E98     		ldr	r0, [sp, #56]	@ float
 3653              	.LVL594:
 229:Src/Gcode/Buffer_Gcode.c ****         command_Gcode command2 = {MOVE_COMMAND, x2, y2, 0, e2,    vX2, vY2, 0, vE2,    aX2, aY2, 0,
 3654              		.loc 1 229 15 view .LVU801
 3655 07bc FFF7FEFF 		bl	__aeabi_fmul
 3656              	.LVL595:
 3657 07c0 0E90     		str	r0, [sp, #56]	@ float
 3658              	.LVL596:
 229:Src/Gcode/Buffer_Gcode.c ****         command_Gcode command2 = {MOVE_COMMAND, x2, y2, 0, e2,    vX2, vY2, 0, vE2,    aX2, aY2, 0,
 3659              		.loc 1 229 53 is_stmt 1 view .LVU802
 229:Src/Gcode/Buffer_Gcode.c ****         command_Gcode command2 = {MOVE_COMMAND, x2, y2, 0, e2,    vX2, vY2, 0, vE2,    aX2, aY2, 0,
 3660              		.loc 1 229 59 is_stmt 0 view .LVU803
 3661 07c2 CDF84880 		str	r8, [sp, #72]	@ float
 3662 07c6 4146     		mov	r1, r8
 3663 07c8 0F98     		ldr	r0, [sp, #60]	@ float
 3664              	.LVL597:
 229:Src/Gcode/Buffer_Gcode.c ****         command_Gcode command2 = {MOVE_COMMAND, x2, y2, 0, e2,    vX2, vY2, 0, vE2,    aX2, aY2, 0,
 3665              		.loc 1 229 59 view .LVU804
 3666 07ca FFF7FEFF 		bl	__aeabi_fmul
 3667              	.LVL598:
 3668 07ce 8046     		mov	r8, r0
 3669              	.LVL599:
 229:Src/Gcode/Buffer_Gcode.c ****         command_Gcode command2 = {MOVE_COMMAND, x2, y2, 0, e2,    vX2, vY2, 0, vE2,    aX2, aY2, 0,
 3670              		.loc 1 229 101 is_stmt 1 view .LVU805
 229:Src/Gcode/Buffer_Gcode.c ****         command_Gcode command2 = {MOVE_COMMAND, x2, y2, 0, e2,    vX2, vY2, 0, vE2,    aX2, aY2, 0,
 3671              		.loc 1 229 107 is_stmt 0 view .LVU806
 3672 07d0 1299     		ldr	r1, [sp, #72]	@ float
 3673 07d2 0D98     		ldr	r0, [sp, #52]	@ float
 3674              	.LVL600:
 229:Src/Gcode/Buffer_Gcode.c ****         command_Gcode command2 = {MOVE_COMMAND, x2, y2, 0, e2,    vX2, vY2, 0, vE2,    aX2, aY2, 0,
 3675              		.loc 1 229 107 view .LVU807
 3676 07d4 FFF7FEFF 		bl	__aeabi_fmul
 3677              	.LVL601:
 230:Src/Gcode/Buffer_Gcode.c ****     }
 3678              		.loc 1 230 9 is_stmt 1 view .LVU808
 230:Src/Gcode/Buffer_Gcode.c ****     }
 3679              		.loc 1 230 23 is_stmt 0 view .LVU809
 3680 07d8 0DF5F47C 		add	ip, sp, #488
 3681 07dc 8CF80090 		strb	r9, [ip]
 3682 07e0 CCF80460 		str	r6, [ip, #4]
 3683 07e4 CCF80850 		str	r5, [ip, #8]
 3684 07e8 0023     		movs	r3, #0
 3685 07ea CCF80C30 		str	r3, [ip, #12]
 3686 07ee CCF81070 		str	r7, [ip, #16]
 3687 07f2 109B     		ldr	r3, [sp, #64]	@ float
 3688 07f4 CCF81430 		str	r3, [ip, #20]	@ float
 3689 07f8 CCF818B0 		str	fp, [ip, #24]	@ float
 3690 07fc CCF81C40 		str	r4, [ip, #28]	@ float
ARM GAS  /tmp/ccMe0kQ8.s 			page 88


 3691 0800 CCF820A0 		str	r10, [ip, #32]	@ float
 3692 0804 0E9B     		ldr	r3, [sp, #56]	@ float
 3693 0806 CCF82430 		str	r3, [ip, #36]	@ float
 3694 080a CCF82880 		str	r8, [ip, #40]	@ float
 3695 080e CCF82C40 		str	r4, [ip, #44]	@ float
 3696 0812 CCF83000 		str	r0, [ip, #48]	@ float
 3697 0816 CCF83440 		str	r4, [ip, #52]	@ float
 3698 081a CCF83840 		str	r4, [ip, #56]	@ float
 230:Src/Gcode/Buffer_Gcode.c ****     }
 3699              		.loc 1 230 116 is_stmt 1 view .LVU810
 3700 081e 6C46     		mov	r4, sp
 3701 0820 7EAD     		add	r5, sp, #504
 3702              	.LVL602:
 230:Src/Gcode/Buffer_Gcode.c ****     }
 3703              		.loc 1 230 116 is_stmt 0 view .LVU811
 3704 0822 0FCD     		ldmia	r5!, {r0, r1, r2, r3}
 3705              	.LVL603:
 230:Src/Gcode/Buffer_Gcode.c ****     }
 3706              		.loc 1 230 116 view .LVU812
 3707 0824 0FC4     		stmia	r4!, {r0, r1, r2, r3}
 3708 0826 0FCD     		ldmia	r5!, {r0, r1, r2, r3}
 3709 0828 0FC4     		stmia	r4!, {r0, r1, r2, r3}
 3710 082a 95E80700 		ldm	r5, {r0, r1, r2}
 3711 082e 84E80700 		stm	r4, {r0, r1, r2}
 3712 0832 9CE80F00 		ldm	ip, {r0, r1, r2, r3}
 3713 0836 FFF7FEFF 		bl	firstInCommandBuffer_Gcode
 3714              	.LVL604:
 230:Src/Gcode/Buffer_Gcode.c ****     }
 3715              		.loc 1 230 155 is_stmt 1 view .LVU813
 3716 083a 10E6     		b	.L104
 3717              	.LBE3:
 3718              		.cfi_endproc
 3719              	.LFE18:
 3721              		.section	.text.MoveE_Analyser,"ax",%progbits
 3722              		.align	1
 3723              		.syntax unified
 3724              		.thumb
 3725              		.thumb_func
 3726              		.fpu softvfp
 3728              	MoveE_Analyser:
 3729              	.LFB19:
 247:Src/Gcode/Buffer_Gcode.c ****     long En = getDescreteCommandBufferElement_Gcode(2).En - getDescreteCommandBufferElement_Gcode(1
 3730              		.loc 1 247 1 view -0
 3731              		.cfi_startproc
 3732              		@ args = 0, pretend = 0, frame = 224
 3733              		@ frame_needed = 0, uses_anonymous_args = 0
 3734 0000 70B5     		push	{r4, r5, r6, lr}
 3735              	.LCFI39:
 3736              		.cfi_def_cfa_offset 16
 3737              		.cfi_offset 4, -16
 3738              		.cfi_offset 5, -12
 3739              		.cfi_offset 6, -8
 3740              		.cfi_offset 14, -4
 3741 0002 C4B0     		sub	sp, sp, #272
 3742              	.LCFI40:
 3743              		.cfi_def_cfa_offset 288
 248:Src/Gcode/Buffer_Gcode.c ****     float speedTarget = sign(En)*getDescreteCommandBufferElement_Gcode(2).FnE;
ARM GAS  /tmp/ccMe0kQ8.s 			page 89


 3744              		.loc 1 248 5 view .LVU815
 248:Src/Gcode/Buffer_Gcode.c ****     float speedTarget = sign(En)*getDescreteCommandBufferElement_Gcode(2).FnE;
 3745              		.loc 1 248 15 is_stmt 0 view .LVU816
 3746 0004 0221     		movs	r1, #2
 3747 0006 0DA8     		add	r0, sp, #52
 3748 0008 FFF7FEFF 		bl	getDescreteCommandBufferElement_Gcode
 3749              	.LVL605:
 248:Src/Gcode/Buffer_Gcode.c ****     float speedTarget = sign(En)*getDescreteCommandBufferElement_Gcode(2).FnE;
 3750              		.loc 1 248 55 view .LVU817
 3751 000c 119D     		ldr	r5, [sp, #68]
 248:Src/Gcode/Buffer_Gcode.c ****     float speedTarget = sign(En)*getDescreteCommandBufferElement_Gcode(2).FnE;
 3752              		.loc 1 248 61 view .LVU818
 3753 000e 0121     		movs	r1, #1
 3754 0010 17A8     		add	r0, sp, #92
 3755 0012 FFF7FEFF 		bl	getDescreteCommandBufferElement_Gcode
 3756              	.LVL606:
 248:Src/Gcode/Buffer_Gcode.c ****     float speedTarget = sign(En)*getDescreteCommandBufferElement_Gcode(2).FnE;
 3757              		.loc 1 248 101 view .LVU819
 3758 0016 1B9B     		ldr	r3, [sp, #108]
 248:Src/Gcode/Buffer_Gcode.c ****     float speedTarget = sign(En)*getDescreteCommandBufferElement_Gcode(2).FnE;
 3759              		.loc 1 248 10 view .LVU820
 3760 0018 ED1A     		subs	r5, r5, r3
 3761              	.LVL607:
 249:Src/Gcode/Buffer_Gcode.c ****     if (getDescreteCommandBufferElement_Gcode(2).FnE > MAX_SPEED_E_STEPS_PER_SECOND) speedTarget = 
 3762              		.loc 1 249 5 is_stmt 1 view .LVU821
 249:Src/Gcode/Buffer_Gcode.c ****     if (getDescreteCommandBufferElement_Gcode(2).FnE > MAX_SPEED_E_STEPS_PER_SECOND) speedTarget = 
 3763              		.loc 1 249 25 is_stmt 0 view .LVU822
 3764 001a 2846     		mov	r0, r5
 3765 001c FFF7FEFF 		bl	__aeabi_i2f
 3766              	.LVL608:
 3767 0020 FFF7FEFF 		bl	sign
 3768              	.LVL609:
 249:Src/Gcode/Buffer_Gcode.c ****     if (getDescreteCommandBufferElement_Gcode(2).FnE > MAX_SPEED_E_STEPS_PER_SECOND) speedTarget = 
 3769              		.loc 1 249 33 view .LVU823
 3770 0024 FFF7FEFF 		bl	__aeabi_i2f
 3771              	.LVL610:
 3772 0028 0646     		mov	r6, r0
 249:Src/Gcode/Buffer_Gcode.c ****     if (getDescreteCommandBufferElement_Gcode(2).FnE > MAX_SPEED_E_STEPS_PER_SECOND) speedTarget = 
 3773              		.loc 1 249 34 view .LVU824
 3774 002a 0221     		movs	r1, #2
 3775 002c 21A8     		add	r0, sp, #132
 3776 002e FFF7FEFF 		bl	getDescreteCommandBufferElement_Gcode
 3777              	.LVL611:
 249:Src/Gcode/Buffer_Gcode.c ****     if (getDescreteCommandBufferElement_Gcode(2).FnE > MAX_SPEED_E_STEPS_PER_SECOND) speedTarget = 
 3778              		.loc 1 249 11 view .LVU825
 3779 0032 2899     		ldr	r1, [sp, #160]	@ float
 3780 0034 3046     		mov	r0, r6
 3781 0036 FFF7FEFF 		bl	__aeabi_fmul
 3782              	.LVL612:
 3783 003a 0446     		mov	r4, r0
 3784              	.LVL613:
 250:Src/Gcode/Buffer_Gcode.c ****     long e1 = En;
 3785              		.loc 1 250 5 is_stmt 1 view .LVU826
 250:Src/Gcode/Buffer_Gcode.c ****     long e1 = En;
 3786              		.loc 1 250 9 is_stmt 0 view .LVU827
 3787 003c 0221     		movs	r1, #2
 3788 003e 2BA8     		add	r0, sp, #172
ARM GAS  /tmp/ccMe0kQ8.s 			page 90


 3789              	.LVL614:
 250:Src/Gcode/Buffer_Gcode.c ****     long e1 = En;
 3790              		.loc 1 250 9 view .LVU828
 3791 0040 FFF7FEFF 		bl	getDescreteCommandBufferElement_Gcode
 3792              	.LVL615:
 250:Src/Gcode/Buffer_Gcode.c ****     long e1 = En;
 3793              		.loc 1 250 8 view .LVU829
 3794 0044 1249     		ldr	r1, .L139
 3795 0046 3298     		ldr	r0, [sp, #200]	@ float
 3796 0048 FFF7FEFF 		bl	__aeabi_fcmpgt
 3797              	.LVL616:
 3798 004c 20B1     		cbz	r0, .L135
 250:Src/Gcode/Buffer_Gcode.c ****     long e1 = En;
 3799              		.loc 1 250 86 is_stmt 1 discriminator 1 view .LVU830
 250:Src/Gcode/Buffer_Gcode.c ****     long e1 = En;
 3800              		.loc 1 250 98 is_stmt 0 discriminator 1 view .LVU831
 3801 004e 1049     		ldr	r1, .L139
 3802 0050 3046     		mov	r0, r6
 3803 0052 FFF7FEFF 		bl	__aeabi_fmul
 3804              	.LVL617:
 3805 0056 0446     		mov	r4, r0
 3806              	.LVL618:
 3807              	.L135:
 251:Src/Gcode/Buffer_Gcode.c ****     float vE1 = speedTarget;
 3808              		.loc 1 251 5 is_stmt 1 view .LVU832
 252:Src/Gcode/Buffer_Gcode.c ****     command_Gcode command1 = {MOVE_COMMAND, 0, 0, 0, e1,    0, 0, 0, vE1,    0, 0, 0,   0, 0}; firs
 3809              		.loc 1 252 5 view .LVU833
 253:Src/Gcode/Buffer_Gcode.c **** }
 3810              		.loc 1 253 5 view .LVU834
 253:Src/Gcode/Buffer_Gcode.c **** }
 3811              		.loc 1 253 19 is_stmt 0 view .LVU835
 3812 0058 35AE     		add	r6, sp, #212
 3813 005a 3C22     		movs	r2, #60
 3814 005c 0021     		movs	r1, #0
 3815 005e 3046     		mov	r0, r6
 3816 0060 FFF7FEFF 		bl	memset
 3817              	.LVL619:
 3818 0064 0123     		movs	r3, #1
 3819 0066 8DF8D430 		strb	r3, [sp, #212]
 3820 006a 3995     		str	r5, [sp, #228]
 3821 006c 3D94     		str	r4, [sp, #244]	@ float
 253:Src/Gcode/Buffer_Gcode.c **** }
 3822              		.loc 1 253 96 is_stmt 1 view .LVU836
 3823 006e 6C46     		mov	r4, sp
 3824              	.LVL620:
 253:Src/Gcode/Buffer_Gcode.c **** }
 3825              		.loc 1 253 96 is_stmt 0 view .LVU837
 3826 0070 39AD     		add	r5, sp, #228
 3827              	.LVL621:
 253:Src/Gcode/Buffer_Gcode.c **** }
 3828              		.loc 1 253 96 view .LVU838
 3829 0072 0FCD     		ldmia	r5!, {r0, r1, r2, r3}
 3830              	.LVL622:
 253:Src/Gcode/Buffer_Gcode.c **** }
 3831              		.loc 1 253 96 view .LVU839
 3832 0074 0FC4     		stmia	r4!, {r0, r1, r2, r3}
 3833 0076 0FCD     		ldmia	r5!, {r0, r1, r2, r3}
ARM GAS  /tmp/ccMe0kQ8.s 			page 91


 3834              	.LVL623:
 253:Src/Gcode/Buffer_Gcode.c **** }
 3835              		.loc 1 253 96 view .LVU840
 3836 0078 0FC4     		stmia	r4!, {r0, r1, r2, r3}
 3837 007a 95E80700 		ldm	r5, {r0, r1, r2}
 3838 007e 84E80700 		stm	r4, {r0, r1, r2}
 3839 0082 96E80F00 		ldm	r6, {r0, r1, r2, r3}
 3840 0086 FFF7FEFF 		bl	firstInCommandBuffer_Gcode
 3841              	.LVL624:
 254:Src/Gcode/Buffer_Gcode.c **** 
 3842              		.loc 1 254 1 view .LVU841
 3843 008a 44B0     		add	sp, sp, #272
 3844              	.LCFI41:
 3845              		.cfi_def_cfa_offset 16
 3846              		@ sp needed
 3847 008c 70BD     		pop	{r4, r5, r6, pc}
 3848              	.LVL625:
 3849              	.L140:
 254:Src/Gcode/Buffer_Gcode.c **** 
 3850              		.loc 1 254 1 view .LVU842
 3851 008e 00BF     		.align	2
 3852              	.L139:
 3853 0090 ABAA2646 		.word	1176939179
 3854              		.cfi_endproc
 3855              	.LFE19:
 3857              		.section	.text.HomeX_Analyser,"ax",%progbits
 3858              		.align	1
 3859              		.syntax unified
 3860              		.thumb
 3861              		.thumb_func
 3862              		.fpu softvfp
 3864              	HomeX_Analyser:
 3865              	.LFB21:
 305:Src/Gcode/Buffer_Gcode.c ****     long dXn = getDescreteCommandBufferElement_Gcode(2).Xn;
 3866              		.loc 1 305 1 is_stmt 1 view -0
 3867              		.cfi_startproc
 3868              		@ args = 0, pretend = 0, frame = 520
 3869              		@ frame_needed = 0, uses_anonymous_args = 0
 3870 0000 2DE9F04F 		push	{r4, r5, r6, r7, r8, r9, r10, fp, lr}
 3871              	.LCFI42:
 3872              		.cfi_def_cfa_offset 36
 3873              		.cfi_offset 4, -36
 3874              		.cfi_offset 5, -32
 3875              		.cfi_offset 6, -28
 3876              		.cfi_offset 7, -24
 3877              		.cfi_offset 8, -20
 3878              		.cfi_offset 9, -16
 3879              		.cfi_offset 10, -12
 3880              		.cfi_offset 11, -8
 3881              		.cfi_offset 14, -4
 3882 0004 ADF50F7D 		sub	sp, sp, #572
 3883              	.LCFI43:
 3884              		.cfi_def_cfa_offset 608
 306:Src/Gcode/Buffer_Gcode.c ****     long x; float v; float a;
 3885              		.loc 1 306 5 view .LVU844
 306:Src/Gcode/Buffer_Gcode.c ****     long x; float v; float a;
 3886              		.loc 1 306 16 is_stmt 0 view .LVU845
ARM GAS  /tmp/ccMe0kQ8.s 			page 92


 3887 0008 0221     		movs	r1, #2
 3888 000a 0CA8     		add	r0, sp, #48
 3889 000c FFF7FEFF 		bl	getDescreteCommandBufferElement_Gcode
 3890              	.LVL626:
 306:Src/Gcode/Buffer_Gcode.c ****     long x; float v; float a;
 3891              		.loc 1 306 10 view .LVU846
 3892 0010 0D9F     		ldr	r7, [sp, #52]
 3893              	.LVL627:
 307:Src/Gcode/Buffer_Gcode.c **** 
 3894              		.loc 1 307 5 is_stmt 1 view .LVU847
 307:Src/Gcode/Buffer_Gcode.c **** 
 3895              		.loc 1 307 13 view .LVU848
 307:Src/Gcode/Buffer_Gcode.c **** 
 3896              		.loc 1 307 22 view .LVU849
 309:Src/Gcode/Buffer_Gcode.c **** 
 3897              		.loc 1 309 5 view .LVU850
 311:Src/Gcode/Buffer_Gcode.c ****     command_Gcode command1 = {GO_HOME_X_COMMAND, x, 0, 0, 0,    v, 0, 0, 0,    a, 0, 0, 0,   0, 0};
 3898              		.loc 1 311 5 view .LVU851
 311:Src/Gcode/Buffer_Gcode.c ****     command_Gcode command1 = {GO_HOME_X_COMMAND, x, 0, 0, 0,    v, 0, 0, 0,    a, 0, 0, 0,   0, 0};
 3899              		.loc 1 311 37 view .LVU852
 311:Src/Gcode/Buffer_Gcode.c ****     command_Gcode command1 = {GO_HOME_X_COMMAND, x, 0, 0, 0,    v, 0, 0, 0,    a, 0, 0, 0,   0, 0};
 3900              		.loc 1 311 89 view .LVU853
 312:Src/Gcode/Buffer_Gcode.c ****     x = HOME_FINE_STEPS_XY;         v = HOME_COARSE_SPEED_XY_STEPS_PER_SECOND;          a = 0;
 3901              		.loc 1 312 5 view .LVU854
 312:Src/Gcode/Buffer_Gcode.c ****     x = HOME_FINE_STEPS_XY;         v = HOME_COARSE_SPEED_XY_STEPS_PER_SECOND;          a = 0;
 3902              		.loc 1 312 19 is_stmt 0 view .LVU855
 3903 0012 4FF00309 		mov	r9, #3
 3904 0016 8DF8FC91 		strb	r9, [sp, #508]
 3905 001a 4FF00008 		mov	r8, #0
 3906 001e CDF80082 		str	r8, [sp, #512]
 3907 0022 CDF80482 		str	r8, [sp, #516]
 3908 0026 CDF80882 		str	r8, [sp, #520]
 3909 002a CDF80C82 		str	r8, [sp, #524]
 3910 002e A54B     		ldr	r3, .L147
 3911 0030 8493     		str	r3, [sp, #528]	@ float
 3912 0032 0024     		movs	r4, #0
 3913 0034 8594     		str	r4, [sp, #532]	@ float
 3914 0036 8694     		str	r4, [sp, #536]	@ float
 3915 0038 8794     		str	r4, [sp, #540]	@ float
 3916 003a 8894     		str	r4, [sp, #544]	@ float
 3917 003c 8994     		str	r4, [sp, #548]	@ float
 3918 003e 8A94     		str	r4, [sp, #552]	@ float
 3919 0040 8B94     		str	r4, [sp, #556]	@ float
 3920 0042 8C94     		str	r4, [sp, #560]	@ float
 3921 0044 8D94     		str	r4, [sp, #564]	@ float
 312:Src/Gcode/Buffer_Gcode.c ****     x = HOME_FINE_STEPS_XY;         v = HOME_COARSE_SPEED_XY_STEPS_PER_SECOND;          a = 0;
 3922              		.loc 1 312 105 is_stmt 1 view .LVU856
 3923 0046 6D46     		mov	r5, sp
 3924 0048 83AE     		add	r6, sp, #524
 3925 004a 0FCE     		ldmia	r6!, {r0, r1, r2, r3}
 3926 004c 0FC5     		stmia	r5!, {r0, r1, r2, r3}
 3927 004e 0FCE     		ldmia	r6!, {r0, r1, r2, r3}
 3928 0050 0FC5     		stmia	r5!, {r0, r1, r2, r3}
 3929 0052 96E80700 		ldm	r6, {r0, r1, r2}
 3930 0056 85E80700 		stm	r5, {r0, r1, r2}
 3931 005a 7FAB     		add	r3, sp, #508
 3932 005c 0FCB     		ldm	r3, {r0, r1, r2, r3}
ARM GAS  /tmp/ccMe0kQ8.s 			page 93


 3933 005e FFF7FEFF 		bl	firstInCommandBuffer_Gcode
 3934              	.LVL628:
 313:Src/Gcode/Buffer_Gcode.c ****     command_Gcode command2 = {MOVE_COMMAND,      x, 0, 0, 0,    v, 0, 0, 0,    a, 0, 0, 0,   0, 0};
 3935              		.loc 1 313 5 view .LVU857
 313:Src/Gcode/Buffer_Gcode.c ****     command_Gcode command2 = {MOVE_COMMAND,      x, 0, 0, 0,    v, 0, 0, 0,    a, 0, 0, 0,   0, 0};
 3936              		.loc 1 313 37 view .LVU858
 313:Src/Gcode/Buffer_Gcode.c ****     command_Gcode command2 = {MOVE_COMMAND,      x, 0, 0, 0,    v, 0, 0, 0,    a, 0, 0, 0,   0, 0};
 3937              		.loc 1 313 89 view .LVU859
 314:Src/Gcode/Buffer_Gcode.c ****     x = 0;                          v = -HOME_FINE_SPEED_XY_STEPS_PER_SECOND;           a = 0;
 3938              		.loc 1 314 5 view .LVU860
 314:Src/Gcode/Buffer_Gcode.c ****     x = 0;                          v = -HOME_FINE_SPEED_XY_STEPS_PER_SECOND;           a = 0;
 3939              		.loc 1 314 19 is_stmt 0 view .LVU861
 3940 0062 0123     		movs	r3, #1
 3941 0064 8DF8C031 		strb	r3, [sp, #448]
 3942 0068 4FF4C873 		mov	r3, #400
 3943 006c 7193     		str	r3, [sp, #452]
 3944 006e CDF8C881 		str	r8, [sp, #456]
 3945 0072 CDF8CC81 		str	r8, [sp, #460]
 3946 0076 CDF8D081 		str	r8, [sp, #464]
 3947 007a 934B     		ldr	r3, .L147+4
 3948 007c 7593     		str	r3, [sp, #468]	@ float
 3949 007e 7694     		str	r4, [sp, #472]	@ float
 3950 0080 7794     		str	r4, [sp, #476]	@ float
 3951 0082 7894     		str	r4, [sp, #480]	@ float
 3952 0084 7994     		str	r4, [sp, #484]	@ float
 3953 0086 7A94     		str	r4, [sp, #488]	@ float
 3954 0088 7B94     		str	r4, [sp, #492]	@ float
 3955 008a 7C94     		str	r4, [sp, #496]	@ float
 3956 008c 7D94     		str	r4, [sp, #500]	@ float
 3957 008e 7E94     		str	r4, [sp, #504]	@ float
 314:Src/Gcode/Buffer_Gcode.c ****     x = 0;                          v = -HOME_FINE_SPEED_XY_STEPS_PER_SECOND;           a = 0;
 3958              		.loc 1 314 105 is_stmt 1 view .LVU862
 3959 0090 6D46     		mov	r5, sp
 3960 0092 74AE     		add	r6, sp, #464
 3961 0094 0FCE     		ldmia	r6!, {r0, r1, r2, r3}
 3962 0096 0FC5     		stmia	r5!, {r0, r1, r2, r3}
 3963 0098 0FCE     		ldmia	r6!, {r0, r1, r2, r3}
 3964 009a 0FC5     		stmia	r5!, {r0, r1, r2, r3}
 3965 009c 96E80700 		ldm	r6, {r0, r1, r2}
 3966 00a0 85E80700 		stm	r5, {r0, r1, r2}
 3967 00a4 70AB     		add	r3, sp, #448
 3968 00a6 0FCB     		ldm	r3, {r0, r1, r2, r3}
 3969 00a8 FFF7FEFF 		bl	firstInCommandBuffer_Gcode
 3970              	.LVL629:
 315:Src/Gcode/Buffer_Gcode.c ****     command_Gcode command3 = {GO_HOME_X_COMMAND, x, 0, 0, 0,    v, 0, 0, 0,    a, 0, 0, 0,   0, 0};
 3971              		.loc 1 315 5 view .LVU863
 315:Src/Gcode/Buffer_Gcode.c ****     command_Gcode command3 = {GO_HOME_X_COMMAND, x, 0, 0, 0,    v, 0, 0, 0,    a, 0, 0, 0,   0, 0};
 3972              		.loc 1 315 37 view .LVU864
 315:Src/Gcode/Buffer_Gcode.c ****     command_Gcode command3 = {GO_HOME_X_COMMAND, x, 0, 0, 0,    v, 0, 0, 0,    a, 0, 0, 0,   0, 0};
 3973              		.loc 1 315 89 view .LVU865
 316:Src/Gcode/Buffer_Gcode.c ****     if (dXn <= 0)
 3974              		.loc 1 316 5 view .LVU866
 316:Src/Gcode/Buffer_Gcode.c ****     if (dXn <= 0)
 3975              		.loc 1 316 19 is_stmt 0 view .LVU867
 3976 00ac 8DF88491 		strb	r9, [sp, #388]
 3977 00b0 CDF88881 		str	r8, [sp, #392]
 3978 00b4 CDF88C81 		str	r8, [sp, #396]
ARM GAS  /tmp/ccMe0kQ8.s 			page 94


 3979 00b8 CDF89081 		str	r8, [sp, #400]
 3980 00bc CDF89481 		str	r8, [sp, #404]
 3981 00c0 824B     		ldr	r3, .L147+8
 3982 00c2 6693     		str	r3, [sp, #408]	@ float
 3983 00c4 6794     		str	r4, [sp, #412]	@ float
 3984 00c6 6894     		str	r4, [sp, #416]	@ float
 3985 00c8 6994     		str	r4, [sp, #420]	@ float
 3986 00ca 6A94     		str	r4, [sp, #424]	@ float
 3987 00cc 6B94     		str	r4, [sp, #428]	@ float
 3988 00ce 6C94     		str	r4, [sp, #432]	@ float
 3989 00d0 6D94     		str	r4, [sp, #436]	@ float
 3990 00d2 6E94     		str	r4, [sp, #440]	@ float
 3991 00d4 6F94     		str	r4, [sp, #444]	@ float
 316:Src/Gcode/Buffer_Gcode.c ****     if (dXn <= 0)
 3992              		.loc 1 316 105 is_stmt 1 view .LVU868
 3993 00d6 6C46     		mov	r4, sp
 3994 00d8 65AD     		add	r5, sp, #404
 3995 00da 0FCD     		ldmia	r5!, {r0, r1, r2, r3}
 3996 00dc 0FC4     		stmia	r4!, {r0, r1, r2, r3}
 3997 00de 0FCD     		ldmia	r5!, {r0, r1, r2, r3}
 3998 00e0 0FC4     		stmia	r4!, {r0, r1, r2, r3}
 3999 00e2 95E80700 		ldm	r5, {r0, r1, r2}
 4000 00e6 84E80700 		stm	r4, {r0, r1, r2}
 4001 00ea 61AB     		add	r3, sp, #388
 4002 00ec 0FCB     		ldm	r3, {r0, r1, r2, r3}
 4003 00ee FFF7FEFF 		bl	firstInCommandBuffer_Gcode
 4004              	.LVL630:
 317:Src/Gcode/Buffer_Gcode.c ****         return;
 4005              		.loc 1 317 5 view .LVU869
 317:Src/Gcode/Buffer_Gcode.c ****         return;
 4006              		.loc 1 317 8 is_stmt 0 view .LVU870
 4007 00f2 4745     		cmp	r7, r8
 4008 00f4 7ADD     		ble	.L141
 320:Src/Gcode/Buffer_Gcode.c ****     {
 4009              		.loc 1 320 5 is_stmt 1 view .LVU871
 320:Src/Gcode/Buffer_Gcode.c ****     {
 4010              		.loc 1 320 8 is_stmt 0 view .LVU872
 4011 00f6 41F2D543 		movw	r3, #5333
 4012 00fa 9F42     		cmp	r7, r3
 4013 00fc 7ADD     		ble	.L146
 331:Src/Gcode/Buffer_Gcode.c ****     command_Gcode command4 = {MOVE_COMMAND,      x, 0, 0, 0,    v, 0, 0, 0,    a, 0, 0, 0,   0, 0};
 4014              		.loc 1 331 5 is_stmt 1 view .LVU873
 4015              	.LVL631:
 331:Src/Gcode/Buffer_Gcode.c ****     command_Gcode command4 = {MOVE_COMMAND,      x, 0, 0, 0,    v, 0, 0, 0,    a, 0, 0, 0,   0, 0};
 4016              		.loc 1 331 33 view .LVU874
 331:Src/Gcode/Buffer_Gcode.c ****     command_Gcode command4 = {MOVE_COMMAND,      x, 0, 0, 0,    v, 0, 0, 0,    a, 0, 0, 0,   0, 0};
 4017              		.loc 1 331 85 view .LVU875
 332:Src/Gcode/Buffer_Gcode.c ****     x = dXn-2*L_HOME_XY;        v = HOME_COARSE_SPEED_XY_STEPS_PER_SECOND;          a = 0;
 4018              		.loc 1 332 5 view .LVU876
 332:Src/Gcode/Buffer_Gcode.c ****     x = dXn-2*L_HOME_XY;        v = HOME_COARSE_SPEED_XY_STEPS_PER_SECOND;          a = 0;
 4019              		.loc 1 332 19 is_stmt 0 view .LVU877
 4020 00fe 4FF00109 		mov	r9, #1
 4021 0102 8DF84891 		strb	r9, [sp, #328]
 4022 0106 40F66B2A 		movw	r10, #2667
 4023 010a CDF84CA1 		str	r10, [sp, #332]
 4024 010e 4FF00008 		mov	r8, #0
 4025 0112 CDF85081 		str	r8, [sp, #336]
ARM GAS  /tmp/ccMe0kQ8.s 			page 95


 4026 0116 CDF85481 		str	r8, [sp, #340]
 4027 011a CDF85881 		str	r8, [sp, #344]
 4028 011e 0024     		movs	r4, #0
 4029 0120 5794     		str	r4, [sp, #348]	@ float
 4030 0122 5894     		str	r4, [sp, #352]	@ float
 4031 0124 5994     		str	r4, [sp, #356]	@ float
 4032 0126 5A94     		str	r4, [sp, #360]	@ float
 4033 0128 694B     		ldr	r3, .L147+12
 4034 012a 5B93     		str	r3, [sp, #364]	@ float
 4035 012c 5C94     		str	r4, [sp, #368]	@ float
 4036 012e 5D94     		str	r4, [sp, #372]	@ float
 4037 0130 5E94     		str	r4, [sp, #376]	@ float
 4038 0132 5F94     		str	r4, [sp, #380]	@ float
 4039 0134 6094     		str	r4, [sp, #384]	@ float
 332:Src/Gcode/Buffer_Gcode.c ****     x = dXn-2*L_HOME_XY;        v = HOME_COARSE_SPEED_XY_STEPS_PER_SECOND;          a = 0;
 4040              		.loc 1 332 105 is_stmt 1 view .LVU878
 4041 0136 6D46     		mov	r5, sp
 4042 0138 56AE     		add	r6, sp, #344
 4043 013a 0FCE     		ldmia	r6!, {r0, r1, r2, r3}
 4044 013c 0FC5     		stmia	r5!, {r0, r1, r2, r3}
 4045 013e 0FCE     		ldmia	r6!, {r0, r1, r2, r3}
 4046 0140 0FC5     		stmia	r5!, {r0, r1, r2, r3}
 4047 0142 96E80700 		ldm	r6, {r0, r1, r2}
 4048 0146 85E80700 		stm	r5, {r0, r1, r2}
 4049 014a 52AB     		add	r3, sp, #328
 4050 014c 0FCB     		ldm	r3, {r0, r1, r2, r3}
 4051 014e FFF7FEFF 		bl	firstInCommandBuffer_Gcode
 4052              	.LVL632:
 333:Src/Gcode/Buffer_Gcode.c ****     command_Gcode command5 = {MOVE_COMMAND,      x, 0, 0, 0,    v, 0, 0, 0,    a, 0, 0, 0,   0, 0};
 4053              		.loc 1 333 5 view .LVU879
 333:Src/Gcode/Buffer_Gcode.c ****     command_Gcode command5 = {MOVE_COMMAND,      x, 0, 0, 0,    v, 0, 0, 0,    a, 0, 0, 0,   0, 0};
 4054              		.loc 1 333 7 is_stmt 0 view .LVU880
 4055 0152 A7F5A657 		sub	r7, r7, #5312
 4056              	.LVL633:
 333:Src/Gcode/Buffer_Gcode.c ****     command_Gcode command5 = {MOVE_COMMAND,      x, 0, 0, 0,    v, 0, 0, 0,    a, 0, 0, 0,   0, 0};
 4057              		.loc 1 333 7 view .LVU881
 4058 0156 163F     		subs	r7, r7, #22
 4059              	.LVL634:
 333:Src/Gcode/Buffer_Gcode.c ****     command_Gcode command5 = {MOVE_COMMAND,      x, 0, 0, 0,    v, 0, 0, 0,    a, 0, 0, 0,   0, 0};
 4060              		.loc 1 333 33 is_stmt 1 view .LVU882
 333:Src/Gcode/Buffer_Gcode.c ****     command_Gcode command5 = {MOVE_COMMAND,      x, 0, 0, 0,    v, 0, 0, 0,    a, 0, 0, 0,   0, 0};
 4061              		.loc 1 333 85 view .LVU883
 334:Src/Gcode/Buffer_Gcode.c ****     x = L_HOME_XY;              v = HOME_COARSE_SPEED_XY_STEPS_PER_SECOND;          a = -ACCELERATI
 4062              		.loc 1 334 5 view .LVU884
 334:Src/Gcode/Buffer_Gcode.c ****     x = L_HOME_XY;              v = HOME_COARSE_SPEED_XY_STEPS_PER_SECOND;          a = -ACCELERATI
 4063              		.loc 1 334 19 is_stmt 0 view .LVU885
 4064 0158 43AD     		add	r5, sp, #268
 4065 015a 85F80090 		strb	r9, [r5]
 4066 015e 6F60     		str	r7, [r5, #4]
 4067 0160 C5F80880 		str	r8, [r5, #8]
 4068 0164 C5F80C80 		str	r8, [r5, #12]
 4069 0168 C5F81080 		str	r8, [r5, #16]
 4070 016c 564F     		ldr	r7, .L147+4
 4071              	.LVL635:
 334:Src/Gcode/Buffer_Gcode.c ****     x = L_HOME_XY;              v = HOME_COARSE_SPEED_XY_STEPS_PER_SECOND;          a = -ACCELERATI
 4072              		.loc 1 334 19 view .LVU886
 4073 016e 6F61     		str	r7, [r5, #20]	@ float
ARM GAS  /tmp/ccMe0kQ8.s 			page 96


 4074 0170 AC61     		str	r4, [r5, #24]	@ float
 4075 0172 EC61     		str	r4, [r5, #28]	@ float
 4076 0174 2C62     		str	r4, [r5, #32]	@ float
 4077 0176 6C62     		str	r4, [r5, #36]	@ float
 4078 0178 AC62     		str	r4, [r5, #40]	@ float
 4079 017a EC62     		str	r4, [r5, #44]	@ float
 4080 017c 2C63     		str	r4, [r5, #48]	@ float
 4081 017e 6C63     		str	r4, [r5, #52]	@ float
 4082 0180 AC63     		str	r4, [r5, #56]	@ float
 334:Src/Gcode/Buffer_Gcode.c ****     x = L_HOME_XY;              v = HOME_COARSE_SPEED_XY_STEPS_PER_SECOND;          a = -ACCELERATI
 4083              		.loc 1 334 105 is_stmt 1 view .LVU887
 4084 0182 6E46     		mov	r6, sp
 4085 0184 0DF58E7C 		add	ip, sp, #284
 4086 0188 BCE80F00 		ldmia	ip!, {r0, r1, r2, r3}
 4087 018c 0FC6     		stmia	r6!, {r0, r1, r2, r3}
 4088 018e BCE80F00 		ldmia	ip!, {r0, r1, r2, r3}
 4089 0192 0FC6     		stmia	r6!, {r0, r1, r2, r3}
 4090 0194 9CE80700 		ldm	ip, {r0, r1, r2}
 4091 0198 86E80700 		stm	r6, {r0, r1, r2}
 4092 019c 95E80F00 		ldm	r5, {r0, r1, r2, r3}
 4093 01a0 FFF7FEFF 		bl	firstInCommandBuffer_Gcode
 4094              	.LVL636:
 335:Src/Gcode/Buffer_Gcode.c ****     command_Gcode command6 = {MOVE_COMMAND,      x, 0, 0, 0,    v, 0, 0, 0,    a, 0, 0, 0,   0, 0};
 4095              		.loc 1 335 5 view .LVU888
 335:Src/Gcode/Buffer_Gcode.c ****     command_Gcode command6 = {MOVE_COMMAND,      x, 0, 0, 0,    v, 0, 0, 0,    a, 0, 0, 0,   0, 0};
 4096              		.loc 1 335 33 view .LVU889
 335:Src/Gcode/Buffer_Gcode.c ****     command_Gcode command6 = {MOVE_COMMAND,      x, 0, 0, 0,    v, 0, 0, 0,    a, 0, 0, 0,   0, 0};
 4097              		.loc 1 335 85 view .LVU890
 336:Src/Gcode/Buffer_Gcode.c **** }
 4098              		.loc 1 336 5 view .LVU891
 336:Src/Gcode/Buffer_Gcode.c **** }
 4099              		.loc 1 336 19 is_stmt 0 view .LVU892
 4100 01a4 34AD     		add	r5, sp, #208
 4101 01a6 85F80090 		strb	r9, [r5]
 4102 01aa C5F804A0 		str	r10, [r5, #4]
 4103 01ae C5F80880 		str	r8, [r5, #8]
 4104 01b2 C5F80C80 		str	r8, [r5, #12]
 4105 01b6 C5F81080 		str	r8, [r5, #16]
 4106 01ba 6F61     		str	r7, [r5, #20]	@ float
 4107 01bc AC61     		str	r4, [r5, #24]	@ float
 4108 01be EC61     		str	r4, [r5, #28]	@ float
 4109 01c0 2C62     		str	r4, [r5, #32]	@ float
 4110 01c2 444B     		ldr	r3, .L147+16
 4111 01c4 6B62     		str	r3, [r5, #36]	@ float
 4112 01c6 AC62     		str	r4, [r5, #40]	@ float
 4113 01c8 EC62     		str	r4, [r5, #44]	@ float
 4114 01ca 2C63     		str	r4, [r5, #48]	@ float
 4115 01cc 6C63     		str	r4, [r5, #52]	@ float
 4116 01ce AC63     		str	r4, [r5, #56]	@ float
 336:Src/Gcode/Buffer_Gcode.c **** }
 4117              		.loc 1 336 105 is_stmt 1 view .LVU893
 4118 01d0 6C46     		mov	r4, sp
 4119 01d2 38AE     		add	r6, sp, #224
 4120 01d4 0FCE     		ldmia	r6!, {r0, r1, r2, r3}
 4121 01d6 0FC4     		stmia	r4!, {r0, r1, r2, r3}
 4122 01d8 0FCE     		ldmia	r6!, {r0, r1, r2, r3}
 4123 01da 0FC4     		stmia	r4!, {r0, r1, r2, r3}
ARM GAS  /tmp/ccMe0kQ8.s 			page 97


 4124 01dc 96E80700 		ldm	r6, {r0, r1, r2}
 4125 01e0 84E80700 		stm	r4, {r0, r1, r2}
 4126 01e4 95E80F00 		ldm	r5, {r0, r1, r2, r3}
 4127 01e8 FFF7FEFF 		bl	firstInCommandBuffer_Gcode
 4128              	.LVL637:
 4129              	.L141:
 337:Src/Gcode/Buffer_Gcode.c **** 
 4130              		.loc 1 337 1 is_stmt 0 view .LVU894
 4131 01ec 0DF50F7D 		add	sp, sp, #572
 4132              	.LCFI44:
 4133              		.cfi_remember_state
 4134              		.cfi_def_cfa_offset 36
 4135              		@ sp needed
 4136 01f0 BDE8F08F 		pop	{r4, r5, r6, r7, r8, r9, r10, fp, pc}
 4137              	.LVL638:
 4138              	.L146:
 4139              	.LCFI45:
 4140              		.cfi_restore_state
 4141              	.LBB6:
 322:Src/Gcode/Buffer_Gcode.c ****         float vStar = sqrtf(2*ACCELERATION_XY_STEPS_PER_SS*xStar);
 4142              		.loc 1 322 9 is_stmt 1 view .LVU895
 322:Src/Gcode/Buffer_Gcode.c ****         float vStar = sqrtf(2*ACCELERATION_XY_STEPS_PER_SS*xStar);
 4143              		.loc 1 322 36 is_stmt 0 view .LVU896
 4144 01f4 3846     		mov	r0, r7
 4145 01f6 FFF7FEFF 		bl	__aeabi_i2f
 4146              	.LVL639:
 322:Src/Gcode/Buffer_Gcode.c ****         float vStar = sqrtf(2*ACCELERATION_XY_STEPS_PER_SS*xStar);
 4147              		.loc 1 322 46 view .LVU897
 4148 01fa 4FF07C51 		mov	r1, #1056964608
 4149 01fe FFF7FEFF 		bl	__aeabi_fmul
 4150              	.LVL640:
 322:Src/Gcode/Buffer_Gcode.c ****         float vStar = sqrtf(2*ACCELERATION_XY_STEPS_PER_SS*xStar);
 4151              		.loc 1 322 23 view .LVU898
 4152 0202 4FF07A51 		mov	r1, #1048576000
 4153 0206 FFF7FEFF 		bl	__aeabi_fadd
 4154              	.LVL641:
 4155 020a FFF7FEFF 		bl	lroundf
 4156              	.LVL642:
 4157 020e 8346     		mov	fp, r0
 4158              	.LVL643:
 323:Src/Gcode/Buffer_Gcode.c ****         x = xStar;                  v = 0;                                              a = ACCELER
 4159              		.loc 1 323 9 is_stmt 1 view .LVU899
 323:Src/Gcode/Buffer_Gcode.c ****         x = xStar;                  v = 0;                                              a = ACCELER
 4160              		.loc 1 323 23 is_stmt 0 view .LVU900
 4161 0210 FFF7FEFF 		bl	__aeabi_i2f
 4162              	.LVL644:
 323:Src/Gcode/Buffer_Gcode.c ****         x = xStar;                  v = 0;                                              a = ACCELER
 4163              		.loc 1 323 23 view .LVU901
 4164 0214 2C49     		ldr	r1, .L147+4
 4165 0216 FFF7FEFF 		bl	__aeabi_fmul
 4166              	.LVL645:
 4167 021a FFF7FEFF 		bl	sqrtf
 4168              	.LVL646:
 4169 021e 8146     		mov	r9, r0
 4170              	.LVL647:
 324:Src/Gcode/Buffer_Gcode.c ****         command_Gcode command4 = {MOVE_COMMAND,      x, 0, 0, 0,    v, 0, 0, 0,    a, 0, 0, 0,   0,
 4171              		.loc 1 324 9 is_stmt 1 view .LVU902
ARM GAS  /tmp/ccMe0kQ8.s 			page 98


 324:Src/Gcode/Buffer_Gcode.c ****         command_Gcode command4 = {MOVE_COMMAND,      x, 0, 0, 0,    v, 0, 0, 0,    a, 0, 0, 0,   0,
 4172              		.loc 1 324 37 view .LVU903
 324:Src/Gcode/Buffer_Gcode.c ****         command_Gcode command4 = {MOVE_COMMAND,      x, 0, 0, 0,    v, 0, 0, 0,    a, 0, 0, 0,   0,
 4173              		.loc 1 324 89 view .LVU904
 325:Src/Gcode/Buffer_Gcode.c ****         x = dXn-xStar;              v = vStar;                                          a = -ACCELE
 4174              		.loc 1 325 9 view .LVU905
 325:Src/Gcode/Buffer_Gcode.c ****         x = dXn-xStar;              v = vStar;                                          a = -ACCELE
 4175              		.loc 1 325 23 is_stmt 0 view .LVU906
 4176 0220 16AC     		add	r4, sp, #88
 4177 0222 4FF0010A 		mov	r10, #1
 4178 0226 84F800A0 		strb	r10, [r4]
 4179 022a C4F804B0 		str	fp, [r4, #4]
 4180 022e C4F80880 		str	r8, [r4, #8]
 4181 0232 C4F80C80 		str	r8, [r4, #12]
 4182 0236 C4F81080 		str	r8, [r4, #16]
 4183 023a 0025     		movs	r5, #0
 4184 023c 6561     		str	r5, [r4, #20]	@ float
 4185 023e A561     		str	r5, [r4, #24]	@ float
 4186 0240 E561     		str	r5, [r4, #28]	@ float
 4187 0242 2562     		str	r5, [r4, #32]	@ float
 4188 0244 224B     		ldr	r3, .L147+12
 4189 0246 6362     		str	r3, [r4, #36]	@ float
 4190 0248 A562     		str	r5, [r4, #40]	@ float
 4191 024a E562     		str	r5, [r4, #44]	@ float
 4192 024c 2563     		str	r5, [r4, #48]	@ float
 4193 024e 6563     		str	r5, [r4, #52]	@ float
 4194 0250 A563     		str	r5, [r4, #56]	@ float
 325:Src/Gcode/Buffer_Gcode.c ****         x = dXn-xStar;              v = vStar;                                          a = -ACCELE
 4195              		.loc 1 325 109 is_stmt 1 view .LVU907
 4196 0252 6E46     		mov	r6, sp
 4197 0254 0DF1680C 		add	ip, sp, #104
 4198 0258 BCE80F00 		ldmia	ip!, {r0, r1, r2, r3}
 4199              	.LVL648:
 325:Src/Gcode/Buffer_Gcode.c ****         x = dXn-xStar;              v = vStar;                                          a = -ACCELE
 4200              		.loc 1 325 109 is_stmt 0 view .LVU908
 4201 025c 0FC6     		stmia	r6!, {r0, r1, r2, r3}
 4202 025e BCE80F00 		ldmia	ip!, {r0, r1, r2, r3}
 4203 0262 0FC6     		stmia	r6!, {r0, r1, r2, r3}
 4204 0264 9CE80700 		ldm	ip, {r0, r1, r2}
 4205 0268 86E80700 		stm	r6, {r0, r1, r2}
 4206 026c 94E80F00 		ldm	r4, {r0, r1, r2, r3}
 4207 0270 FFF7FEFF 		bl	firstInCommandBuffer_Gcode
 4208              	.LVL649:
 326:Src/Gcode/Buffer_Gcode.c ****         command_Gcode command5 = {MOVE_COMMAND,      x, 0, 0, 0,    v, 0, 0, 0,    a, 0, 0, 0,   0,
 4209              		.loc 1 326 9 is_stmt 1 view .LVU909
 326:Src/Gcode/Buffer_Gcode.c ****         command_Gcode command5 = {MOVE_COMMAND,      x, 0, 0, 0,    v, 0, 0, 0,    a, 0, 0, 0,   0,
 4210              		.loc 1 326 11 is_stmt 0 view .LVU910
 4211 0274 A7EB0B07 		sub	r7, r7, fp
 4212              	.LVL650:
 326:Src/Gcode/Buffer_Gcode.c ****         command_Gcode command5 = {MOVE_COMMAND,      x, 0, 0, 0,    v, 0, 0, 0,    a, 0, 0, 0,   0,
 4213              		.loc 1 326 37 is_stmt 1 view .LVU911
 326:Src/Gcode/Buffer_Gcode.c ****         command_Gcode command5 = {MOVE_COMMAND,      x, 0, 0, 0,    v, 0, 0, 0,    a, 0, 0, 0,   0,
 4214              		.loc 1 326 89 view .LVU912
 327:Src/Gcode/Buffer_Gcode.c ****         return;
 4215              		.loc 1 327 9 view .LVU913
 327:Src/Gcode/Buffer_Gcode.c ****         return;
 4216              		.loc 1 327 23 is_stmt 0 view .LVU914
ARM GAS  /tmp/ccMe0kQ8.s 			page 99


 4217 0278 25AC     		add	r4, sp, #148
 4218 027a 84F800A0 		strb	r10, [r4]
 4219 027e 6760     		str	r7, [r4, #4]
 4220 0280 C4F80880 		str	r8, [r4, #8]
 4221 0284 C4F80C80 		str	r8, [r4, #12]
 4222 0288 C4F81080 		str	r8, [r4, #16]
 4223 028c C4F81490 		str	r9, [r4, #20]	@ float
 4224 0290 A561     		str	r5, [r4, #24]	@ float
 4225 0292 E561     		str	r5, [r4, #28]	@ float
 4226 0294 2562     		str	r5, [r4, #32]	@ float
 4227 0296 0F4B     		ldr	r3, .L147+16
 4228 0298 6362     		str	r3, [r4, #36]	@ float
 4229 029a A562     		str	r5, [r4, #40]	@ float
 4230 029c E562     		str	r5, [r4, #44]	@ float
 4231 029e 2563     		str	r5, [r4, #48]	@ float
 4232 02a0 6563     		str	r5, [r4, #52]	@ float
 4233 02a2 A563     		str	r5, [r4, #56]	@ float
 327:Src/Gcode/Buffer_Gcode.c ****         return;
 4234              		.loc 1 327 109 is_stmt 1 view .LVU915
 4235 02a4 6D46     		mov	r5, sp
 4236 02a6 29AE     		add	r6, sp, #164
 4237 02a8 0FCE     		ldmia	r6!, {r0, r1, r2, r3}
 4238 02aa 0FC5     		stmia	r5!, {r0, r1, r2, r3}
 4239 02ac 0FCE     		ldmia	r6!, {r0, r1, r2, r3}
 4240 02ae 0FC5     		stmia	r5!, {r0, r1, r2, r3}
 4241 02b0 96E80700 		ldm	r6, {r0, r1, r2}
 4242 02b4 85E80700 		stm	r5, {r0, r1, r2}
 4243 02b8 94E80F00 		ldm	r4, {r0, r1, r2, r3}
 4244 02bc FFF7FEFF 		bl	firstInCommandBuffer_Gcode
 4245              	.LVL651:
 328:Src/Gcode/Buffer_Gcode.c ****     }
 4246              		.loc 1 328 9 view .LVU916
 4247 02c0 94E7     		b	.L141
 4248              	.L148:
 4249 02c2 00BF     		.align	2
 4250              	.L147:
 4251 02c4 ABAA26C5 		.word	-987321685
 4252 02c8 ABAA2645 		.word	1160161963
 4253 02cc ABAA26C4 		.word	-1004098901
 4254 02d0 ABAAA644 		.word	1151773355
 4255 02d4 ABAAA6C4 		.word	-995710293
 4256              	.LBE6:
 4257              		.cfi_endproc
 4258              	.LFE21:
 4260              		.section	.text.HomeY_Analyser,"ax",%progbits
 4261              		.align	1
 4262              		.syntax unified
 4263              		.thumb
 4264              		.thumb_func
 4265              		.fpu softvfp
 4267              	HomeY_Analyser:
 4268              	.LFB22:
 340:Src/Gcode/Buffer_Gcode.c ****     long dYn = getDescreteCommandBufferElement_Gcode(2).Yn;
 4269              		.loc 1 340 1 view -0
 4270              		.cfi_startproc
 4271              		@ args = 0, pretend = 0, frame = 520
 4272              		@ frame_needed = 0, uses_anonymous_args = 0
ARM GAS  /tmp/ccMe0kQ8.s 			page 100


 4273 0000 2DE9F04F 		push	{r4, r5, r6, r7, r8, r9, r10, fp, lr}
 4274              	.LCFI46:
 4275              		.cfi_def_cfa_offset 36
 4276              		.cfi_offset 4, -36
 4277              		.cfi_offset 5, -32
 4278              		.cfi_offset 6, -28
 4279              		.cfi_offset 7, -24
 4280              		.cfi_offset 8, -20
 4281              		.cfi_offset 9, -16
 4282              		.cfi_offset 10, -12
 4283              		.cfi_offset 11, -8
 4284              		.cfi_offset 14, -4
 4285 0004 ADF50F7D 		sub	sp, sp, #572
 4286              	.LCFI47:
 4287              		.cfi_def_cfa_offset 608
 341:Src/Gcode/Buffer_Gcode.c ****     long y; float v; float a;
 4288              		.loc 1 341 5 view .LVU918
 341:Src/Gcode/Buffer_Gcode.c ****     long y; float v; float a;
 4289              		.loc 1 341 16 is_stmt 0 view .LVU919
 4290 0008 0221     		movs	r1, #2
 4291 000a 0CA8     		add	r0, sp, #48
 4292 000c FFF7FEFF 		bl	getDescreteCommandBufferElement_Gcode
 4293              	.LVL652:
 341:Src/Gcode/Buffer_Gcode.c ****     long y; float v; float a;
 4294              		.loc 1 341 10 view .LVU920
 4295 0010 0E9F     		ldr	r7, [sp, #56]
 4296              	.LVL653:
 342:Src/Gcode/Buffer_Gcode.c **** 
 4297              		.loc 1 342 5 is_stmt 1 view .LVU921
 342:Src/Gcode/Buffer_Gcode.c **** 
 4298              		.loc 1 342 13 view .LVU922
 342:Src/Gcode/Buffer_Gcode.c **** 
 4299              		.loc 1 342 22 view .LVU923
 344:Src/Gcode/Buffer_Gcode.c **** 
 4300              		.loc 1 344 5 view .LVU924
 346:Src/Gcode/Buffer_Gcode.c ****     command_Gcode command1 = {GO_HOME_Y_COMMAND, 0, y, 0, 0,    0, v, 0, 0,    0, a, 0, 0,   0, 0};
 4301              		.loc 1 346 5 view .LVU925
 346:Src/Gcode/Buffer_Gcode.c ****     command_Gcode command1 = {GO_HOME_Y_COMMAND, 0, y, 0, 0,    0, v, 0, 0,    0, a, 0, 0,   0, 0};
 4302              		.loc 1 346 37 view .LVU926
 346:Src/Gcode/Buffer_Gcode.c ****     command_Gcode command1 = {GO_HOME_Y_COMMAND, 0, y, 0, 0,    0, v, 0, 0,    0, a, 0, 0,   0, 0};
 4303              		.loc 1 346 89 view .LVU927
 347:Src/Gcode/Buffer_Gcode.c ****     y = HOME_FINE_STEPS_XY;         v = HOME_COARSE_SPEED_XY_STEPS_PER_SECOND;          a = 0;
 4304              		.loc 1 347 5 view .LVU928
 347:Src/Gcode/Buffer_Gcode.c ****     y = HOME_FINE_STEPS_XY;         v = HOME_COARSE_SPEED_XY_STEPS_PER_SECOND;          a = 0;
 4305              		.loc 1 347 19 is_stmt 0 view .LVU929
 4306 0012 4FF00409 		mov	r9, #4
 4307 0016 8DF8FC91 		strb	r9, [sp, #508]
 4308 001a 4FF00008 		mov	r8, #0
 4309 001e CDF80082 		str	r8, [sp, #512]
 4310 0022 CDF80482 		str	r8, [sp, #516]
 4311 0026 CDF80882 		str	r8, [sp, #520]
 4312 002a CDF80C82 		str	r8, [sp, #524]
 4313 002e 0024     		movs	r4, #0
 4314 0030 8494     		str	r4, [sp, #528]	@ float
 4315 0032 A44B     		ldr	r3, .L155
 4316 0034 8593     		str	r3, [sp, #532]	@ float
 4317 0036 8694     		str	r4, [sp, #536]	@ float
ARM GAS  /tmp/ccMe0kQ8.s 			page 101


 4318 0038 8794     		str	r4, [sp, #540]	@ float
 4319 003a 8894     		str	r4, [sp, #544]	@ float
 4320 003c 8994     		str	r4, [sp, #548]	@ float
 4321 003e 8A94     		str	r4, [sp, #552]	@ float
 4322 0040 8B94     		str	r4, [sp, #556]	@ float
 4323 0042 8C94     		str	r4, [sp, #560]	@ float
 4324 0044 8D94     		str	r4, [sp, #564]	@ float
 347:Src/Gcode/Buffer_Gcode.c ****     y = HOME_FINE_STEPS_XY;         v = HOME_COARSE_SPEED_XY_STEPS_PER_SECOND;          a = 0;
 4325              		.loc 1 347 105 is_stmt 1 view .LVU930
 4326 0046 6D46     		mov	r5, sp
 4327 0048 83AE     		add	r6, sp, #524
 4328 004a 0FCE     		ldmia	r6!, {r0, r1, r2, r3}
 4329 004c 0FC5     		stmia	r5!, {r0, r1, r2, r3}
 4330 004e 0FCE     		ldmia	r6!, {r0, r1, r2, r3}
 4331 0050 0FC5     		stmia	r5!, {r0, r1, r2, r3}
 4332 0052 96E80700 		ldm	r6, {r0, r1, r2}
 4333 0056 85E80700 		stm	r5, {r0, r1, r2}
 4334 005a 7FAB     		add	r3, sp, #508
 4335 005c 0FCB     		ldm	r3, {r0, r1, r2, r3}
 4336 005e FFF7FEFF 		bl	firstInCommandBuffer_Gcode
 4337              	.LVL654:
 348:Src/Gcode/Buffer_Gcode.c ****     command_Gcode command2 = {MOVE_COMMAND,      0, y, 0, 0,    0, v, 0, 0,    0, a, 0, 0,   0, 0};
 4338              		.loc 1 348 5 view .LVU931
 348:Src/Gcode/Buffer_Gcode.c ****     command_Gcode command2 = {MOVE_COMMAND,      0, y, 0, 0,    0, v, 0, 0,    0, a, 0, 0,   0, 0};
 4339              		.loc 1 348 37 view .LVU932
 348:Src/Gcode/Buffer_Gcode.c ****     command_Gcode command2 = {MOVE_COMMAND,      0, y, 0, 0,    0, v, 0, 0,    0, a, 0, 0,   0, 0};
 4340              		.loc 1 348 89 view .LVU933
 349:Src/Gcode/Buffer_Gcode.c ****     y = 0;                          v = -HOME_FINE_SPEED_XY_STEPS_PER_SECOND;           a = 0;
 4341              		.loc 1 349 5 view .LVU934
 349:Src/Gcode/Buffer_Gcode.c ****     y = 0;                          v = -HOME_FINE_SPEED_XY_STEPS_PER_SECOND;           a = 0;
 4342              		.loc 1 349 19 is_stmt 0 view .LVU935
 4343 0062 0123     		movs	r3, #1
 4344 0064 8DF8C031 		strb	r3, [sp, #448]
 4345 0068 CDF8C481 		str	r8, [sp, #452]
 4346 006c 4FF4C873 		mov	r3, #400
 4347 0070 7293     		str	r3, [sp, #456]
 4348 0072 CDF8CC81 		str	r8, [sp, #460]
 4349 0076 CDF8D081 		str	r8, [sp, #464]
 4350 007a 7594     		str	r4, [sp, #468]	@ float
 4351 007c 924B     		ldr	r3, .L155+4
 4352 007e 7693     		str	r3, [sp, #472]	@ float
 4353 0080 7794     		str	r4, [sp, #476]	@ float
 4354 0082 7894     		str	r4, [sp, #480]	@ float
 4355 0084 7994     		str	r4, [sp, #484]	@ float
 4356 0086 7A94     		str	r4, [sp, #488]	@ float
 4357 0088 7B94     		str	r4, [sp, #492]	@ float
 4358 008a 7C94     		str	r4, [sp, #496]	@ float
 4359 008c 7D94     		str	r4, [sp, #500]	@ float
 4360 008e 7E94     		str	r4, [sp, #504]	@ float
 349:Src/Gcode/Buffer_Gcode.c ****     y = 0;                          v = -HOME_FINE_SPEED_XY_STEPS_PER_SECOND;           a = 0;
 4361              		.loc 1 349 105 is_stmt 1 view .LVU936
 4362 0090 6D46     		mov	r5, sp
 4363 0092 74AE     		add	r6, sp, #464
 4364 0094 0FCE     		ldmia	r6!, {r0, r1, r2, r3}
 4365 0096 0FC5     		stmia	r5!, {r0, r1, r2, r3}
 4366 0098 0FCE     		ldmia	r6!, {r0, r1, r2, r3}
 4367 009a 0FC5     		stmia	r5!, {r0, r1, r2, r3}
ARM GAS  /tmp/ccMe0kQ8.s 			page 102


 4368 009c 96E80700 		ldm	r6, {r0, r1, r2}
 4369 00a0 85E80700 		stm	r5, {r0, r1, r2}
 4370 00a4 70AB     		add	r3, sp, #448
 4371 00a6 0FCB     		ldm	r3, {r0, r1, r2, r3}
 4372 00a8 FFF7FEFF 		bl	firstInCommandBuffer_Gcode
 4373              	.LVL655:
 350:Src/Gcode/Buffer_Gcode.c ****     command_Gcode command3 = {GO_HOME_Y_COMMAND, 0, y, 0, 0,    0, v, 0, 0,    0, a, 0, 0,   0, 0};
 4374              		.loc 1 350 5 view .LVU937
 350:Src/Gcode/Buffer_Gcode.c ****     command_Gcode command3 = {GO_HOME_Y_COMMAND, 0, y, 0, 0,    0, v, 0, 0,    0, a, 0, 0,   0, 0};
 4375              		.loc 1 350 37 view .LVU938
 350:Src/Gcode/Buffer_Gcode.c ****     command_Gcode command3 = {GO_HOME_Y_COMMAND, 0, y, 0, 0,    0, v, 0, 0,    0, a, 0, 0,   0, 0};
 4376              		.loc 1 350 89 view .LVU939
 351:Src/Gcode/Buffer_Gcode.c ****     if (dYn <= 0)
 4377              		.loc 1 351 5 view .LVU940
 351:Src/Gcode/Buffer_Gcode.c ****     if (dYn <= 0)
 4378              		.loc 1 351 19 is_stmt 0 view .LVU941
 4379 00ac 8DF88491 		strb	r9, [sp, #388]
 4380 00b0 CDF88881 		str	r8, [sp, #392]
 4381 00b4 CDF88C81 		str	r8, [sp, #396]
 4382 00b8 CDF89081 		str	r8, [sp, #400]
 4383 00bc CDF89481 		str	r8, [sp, #404]
 4384 00c0 6694     		str	r4, [sp, #408]	@ float
 4385 00c2 824B     		ldr	r3, .L155+8
 4386 00c4 6793     		str	r3, [sp, #412]	@ float
 4387 00c6 6894     		str	r4, [sp, #416]	@ float
 4388 00c8 6994     		str	r4, [sp, #420]	@ float
 4389 00ca 6A94     		str	r4, [sp, #424]	@ float
 4390 00cc 6B94     		str	r4, [sp, #428]	@ float
 4391 00ce 6C94     		str	r4, [sp, #432]	@ float
 4392 00d0 6D94     		str	r4, [sp, #436]	@ float
 4393 00d2 6E94     		str	r4, [sp, #440]	@ float
 4394 00d4 6F94     		str	r4, [sp, #444]	@ float
 351:Src/Gcode/Buffer_Gcode.c ****     if (dYn <= 0)
 4395              		.loc 1 351 105 is_stmt 1 view .LVU942
 4396 00d6 6C46     		mov	r4, sp
 4397 00d8 65AD     		add	r5, sp, #404
 4398 00da 0FCD     		ldmia	r5!, {r0, r1, r2, r3}
 4399 00dc 0FC4     		stmia	r4!, {r0, r1, r2, r3}
 4400 00de 0FCD     		ldmia	r5!, {r0, r1, r2, r3}
 4401 00e0 0FC4     		stmia	r4!, {r0, r1, r2, r3}
 4402 00e2 95E80700 		ldm	r5, {r0, r1, r2}
 4403 00e6 84E80700 		stm	r4, {r0, r1, r2}
 4404 00ea 61AB     		add	r3, sp, #388
 4405 00ec 0FCB     		ldm	r3, {r0, r1, r2, r3}
 4406 00ee FFF7FEFF 		bl	firstInCommandBuffer_Gcode
 4407              	.LVL656:
 352:Src/Gcode/Buffer_Gcode.c ****         return;
 4408              		.loc 1 352 5 view .LVU943
 352:Src/Gcode/Buffer_Gcode.c ****         return;
 4409              		.loc 1 352 8 is_stmt 0 view .LVU944
 4410 00f2 4745     		cmp	r7, r8
 4411 00f4 7ADD     		ble	.L149
 355:Src/Gcode/Buffer_Gcode.c ****     {
 4412              		.loc 1 355 5 is_stmt 1 view .LVU945
 355:Src/Gcode/Buffer_Gcode.c ****     {
 4413              		.loc 1 355 8 is_stmt 0 view .LVU946
 4414 00f6 41F2D543 		movw	r3, #5333
ARM GAS  /tmp/ccMe0kQ8.s 			page 103


 4415 00fa 9F42     		cmp	r7, r3
 4416 00fc 7ADD     		ble	.L154
 366:Src/Gcode/Buffer_Gcode.c ****     command_Gcode command4 = {MOVE_COMMAND,      0, y, 0, 0,    0, v, 0, 0,    0, a, 0, 0,   0, 0};
 4417              		.loc 1 366 5 is_stmt 1 view .LVU947
 4418              	.LVL657:
 366:Src/Gcode/Buffer_Gcode.c ****     command_Gcode command4 = {MOVE_COMMAND,      0, y, 0, 0,    0, v, 0, 0,    0, a, 0, 0,   0, 0};
 4419              		.loc 1 366 33 view .LVU948
 366:Src/Gcode/Buffer_Gcode.c ****     command_Gcode command4 = {MOVE_COMMAND,      0, y, 0, 0,    0, v, 0, 0,    0, a, 0, 0,   0, 0};
 4420              		.loc 1 366 85 view .LVU949
 367:Src/Gcode/Buffer_Gcode.c ****     y = dYn-2*L_HOME_XY;        v = HOME_COARSE_SPEED_XY_STEPS_PER_SECOND;          a = 0;
 4421              		.loc 1 367 5 view .LVU950
 367:Src/Gcode/Buffer_Gcode.c ****     y = dYn-2*L_HOME_XY;        v = HOME_COARSE_SPEED_XY_STEPS_PER_SECOND;          a = 0;
 4422              		.loc 1 367 19 is_stmt 0 view .LVU951
 4423 00fe 4FF00109 		mov	r9, #1
 4424 0102 8DF84891 		strb	r9, [sp, #328]
 4425 0106 4FF00008 		mov	r8, #0
 4426 010a CDF84C81 		str	r8, [sp, #332]
 4427 010e 40F66B2A 		movw	r10, #2667
 4428 0112 CDF850A1 		str	r10, [sp, #336]
 4429 0116 CDF85481 		str	r8, [sp, #340]
 4430 011a CDF85881 		str	r8, [sp, #344]
 4431 011e 0024     		movs	r4, #0
 4432 0120 5794     		str	r4, [sp, #348]	@ float
 4433 0122 5894     		str	r4, [sp, #352]	@ float
 4434 0124 5994     		str	r4, [sp, #356]	@ float
 4435 0126 5A94     		str	r4, [sp, #360]	@ float
 4436 0128 5B94     		str	r4, [sp, #364]	@ float
 4437 012a 694B     		ldr	r3, .L155+12
 4438 012c 5C93     		str	r3, [sp, #368]	@ float
 4439 012e 5D94     		str	r4, [sp, #372]	@ float
 4440 0130 5E94     		str	r4, [sp, #376]	@ float
 4441 0132 5F94     		str	r4, [sp, #380]	@ float
 4442 0134 6094     		str	r4, [sp, #384]	@ float
 367:Src/Gcode/Buffer_Gcode.c ****     y = dYn-2*L_HOME_XY;        v = HOME_COARSE_SPEED_XY_STEPS_PER_SECOND;          a = 0;
 4443              		.loc 1 367 105 is_stmt 1 view .LVU952
 4444 0136 6D46     		mov	r5, sp
 4445 0138 56AE     		add	r6, sp, #344
 4446 013a 0FCE     		ldmia	r6!, {r0, r1, r2, r3}
 4447 013c 0FC5     		stmia	r5!, {r0, r1, r2, r3}
 4448 013e 0FCE     		ldmia	r6!, {r0, r1, r2, r3}
 4449 0140 0FC5     		stmia	r5!, {r0, r1, r2, r3}
 4450 0142 96E80700 		ldm	r6, {r0, r1, r2}
 4451 0146 85E80700 		stm	r5, {r0, r1, r2}
 4452 014a 52AB     		add	r3, sp, #328
 4453 014c 0FCB     		ldm	r3, {r0, r1, r2, r3}
 4454 014e FFF7FEFF 		bl	firstInCommandBuffer_Gcode
 4455              	.LVL658:
 368:Src/Gcode/Buffer_Gcode.c ****     command_Gcode command5 = {MOVE_COMMAND,      0, y, 0, 0,    0, v, 0, 0,    0, a, 0, 0,   0, 0};
 4456              		.loc 1 368 5 view .LVU953
 368:Src/Gcode/Buffer_Gcode.c ****     command_Gcode command5 = {MOVE_COMMAND,      0, y, 0, 0,    0, v, 0, 0,    0, a, 0, 0,   0, 0};
 4457              		.loc 1 368 7 is_stmt 0 view .LVU954
 4458 0152 A7F5A657 		sub	r7, r7, #5312
 4459              	.LVL659:
 368:Src/Gcode/Buffer_Gcode.c ****     command_Gcode command5 = {MOVE_COMMAND,      0, y, 0, 0,    0, v, 0, 0,    0, a, 0, 0,   0, 0};
 4460              		.loc 1 368 7 view .LVU955
 4461 0156 163F     		subs	r7, r7, #22
 4462              	.LVL660:
ARM GAS  /tmp/ccMe0kQ8.s 			page 104


 368:Src/Gcode/Buffer_Gcode.c ****     command_Gcode command5 = {MOVE_COMMAND,      0, y, 0, 0,    0, v, 0, 0,    0, a, 0, 0,   0, 0};
 4463              		.loc 1 368 33 is_stmt 1 view .LVU956
 368:Src/Gcode/Buffer_Gcode.c ****     command_Gcode command5 = {MOVE_COMMAND,      0, y, 0, 0,    0, v, 0, 0,    0, a, 0, 0,   0, 0};
 4464              		.loc 1 368 85 view .LVU957
 369:Src/Gcode/Buffer_Gcode.c ****     y = L_HOME_XY;              v = HOME_COARSE_SPEED_XY_STEPS_PER_SECOND;          a = -ACCELERATI
 4465              		.loc 1 369 5 view .LVU958
 369:Src/Gcode/Buffer_Gcode.c ****     y = L_HOME_XY;              v = HOME_COARSE_SPEED_XY_STEPS_PER_SECOND;          a = -ACCELERATI
 4466              		.loc 1 369 19 is_stmt 0 view .LVU959
 4467 0158 43AD     		add	r5, sp, #268
 4468 015a 85F80090 		strb	r9, [r5]
 4469 015e C5F80480 		str	r8, [r5, #4]
 4470 0162 AF60     		str	r7, [r5, #8]
 4471 0164 C5F80C80 		str	r8, [r5, #12]
 4472 0168 C5F81080 		str	r8, [r5, #16]
 4473 016c 6C61     		str	r4, [r5, #20]	@ float
 4474 016e 564F     		ldr	r7, .L155+4
 4475              	.LVL661:
 369:Src/Gcode/Buffer_Gcode.c ****     y = L_HOME_XY;              v = HOME_COARSE_SPEED_XY_STEPS_PER_SECOND;          a = -ACCELERATI
 4476              		.loc 1 369 19 view .LVU960
 4477 0170 AF61     		str	r7, [r5, #24]	@ float
 4478 0172 EC61     		str	r4, [r5, #28]	@ float
 4479 0174 2C62     		str	r4, [r5, #32]	@ float
 4480 0176 6C62     		str	r4, [r5, #36]	@ float
 4481 0178 AC62     		str	r4, [r5, #40]	@ float
 4482 017a EC62     		str	r4, [r5, #44]	@ float
 4483 017c 2C63     		str	r4, [r5, #48]	@ float
 4484 017e 6C63     		str	r4, [r5, #52]	@ float
 4485 0180 AC63     		str	r4, [r5, #56]	@ float
 369:Src/Gcode/Buffer_Gcode.c ****     y = L_HOME_XY;              v = HOME_COARSE_SPEED_XY_STEPS_PER_SECOND;          a = -ACCELERATI
 4486              		.loc 1 369 105 is_stmt 1 view .LVU961
 4487 0182 6E46     		mov	r6, sp
 4488 0184 0DF58E7C 		add	ip, sp, #284
 4489 0188 BCE80F00 		ldmia	ip!, {r0, r1, r2, r3}
 4490 018c 0FC6     		stmia	r6!, {r0, r1, r2, r3}
 4491 018e BCE80F00 		ldmia	ip!, {r0, r1, r2, r3}
 4492 0192 0FC6     		stmia	r6!, {r0, r1, r2, r3}
 4493 0194 9CE80700 		ldm	ip, {r0, r1, r2}
 4494 0198 86E80700 		stm	r6, {r0, r1, r2}
 4495 019c 95E80F00 		ldm	r5, {r0, r1, r2, r3}
 4496 01a0 FFF7FEFF 		bl	firstInCommandBuffer_Gcode
 4497              	.LVL662:
 370:Src/Gcode/Buffer_Gcode.c ****     command_Gcode command6 = {MOVE_COMMAND,      0, y, 0, 0,    0, v, 0, 0,    0, a, 0, 0,   0, 0};
 4498              		.loc 1 370 5 view .LVU962
 370:Src/Gcode/Buffer_Gcode.c ****     command_Gcode command6 = {MOVE_COMMAND,      0, y, 0, 0,    0, v, 0, 0,    0, a, 0, 0,   0, 0};
 4499              		.loc 1 370 33 view .LVU963
 370:Src/Gcode/Buffer_Gcode.c ****     command_Gcode command6 = {MOVE_COMMAND,      0, y, 0, 0,    0, v, 0, 0,    0, a, 0, 0,   0, 0};
 4500              		.loc 1 370 85 view .LVU964
 371:Src/Gcode/Buffer_Gcode.c **** }
 4501              		.loc 1 371 5 view .LVU965
 371:Src/Gcode/Buffer_Gcode.c **** }
 4502              		.loc 1 371 19 is_stmt 0 view .LVU966
 4503 01a4 34AD     		add	r5, sp, #208
 4504 01a6 85F80090 		strb	r9, [r5]
 4505 01aa C5F80480 		str	r8, [r5, #4]
 4506 01ae C5F808A0 		str	r10, [r5, #8]
 4507 01b2 C5F80C80 		str	r8, [r5, #12]
 4508 01b6 C5F81080 		str	r8, [r5, #16]
ARM GAS  /tmp/ccMe0kQ8.s 			page 105


 4509 01ba 6C61     		str	r4, [r5, #20]	@ float
 4510 01bc AF61     		str	r7, [r5, #24]	@ float
 4511 01be EC61     		str	r4, [r5, #28]	@ float
 4512 01c0 2C62     		str	r4, [r5, #32]	@ float
 4513 01c2 6C62     		str	r4, [r5, #36]	@ float
 4514 01c4 434B     		ldr	r3, .L155+16
 4515 01c6 AB62     		str	r3, [r5, #40]	@ float
 4516 01c8 EC62     		str	r4, [r5, #44]	@ float
 4517 01ca 2C63     		str	r4, [r5, #48]	@ float
 4518 01cc 6C63     		str	r4, [r5, #52]	@ float
 4519 01ce AC63     		str	r4, [r5, #56]	@ float
 371:Src/Gcode/Buffer_Gcode.c **** }
 4520              		.loc 1 371 105 is_stmt 1 view .LVU967
 4521 01d0 6C46     		mov	r4, sp
 4522 01d2 38AE     		add	r6, sp, #224
 4523 01d4 0FCE     		ldmia	r6!, {r0, r1, r2, r3}
 4524 01d6 0FC4     		stmia	r4!, {r0, r1, r2, r3}
 4525 01d8 0FCE     		ldmia	r6!, {r0, r1, r2, r3}
 4526 01da 0FC4     		stmia	r4!, {r0, r1, r2, r3}
 4527 01dc 96E80700 		ldm	r6, {r0, r1, r2}
 4528 01e0 84E80700 		stm	r4, {r0, r1, r2}
 4529 01e4 95E80F00 		ldm	r5, {r0, r1, r2, r3}
 4530 01e8 FFF7FEFF 		bl	firstInCommandBuffer_Gcode
 4531              	.LVL663:
 4532              	.L149:
 372:Src/Gcode/Buffer_Gcode.c **** 
 4533              		.loc 1 372 1 is_stmt 0 view .LVU968
 4534 01ec 0DF50F7D 		add	sp, sp, #572
 4535              	.LCFI48:
 4536              		.cfi_remember_state
 4537              		.cfi_def_cfa_offset 36
 4538              		@ sp needed
 4539 01f0 BDE8F08F 		pop	{r4, r5, r6, r7, r8, r9, r10, fp, pc}
 4540              	.LVL664:
 4541              	.L154:
 4542              	.LCFI49:
 4543              		.cfi_restore_state
 4544              	.LBB7:
 357:Src/Gcode/Buffer_Gcode.c ****         float vStar = sqrtf(2*ACCELERATION_XY_STEPS_PER_SS*yStar);
 4545              		.loc 1 357 9 is_stmt 1 view .LVU969
 357:Src/Gcode/Buffer_Gcode.c ****         float vStar = sqrtf(2*ACCELERATION_XY_STEPS_PER_SS*yStar);
 4546              		.loc 1 357 36 is_stmt 0 view .LVU970
 4547 01f4 3846     		mov	r0, r7
 4548 01f6 FFF7FEFF 		bl	__aeabi_i2f
 4549              	.LVL665:
 357:Src/Gcode/Buffer_Gcode.c ****         float vStar = sqrtf(2*ACCELERATION_XY_STEPS_PER_SS*yStar);
 4550              		.loc 1 357 46 view .LVU971
 4551 01fa 4FF07C51 		mov	r1, #1056964608
 4552 01fe FFF7FEFF 		bl	__aeabi_fmul
 4553              	.LVL666:
 357:Src/Gcode/Buffer_Gcode.c ****         float vStar = sqrtf(2*ACCELERATION_XY_STEPS_PER_SS*yStar);
 4554              		.loc 1 357 23 view .LVU972
 4555 0202 4FF07A51 		mov	r1, #1048576000
 4556 0206 FFF7FEFF 		bl	__aeabi_fadd
 4557              	.LVL667:
 4558 020a FFF7FEFF 		bl	lroundf
 4559              	.LVL668:
ARM GAS  /tmp/ccMe0kQ8.s 			page 106


 4560 020e 8346     		mov	fp, r0
 4561              	.LVL669:
 358:Src/Gcode/Buffer_Gcode.c ****         y = yStar;                  v = 0;                                              a = ACCELER
 4562              		.loc 1 358 9 is_stmt 1 view .LVU973
 358:Src/Gcode/Buffer_Gcode.c ****         y = yStar;                  v = 0;                                              a = ACCELER
 4563              		.loc 1 358 23 is_stmt 0 view .LVU974
 4564 0210 FFF7FEFF 		bl	__aeabi_i2f
 4565              	.LVL670:
 358:Src/Gcode/Buffer_Gcode.c ****         y = yStar;                  v = 0;                                              a = ACCELER
 4566              		.loc 1 358 23 view .LVU975
 4567 0214 2C49     		ldr	r1, .L155+4
 4568 0216 FFF7FEFF 		bl	__aeabi_fmul
 4569              	.LVL671:
 4570 021a FFF7FEFF 		bl	sqrtf
 4571              	.LVL672:
 4572 021e 8146     		mov	r9, r0
 4573              	.LVL673:
 359:Src/Gcode/Buffer_Gcode.c ****         command_Gcode command4 = {MOVE_COMMAND,      0, y, 0, 0,    0, v, 0, 0,    0, a, 0, 0,   0,
 4574              		.loc 1 359 9 is_stmt 1 view .LVU976
 359:Src/Gcode/Buffer_Gcode.c ****         command_Gcode command4 = {MOVE_COMMAND,      0, y, 0, 0,    0, v, 0, 0,    0, a, 0, 0,   0,
 4575              		.loc 1 359 37 view .LVU977
 359:Src/Gcode/Buffer_Gcode.c ****         command_Gcode command4 = {MOVE_COMMAND,      0, y, 0, 0,    0, v, 0, 0,    0, a, 0, 0,   0,
 4576              		.loc 1 359 89 view .LVU978
 360:Src/Gcode/Buffer_Gcode.c ****         y = dYn-yStar;              v = vStar;                                          a = -ACCELE
 4577              		.loc 1 360 9 view .LVU979
 360:Src/Gcode/Buffer_Gcode.c ****         y = dYn-yStar;              v = vStar;                                          a = -ACCELE
 4578              		.loc 1 360 23 is_stmt 0 view .LVU980
 4579 0220 16AC     		add	r4, sp, #88
 4580 0222 4FF0010A 		mov	r10, #1
 4581 0226 84F800A0 		strb	r10, [r4]
 4582 022a C4F80480 		str	r8, [r4, #4]
 4583 022e C4F808B0 		str	fp, [r4, #8]
 4584 0232 C4F80C80 		str	r8, [r4, #12]
 4585 0236 C4F81080 		str	r8, [r4, #16]
 4586 023a 0025     		movs	r5, #0
 4587 023c 6561     		str	r5, [r4, #20]	@ float
 4588 023e A561     		str	r5, [r4, #24]	@ float
 4589 0240 E561     		str	r5, [r4, #28]	@ float
 4590 0242 2562     		str	r5, [r4, #32]	@ float
 4591 0244 6562     		str	r5, [r4, #36]	@ float
 4592 0246 224B     		ldr	r3, .L155+12
 4593 0248 A362     		str	r3, [r4, #40]	@ float
 4594 024a E562     		str	r5, [r4, #44]	@ float
 4595 024c 2563     		str	r5, [r4, #48]	@ float
 4596 024e 6563     		str	r5, [r4, #52]	@ float
 4597 0250 A563     		str	r5, [r4, #56]	@ float
 360:Src/Gcode/Buffer_Gcode.c ****         y = dYn-yStar;              v = vStar;                                          a = -ACCELE
 4598              		.loc 1 360 109 is_stmt 1 view .LVU981
 4599 0252 6E46     		mov	r6, sp
 4600 0254 0DF1680C 		add	ip, sp, #104
 4601 0258 BCE80F00 		ldmia	ip!, {r0, r1, r2, r3}
 4602              	.LVL674:
 360:Src/Gcode/Buffer_Gcode.c ****         y = dYn-yStar;              v = vStar;                                          a = -ACCELE
 4603              		.loc 1 360 109 is_stmt 0 view .LVU982
 4604 025c 0FC6     		stmia	r6!, {r0, r1, r2, r3}
 4605 025e BCE80F00 		ldmia	ip!, {r0, r1, r2, r3}
 4606 0262 0FC6     		stmia	r6!, {r0, r1, r2, r3}
ARM GAS  /tmp/ccMe0kQ8.s 			page 107


 4607 0264 9CE80700 		ldm	ip, {r0, r1, r2}
 4608 0268 86E80700 		stm	r6, {r0, r1, r2}
 4609 026c 94E80F00 		ldm	r4, {r0, r1, r2, r3}
 4610 0270 FFF7FEFF 		bl	firstInCommandBuffer_Gcode
 4611              	.LVL675:
 361:Src/Gcode/Buffer_Gcode.c ****         command_Gcode command5 = {MOVE_COMMAND,      0, y, 0, 0,    0, v, 0, 0,    0, a, 0, 0,   0,
 4612              		.loc 1 361 9 is_stmt 1 view .LVU983
 361:Src/Gcode/Buffer_Gcode.c ****         command_Gcode command5 = {MOVE_COMMAND,      0, y, 0, 0,    0, v, 0, 0,    0, a, 0, 0,   0,
 4613              		.loc 1 361 11 is_stmt 0 view .LVU984
 4614 0274 A7EB0B07 		sub	r7, r7, fp
 4615              	.LVL676:
 361:Src/Gcode/Buffer_Gcode.c ****         command_Gcode command5 = {MOVE_COMMAND,      0, y, 0, 0,    0, v, 0, 0,    0, a, 0, 0,   0,
 4616              		.loc 1 361 37 is_stmt 1 view .LVU985
 361:Src/Gcode/Buffer_Gcode.c ****         command_Gcode command5 = {MOVE_COMMAND,      0, y, 0, 0,    0, v, 0, 0,    0, a, 0, 0,   0,
 4617              		.loc 1 361 89 view .LVU986
 362:Src/Gcode/Buffer_Gcode.c ****         return;
 4618              		.loc 1 362 9 view .LVU987
 362:Src/Gcode/Buffer_Gcode.c ****         return;
 4619              		.loc 1 362 23 is_stmt 0 view .LVU988
 4620 0278 25AC     		add	r4, sp, #148
 4621 027a 84F800A0 		strb	r10, [r4]
 4622 027e C4F80480 		str	r8, [r4, #4]
 4623 0282 A760     		str	r7, [r4, #8]
 4624 0284 C4F80C80 		str	r8, [r4, #12]
 4625 0288 C4F81080 		str	r8, [r4, #16]
 4626 028c 6561     		str	r5, [r4, #20]	@ float
 4627 028e C4F81890 		str	r9, [r4, #24]	@ float
 4628 0292 E561     		str	r5, [r4, #28]	@ float
 4629 0294 2562     		str	r5, [r4, #32]	@ float
 4630 0296 6562     		str	r5, [r4, #36]	@ float
 4631 0298 0E4B     		ldr	r3, .L155+16
 4632 029a A362     		str	r3, [r4, #40]	@ float
 4633 029c E562     		str	r5, [r4, #44]	@ float
 4634 029e 2563     		str	r5, [r4, #48]	@ float
 4635 02a0 6563     		str	r5, [r4, #52]	@ float
 4636 02a2 A563     		str	r5, [r4, #56]	@ float
 362:Src/Gcode/Buffer_Gcode.c ****         return;
 4637              		.loc 1 362 109 is_stmt 1 view .LVU989
 4638 02a4 6D46     		mov	r5, sp
 4639 02a6 29AE     		add	r6, sp, #164
 4640 02a8 0FCE     		ldmia	r6!, {r0, r1, r2, r3}
 4641 02aa 0FC5     		stmia	r5!, {r0, r1, r2, r3}
 4642 02ac 0FCE     		ldmia	r6!, {r0, r1, r2, r3}
 4643 02ae 0FC5     		stmia	r5!, {r0, r1, r2, r3}
 4644 02b0 96E80700 		ldm	r6, {r0, r1, r2}
 4645 02b4 85E80700 		stm	r5, {r0, r1, r2}
 4646 02b8 94E80F00 		ldm	r4, {r0, r1, r2, r3}
 4647 02bc FFF7FEFF 		bl	firstInCommandBuffer_Gcode
 4648              	.LVL677:
 363:Src/Gcode/Buffer_Gcode.c ****     }
 4649              		.loc 1 363 9 view .LVU990
 4650 02c0 94E7     		b	.L149
 4651              	.L156:
 4652 02c2 00BF     		.align	2
 4653              	.L155:
 4654 02c4 ABAA26C5 		.word	-987321685
 4655 02c8 ABAA2645 		.word	1160161963
ARM GAS  /tmp/ccMe0kQ8.s 			page 108


 4656 02cc ABAA26C4 		.word	-1004098901
 4657 02d0 ABAAA644 		.word	1151773355
 4658 02d4 ABAAA6C4 		.word	-995710293
 4659              	.LBE7:
 4660              		.cfi_endproc
 4661              	.LFE22:
 4663              		.section	.text.HomeZ_Analyser,"ax",%progbits
 4664              		.align	1
 4665              		.syntax unified
 4666              		.thumb
 4667              		.thumb_func
 4668              		.fpu softvfp
 4670              	HomeZ_Analyser:
 4671              	.LFB23:
 375:Src/Gcode/Buffer_Gcode.c ****     long dZn = getDescreteCommandBufferElement_Gcode(2).Zn;
 4672              		.loc 1 375 1 view -0
 4673              		.cfi_startproc
 4674              		@ args = 0, pretend = 0, frame = 520
 4675              		@ frame_needed = 0, uses_anonymous_args = 0
 4676 0000 2DE9F04F 		push	{r4, r5, r6, r7, r8, r9, r10, fp, lr}
 4677              	.LCFI50:
 4678              		.cfi_def_cfa_offset 36
 4679              		.cfi_offset 4, -36
 4680              		.cfi_offset 5, -32
 4681              		.cfi_offset 6, -28
 4682              		.cfi_offset 7, -24
 4683              		.cfi_offset 8, -20
 4684              		.cfi_offset 9, -16
 4685              		.cfi_offset 10, -12
 4686              		.cfi_offset 11, -8
 4687              		.cfi_offset 14, -4
 4688 0004 ADF50F7D 		sub	sp, sp, #572
 4689              	.LCFI51:
 4690              		.cfi_def_cfa_offset 608
 376:Src/Gcode/Buffer_Gcode.c ****     long z; float v; float a;
 4691              		.loc 1 376 5 view .LVU992
 376:Src/Gcode/Buffer_Gcode.c ****     long z; float v; float a;
 4692              		.loc 1 376 16 is_stmt 0 view .LVU993
 4693 0008 0221     		movs	r1, #2
 4694 000a 0CA8     		add	r0, sp, #48
 4695 000c FFF7FEFF 		bl	getDescreteCommandBufferElement_Gcode
 4696              	.LVL678:
 376:Src/Gcode/Buffer_Gcode.c ****     long z; float v; float a;
 4697              		.loc 1 376 10 view .LVU994
 4698 0010 0F9F     		ldr	r7, [sp, #60]
 4699              	.LVL679:
 377:Src/Gcode/Buffer_Gcode.c **** 
 4700              		.loc 1 377 5 is_stmt 1 view .LVU995
 377:Src/Gcode/Buffer_Gcode.c **** 
 4701              		.loc 1 377 13 view .LVU996
 377:Src/Gcode/Buffer_Gcode.c **** 
 4702              		.loc 1 377 22 view .LVU997
 379:Src/Gcode/Buffer_Gcode.c **** 
 4703              		.loc 1 379 5 view .LVU998
 381:Src/Gcode/Buffer_Gcode.c ****     command_Gcode command1 = {GO_HOME_Z_COMMAND, 0, 0, z, 0,    0, 0, v, 0,    0, 0, a, 0,   0, 0};
 4704              		.loc 1 381 5 view .LVU999
 381:Src/Gcode/Buffer_Gcode.c ****     command_Gcode command1 = {GO_HOME_Z_COMMAND, 0, 0, z, 0,    0, 0, v, 0,    0, 0, a, 0,   0, 0};
ARM GAS  /tmp/ccMe0kQ8.s 			page 109


 4705              		.loc 1 381 37 view .LVU1000
 381:Src/Gcode/Buffer_Gcode.c ****     command_Gcode command1 = {GO_HOME_Z_COMMAND, 0, 0, z, 0,    0, 0, v, 0,    0, 0, a, 0,   0, 0};
 4706              		.loc 1 381 89 view .LVU1001
 382:Src/Gcode/Buffer_Gcode.c ****     z = -HOME_FINE_STEPS_Z;         v = -HOME_COARSE_SPEED_Z_STEPS_PER_SECOND;          a = 0;
 4707              		.loc 1 382 5 view .LVU1002
 382:Src/Gcode/Buffer_Gcode.c ****     z = -HOME_FINE_STEPS_Z;         v = -HOME_COARSE_SPEED_Z_STEPS_PER_SECOND;          a = 0;
 4708              		.loc 1 382 19 is_stmt 0 view .LVU1003
 4709 0012 4FF00509 		mov	r9, #5
 4710 0016 8DF8FC91 		strb	r9, [sp, #508]
 4711 001a 4FF00008 		mov	r8, #0
 4712 001e CDF80082 		str	r8, [sp, #512]
 4713 0022 CDF80482 		str	r8, [sp, #516]
 4714 0026 CDF80882 		str	r8, [sp, #520]
 4715 002a CDF80C82 		str	r8, [sp, #524]
 4716 002e 0024     		movs	r4, #0
 4717 0030 8494     		str	r4, [sp, #528]	@ float
 4718 0032 8594     		str	r4, [sp, #532]	@ float
 4719 0034 A94B     		ldr	r3, .L163
 4720 0036 8693     		str	r3, [sp, #536]	@ float
 4721 0038 8794     		str	r4, [sp, #540]	@ float
 4722 003a 8894     		str	r4, [sp, #544]	@ float
 4723 003c 8994     		str	r4, [sp, #548]	@ float
 4724 003e 8A94     		str	r4, [sp, #552]	@ float
 4725 0040 8B94     		str	r4, [sp, #556]	@ float
 4726 0042 8C94     		str	r4, [sp, #560]	@ float
 4727 0044 8D94     		str	r4, [sp, #564]	@ float
 382:Src/Gcode/Buffer_Gcode.c ****     z = -HOME_FINE_STEPS_Z;         v = -HOME_COARSE_SPEED_Z_STEPS_PER_SECOND;          a = 0;
 4728              		.loc 1 382 105 is_stmt 1 view .LVU1004
 4729 0046 6D46     		mov	r5, sp
 4730 0048 83AE     		add	r6, sp, #524
 4731 004a 0FCE     		ldmia	r6!, {r0, r1, r2, r3}
 4732 004c 0FC5     		stmia	r5!, {r0, r1, r2, r3}
 4733 004e 0FCE     		ldmia	r6!, {r0, r1, r2, r3}
 4734 0050 0FC5     		stmia	r5!, {r0, r1, r2, r3}
 4735 0052 96E80700 		ldm	r6, {r0, r1, r2}
 4736 0056 85E80700 		stm	r5, {r0, r1, r2}
 4737 005a 7FAB     		add	r3, sp, #508
 4738 005c 0FCB     		ldm	r3, {r0, r1, r2, r3}
 4739 005e FFF7FEFF 		bl	firstInCommandBuffer_Gcode
 4740              	.LVL680:
 383:Src/Gcode/Buffer_Gcode.c ****     command_Gcode command2 = {MOVE_COMMAND,      0, 0, z, 0,    0, 0, v, 0,    0, 0, a, 0,   0, 0};
 4741              		.loc 1 383 5 view .LVU1005
 383:Src/Gcode/Buffer_Gcode.c ****     command_Gcode command2 = {MOVE_COMMAND,      0, 0, z, 0,    0, 0, v, 0,    0, 0, a, 0,   0, 0};
 4742              		.loc 1 383 37 view .LVU1006
 383:Src/Gcode/Buffer_Gcode.c ****     command_Gcode command2 = {MOVE_COMMAND,      0, 0, z, 0,    0, 0, v, 0,    0, 0, a, 0,   0, 0};
 4743              		.loc 1 383 89 view .LVU1007
 384:Src/Gcode/Buffer_Gcode.c ****     z = 0;                          v = HOME_FINE_SPEED_Z_STEPS_PER_SECOND;             a = 0;
 4744              		.loc 1 384 5 view .LVU1008
 384:Src/Gcode/Buffer_Gcode.c ****     z = 0;                          v = HOME_FINE_SPEED_Z_STEPS_PER_SECOND;             a = 0;
 4745              		.loc 1 384 19 is_stmt 0 view .LVU1009
 4746 0062 0123     		movs	r3, #1
 4747 0064 8DF8C031 		strb	r3, [sp, #448]
 4748 0068 CDF8C481 		str	r8, [sp, #452]
 4749 006c CDF8C881 		str	r8, [sp, #456]
 4750 0070 A3F2D173 		subw	r3, r3, #2001
 4751 0074 7393     		str	r3, [sp, #460]
 4752 0076 CDF8D081 		str	r8, [sp, #464]
ARM GAS  /tmp/ccMe0kQ8.s 			page 110


 4753 007a 7594     		str	r4, [sp, #468]	@ float
 4754 007c 7694     		str	r4, [sp, #472]	@ float
 4755 007e 984B     		ldr	r3, .L163+4
 4756 0080 7793     		str	r3, [sp, #476]	@ float
 4757 0082 7894     		str	r4, [sp, #480]	@ float
 4758 0084 7994     		str	r4, [sp, #484]	@ float
 4759 0086 7A94     		str	r4, [sp, #488]	@ float
 4760 0088 7B94     		str	r4, [sp, #492]	@ float
 4761 008a 7C94     		str	r4, [sp, #496]	@ float
 4762 008c 7D94     		str	r4, [sp, #500]	@ float
 4763 008e 7E94     		str	r4, [sp, #504]	@ float
 384:Src/Gcode/Buffer_Gcode.c ****     z = 0;                          v = HOME_FINE_SPEED_Z_STEPS_PER_SECOND;             a = 0;
 4764              		.loc 1 384 105 is_stmt 1 view .LVU1010
 4765 0090 6D46     		mov	r5, sp
 4766 0092 74AE     		add	r6, sp, #464
 4767 0094 0FCE     		ldmia	r6!, {r0, r1, r2, r3}
 4768 0096 0FC5     		stmia	r5!, {r0, r1, r2, r3}
 4769 0098 0FCE     		ldmia	r6!, {r0, r1, r2, r3}
 4770 009a 0FC5     		stmia	r5!, {r0, r1, r2, r3}
 4771 009c 96E80700 		ldm	r6, {r0, r1, r2}
 4772 00a0 85E80700 		stm	r5, {r0, r1, r2}
 4773 00a4 70AB     		add	r3, sp, #448
 4774 00a6 0FCB     		ldm	r3, {r0, r1, r2, r3}
 4775 00a8 FFF7FEFF 		bl	firstInCommandBuffer_Gcode
 4776              	.LVL681:
 385:Src/Gcode/Buffer_Gcode.c ****     command_Gcode command3 = {GO_HOME_Z_COMMAND, 0, 0, z, 0,    0, 0, v, 0,    0, 0, a, 0,   0, 0};
 4777              		.loc 1 385 5 view .LVU1011
 385:Src/Gcode/Buffer_Gcode.c ****     command_Gcode command3 = {GO_HOME_Z_COMMAND, 0, 0, z, 0,    0, 0, v, 0,    0, 0, a, 0,   0, 0};
 4778              		.loc 1 385 37 view .LVU1012
 385:Src/Gcode/Buffer_Gcode.c ****     command_Gcode command3 = {GO_HOME_Z_COMMAND, 0, 0, z, 0,    0, 0, v, 0,    0, 0, a, 0,   0, 0};
 4779              		.loc 1 385 89 view .LVU1013
 386:Src/Gcode/Buffer_Gcode.c ****     if (dZn >= 0)
 4780              		.loc 1 386 5 view .LVU1014
 386:Src/Gcode/Buffer_Gcode.c ****     if (dZn >= 0)
 4781              		.loc 1 386 19 is_stmt 0 view .LVU1015
 4782 00ac 8DF88491 		strb	r9, [sp, #388]
 4783 00b0 CDF88881 		str	r8, [sp, #392]
 4784 00b4 CDF88C81 		str	r8, [sp, #396]
 4785 00b8 CDF89081 		str	r8, [sp, #400]
 4786 00bc CDF89481 		str	r8, [sp, #404]
 4787 00c0 6694     		str	r4, [sp, #408]	@ float
 4788 00c2 6794     		str	r4, [sp, #412]	@ float
 4789 00c4 874B     		ldr	r3, .L163+8
 4790 00c6 6893     		str	r3, [sp, #416]	@ float
 4791 00c8 6994     		str	r4, [sp, #420]	@ float
 4792 00ca 6A94     		str	r4, [sp, #424]	@ float
 4793 00cc 6B94     		str	r4, [sp, #428]	@ float
 4794 00ce 6C94     		str	r4, [sp, #432]	@ float
 4795 00d0 6D94     		str	r4, [sp, #436]	@ float
 4796 00d2 6E94     		str	r4, [sp, #440]	@ float
 4797 00d4 6F94     		str	r4, [sp, #444]	@ float
 386:Src/Gcode/Buffer_Gcode.c ****     if (dZn >= 0)
 4798              		.loc 1 386 105 is_stmt 1 view .LVU1016
 4799 00d6 6C46     		mov	r4, sp
 4800 00d8 65AD     		add	r5, sp, #404
 4801 00da 0FCD     		ldmia	r5!, {r0, r1, r2, r3}
 4802 00dc 0FC4     		stmia	r4!, {r0, r1, r2, r3}
ARM GAS  /tmp/ccMe0kQ8.s 			page 111


 4803 00de 0FCD     		ldmia	r5!, {r0, r1, r2, r3}
 4804 00e0 0FC4     		stmia	r4!, {r0, r1, r2, r3}
 4805 00e2 95E80700 		ldm	r5, {r0, r1, r2}
 4806 00e6 84E80700 		stm	r4, {r0, r1, r2}
 4807 00ea 61AB     		add	r3, sp, #388
 4808 00ec 0FCB     		ldm	r3, {r0, r1, r2, r3}
 4809 00ee FFF7FEFF 		bl	firstInCommandBuffer_Gcode
 4810              	.LVL682:
 387:Src/Gcode/Buffer_Gcode.c ****         return;
 4811              		.loc 1 387 5 view .LVU1017
 387:Src/Gcode/Buffer_Gcode.c ****         return;
 4812              		.loc 1 387 8 is_stmt 0 view .LVU1018
 4813 00f2 4745     		cmp	r7, r8
 4814 00f4 7EDA     		bge	.L157
 390:Src/Gcode/Buffer_Gcode.c ****     {
 4815              		.loc 1 390 5 is_stmt 1 view .LVU1019
 390:Src/Gcode/Buffer_Gcode.c ****     {
 4816              		.loc 1 390 9 is_stmt 0 view .LVU1020
 4817 00f6 87EAE772 		eor	r2, r7, r7, asr #31
 4818 00fa A2EBE772 		sub	r2, r2, r7, asr #31
 390:Src/Gcode/Buffer_Gcode.c ****     {
 4819              		.loc 1 390 8 view .LVU1021
 4820 00fe 46F62903 		movw	r3, #26665
 4821 0102 9A42     		cmp	r2, r3
 4822 0104 7ADD     		ble	.L162
 401:Src/Gcode/Buffer_Gcode.c ****     command_Gcode command4 = {MOVE_COMMAND,      0, 0, z, 0,    0, 0, v, 0,    0, 0, a, 0,   0, 0};
 4823              		.loc 1 401 5 is_stmt 1 view .LVU1022
 4824              	.LVL683:
 401:Src/Gcode/Buffer_Gcode.c ****     command_Gcode command4 = {MOVE_COMMAND,      0, 0, z, 0,    0, 0, v, 0,    0, 0, a, 0,   0, 0};
 4825              		.loc 1 401 33 view .LVU1023
 401:Src/Gcode/Buffer_Gcode.c ****     command_Gcode command4 = {MOVE_COMMAND,      0, 0, z, 0,    0, 0, v, 0,    0, 0, a, 0,   0, 0};
 4826              		.loc 1 401 85 view .LVU1024
 402:Src/Gcode/Buffer_Gcode.c ****     z = dZn+2*L_HOME_Z;         v = -HOME_COARSE_SPEED_Z_STEPS_PER_SECOND;          a = 0;
 4827              		.loc 1 402 5 view .LVU1025
 402:Src/Gcode/Buffer_Gcode.c ****     z = dZn+2*L_HOME_Z;         v = -HOME_COARSE_SPEED_Z_STEPS_PER_SECOND;          a = 0;
 4828              		.loc 1 402 19 is_stmt 0 view .LVU1026
 4829 0106 4FF00109 		mov	r9, #1
 4830 010a 8DF84891 		strb	r9, [sp, #328]
 4831 010e 4FF00008 		mov	r8, #0
 4832 0112 CDF84C81 		str	r8, [sp, #332]
 4833 0116 CDF85081 		str	r8, [sp, #336]
 4834 011a DFF8D4A1 		ldr	r10, .L163+20
 4835 011e CDF854A1 		str	r10, [sp, #340]
 4836 0122 CDF85881 		str	r8, [sp, #344]
 4837 0126 0024     		movs	r4, #0
 4838 0128 5794     		str	r4, [sp, #348]	@ float
 4839 012a 5894     		str	r4, [sp, #352]	@ float
 4840 012c 5994     		str	r4, [sp, #356]	@ float
 4841 012e 5A94     		str	r4, [sp, #360]	@ float
 4842 0130 5B94     		str	r4, [sp, #364]	@ float
 4843 0132 5C94     		str	r4, [sp, #368]	@ float
 4844 0134 6C4B     		ldr	r3, .L163+12
 4845 0136 5D93     		str	r3, [sp, #372]	@ float
 4846 0138 5E94     		str	r4, [sp, #376]	@ float
 4847 013a 5F94     		str	r4, [sp, #380]	@ float
 4848 013c 6094     		str	r4, [sp, #384]	@ float
 402:Src/Gcode/Buffer_Gcode.c ****     z = dZn+2*L_HOME_Z;         v = -HOME_COARSE_SPEED_Z_STEPS_PER_SECOND;          a = 0;
ARM GAS  /tmp/ccMe0kQ8.s 			page 112


 4849              		.loc 1 402 105 is_stmt 1 view .LVU1027
 4850 013e 6D46     		mov	r5, sp
 4851 0140 56AE     		add	r6, sp, #344
 4852 0142 0FCE     		ldmia	r6!, {r0, r1, r2, r3}
 4853 0144 0FC5     		stmia	r5!, {r0, r1, r2, r3}
 4854 0146 0FCE     		ldmia	r6!, {r0, r1, r2, r3}
 4855 0148 0FC5     		stmia	r5!, {r0, r1, r2, r3}
 4856 014a 96E80700 		ldm	r6, {r0, r1, r2}
 4857 014e 85E80700 		stm	r5, {r0, r1, r2}
 4858 0152 52AB     		add	r3, sp, #328
 4859 0154 0FCB     		ldm	r3, {r0, r1, r2, r3}
 4860 0156 FFF7FEFF 		bl	firstInCommandBuffer_Gcode
 4861              	.LVL684:
 403:Src/Gcode/Buffer_Gcode.c ****     command_Gcode command5 = {MOVE_COMMAND,      0, 0, z, 0,    0, 0, v, 0,    0, 0, a, 0,   0, 0};
 4862              		.loc 1 403 5 view .LVU1028
 403:Src/Gcode/Buffer_Gcode.c ****     command_Gcode command5 = {MOVE_COMMAND,      0, 0, z, 0,    0, 0, v, 0,    0, 0, a, 0,   0, 0};
 4863              		.loc 1 403 7 is_stmt 0 view .LVU1029
 4864 015a 07F5D047 		add	r7, r7, #26624
 4865              	.LVL685:
 403:Src/Gcode/Buffer_Gcode.c ****     command_Gcode command5 = {MOVE_COMMAND,      0, 0, z, 0,    0, 0, v, 0,    0, 0, a, 0,   0, 0};
 4866              		.loc 1 403 7 view .LVU1030
 4867 015e 2A37     		adds	r7, r7, #42
 4868              	.LVL686:
 403:Src/Gcode/Buffer_Gcode.c ****     command_Gcode command5 = {MOVE_COMMAND,      0, 0, z, 0,    0, 0, v, 0,    0, 0, a, 0,   0, 0};
 4869              		.loc 1 403 33 is_stmt 1 view .LVU1031
 403:Src/Gcode/Buffer_Gcode.c ****     command_Gcode command5 = {MOVE_COMMAND,      0, 0, z, 0,    0, 0, v, 0,    0, 0, a, 0,   0, 0};
 4870              		.loc 1 403 85 view .LVU1032
 404:Src/Gcode/Buffer_Gcode.c ****     z = -L_HOME_Z;              v = -HOME_COARSE_SPEED_Z_STEPS_PER_SECOND;          a = ACCELERATIO
 4871              		.loc 1 404 5 view .LVU1033
 404:Src/Gcode/Buffer_Gcode.c ****     z = -L_HOME_Z;              v = -HOME_COARSE_SPEED_Z_STEPS_PER_SECOND;          a = ACCELERATIO
 4872              		.loc 1 404 19 is_stmt 0 view .LVU1034
 4873 0160 43AD     		add	r5, sp, #268
 4874 0162 85F80090 		strb	r9, [r5]
 4875 0166 C5F80480 		str	r8, [r5, #4]
 4876 016a C5F80880 		str	r8, [r5, #8]
 4877 016e EF60     		str	r7, [r5, #12]
 4878 0170 C5F81080 		str	r8, [r5, #16]
 4879 0174 6C61     		str	r4, [r5, #20]	@ float
 4880 0176 AC61     		str	r4, [r5, #24]	@ float
 4881 0178 594F     		ldr	r7, .L163+4
 4882              	.LVL687:
 404:Src/Gcode/Buffer_Gcode.c ****     z = -L_HOME_Z;              v = -HOME_COARSE_SPEED_Z_STEPS_PER_SECOND;          a = ACCELERATIO
 4883              		.loc 1 404 19 view .LVU1035
 4884 017a EF61     		str	r7, [r5, #28]	@ float
 4885 017c 2C62     		str	r4, [r5, #32]	@ float
 4886 017e 6C62     		str	r4, [r5, #36]	@ float
 4887 0180 AC62     		str	r4, [r5, #40]	@ float
 4888 0182 EC62     		str	r4, [r5, #44]	@ float
 4889 0184 2C63     		str	r4, [r5, #48]	@ float
 4890 0186 6C63     		str	r4, [r5, #52]	@ float
 4891 0188 AC63     		str	r4, [r5, #56]	@ float
 404:Src/Gcode/Buffer_Gcode.c ****     z = -L_HOME_Z;              v = -HOME_COARSE_SPEED_Z_STEPS_PER_SECOND;          a = ACCELERATIO
 4892              		.loc 1 404 105 is_stmt 1 view .LVU1036
 4893 018a 6E46     		mov	r6, sp
 4894 018c 0DF58E7C 		add	ip, sp, #284
 4895 0190 BCE80F00 		ldmia	ip!, {r0, r1, r2, r3}
 4896 0194 0FC6     		stmia	r6!, {r0, r1, r2, r3}
ARM GAS  /tmp/ccMe0kQ8.s 			page 113


 4897 0196 BCE80F00 		ldmia	ip!, {r0, r1, r2, r3}
 4898 019a 0FC6     		stmia	r6!, {r0, r1, r2, r3}
 4899 019c 9CE80700 		ldm	ip, {r0, r1, r2}
 4900 01a0 86E80700 		stm	r6, {r0, r1, r2}
 4901 01a4 95E80F00 		ldm	r5, {r0, r1, r2, r3}
 4902 01a8 FFF7FEFF 		bl	firstInCommandBuffer_Gcode
 4903              	.LVL688:
 405:Src/Gcode/Buffer_Gcode.c ****     command_Gcode command6 = {MOVE_COMMAND,      0, 0, z, 0,    0, 0, v, 0,    0, 0, a, 0,   0, 0};
 4904              		.loc 1 405 5 view .LVU1037
 405:Src/Gcode/Buffer_Gcode.c ****     command_Gcode command6 = {MOVE_COMMAND,      0, 0, z, 0,    0, 0, v, 0,    0, 0, a, 0,   0, 0};
 4905              		.loc 1 405 33 view .LVU1038
 405:Src/Gcode/Buffer_Gcode.c ****     command_Gcode command6 = {MOVE_COMMAND,      0, 0, z, 0,    0, 0, v, 0,    0, 0, a, 0,   0, 0};
 4906              		.loc 1 405 85 view .LVU1039
 406:Src/Gcode/Buffer_Gcode.c **** }
 4907              		.loc 1 406 5 view .LVU1040
 406:Src/Gcode/Buffer_Gcode.c **** }
 4908              		.loc 1 406 19 is_stmt 0 view .LVU1041
 4909 01ac 34AD     		add	r5, sp, #208
 4910 01ae 85F80090 		strb	r9, [r5]
 4911 01b2 C5F80480 		str	r8, [r5, #4]
 4912 01b6 C5F80880 		str	r8, [r5, #8]
 4913 01ba C5F80CA0 		str	r10, [r5, #12]
 4914 01be C5F81080 		str	r8, [r5, #16]
 4915 01c2 6C61     		str	r4, [r5, #20]	@ float
 4916 01c4 AC61     		str	r4, [r5, #24]	@ float
 4917 01c6 EF61     		str	r7, [r5, #28]	@ float
 4918 01c8 2C62     		str	r4, [r5, #32]	@ float
 4919 01ca 6C62     		str	r4, [r5, #36]	@ float
 4920 01cc AC62     		str	r4, [r5, #40]	@ float
 4921 01ce 474B     		ldr	r3, .L163+16
 4922 01d0 EB62     		str	r3, [r5, #44]	@ float
 4923 01d2 2C63     		str	r4, [r5, #48]	@ float
 4924 01d4 6C63     		str	r4, [r5, #52]	@ float
 4925 01d6 AC63     		str	r4, [r5, #56]	@ float
 406:Src/Gcode/Buffer_Gcode.c **** }
 4926              		.loc 1 406 105 is_stmt 1 view .LVU1042
 4927 01d8 6C46     		mov	r4, sp
 4928 01da 38AE     		add	r6, sp, #224
 4929 01dc 0FCE     		ldmia	r6!, {r0, r1, r2, r3}
 4930 01de 0FC4     		stmia	r4!, {r0, r1, r2, r3}
 4931 01e0 0FCE     		ldmia	r6!, {r0, r1, r2, r3}
 4932 01e2 0FC4     		stmia	r4!, {r0, r1, r2, r3}
 4933 01e4 96E80700 		ldm	r6, {r0, r1, r2}
 4934 01e8 84E80700 		stm	r4, {r0, r1, r2}
 4935 01ec 95E80F00 		ldm	r5, {r0, r1, r2, r3}
 4936 01f0 FFF7FEFF 		bl	firstInCommandBuffer_Gcode
 4937              	.LVL689:
 4938              	.L157:
 407:Src/Gcode/Buffer_Gcode.c **** 
 4939              		.loc 1 407 1 is_stmt 0 view .LVU1043
 4940 01f4 0DF50F7D 		add	sp, sp, #572
 4941              	.LCFI52:
 4942              		.cfi_remember_state
 4943              		.cfi_def_cfa_offset 36
 4944              		@ sp needed
 4945 01f8 BDE8F08F 		pop	{r4, r5, r6, r7, r8, r9, r10, fp, pc}
 4946              	.LVL690:
ARM GAS  /tmp/ccMe0kQ8.s 			page 114


 4947              	.L162:
 4948              	.LCFI53:
 4949              		.cfi_restore_state
 4950              	.LBB8:
 392:Src/Gcode/Buffer_Gcode.c ****         float vStar = sqrtf(2*ACCELERATION_Z_STEPS_PER_SS*zStar);
 4951              		.loc 1 392 9 is_stmt 1 view .LVU1044
 392:Src/Gcode/Buffer_Gcode.c ****         float vStar = sqrtf(2*ACCELERATION_Z_STEPS_PER_SS*zStar);
 4952              		.loc 1 392 41 is_stmt 0 view .LVU1045
 4953 01fc 3846     		mov	r0, r7
 4954 01fe FFF7FEFF 		bl	__aeabi_i2f
 4955              	.LVL691:
 392:Src/Gcode/Buffer_Gcode.c ****         float vStar = sqrtf(2*ACCELERATION_Z_STEPS_PER_SS*zStar);
 4956              		.loc 1 392 51 view .LVU1046
 4957 0202 4FF07C51 		mov	r1, #1056964608
 4958 0206 FFF7FEFF 		bl	__aeabi_fmul
 4959              	.LVL692:
 392:Src/Gcode/Buffer_Gcode.c ****         float vStar = sqrtf(2*ACCELERATION_Z_STEPS_PER_SS*zStar);
 4960              		.loc 1 392 27 view .LVU1047
 4961 020a 4FF07A51 		mov	r1, #1048576000
 4962 020e FFF7FEFF 		bl	__aeabi_fsub
 4963              	.LVL693:
 4964 0212 FFF7FEFF 		bl	lroundf
 4965              	.LVL694:
 392:Src/Gcode/Buffer_Gcode.c ****         float vStar = sqrtf(2*ACCELERATION_Z_STEPS_PER_SS*zStar);
 4966              		.loc 1 392 15 view .LVU1048
 4967 0216 80EAE078 		eor	r8, r0, r0, asr #31
 4968 021a A8EBE078 		sub	r8, r8, r0, asr #31
 4969              	.LVL695:
 393:Src/Gcode/Buffer_Gcode.c ****         z = -zStar;                 v = 0;                                              a = -ACCELE
 4970              		.loc 1 393 9 is_stmt 1 view .LVU1049
 393:Src/Gcode/Buffer_Gcode.c ****         z = -zStar;                 v = 0;                                              a = -ACCELE
 4971              		.loc 1 393 23 is_stmt 0 view .LVU1050
 4972 021e 4046     		mov	r0, r8
 4973 0220 FFF7FEFF 		bl	__aeabi_i2f
 4974              	.LVL696:
 4975 0224 2D49     		ldr	r1, .L163
 4976 0226 FFF7FEFF 		bl	__aeabi_fmul
 4977              	.LVL697:
 4978 022a FFF7FEFF 		bl	sqrtf
 4979              	.LVL698:
 4980 022e 8346     		mov	fp, r0
 4981              	.LVL699:
 394:Src/Gcode/Buffer_Gcode.c ****         command_Gcode command4 = {MOVE_COMMAND,      0, 0, z, 0,    0, 0, v, 0,    0, 0, a, 0,   0,
 4982              		.loc 1 394 9 is_stmt 1 view .LVU1051
 394:Src/Gcode/Buffer_Gcode.c ****         command_Gcode command4 = {MOVE_COMMAND,      0, 0, z, 0,    0, 0, v, 0,    0, 0, a, 0,   0,
 4983              		.loc 1 394 11 is_stmt 0 view .LVU1052
 4984 0230 C8F10003 		rsb	r3, r8, #0
 4985              	.LVL700:
 394:Src/Gcode/Buffer_Gcode.c ****         command_Gcode command4 = {MOVE_COMMAND,      0, 0, z, 0,    0, 0, v, 0,    0, 0, a, 0,   0,
 4986              		.loc 1 394 37 is_stmt 1 view .LVU1053
 394:Src/Gcode/Buffer_Gcode.c ****         command_Gcode command4 = {MOVE_COMMAND,      0, 0, z, 0,    0, 0, v, 0,    0, 0, a, 0,   0,
 4987              		.loc 1 394 89 view .LVU1054
 395:Src/Gcode/Buffer_Gcode.c ****         z = dZn+zStar;              v = -vStar;                                         a = ACCELER
 4988              		.loc 1 395 9 view .LVU1055
 395:Src/Gcode/Buffer_Gcode.c ****         z = dZn+zStar;              v = -vStar;                                         a = ACCELER
 4989              		.loc 1 395 23 is_stmt 0 view .LVU1056
 4990 0234 16AC     		add	r4, sp, #88
ARM GAS  /tmp/ccMe0kQ8.s 			page 115


 4991 0236 4FF0010A 		mov	r10, #1
 4992 023a 84F800A0 		strb	r10, [r4]
 4993 023e 4FF00009 		mov	r9, #0
 4994 0242 C4F80490 		str	r9, [r4, #4]
 4995 0246 C4F80890 		str	r9, [r4, #8]
 4996 024a E360     		str	r3, [r4, #12]
 4997 024c C4F81090 		str	r9, [r4, #16]
 4998 0250 0025     		movs	r5, #0
 4999 0252 6561     		str	r5, [r4, #20]	@ float
 5000 0254 A561     		str	r5, [r4, #24]	@ float
 5001 0256 E561     		str	r5, [r4, #28]	@ float
 5002 0258 2562     		str	r5, [r4, #32]	@ float
 5003 025a 6562     		str	r5, [r4, #36]	@ float
 5004 025c A562     		str	r5, [r4, #40]	@ float
 5005 025e 224B     		ldr	r3, .L163+12
 5006              	.LVL701:
 395:Src/Gcode/Buffer_Gcode.c ****         z = dZn+zStar;              v = -vStar;                                         a = ACCELER
 5007              		.loc 1 395 23 view .LVU1057
 5008 0260 E362     		str	r3, [r4, #44]	@ float
 5009 0262 2563     		str	r5, [r4, #48]	@ float
 5010 0264 6563     		str	r5, [r4, #52]	@ float
 5011 0266 A563     		str	r5, [r4, #56]	@ float
 395:Src/Gcode/Buffer_Gcode.c ****         z = dZn+zStar;              v = -vStar;                                         a = ACCELER
 5012              		.loc 1 395 109 is_stmt 1 view .LVU1058
 5013 0268 6E46     		mov	r6, sp
 5014 026a 0DF1680C 		add	ip, sp, #104
 5015 026e BCE80F00 		ldmia	ip!, {r0, r1, r2, r3}
 5016              	.LVL702:
 395:Src/Gcode/Buffer_Gcode.c ****         z = dZn+zStar;              v = -vStar;                                         a = ACCELER
 5017              		.loc 1 395 109 is_stmt 0 view .LVU1059
 5018 0272 0FC6     		stmia	r6!, {r0, r1, r2, r3}
 5019 0274 BCE80F00 		ldmia	ip!, {r0, r1, r2, r3}
 5020 0278 0FC6     		stmia	r6!, {r0, r1, r2, r3}
 5021 027a 9CE80700 		ldm	ip, {r0, r1, r2}
 5022 027e 86E80700 		stm	r6, {r0, r1, r2}
 5023 0282 94E80F00 		ldm	r4, {r0, r1, r2, r3}
 5024 0286 FFF7FEFF 		bl	firstInCommandBuffer_Gcode
 5025              	.LVL703:
 396:Src/Gcode/Buffer_Gcode.c ****         command_Gcode command5 = {MOVE_COMMAND,      0, 0, z, 0,    0, 0, v, 0,    0, 0, a, 0,   0,
 5026              		.loc 1 396 9 is_stmt 1 view .LVU1060
 396:Src/Gcode/Buffer_Gcode.c ****         command_Gcode command5 = {MOVE_COMMAND,      0, 0, z, 0,    0, 0, v, 0,    0, 0, a, 0,   0,
 5027              		.loc 1 396 11 is_stmt 0 view .LVU1061
 5028 028a 4744     		add	r7, r7, r8
 5029              	.LVL704:
 396:Src/Gcode/Buffer_Gcode.c ****         command_Gcode command5 = {MOVE_COMMAND,      0, 0, z, 0,    0, 0, v, 0,    0, 0, a, 0,   0,
 5030              		.loc 1 396 37 is_stmt 1 view .LVU1062
 396:Src/Gcode/Buffer_Gcode.c ****         command_Gcode command5 = {MOVE_COMMAND,      0, 0, z, 0,    0, 0, v, 0,    0, 0, a, 0,   0,
 5031              		.loc 1 396 39 is_stmt 0 view .LVU1063
 5032 028c 0BF1004B 		add	fp, fp, #-2147483648
 5033              	.LVL705:
 396:Src/Gcode/Buffer_Gcode.c ****         command_Gcode command5 = {MOVE_COMMAND,      0, 0, z, 0,    0, 0, v, 0,    0, 0, a, 0,   0,
 5034              		.loc 1 396 89 is_stmt 1 view .LVU1064
 397:Src/Gcode/Buffer_Gcode.c ****         return;
 5035              		.loc 1 397 9 view .LVU1065
 397:Src/Gcode/Buffer_Gcode.c ****         return;
 5036              		.loc 1 397 23 is_stmt 0 view .LVU1066
 5037 0290 25AC     		add	r4, sp, #148
ARM GAS  /tmp/ccMe0kQ8.s 			page 116


 5038 0292 84F800A0 		strb	r10, [r4]
 5039 0296 C4F80490 		str	r9, [r4, #4]
 5040 029a C4F80890 		str	r9, [r4, #8]
 5041 029e E760     		str	r7, [r4, #12]
 5042 02a0 C4F81090 		str	r9, [r4, #16]
 5043 02a4 6561     		str	r5, [r4, #20]	@ float
 5044 02a6 A561     		str	r5, [r4, #24]	@ float
 5045 02a8 C4F81CB0 		str	fp, [r4, #28]	@ float
 5046 02ac 2562     		str	r5, [r4, #32]	@ float
 5047 02ae 6562     		str	r5, [r4, #36]	@ float
 5048 02b0 A562     		str	r5, [r4, #40]	@ float
 5049 02b2 0E4B     		ldr	r3, .L163+16
 5050 02b4 E362     		str	r3, [r4, #44]	@ float
 5051 02b6 2563     		str	r5, [r4, #48]	@ float
 5052 02b8 6563     		str	r5, [r4, #52]	@ float
 5053 02ba A563     		str	r5, [r4, #56]	@ float
 397:Src/Gcode/Buffer_Gcode.c ****         return;
 5054              		.loc 1 397 109 is_stmt 1 view .LVU1067
 5055 02bc 6D46     		mov	r5, sp
 5056 02be 29AE     		add	r6, sp, #164
 5057 02c0 0FCE     		ldmia	r6!, {r0, r1, r2, r3}
 5058 02c2 0FC5     		stmia	r5!, {r0, r1, r2, r3}
 5059 02c4 0FCE     		ldmia	r6!, {r0, r1, r2, r3}
 5060 02c6 0FC5     		stmia	r5!, {r0, r1, r2, r3}
 5061 02c8 96E80700 		ldm	r6, {r0, r1, r2}
 5062 02cc 85E80700 		stm	r5, {r0, r1, r2}
 5063 02d0 94E80F00 		ldm	r4, {r0, r1, r2, r3}
 5064 02d4 FFF7FEFF 		bl	firstInCommandBuffer_Gcode
 5065              	.LVL706:
 398:Src/Gcode/Buffer_Gcode.c ****     }
 5066              		.loc 1 398 9 view .LVU1068
 5067 02d8 8CE7     		b	.L157
 5068              	.L164:
 5069 02da 00BF     		.align	2
 5070              	.L163:
 5071 02dc 55555046 		.word	1179669845
 5072 02e0 555550C6 		.word	-967813803
 5073 02e4 55555045 		.word	1162892629
 5074 02e8 5555D0C5 		.word	-976202411
 5075 02ec 5555D045 		.word	1171281237
 5076 02f0 EBCBFFFF 		.word	-13333
 5077              	.LBE8:
 5078              		.cfi_endproc
 5079              	.LFE23:
 5081              		.section	.text.HomeXY_Analyser,"ax",%progbits
 5082              		.align	1
 5083              		.syntax unified
 5084              		.thumb
 5085              		.thumb_func
 5086              		.fpu softvfp
 5088              	HomeXY_Analyser:
 5089              	.LFB24:
 410:Src/Gcode/Buffer_Gcode.c ****     long dXn = getDescreteCommandBufferElement_Gcode(2).Xn;
 5090              		.loc 1 410 1 view -0
 5091              		.cfi_startproc
 5092              		@ args = 0, pretend = 0, frame = 584
 5093              		@ frame_needed = 0, uses_anonymous_args = 0
ARM GAS  /tmp/ccMe0kQ8.s 			page 117


 5094 0000 2DE9F04F 		push	{r4, r5, r6, r7, r8, r9, r10, fp, lr}
 5095              	.LCFI54:
 5096              		.cfi_def_cfa_offset 36
 5097              		.cfi_offset 4, -36
 5098              		.cfi_offset 5, -32
 5099              		.cfi_offset 6, -28
 5100              		.cfi_offset 7, -24
 5101              		.cfi_offset 8, -20
 5102              		.cfi_offset 9, -16
 5103              		.cfi_offset 10, -12
 5104              		.cfi_offset 11, -8
 5105              		.cfi_offset 14, -4
 5106 0004 ADF51F7D 		sub	sp, sp, #636
 5107              	.LCFI55:
 5108              		.cfi_def_cfa_offset 672
 411:Src/Gcode/Buffer_Gcode.c ****     long dYn = getDescreteCommandBufferElement_Gcode(2).Yn;
 5109              		.loc 1 411 5 view .LVU1070
 411:Src/Gcode/Buffer_Gcode.c ****     long dYn = getDescreteCommandBufferElement_Gcode(2).Yn;
 5110              		.loc 1 411 16 is_stmt 0 view .LVU1071
 5111 0008 0221     		movs	r1, #2
 5112 000a 12A8     		add	r0, sp, #72
 5113 000c FFF7FEFF 		bl	getDescreteCommandBufferElement_Gcode
 5114              	.LVL707:
 411:Src/Gcode/Buffer_Gcode.c ****     long dYn = getDescreteCommandBufferElement_Gcode(2).Yn;
 5115              		.loc 1 411 10 view .LVU1072
 5116 0010 139D     		ldr	r5, [sp, #76]
 5117              	.LVL708:
 412:Src/Gcode/Buffer_Gcode.c **** 
 5118              		.loc 1 412 5 is_stmt 1 view .LVU1073
 412:Src/Gcode/Buffer_Gcode.c **** 
 5119              		.loc 1 412 16 is_stmt 0 view .LVU1074
 5120 0012 0221     		movs	r1, #2
 5121 0014 1CA8     		add	r0, sp, #112
 5122 0016 FFF7FEFF 		bl	getDescreteCommandBufferElement_Gcode
 5123              	.LVL709:
 412:Src/Gcode/Buffer_Gcode.c **** 
 5124              		.loc 1 412 10 view .LVU1075
 5125 001a DDF878A0 		ldr	r10, [sp, #120]
 5126              	.LVL710:
 414:Src/Gcode/Buffer_Gcode.c **** 
 5127              		.loc 1 414 5 is_stmt 1 view .LVU1076
 414:Src/Gcode/Buffer_Gcode.c **** 
 5128              		.loc 1 414 13 view .LVU1077
 414:Src/Gcode/Buffer_Gcode.c **** 
 5129              		.loc 1 414 21 view .LVU1078
 414:Src/Gcode/Buffer_Gcode.c **** 
 5130              		.loc 1 414 30 view .LVU1079
 414:Src/Gcode/Buffer_Gcode.c **** 
 5131              		.loc 1 414 41 view .LVU1080
 414:Src/Gcode/Buffer_Gcode.c **** 
 5132              		.loc 1 414 51 view .LVU1081
 414:Src/Gcode/Buffer_Gcode.c **** 
 5133              		.loc 1 414 61 view .LVU1082
 414:Src/Gcode/Buffer_Gcode.c **** 
 5134              		.loc 1 414 71 view .LVU1083
 416:Src/Gcode/Buffer_Gcode.c ****     command_Gcode command1 = {GO_HOME_XY_COMMAND, x, y, 0, 0,   v, v, 0, 0,    a, 0, 0, 0,   0, 0};
 5135              		.loc 1 416 5 view .LVU1084
ARM GAS  /tmp/ccMe0kQ8.s 			page 118


 416:Src/Gcode/Buffer_Gcode.c ****     command_Gcode command1 = {GO_HOME_XY_COMMAND, x, y, 0, 0,   v, v, 0, 0,    a, 0, 0, 0,   0, 0};
 5136              		.loc 1 416 33 view .LVU1085
 416:Src/Gcode/Buffer_Gcode.c ****     command_Gcode command1 = {GO_HOME_XY_COMMAND, x, y, 0, 0,   v, v, 0, 0,    a, 0, 0, 0,   0, 0};
 5137              		.loc 1 416 65 view .LVU1086
 416:Src/Gcode/Buffer_Gcode.c ****     command_Gcode command1 = {GO_HOME_XY_COMMAND, x, y, 0, 0,   v, v, 0, 0,    a, 0, 0, 0,   0, 0};
 5138              		.loc 1 416 116 view .LVU1087
 417:Src/Gcode/Buffer_Gcode.c ****     x = HOME_FINE_STEPS_XY;     y = HOME_FINE_STEPS_XY;         v = HOME_COARSE_SPEED_XY_STEPS_PER_
 5139              		.loc 1 417 5 view .LVU1088
 417:Src/Gcode/Buffer_Gcode.c ****     x = HOME_FINE_STEPS_XY;     y = HOME_FINE_STEPS_XY;         v = HOME_COARSE_SPEED_XY_STEPS_PER_
 5140              		.loc 1 417 19 is_stmt 0 view .LVU1089
 5141 001e 4FF00609 		mov	r9, #6
 5142 0022 8DF83C92 		strb	r9, [sp, #572]
 5143 0026 4FF00008 		mov	r8, #0
 5144 002a CDF84082 		str	r8, [sp, #576]
 5145 002e CDF84482 		str	r8, [sp, #580]
 5146 0032 CDF84882 		str	r8, [sp, #584]
 5147 0036 CDF84C82 		str	r8, [sp, #588]
 5148 003a A74B     		ldr	r3, .L175
 5149 003c 9493     		str	r3, [sp, #592]	@ float
 5150 003e 9593     		str	r3, [sp, #596]	@ float
 5151 0040 0024     		movs	r4, #0
 5152 0042 9694     		str	r4, [sp, #600]	@ float
 5153 0044 9794     		str	r4, [sp, #604]	@ float
 5154 0046 9894     		str	r4, [sp, #608]	@ float
 5155 0048 9994     		str	r4, [sp, #612]	@ float
 5156 004a 9A94     		str	r4, [sp, #616]	@ float
 5157 004c 9B94     		str	r4, [sp, #620]	@ float
 5158 004e 9C94     		str	r4, [sp, #624]	@ float
 5159 0050 9D94     		str	r4, [sp, #628]	@ float
 417:Src/Gcode/Buffer_Gcode.c ****     x = HOME_FINE_STEPS_XY;     y = HOME_FINE_STEPS_XY;         v = HOME_COARSE_SPEED_XY_STEPS_PER_
 5160              		.loc 1 417 105 is_stmt 1 view .LVU1090
 5161 0052 6E46     		mov	r6, sp
 5162 0054 93AF     		add	r7, sp, #588
 5163 0056 0FCF     		ldmia	r7!, {r0, r1, r2, r3}
 5164 0058 0FC6     		stmia	r6!, {r0, r1, r2, r3}
 5165 005a 0FCF     		ldmia	r7!, {r0, r1, r2, r3}
 5166 005c 0FC6     		stmia	r6!, {r0, r1, r2, r3}
 5167 005e 97E80700 		ldm	r7, {r0, r1, r2}
 5168 0062 86E80700 		stm	r6, {r0, r1, r2}
 5169 0066 8FAB     		add	r3, sp, #572
 5170 0068 0FCB     		ldm	r3, {r0, r1, r2, r3}
 5171 006a FFF7FEFF 		bl	firstInCommandBuffer_Gcode
 5172              	.LVL711:
 418:Src/Gcode/Buffer_Gcode.c ****     command_Gcode command2 = {MOVE_COMMAND,       x, y, 0, 0,   v, v, 0, 0,    a, 0, 0, 0,   0, 0};
 5173              		.loc 1 418 5 view .LVU1091
 418:Src/Gcode/Buffer_Gcode.c ****     command_Gcode command2 = {MOVE_COMMAND,       x, y, 0, 0,   v, v, 0, 0,    a, 0, 0, 0,   0, 0};
 5174              		.loc 1 418 33 view .LVU1092
 418:Src/Gcode/Buffer_Gcode.c ****     command_Gcode command2 = {MOVE_COMMAND,       x, y, 0, 0,   v, v, 0, 0,    a, 0, 0, 0,   0, 0};
 5175              		.loc 1 418 65 view .LVU1093
 418:Src/Gcode/Buffer_Gcode.c ****     command_Gcode command2 = {MOVE_COMMAND,       x, y, 0, 0,   v, v, 0, 0,    a, 0, 0, 0,   0, 0};
 5176              		.loc 1 418 116 view .LVU1094
 419:Src/Gcode/Buffer_Gcode.c ****     x = 0;                      y = 0;                          v = -HOME_FINE_SPEED_XY_STEPS_PER_S
 5177              		.loc 1 419 5 view .LVU1095
 419:Src/Gcode/Buffer_Gcode.c ****     x = 0;                      y = 0;                          v = -HOME_FINE_SPEED_XY_STEPS_PER_S
 5178              		.loc 1 419 19 is_stmt 0 view .LVU1096
 5179 006e 0123     		movs	r3, #1
 5180 0070 8DF80032 		strb	r3, [sp, #512]
ARM GAS  /tmp/ccMe0kQ8.s 			page 119


 5181 0074 4FF4C873 		mov	r3, #400
 5182 0078 8193     		str	r3, [sp, #516]
 5183 007a 8293     		str	r3, [sp, #520]
 5184 007c CDF80C82 		str	r8, [sp, #524]
 5185 0080 CDF81082 		str	r8, [sp, #528]
 5186 0084 954B     		ldr	r3, .L175+4
 5187 0086 8593     		str	r3, [sp, #532]	@ float
 5188 0088 8693     		str	r3, [sp, #536]	@ float
 5189 008a 8794     		str	r4, [sp, #540]	@ float
 5190 008c 8894     		str	r4, [sp, #544]	@ float
 5191 008e 8994     		str	r4, [sp, #548]	@ float
 5192 0090 8A94     		str	r4, [sp, #552]	@ float
 5193 0092 8B94     		str	r4, [sp, #556]	@ float
 5194 0094 8C94     		str	r4, [sp, #560]	@ float
 5195 0096 8D94     		str	r4, [sp, #564]	@ float
 5196 0098 8E94     		str	r4, [sp, #568]	@ float
 419:Src/Gcode/Buffer_Gcode.c ****     x = 0;                      y = 0;                          v = -HOME_FINE_SPEED_XY_STEPS_PER_S
 5197              		.loc 1 419 105 is_stmt 1 view .LVU1097
 5198 009a 6E46     		mov	r6, sp
 5199 009c 84AF     		add	r7, sp, #528
 5200 009e 0FCF     		ldmia	r7!, {r0, r1, r2, r3}
 5201 00a0 0FC6     		stmia	r6!, {r0, r1, r2, r3}
 5202 00a2 0FCF     		ldmia	r7!, {r0, r1, r2, r3}
 5203 00a4 0FC6     		stmia	r6!, {r0, r1, r2, r3}
 5204 00a6 97E80700 		ldm	r7, {r0, r1, r2}
 5205 00aa 86E80700 		stm	r6, {r0, r1, r2}
 5206 00ae 80AB     		add	r3, sp, #512
 5207 00b0 0FCB     		ldm	r3, {r0, r1, r2, r3}
 5208 00b2 FFF7FEFF 		bl	firstInCommandBuffer_Gcode
 5209              	.LVL712:
 420:Src/Gcode/Buffer_Gcode.c ****     command_Gcode command3 = {GO_HOME_XY_COMMAND, x, y, 0, 0,   v, v, 0, 0,    a, 0, 0, 0,   0, 0};
 5210              		.loc 1 420 5 view .LVU1098
 420:Src/Gcode/Buffer_Gcode.c ****     command_Gcode command3 = {GO_HOME_XY_COMMAND, x, y, 0, 0,   v, v, 0, 0,    a, 0, 0, 0,   0, 0};
 5211              		.loc 1 420 33 view .LVU1099
 420:Src/Gcode/Buffer_Gcode.c ****     command_Gcode command3 = {GO_HOME_XY_COMMAND, x, y, 0, 0,   v, v, 0, 0,    a, 0, 0, 0,   0, 0};
 5212              		.loc 1 420 65 view .LVU1100
 420:Src/Gcode/Buffer_Gcode.c ****     command_Gcode command3 = {GO_HOME_XY_COMMAND, x, y, 0, 0,   v, v, 0, 0,    a, 0, 0, 0,   0, 0};
 5213              		.loc 1 420 116 view .LVU1101
 421:Src/Gcode/Buffer_Gcode.c **** 
 5214              		.loc 1 421 5 view .LVU1102
 421:Src/Gcode/Buffer_Gcode.c **** 
 5215              		.loc 1 421 19 is_stmt 0 view .LVU1103
 5216 00b6 8DF8C491 		strb	r9, [sp, #452]
 5217 00ba CDF8C881 		str	r8, [sp, #456]
 5218 00be CDF8CC81 		str	r8, [sp, #460]
 5219 00c2 CDF8D081 		str	r8, [sp, #464]
 5220 00c6 CDF8D481 		str	r8, [sp, #468]
 5221 00ca 854B     		ldr	r3, .L175+8
 5222 00cc 7693     		str	r3, [sp, #472]	@ float
 5223 00ce 7793     		str	r3, [sp, #476]	@ float
 5224 00d0 7894     		str	r4, [sp, #480]	@ float
 5225 00d2 7994     		str	r4, [sp, #484]	@ float
 5226 00d4 7A94     		str	r4, [sp, #488]	@ float
 5227 00d6 7B94     		str	r4, [sp, #492]	@ float
 5228 00d8 7C94     		str	r4, [sp, #496]	@ float
 5229 00da 7D94     		str	r4, [sp, #500]	@ float
 5230 00dc 7E94     		str	r4, [sp, #504]	@ float
ARM GAS  /tmp/ccMe0kQ8.s 			page 120


 5231 00de 7F94     		str	r4, [sp, #508]	@ float
 421:Src/Gcode/Buffer_Gcode.c **** 
 5232              		.loc 1 421 105 is_stmt 1 view .LVU1104
 5233 00e0 6C46     		mov	r4, sp
 5234 00e2 75AE     		add	r6, sp, #468
 5235 00e4 0FCE     		ldmia	r6!, {r0, r1, r2, r3}
 5236 00e6 0FC4     		stmia	r4!, {r0, r1, r2, r3}
 5237 00e8 0FCE     		ldmia	r6!, {r0, r1, r2, r3}
 5238 00ea 0FC4     		stmia	r4!, {r0, r1, r2, r3}
 5239 00ec 96E80700 		ldm	r6, {r0, r1, r2}
 5240 00f0 84E80700 		stm	r4, {r0, r1, r2}
 5241 00f4 71AB     		add	r3, sp, #452
 5242 00f6 0FCB     		ldm	r3, {r0, r1, r2, r3}
 5243 00f8 FFF7FEFF 		bl	firstInCommandBuffer_Gcode
 5244              	.LVL713:
 423:Src/Gcode/Buffer_Gcode.c ****     if (dXn <  0 || dYn <  0) return;
 5245              		.loc 1 423 5 view .LVU1105
 423:Src/Gcode/Buffer_Gcode.c ****     if (dXn <  0 || dYn <  0) return;
 5246              		.loc 1 423 8 is_stmt 0 view .LVU1106
 5247 00fc 1DB9     		cbnz	r5, .L166
 423:Src/Gcode/Buffer_Gcode.c ****     if (dXn <  0 || dYn <  0) return;
 5248              		.loc 1 423 18 discriminator 1 view .LVU1107
 5249 00fe BAF1000F 		cmp	r10, #0
 5250 0102 00F0E480 		beq	.L165
 5251              	.L166:
 424:Src/Gcode/Buffer_Gcode.c **** 
 5252              		.loc 1 424 5 is_stmt 1 view .LVU1108
 424:Src/Gcode/Buffer_Gcode.c **** 
 5253              		.loc 1 424 8 is_stmt 0 view .LVU1109
 5254 0106 002D     		cmp	r5, #0
 5255 0108 C0F2E180 		blt	.L165
 424:Src/Gcode/Buffer_Gcode.c **** 
 5256              		.loc 1 424 18 discriminator 2 view .LVU1110
 5257 010c BAF1000F 		cmp	r10, #0
 5258 0110 C0F2DD80 		blt	.L165
 426:Src/Gcode/Buffer_Gcode.c ****     float cosX = (float)dXn/distance_XY;    float targetSpeedX = HOME_COARSE_SPEED_XY_STEPS_PER_SEC
 5259              		.loc 1 426 5 is_stmt 1 view .LVU1111
 426:Src/Gcode/Buffer_Gcode.c ****     float cosX = (float)dXn/distance_XY;    float targetSpeedX = HOME_COARSE_SPEED_XY_STEPS_PER_SEC
 5260              		.loc 1 426 31 is_stmt 0 view .LVU1112
 5261 0114 4FF00008 		mov	r8, #0
 5262 0118 4FF08049 		mov	r9, #1073741824
 5263 011c 2846     		mov	r0, r5
 5264 011e FFF7FEFF 		bl	__aeabi_i2d
 5265              	.LVL714:
 5266 0122 4246     		mov	r2, r8
 5267 0124 4B46     		mov	r3, r9
 5268 0126 FFF7FEFF 		bl	pow
 5269              	.LVL715:
 5270 012a 0646     		mov	r6, r0
 5271 012c 0F46     		mov	r7, r1
 426:Src/Gcode/Buffer_Gcode.c ****     float cosX = (float)dXn/distance_XY;    float targetSpeedX = HOME_COARSE_SPEED_XY_STEPS_PER_SEC
 5272              		.loc 1 426 42 view .LVU1113
 5273 012e 5046     		mov	r0, r10
 5274 0130 FFF7FEFF 		bl	__aeabi_i2d
 5275              	.LVL716:
 5276 0134 4246     		mov	r2, r8
 5277 0136 4B46     		mov	r3, r9
ARM GAS  /tmp/ccMe0kQ8.s 			page 121


 5278 0138 FFF7FEFF 		bl	pow
 5279              	.LVL717:
 5280 013c 0246     		mov	r2, r0
 5281 013e 0B46     		mov	r3, r1
 426:Src/Gcode/Buffer_Gcode.c ****     float cosX = (float)dXn/distance_XY;    float targetSpeedX = HOME_COARSE_SPEED_XY_STEPS_PER_SEC
 5282              		.loc 1 426 41 view .LVU1114
 5283 0140 3046     		mov	r0, r6
 5284 0142 3946     		mov	r1, r7
 5285 0144 FFF7FEFF 		bl	__aeabi_dadd
 5286              	.LVL718:
 426:Src/Gcode/Buffer_Gcode.c ****     float cosX = (float)dXn/distance_XY;    float targetSpeedX = HOME_COARSE_SPEED_XY_STEPS_PER_SEC
 5287              		.loc 1 426 25 view .LVU1115
 5288 0148 FFF7FEFF 		bl	__aeabi_d2f
 5289              	.LVL719:
 5290 014c FFF7FEFF 		bl	sqrtf
 5291              	.LVL720:
 5292 0150 0446     		mov	r4, r0
 5293              	.LVL721:
 427:Src/Gcode/Buffer_Gcode.c ****     float cosY = (float)dYn/distance_XY;    float targetSpeedY = HOME_COARSE_SPEED_XY_STEPS_PER_SEC
 5294              		.loc 1 427 5 is_stmt 1 view .LVU1116
 427:Src/Gcode/Buffer_Gcode.c ****     float cosY = (float)dYn/distance_XY;    float targetSpeedY = HOME_COARSE_SPEED_XY_STEPS_PER_SEC
 5295              		.loc 1 427 18 is_stmt 0 view .LVU1117
 5296 0152 2846     		mov	r0, r5
 5297              	.LVL722:
 427:Src/Gcode/Buffer_Gcode.c ****     float cosY = (float)dYn/distance_XY;    float targetSpeedY = HOME_COARSE_SPEED_XY_STEPS_PER_SEC
 5298              		.loc 1 427 18 view .LVU1118
 5299 0154 FFF7FEFF 		bl	__aeabi_i2f
 5300              	.LVL723:
 5301 0158 1090     		str	r0, [sp, #64]	@ float
 427:Src/Gcode/Buffer_Gcode.c ****     float cosY = (float)dYn/distance_XY;    float targetSpeedY = HOME_COARSE_SPEED_XY_STEPS_PER_SEC
 5302              		.loc 1 427 11 view .LVU1119
 5303 015a 2146     		mov	r1, r4
 5304 015c FFF7FEFF 		bl	__aeabi_fdiv
 5305              	.LVL724:
 5306 0160 8346     		mov	fp, r0
 5307              	.LVL725:
 427:Src/Gcode/Buffer_Gcode.c ****     float cosY = (float)dYn/distance_XY;    float targetSpeedY = HOME_COARSE_SPEED_XY_STEPS_PER_SEC
 5308              		.loc 1 427 45 is_stmt 1 view .LVU1120
 427:Src/Gcode/Buffer_Gcode.c ****     float cosY = (float)dYn/distance_XY;    float targetSpeedY = HOME_COARSE_SPEED_XY_STEPS_PER_SEC
 5309              		.loc 1 427 51 is_stmt 0 view .LVU1121
 5310 0162 5E49     		ldr	r1, .L175+4
 5311 0164 FFF7FEFF 		bl	__aeabi_fmul
 5312              	.LVL726:
 427:Src/Gcode/Buffer_Gcode.c ****     float cosY = (float)dYn/distance_XY;    float targetSpeedY = HOME_COARSE_SPEED_XY_STEPS_PER_SEC
 5313              		.loc 1 427 51 view .LVU1122
 5314 0168 0746     		mov	r7, r0
 5315              	.LVL727:
 427:Src/Gcode/Buffer_Gcode.c ****     float cosY = (float)dYn/distance_XY;    float targetSpeedY = HOME_COARSE_SPEED_XY_STEPS_PER_SEC
 5316              		.loc 1 427 111 is_stmt 1 view .LVU1123
 427:Src/Gcode/Buffer_Gcode.c ****     float cosY = (float)dYn/distance_XY;    float targetSpeedY = HOME_COARSE_SPEED_XY_STEPS_PER_SEC
 5317              		.loc 1 427 117 is_stmt 0 view .LVU1124
 5318 016a 5E49     		ldr	r1, .L175+12
 5319 016c 5846     		mov	r0, fp
 5320              	.LVL728:
 427:Src/Gcode/Buffer_Gcode.c ****     float cosY = (float)dYn/distance_XY;    float targetSpeedY = HOME_COARSE_SPEED_XY_STEPS_PER_SEC
 5321              		.loc 1 427 117 view .LVU1125
 5322 016e FFF7FEFF 		bl	__aeabi_fmul
ARM GAS  /tmp/ccMe0kQ8.s 			page 122


 5323              	.LVL729:
 5324 0172 0D90     		str	r0, [sp, #52]	@ float
 5325              	.LVL730:
 428:Src/Gcode/Buffer_Gcode.c ****     float startDistance_XY = pow(HOME_COARSE_SPEED_XY_STEPS_PER_SECOND,2)/(2*ACCELERATION_XY_STEPS_
 5326              		.loc 1 428 5 is_stmt 1 view .LVU1126
 428:Src/Gcode/Buffer_Gcode.c ****     float startDistance_XY = pow(HOME_COARSE_SPEED_XY_STEPS_PER_SECOND,2)/(2*ACCELERATION_XY_STEPS_
 5327              		.loc 1 428 18 is_stmt 0 view .LVU1127
 5328 0174 5046     		mov	r0, r10
 5329              	.LVL731:
 428:Src/Gcode/Buffer_Gcode.c ****     float startDistance_XY = pow(HOME_COARSE_SPEED_XY_STEPS_PER_SECOND,2)/(2*ACCELERATION_XY_STEPS_
 5330              		.loc 1 428 18 view .LVU1128
 5331 0176 FFF7FEFF 		bl	__aeabi_i2f
 5332              	.LVL732:
 5333 017a 1190     		str	r0, [sp, #68]	@ float
 428:Src/Gcode/Buffer_Gcode.c ****     float startDistance_XY = pow(HOME_COARSE_SPEED_XY_STEPS_PER_SECOND,2)/(2*ACCELERATION_XY_STEPS_
 5334              		.loc 1 428 11 view .LVU1129
 5335 017c 2146     		mov	r1, r4
 5336 017e FFF7FEFF 		bl	__aeabi_fdiv
 5337              	.LVL733:
 5338 0182 8146     		mov	r9, r0
 5339              	.LVL734:
 428:Src/Gcode/Buffer_Gcode.c ****     float startDistance_XY = pow(HOME_COARSE_SPEED_XY_STEPS_PER_SECOND,2)/(2*ACCELERATION_XY_STEPS_
 5340              		.loc 1 428 45 is_stmt 1 view .LVU1130
 428:Src/Gcode/Buffer_Gcode.c ****     float startDistance_XY = pow(HOME_COARSE_SPEED_XY_STEPS_PER_SECOND,2)/(2*ACCELERATION_XY_STEPS_
 5341              		.loc 1 428 51 is_stmt 0 view .LVU1131
 5342 0184 5549     		ldr	r1, .L175+4
 5343 0186 FFF7FEFF 		bl	__aeabi_fmul
 5344              	.LVL735:
 428:Src/Gcode/Buffer_Gcode.c ****     float startDistance_XY = pow(HOME_COARSE_SPEED_XY_STEPS_PER_SECOND,2)/(2*ACCELERATION_XY_STEPS_
 5345              		.loc 1 428 51 view .LVU1132
 5346 018a 0646     		mov	r6, r0
 5347              	.LVL736:
 428:Src/Gcode/Buffer_Gcode.c ****     float startDistance_XY = pow(HOME_COARSE_SPEED_XY_STEPS_PER_SECOND,2)/(2*ACCELERATION_XY_STEPS_
 5348              		.loc 1 428 111 is_stmt 1 view .LVU1133
 428:Src/Gcode/Buffer_Gcode.c ****     float startDistance_XY = pow(HOME_COARSE_SPEED_XY_STEPS_PER_SECOND,2)/(2*ACCELERATION_XY_STEPS_
 5349              		.loc 1 428 117 is_stmt 0 view .LVU1134
 5350 018c 5549     		ldr	r1, .L175+12
 5351 018e 4846     		mov	r0, r9
 5352              	.LVL737:
 428:Src/Gcode/Buffer_Gcode.c ****     float startDistance_XY = pow(HOME_COARSE_SPEED_XY_STEPS_PER_SECOND,2)/(2*ACCELERATION_XY_STEPS_
 5353              		.loc 1 428 117 view .LVU1135
 5354 0190 FFF7FEFF 		bl	__aeabi_fmul
 5355              	.LVL738:
 5356 0194 0E90     		str	r0, [sp, #56]	@ float
 5357              	.LVL739:
 429:Src/Gcode/Buffer_Gcode.c ****     long l_HOME_X = lroundf(startDistance_XY*cosX);     long l_HOME_Y = lroundf(startDistance_XY*co
 5358              		.loc 1 429 5 is_stmt 1 view .LVU1136
 430:Src/Gcode/Buffer_Gcode.c **** 
 5359              		.loc 1 430 5 view .LVU1137
 430:Src/Gcode/Buffer_Gcode.c **** 
 5360              		.loc 1 430 21 is_stmt 0 view .LVU1138
 5361 0196 3846     		mov	r0, r7
 5362              	.LVL740:
 430:Src/Gcode/Buffer_Gcode.c **** 
 5363              		.loc 1 430 21 view .LVU1139
 5364 0198 FFF7FEFF 		bl	lroundf
 5365              	.LVL741:
ARM GAS  /tmp/ccMe0kQ8.s 			page 123


 5366 019c 0F90     		str	r0, [sp, #60]
 5367              	.LVL742:
 430:Src/Gcode/Buffer_Gcode.c **** 
 5368              		.loc 1 430 57 is_stmt 1 view .LVU1140
 430:Src/Gcode/Buffer_Gcode.c **** 
 5369              		.loc 1 430 73 is_stmt 0 view .LVU1141
 5370 019e 3046     		mov	r0, r6
 5371              	.LVL743:
 430:Src/Gcode/Buffer_Gcode.c **** 
 5372              		.loc 1 430 73 view .LVU1142
 5373 01a0 FFF7FEFF 		bl	lroundf
 5374              	.LVL744:
 5375 01a4 8046     		mov	r8, r0
 5376              	.LVL745:
 432:Src/Gcode/Buffer_Gcode.c ****     {
 5377              		.loc 1 432 5 is_stmt 1 view .LVU1143
 432:Src/Gcode/Buffer_Gcode.c ****     {
 5378              		.loc 1 432 8 is_stmt 0 view .LVU1144
 5379 01a6 5049     		ldr	r1, .L175+16
 5380 01a8 2046     		mov	r0, r4
 5381              	.LVL746:
 432:Src/Gcode/Buffer_Gcode.c ****     {
 5382              		.loc 1 432 8 view .LVU1145
 5383 01aa FFF7FEFF 		bl	__aeabi_fcmplt
 5384              	.LVL747:
 5385 01ae 0028     		cmp	r0, #0
 5386 01b0 40F09C80 		bne	.L174
 443:Src/Gcode/Buffer_Gcode.c ****     command_Gcode command4 = {MOVE_COMMAND,      x, y, 0, 0,    vX, vY, 0, 0,    aX, aY, 0, 0,   0,
 5387              		.loc 1 443 5 is_stmt 1 view .LVU1146
 5388              	.LVL748:
 443:Src/Gcode/Buffer_Gcode.c ****     command_Gcode command4 = {MOVE_COMMAND,      x, y, 0, 0,    vX, vY, 0, 0,    aX, aY, 0, 0,   0,
 5389              		.loc 1 443 29 view .LVU1147
 443:Src/Gcode/Buffer_Gcode.c ****     command_Gcode command4 = {MOVE_COMMAND,      x, y, 0, 0,    vX, vY, 0, 0,    aX, aY, 0, 0,   0,
 5390              		.loc 1 443 53 view .LVU1148
 443:Src/Gcode/Buffer_Gcode.c ****     command_Gcode command4 = {MOVE_COMMAND,      x, y, 0, 0,    vX, vY, 0, 0,    aX, aY, 0, 0,   0,
 5391              		.loc 1 443 76 view .LVU1149
 443:Src/Gcode/Buffer_Gcode.c ****     command_Gcode command4 = {MOVE_COMMAND,      x, y, 0, 0,    vX, vY, 0, 0,    aX, aY, 0, 0,   0,
 5392              		.loc 1 443 99 view .LVU1150
 443:Src/Gcode/Buffer_Gcode.c ****     command_Gcode command4 = {MOVE_COMMAND,      x, y, 0, 0,    vX, vY, 0, 0,    aX, aY, 0, 0,   0,
 5393              		.loc 1 443 123 view .LVU1151
 444:Src/Gcode/Buffer_Gcode.c ****     x = dXn-2*l_HOME_X;     y = dYn-2*l_HOME_Y;     vX = targetSpeedX;     vY = targetSpeedY;     a
 5394              		.loc 1 444 5 view .LVU1152
 444:Src/Gcode/Buffer_Gcode.c ****     x = dXn-2*l_HOME_X;     y = dYn-2*l_HOME_Y;     vX = targetSpeedX;     vY = targetSpeedY;     a
 5395              		.loc 1 444 19 is_stmt 0 view .LVU1153
 5396 01b4 4FF0010B 		mov	fp, #1
 5397              	.LVL749:
 444:Src/Gcode/Buffer_Gcode.c ****     x = dXn-2*l_HOME_X;     y = dYn-2*l_HOME_Y;     vX = targetSpeedX;     vY = targetSpeedY;     a
 5398              		.loc 1 444 19 view .LVU1154
 5399 01b8 8DF888B1 		strb	fp, [sp, #392]
 5400 01bc 0F9B     		ldr	r3, [sp, #60]
 5401 01be 6393     		str	r3, [sp, #396]
 5402 01c0 CDF89081 		str	r8, [sp, #400]
 5403 01c4 4FF00009 		mov	r9, #0
 5404              	.LVL750:
 444:Src/Gcode/Buffer_Gcode.c ****     x = dXn-2*l_HOME_X;     y = dYn-2*l_HOME_Y;     vX = targetSpeedX;     vY = targetSpeedY;     a
 5405              		.loc 1 444 19 view .LVU1155
 5406 01c8 CDF89491 		str	r9, [sp, #404]
ARM GAS  /tmp/ccMe0kQ8.s 			page 124


 5407 01cc CDF89891 		str	r9, [sp, #408]
 5408 01d0 0024     		movs	r4, #0
 5409              	.LVL751:
 444:Src/Gcode/Buffer_Gcode.c ****     x = dXn-2*l_HOME_X;     y = dYn-2*l_HOME_Y;     vX = targetSpeedX;     vY = targetSpeedY;     a
 5410              		.loc 1 444 19 view .LVU1156
 5411 01d2 6794     		str	r4, [sp, #412]	@ float
 5412 01d4 6894     		str	r4, [sp, #416]	@ float
 5413 01d6 6994     		str	r4, [sp, #420]	@ float
 5414 01d8 6A94     		str	r4, [sp, #424]	@ float
 5415 01da 0D99     		ldr	r1, [sp, #52]	@ float
 5416 01dc 6B91     		str	r1, [sp, #428]	@ float
 5417 01de 0E98     		ldr	r0, [sp, #56]	@ float
 5418 01e0 6C90     		str	r0, [sp, #432]	@ float
 5419 01e2 6D94     		str	r4, [sp, #436]	@ float
 5420 01e4 6E94     		str	r4, [sp, #440]	@ float
 5421 01e6 6F94     		str	r4, [sp, #444]	@ float
 5422 01e8 7094     		str	r4, [sp, #448]	@ float
 444:Src/Gcode/Buffer_Gcode.c ****     x = dXn-2*l_HOME_X;     y = dYn-2*l_HOME_Y;     vX = targetSpeedX;     vY = targetSpeedY;     a
 5423              		.loc 1 444 109 is_stmt 1 view .LVU1157
 5424 01ea EC46     		mov	ip, sp
 5425 01ec 0DF5CC7E 		add	lr, sp, #408
 5426 01f0 BEE80F00 		ldmia	lr!, {r0, r1, r2, r3}
 5427 01f4 ACE80F00 		stmia	ip!, {r0, r1, r2, r3}
 5428 01f8 BEE80F00 		ldmia	lr!, {r0, r1, r2, r3}
 5429 01fc ACE80F00 		stmia	ip!, {r0, r1, r2, r3}
 5430 0200 9EE80700 		ldm	lr, {r0, r1, r2}
 5431 0204 8CE80700 		stm	ip, {r0, r1, r2}
 5432 0208 62AB     		add	r3, sp, #392
 5433 020a 0FCB     		ldm	r3, {r0, r1, r2, r3}
 5434 020c FFF7FEFF 		bl	firstInCommandBuffer_Gcode
 5435              	.LVL752:
 445:Src/Gcode/Buffer_Gcode.c ****     command_Gcode command5 = {MOVE_COMMAND,      x, y, 0, 0,    vX, vY, 0, 0,    aX, aY, 0, 0,   0,
 5436              		.loc 1 445 5 view .LVU1158
 445:Src/Gcode/Buffer_Gcode.c ****     command_Gcode command5 = {MOVE_COMMAND,      x, y, 0, 0,    vX, vY, 0, 0,    aX, aY, 0, 0,   0,
 5437              		.loc 1 445 7 is_stmt 0 view .LVU1159
 5438 0210 0F9A     		ldr	r2, [sp, #60]
 5439 0212 A5EB4205 		sub	r5, r5, r2, lsl #1
 5440              	.LVL753:
 445:Src/Gcode/Buffer_Gcode.c ****     command_Gcode command5 = {MOVE_COMMAND,      x, y, 0, 0,    vX, vY, 0, 0,    aX, aY, 0, 0,   0,
 5441              		.loc 1 445 29 is_stmt 1 view .LVU1160
 445:Src/Gcode/Buffer_Gcode.c ****     command_Gcode command5 = {MOVE_COMMAND,      x, y, 0, 0,    vX, vY, 0, 0,    aX, aY, 0, 0,   0,
 5442              		.loc 1 445 31 is_stmt 0 view .LVU1161
 5443 0216 AAEB4803 		sub	r3, r10, r8, lsl #1
 5444              	.LVL754:
 445:Src/Gcode/Buffer_Gcode.c ****     command_Gcode command5 = {MOVE_COMMAND,      x, y, 0, 0,    vX, vY, 0, 0,    aX, aY, 0, 0,   0,
 5445              		.loc 1 445 53 is_stmt 1 view .LVU1162
 445:Src/Gcode/Buffer_Gcode.c ****     command_Gcode command5 = {MOVE_COMMAND,      x, y, 0, 0,    vX, vY, 0, 0,    aX, aY, 0, 0,   0,
 5446              		.loc 1 445 76 view .LVU1163
 445:Src/Gcode/Buffer_Gcode.c ****     command_Gcode command5 = {MOVE_COMMAND,      x, y, 0, 0,    vX, vY, 0, 0,    aX, aY, 0, 0,   0,
 5447              		.loc 1 445 99 view .LVU1164
 445:Src/Gcode/Buffer_Gcode.c ****     command_Gcode command5 = {MOVE_COMMAND,      x, y, 0, 0,    vX, vY, 0, 0,    aX, aY, 0, 0,   0,
 5448              		.loc 1 445 123 view .LVU1165
 446:Src/Gcode/Buffer_Gcode.c ****     x = l_HOME_X;           y = l_HOME_Y;           vX = targetSpeedX;     vY = targetSpeedY;     a
 5449              		.loc 1 446 5 view .LVU1166
 446:Src/Gcode/Buffer_Gcode.c ****     x = l_HOME_X;           y = l_HOME_Y;           vX = targetSpeedX;     vY = targetSpeedY;     a
 5450              		.loc 1 446 19 is_stmt 0 view .LVU1167
 5451 021a 0DF5A67C 		add	ip, sp, #332
ARM GAS  /tmp/ccMe0kQ8.s 			page 125


 5452 021e 8CF800B0 		strb	fp, [ip]
 5453 0222 CCF80450 		str	r5, [ip, #4]
 5454 0226 CCF80830 		str	r3, [ip, #8]
 5455 022a CCF80C90 		str	r9, [ip, #12]
 5456 022e CCF81090 		str	r9, [ip, #16]
 5457 0232 CCF81470 		str	r7, [ip, #20]	@ float
 5458 0236 CCF81860 		str	r6, [ip, #24]	@ float
 5459 023a CCF81C40 		str	r4, [ip, #28]	@ float
 5460 023e CCF82040 		str	r4, [ip, #32]	@ float
 5461 0242 CCF82440 		str	r4, [ip, #36]	@ float
 5462 0246 CCF82840 		str	r4, [ip, #40]	@ float
 5463 024a CCF82C40 		str	r4, [ip, #44]	@ float
 5464 024e CCF83040 		str	r4, [ip, #48]	@ float
 5465 0252 CCF83440 		str	r4, [ip, #52]	@ float
 5466 0256 CCF83840 		str	r4, [ip, #56]	@ float
 446:Src/Gcode/Buffer_Gcode.c ****     x = l_HOME_X;           y = l_HOME_Y;           vX = targetSpeedX;     vY = targetSpeedY;     a
 5467              		.loc 1 446 109 is_stmt 1 view .LVU1168
 5468 025a 6D46     		mov	r5, sp
 5469              	.LVL755:
 446:Src/Gcode/Buffer_Gcode.c ****     x = l_HOME_X;           y = l_HOME_Y;           vX = targetSpeedX;     vY = targetSpeedY;     a
 5470              		.loc 1 446 109 is_stmt 0 view .LVU1169
 5471 025c 0DF5AE7E 		add	lr, sp, #348
 5472 0260 BEE80F00 		ldmia	lr!, {r0, r1, r2, r3}
 5473              	.LVL756:
 446:Src/Gcode/Buffer_Gcode.c ****     x = l_HOME_X;           y = l_HOME_Y;           vX = targetSpeedX;     vY = targetSpeedY;     a
 5474              		.loc 1 446 109 view .LVU1170
 5475 0264 0FC5     		stmia	r5!, {r0, r1, r2, r3}
 5476 0266 BEE80F00 		ldmia	lr!, {r0, r1, r2, r3}
 5477 026a 0FC5     		stmia	r5!, {r0, r1, r2, r3}
 5478 026c 9EE80700 		ldm	lr, {r0, r1, r2}
 5479 0270 85E80700 		stm	r5, {r0, r1, r2}
 5480 0274 9CE80F00 		ldm	ip, {r0, r1, r2, r3}
 5481 0278 FFF7FEFF 		bl	firstInCommandBuffer_Gcode
 5482              	.LVL757:
 447:Src/Gcode/Buffer_Gcode.c ****     command_Gcode command6 = {MOVE_COMMAND,      x, y, 0, 0,    vX, vY, 0, 0,    aX, aY, 0, 0,   0,
 5483              		.loc 1 447 5 is_stmt 1 view .LVU1171
 447:Src/Gcode/Buffer_Gcode.c ****     command_Gcode command6 = {MOVE_COMMAND,      x, y, 0, 0,    vX, vY, 0, 0,    aX, aY, 0, 0,   0,
 5484              		.loc 1 447 29 view .LVU1172
 447:Src/Gcode/Buffer_Gcode.c ****     command_Gcode command6 = {MOVE_COMMAND,      x, y, 0, 0,    vX, vY, 0, 0,    aX, aY, 0, 0,   0,
 5485              		.loc 1 447 53 view .LVU1173
 447:Src/Gcode/Buffer_Gcode.c ****     command_Gcode command6 = {MOVE_COMMAND,      x, y, 0, 0,    vX, vY, 0, 0,    aX, aY, 0, 0,   0,
 5486              		.loc 1 447 76 view .LVU1174
 447:Src/Gcode/Buffer_Gcode.c ****     command_Gcode command6 = {MOVE_COMMAND,      x, y, 0, 0,    vX, vY, 0, 0,    aX, aY, 0, 0,   0,
 5487              		.loc 1 447 99 view .LVU1175
 447:Src/Gcode/Buffer_Gcode.c ****     command_Gcode command6 = {MOVE_COMMAND,      x, y, 0, 0,    vX, vY, 0, 0,    aX, aY, 0, 0,   0,
 5488              		.loc 1 447 102 is_stmt 0 view .LVU1176
 5489 027c 0D99     		ldr	r1, [sp, #52]
 5490 027e 01F10043 		add	r3, r1, #-2147483648
 5491              	.LVL758:
 447:Src/Gcode/Buffer_Gcode.c ****     command_Gcode command6 = {MOVE_COMMAND,      x, y, 0, 0,    vX, vY, 0, 0,    aX, aY, 0, 0,   0,
 5492              		.loc 1 447 123 is_stmt 1 view .LVU1177
 447:Src/Gcode/Buffer_Gcode.c ****     command_Gcode command6 = {MOVE_COMMAND,      x, y, 0, 0,    vX, vY, 0, 0,    aX, aY, 0, 0,   0,
 5493              		.loc 1 447 126 is_stmt 0 view .LVU1178
 5494 0282 0E99     		ldr	r1, [sp, #56]
 5495 0284 01F10040 		add	r0, r1, #-2147483648
 5496              	.LVL759:
 448:Src/Gcode/Buffer_Gcode.c **** }
ARM GAS  /tmp/ccMe0kQ8.s 			page 126


 5497              		.loc 1 448 5 is_stmt 1 view .LVU1179
 448:Src/Gcode/Buffer_Gcode.c **** }
 5498              		.loc 1 448 19 is_stmt 0 view .LVU1180
 5499 0288 44AD     		add	r5, sp, #272
 5500 028a 85F800B0 		strb	fp, [r5]
 5501 028e 0F9A     		ldr	r2, [sp, #60]
 5502 0290 6A60     		str	r2, [r5, #4]
 5503 0292 C5F80880 		str	r8, [r5, #8]
 5504 0296 C5F80C90 		str	r9, [r5, #12]
 5505 029a C5F81090 		str	r9, [r5, #16]
 5506 029e 6F61     		str	r7, [r5, #20]	@ float
 5507 02a0 AE61     		str	r6, [r5, #24]	@ float
 5508 02a2 EC61     		str	r4, [r5, #28]	@ float
 5509 02a4 2C62     		str	r4, [r5, #32]	@ float
 5510 02a6 6B62     		str	r3, [r5, #36]	@ float
 5511 02a8 A862     		str	r0, [r5, #40]	@ float
 5512 02aa EC62     		str	r4, [r5, #44]	@ float
 5513 02ac 2C63     		str	r4, [r5, #48]	@ float
 5514 02ae 6C63     		str	r4, [r5, #52]	@ float
 5515 02b0 AC63     		str	r4, [r5, #56]	@ float
 448:Src/Gcode/Buffer_Gcode.c **** }
 5516              		.loc 1 448 109 is_stmt 1 view .LVU1181
 5517 02b2 6C46     		mov	r4, sp
 5518 02b4 48AE     		add	r6, sp, #288
 5519              	.LVL760:
 448:Src/Gcode/Buffer_Gcode.c **** }
 5520              		.loc 1 448 109 is_stmt 0 view .LVU1182
 5521 02b6 0FCE     		ldmia	r6!, {r0, r1, r2, r3}
 5522              	.LVL761:
 448:Src/Gcode/Buffer_Gcode.c **** }
 5523              		.loc 1 448 109 view .LVU1183
 5524 02b8 0FC4     		stmia	r4!, {r0, r1, r2, r3}
 5525 02ba 0FCE     		ldmia	r6!, {r0, r1, r2, r3}
 5526 02bc 0FC4     		stmia	r4!, {r0, r1, r2, r3}
 5527 02be 96E80700 		ldm	r6, {r0, r1, r2}
 5528 02c2 84E80700 		stm	r4, {r0, r1, r2}
 5529 02c6 95E80F00 		ldm	r5, {r0, r1, r2, r3}
 5530 02ca FFF7FEFF 		bl	firstInCommandBuffer_Gcode
 5531              	.LVL762:
 5532              	.L165:
 449:Src/Gcode/Buffer_Gcode.c **** 
 5533              		.loc 1 449 1 view .LVU1184
 5534 02ce 0DF51F7D 		add	sp, sp, #636
 5535              	.LCFI56:
 5536              		.cfi_remember_state
 5537              		.cfi_def_cfa_offset 36
 5538              		@ sp needed
 5539 02d2 BDE8F08F 		pop	{r4, r5, r6, r7, r8, r9, r10, fp, pc}
 5540              	.LVL763:
 5541              	.L176:
 449:Src/Gcode/Buffer_Gcode.c **** 
 5542              		.loc 1 449 1 view .LVU1185
 5543 02d6 00BF     		.align	2
 5544              	.L175:
 5545 02d8 ABAA26C5 		.word	-987321685
 5546 02dc ABAA2645 		.word	1160161963
 5547 02e0 ABAA26C4 		.word	-1004098901
ARM GAS  /tmp/ccMe0kQ8.s 			page 127


 5548 02e4 ABAAA644 		.word	1151773355
 5549 02e8 ABAAA645 		.word	1168550571
 5550              	.LVL764:
 5551              	.L174:
 5552              	.LCFI57:
 5553              		.cfi_restore_state
 5554              	.LBB9:
 434:Src/Gcode/Buffer_Gcode.c ****         long yStar = lroundf(0.25+(float)dYn/2);   float vStarY = cosY*sqrtf(2*ACCELERATION_XY_STEP
 5555              		.loc 1 434 9 is_stmt 1 view .LVU1186
 434:Src/Gcode/Buffer_Gcode.c ****         long yStar = lroundf(0.25+(float)dYn/2);   float vStarY = cosY*sqrtf(2*ACCELERATION_XY_STEP
 5556              		.loc 1 434 45 is_stmt 0 view .LVU1187
 5557 02ec 4FF07C51 		mov	r1, #1056964608
 5558 02f0 1098     		ldr	r0, [sp, #64]	@ float
 5559 02f2 FFF7FEFF 		bl	__aeabi_fmul
 5560              	.LVL765:
 434:Src/Gcode/Buffer_Gcode.c ****         long yStar = lroundf(0.25+(float)dYn/2);   float vStarY = cosY*sqrtf(2*ACCELERATION_XY_STEP
 5561              		.loc 1 434 22 view .LVU1188
 5562 02f6 4FF07A51 		mov	r1, #1048576000
 5563 02fa FFF7FEFF 		bl	__aeabi_fadd
 5564              	.LVL766:
 5565 02fe FFF7FEFF 		bl	lroundf
 5566              	.LVL767:
 5567 0302 0646     		mov	r6, r0
 5568              	.LVL768:
 434:Src/Gcode/Buffer_Gcode.c ****         long yStar = lroundf(0.25+(float)dYn/2);   float vStarY = cosY*sqrtf(2*ACCELERATION_XY_STEP
 5569              		.loc 1 434 52 is_stmt 1 view .LVU1189
 434:Src/Gcode/Buffer_Gcode.c ****         long yStar = lroundf(0.25+(float)dYn/2);   float vStarY = cosY*sqrtf(2*ACCELERATION_XY_STEP
 5570              		.loc 1 434 72 is_stmt 0 view .LVU1190
 5571 0304 3C49     		ldr	r1, .L177
 5572 0306 2046     		mov	r0, r4
 5573              	.LVL769:
 434:Src/Gcode/Buffer_Gcode.c ****         long yStar = lroundf(0.25+(float)dYn/2);   float vStarY = cosY*sqrtf(2*ACCELERATION_XY_STEP
 5574              		.loc 1 434 72 view .LVU1191
 5575 0308 FFF7FEFF 		bl	__aeabi_fmul
 5576              	.LVL770:
 5577 030c 0446     		mov	r4, r0
 5578              	.LVL771:
 434:Src/Gcode/Buffer_Gcode.c ****         long yStar = lroundf(0.25+(float)dYn/2);   float vStarY = cosY*sqrtf(2*ACCELERATION_XY_STEP
 5579              		.loc 1 434 72 view .LVU1192
 5580 030e FFF7FEFF 		bl	sqrtf
 5581              	.LVL772:
 434:Src/Gcode/Buffer_Gcode.c ****         long yStar = lroundf(0.25+(float)dYn/2);   float vStarY = cosY*sqrtf(2*ACCELERATION_XY_STEP
 5582              		.loc 1 434 58 view .LVU1193
 5583 0312 5946     		mov	r1, fp
 5584 0314 FFF7FEFF 		bl	__aeabi_fmul
 5585              	.LVL773:
 5586 0318 0F90     		str	r0, [sp, #60]	@ float
 5587              	.LVL774:
 435:Src/Gcode/Buffer_Gcode.c ****         x = xStar;              y = yStar;              vX = 0;                vY = 0;             
 5588              		.loc 1 435 9 is_stmt 1 view .LVU1194
 435:Src/Gcode/Buffer_Gcode.c ****         x = xStar;              y = yStar;              vX = 0;                vY = 0;             
 5589              		.loc 1 435 45 is_stmt 0 view .LVU1195
 5590 031a 4FF07C51 		mov	r1, #1056964608
 5591 031e 1198     		ldr	r0, [sp, #68]	@ float
 5592              	.LVL775:
 435:Src/Gcode/Buffer_Gcode.c ****         x = xStar;              y = yStar;              vX = 0;                vY = 0;             
 5593              		.loc 1 435 45 view .LVU1196
ARM GAS  /tmp/ccMe0kQ8.s 			page 128


 5594 0320 FFF7FEFF 		bl	__aeabi_fmul
 5595              	.LVL776:
 435:Src/Gcode/Buffer_Gcode.c ****         x = xStar;              y = yStar;              vX = 0;                vY = 0;             
 5596              		.loc 1 435 22 view .LVU1197
 5597 0324 4FF07A51 		mov	r1, #1048576000
 5598 0328 FFF7FEFF 		bl	__aeabi_fadd
 5599              	.LVL777:
 5600 032c FFF7FEFF 		bl	lroundf
 5601              	.LVL778:
 5602 0330 8046     		mov	r8, r0
 5603              	.LVL779:
 435:Src/Gcode/Buffer_Gcode.c ****         x = xStar;              y = yStar;              vX = 0;                vY = 0;             
 5604              		.loc 1 435 52 is_stmt 1 view .LVU1198
 435:Src/Gcode/Buffer_Gcode.c ****         x = xStar;              y = yStar;              vX = 0;                vY = 0;             
 5605              		.loc 1 435 72 is_stmt 0 view .LVU1199
 5606 0332 2046     		mov	r0, r4
 5607              	.LVL780:
 435:Src/Gcode/Buffer_Gcode.c ****         x = xStar;              y = yStar;              vX = 0;                vY = 0;             
 5608              		.loc 1 435 72 view .LVU1200
 5609 0334 FFF7FEFF 		bl	sqrtf
 5610              	.LVL781:
 435:Src/Gcode/Buffer_Gcode.c ****         x = xStar;              y = yStar;              vX = 0;                vY = 0;             
 5611              		.loc 1 435 58 view .LVU1201
 5612 0338 4946     		mov	r1, r9
 5613 033a FFF7FEFF 		bl	__aeabi_fmul
 5614              	.LVL782:
 5615 033e 1090     		str	r0, [sp, #64]	@ float
 5616              	.LVL783:
 436:Src/Gcode/Buffer_Gcode.c ****         command_Gcode command4 = {MOVE_COMMAND,      x, y, 0, 0,    vX, vY, 0, 0,    aX, aY, 0, 0, 
 5617              		.loc 1 436 9 is_stmt 1 view .LVU1202
 436:Src/Gcode/Buffer_Gcode.c ****         command_Gcode command4 = {MOVE_COMMAND,      x, y, 0, 0,    vX, vY, 0, 0,    aX, aY, 0, 0, 
 5618              		.loc 1 436 33 view .LVU1203
 436:Src/Gcode/Buffer_Gcode.c ****         command_Gcode command4 = {MOVE_COMMAND,      x, y, 0, 0,    vX, vY, 0, 0,    aX, aY, 0, 0, 
 5619              		.loc 1 436 57 view .LVU1204
 436:Src/Gcode/Buffer_Gcode.c ****         command_Gcode command4 = {MOVE_COMMAND,      x, y, 0, 0,    vX, vY, 0, 0,    aX, aY, 0, 0, 
 5620              		.loc 1 436 80 view .LVU1205
 436:Src/Gcode/Buffer_Gcode.c ****         command_Gcode command4 = {MOVE_COMMAND,      x, y, 0, 0,    vX, vY, 0, 0,    aX, aY, 0, 0, 
 5621              		.loc 1 436 101 view .LVU1206
 436:Src/Gcode/Buffer_Gcode.c ****         command_Gcode command4 = {MOVE_COMMAND,      x, y, 0, 0,    vX, vY, 0, 0,    aX, aY, 0, 0, 
 5622              		.loc 1 436 125 view .LVU1207
 437:Src/Gcode/Buffer_Gcode.c ****         x = dXn-xStar;          y = dYn-yStar;          vX = vStarX;           vY = vStarY;        
 5623              		.loc 1 437 9 view .LVU1208
 437:Src/Gcode/Buffer_Gcode.c ****         x = dXn-xStar;          y = dYn-yStar;          vX = vStarX;           vY = vStarY;        
 5624              		.loc 1 437 23 is_stmt 0 view .LVU1209
 5625 0340 26AC     		add	r4, sp, #152
 5626 0342 4FF0010B 		mov	fp, #1
 5627              	.LVL784:
 437:Src/Gcode/Buffer_Gcode.c ****         x = dXn-xStar;          y = dYn-yStar;          vX = vStarX;           vY = vStarY;        
 5628              		.loc 1 437 23 view .LVU1210
 5629 0346 84F800B0 		strb	fp, [r4]
 5630 034a 6660     		str	r6, [r4, #4]
 5631 034c C4F80880 		str	r8, [r4, #8]
 5632 0350 4FF00009 		mov	r9, #0
 5633              	.LVL785:
 437:Src/Gcode/Buffer_Gcode.c ****         x = dXn-xStar;          y = dYn-yStar;          vX = vStarX;           vY = vStarY;        
 5634              		.loc 1 437 23 view .LVU1211
 5635 0354 C4F80C90 		str	r9, [r4, #12]
ARM GAS  /tmp/ccMe0kQ8.s 			page 129


 5636 0358 C4F81090 		str	r9, [r4, #16]
 5637 035c 0027     		movs	r7, #0
 5638              	.LVL786:
 437:Src/Gcode/Buffer_Gcode.c ****         x = dXn-xStar;          y = dYn-yStar;          vX = vStarX;           vY = vStarY;        
 5639              		.loc 1 437 23 view .LVU1212
 5640 035e 6761     		str	r7, [r4, #20]	@ float
 5641 0360 A761     		str	r7, [r4, #24]	@ float
 5642 0362 E761     		str	r7, [r4, #28]	@ float
 5643 0364 2762     		str	r7, [r4, #32]	@ float
 5644 0366 0D9B     		ldr	r3, [sp, #52]	@ float
 5645 0368 6362     		str	r3, [r4, #36]	@ float
 5646 036a 0E9A     		ldr	r2, [sp, #56]	@ float
 5647 036c A262     		str	r2, [r4, #40]	@ float
 5648 036e E762     		str	r7, [r4, #44]	@ float
 5649 0370 2763     		str	r7, [r4, #48]	@ float
 5650 0372 6763     		str	r7, [r4, #52]	@ float
 5651 0374 A763     		str	r7, [r4, #56]	@ float
 437:Src/Gcode/Buffer_Gcode.c ****         x = dXn-xStar;          y = dYn-yStar;          vX = vStarX;           vY = vStarY;        
 5652              		.loc 1 437 113 is_stmt 1 view .LVU1213
 5653 0376 EC46     		mov	ip, sp
 5654 0378 0DF1A80E 		add	lr, sp, #168
 5655 037c BEE80F00 		ldmia	lr!, {r0, r1, r2, r3}
 5656              	.LVL787:
 437:Src/Gcode/Buffer_Gcode.c ****         x = dXn-xStar;          y = dYn-yStar;          vX = vStarX;           vY = vStarY;        
 5657              		.loc 1 437 113 is_stmt 0 view .LVU1214
 5658 0380 ACE80F00 		stmia	ip!, {r0, r1, r2, r3}
 5659 0384 BEE80F00 		ldmia	lr!, {r0, r1, r2, r3}
 5660 0388 ACE80F00 		stmia	ip!, {r0, r1, r2, r3}
 5661 038c 9EE80700 		ldm	lr, {r0, r1, r2}
 5662 0390 8CE80700 		stm	ip, {r0, r1, r2}
 5663 0394 94E80F00 		ldm	r4, {r0, r1, r2, r3}
 5664 0398 FFF7FEFF 		bl	firstInCommandBuffer_Gcode
 5665              	.LVL788:
 438:Src/Gcode/Buffer_Gcode.c ****         command_Gcode command5 = {MOVE_COMMAND,      x, y, 0, 0,    vX, vY, 0, 0,    aX, aY, 0, 0, 
 5666              		.loc 1 438 9 is_stmt 1 view .LVU1215
 438:Src/Gcode/Buffer_Gcode.c ****         command_Gcode command5 = {MOVE_COMMAND,      x, y, 0, 0,    vX, vY, 0, 0,    aX, aY, 0, 0, 
 5667              		.loc 1 438 11 is_stmt 0 view .LVU1216
 5668 039c AD1B     		subs	r5, r5, r6
 5669              	.LVL789:
 438:Src/Gcode/Buffer_Gcode.c ****         command_Gcode command5 = {MOVE_COMMAND,      x, y, 0, 0,    vX, vY, 0, 0,    aX, aY, 0, 0, 
 5670              		.loc 1 438 33 is_stmt 1 view .LVU1217
 438:Src/Gcode/Buffer_Gcode.c ****         command_Gcode command5 = {MOVE_COMMAND,      x, y, 0, 0,    vX, vY, 0, 0,    aX, aY, 0, 0, 
 5671              		.loc 1 438 35 is_stmt 0 view .LVU1218
 5672 039e AAEB0803 		sub	r3, r10, r8
 5673              	.LVL790:
 438:Src/Gcode/Buffer_Gcode.c ****         command_Gcode command5 = {MOVE_COMMAND,      x, y, 0, 0,    vX, vY, 0, 0,    aX, aY, 0, 0, 
 5674              		.loc 1 438 57 is_stmt 1 view .LVU1219
 438:Src/Gcode/Buffer_Gcode.c ****         command_Gcode command5 = {MOVE_COMMAND,      x, y, 0, 0,    vX, vY, 0, 0,    aX, aY, 0, 0, 
 5675              		.loc 1 438 80 view .LVU1220
 438:Src/Gcode/Buffer_Gcode.c ****         command_Gcode command5 = {MOVE_COMMAND,      x, y, 0, 0,    vX, vY, 0, 0,    aX, aY, 0, 0, 
 5676              		.loc 1 438 101 view .LVU1221
 438:Src/Gcode/Buffer_Gcode.c ****         command_Gcode command5 = {MOVE_COMMAND,      x, y, 0, 0,    vX, vY, 0, 0,    aX, aY, 0, 0, 
 5677              		.loc 1 438 104 is_stmt 0 view .LVU1222
 5678 03a2 0D9A     		ldr	r2, [sp, #52]
 5679 03a4 02F10042 		add	r2, r2, #-2147483648
 5680              	.LVL791:
 438:Src/Gcode/Buffer_Gcode.c ****         command_Gcode command5 = {MOVE_COMMAND,      x, y, 0, 0,    vX, vY, 0, 0,    aX, aY, 0, 0, 
ARM GAS  /tmp/ccMe0kQ8.s 			page 130


 5681              		.loc 1 438 125 is_stmt 1 view .LVU1223
 438:Src/Gcode/Buffer_Gcode.c ****         command_Gcode command5 = {MOVE_COMMAND,      x, y, 0, 0,    vX, vY, 0, 0,    aX, aY, 0, 0, 
 5682              		.loc 1 438 128 is_stmt 0 view .LVU1224
 5683 03a8 0E99     		ldr	r1, [sp, #56]
 5684 03aa 01F10040 		add	r0, r1, #-2147483648
 5685              	.LVL792:
 439:Src/Gcode/Buffer_Gcode.c ****         return;
 5686              		.loc 1 439 9 is_stmt 1 view .LVU1225
 439:Src/Gcode/Buffer_Gcode.c ****         return;
 5687              		.loc 1 439 23 is_stmt 0 view .LVU1226
 5688 03ae 35AC     		add	r4, sp, #212
 5689 03b0 84F800B0 		strb	fp, [r4]
 5690 03b4 6560     		str	r5, [r4, #4]
 5691 03b6 A360     		str	r3, [r4, #8]
 5692 03b8 C4F80C90 		str	r9, [r4, #12]
 5693 03bc C4F81090 		str	r9, [r4, #16]
 5694 03c0 0F9B     		ldr	r3, [sp, #60]	@ float
 5695              	.LVL793:
 439:Src/Gcode/Buffer_Gcode.c ****         return;
 5696              		.loc 1 439 23 view .LVU1227
 5697 03c2 6361     		str	r3, [r4, #20]	@ float
 5698 03c4 109B     		ldr	r3, [sp, #64]	@ float
 5699 03c6 A361     		str	r3, [r4, #24]	@ float
 5700 03c8 E761     		str	r7, [r4, #28]	@ float
 5701 03ca 2762     		str	r7, [r4, #32]	@ float
 5702 03cc 6262     		str	r2, [r4, #36]	@ float
 5703 03ce A062     		str	r0, [r4, #40]	@ float
 5704 03d0 E762     		str	r7, [r4, #44]	@ float
 5705 03d2 2763     		str	r7, [r4, #48]	@ float
 5706 03d4 6763     		str	r7, [r4, #52]	@ float
 5707 03d6 A763     		str	r7, [r4, #56]	@ float
 439:Src/Gcode/Buffer_Gcode.c ****         return;
 5708              		.loc 1 439 113 is_stmt 1 view .LVU1228
 5709 03d8 6D46     		mov	r5, sp
 5710              	.LVL794:
 439:Src/Gcode/Buffer_Gcode.c ****         return;
 5711              		.loc 1 439 113 is_stmt 0 view .LVU1229
 5712 03da 39AE     		add	r6, sp, #228
 5713              	.LVL795:
 439:Src/Gcode/Buffer_Gcode.c ****         return;
 5714              		.loc 1 439 113 view .LVU1230
 5715 03dc 0FCE     		ldmia	r6!, {r0, r1, r2, r3}
 5716              	.LVL796:
 439:Src/Gcode/Buffer_Gcode.c ****         return;
 5717              		.loc 1 439 113 view .LVU1231
 5718 03de 0FC5     		stmia	r5!, {r0, r1, r2, r3}
 5719 03e0 0FCE     		ldmia	r6!, {r0, r1, r2, r3}
 5720 03e2 0FC5     		stmia	r5!, {r0, r1, r2, r3}
 5721 03e4 96E80700 		ldm	r6, {r0, r1, r2}
 5722 03e8 85E80700 		stm	r5, {r0, r1, r2}
 5723 03ec 94E80F00 		ldm	r4, {r0, r1, r2, r3}
 5724 03f0 FFF7FEFF 		bl	firstInCommandBuffer_Gcode
 5725              	.LVL797:
 440:Src/Gcode/Buffer_Gcode.c ****     }
 5726              		.loc 1 440 9 is_stmt 1 view .LVU1232
 5727 03f4 6BE7     		b	.L165
 5728              	.L178:
ARM GAS  /tmp/ccMe0kQ8.s 			page 131


 5729 03f6 00BF     		.align	2
 5730              	.L177:
 5731 03f8 ABAA2645 		.word	1160161963
 5732              	.LBE9:
 5733              		.cfi_endproc
 5734              	.LFE24:
 5736              		.section	.text.SetExtrTemp_Analyser,"ax",%progbits
 5737              		.align	1
 5738              		.syntax unified
 5739              		.thumb
 5740              		.thumb_func
 5741              		.fpu softvfp
 5743              	SetExtrTemp_Analyser:
 5744              	.LFB25:
 452:Src/Gcode/Buffer_Gcode.c ****     float t  = getDescreteCommandBufferElement_Gcode(2).extrT;
 5745              		.loc 1 452 1 view -0
 5746              		.cfi_startproc
 5747              		@ args = 0, pretend = 0, frame = 104
 5748              		@ frame_needed = 0, uses_anonymous_args = 0
 5749 0000 70B5     		push	{r4, r5, r6, lr}
 5750              	.LCFI58:
 5751              		.cfi_def_cfa_offset 16
 5752              		.cfi_offset 4, -16
 5753              		.cfi_offset 5, -12
 5754              		.cfi_offset 6, -8
 5755              		.cfi_offset 14, -4
 5756 0002 A6B0     		sub	sp, sp, #152
 5757              	.LCFI59:
 5758              		.cfi_def_cfa_offset 168
 453:Src/Gcode/Buffer_Gcode.c ****     command_Gcode command = {HEAT_EXTRUDER_COMMAND, 0, 0, 0, 0,   0, 0, 0, 0,    0, 0, 0, 0,   t, 0
 5759              		.loc 1 453 5 view .LVU1234
 453:Src/Gcode/Buffer_Gcode.c ****     command_Gcode command = {HEAT_EXTRUDER_COMMAND, 0, 0, 0, 0,   0, 0, 0, 0,    0, 0, 0, 0,   t, 0
 5760              		.loc 1 453 16 is_stmt 0 view .LVU1235
 5761 0004 0221     		movs	r1, #2
 5762 0006 0DA8     		add	r0, sp, #52
 5763 0008 FFF7FEFF 		bl	getDescreteCommandBufferElement_Gcode
 5764              	.LVL798:
 453:Src/Gcode/Buffer_Gcode.c ****     command_Gcode command = {HEAT_EXTRUDER_COMMAND, 0, 0, 0, 0,   0, 0, 0, 0,    0, 0, 0, 0,   t, 0
 5765              		.loc 1 453 11 view .LVU1236
 5766 000c 159C     		ldr	r4, [sp, #84]	@ float
 5767              	.LVL799:
 454:Src/Gcode/Buffer_Gcode.c **** }
 5768              		.loc 1 454 5 is_stmt 1 view .LVU1237
 454:Src/Gcode/Buffer_Gcode.c **** }
 5769              		.loc 1 454 19 is_stmt 0 view .LVU1238
 5770 000e 17AE     		add	r6, sp, #92
 5771 0010 3C22     		movs	r2, #60
 5772 0012 0021     		movs	r1, #0
 5773 0014 3046     		mov	r0, r6
 5774 0016 FFF7FEFF 		bl	memset
 5775              	.LVL800:
 5776 001a 0A23     		movs	r3, #10
 5777 001c 8DF85C30 		strb	r3, [sp, #92]
 5778 0020 2494     		str	r4, [sp, #144]	@ float
 454:Src/Gcode/Buffer_Gcode.c **** }
 5779              		.loc 1 454 107 is_stmt 1 view .LVU1239
 5780 0022 6C46     		mov	r4, sp
ARM GAS  /tmp/ccMe0kQ8.s 			page 132


 5781              	.LVL801:
 454:Src/Gcode/Buffer_Gcode.c **** }
 5782              		.loc 1 454 107 is_stmt 0 view .LVU1240
 5783 0024 1BAD     		add	r5, sp, #108
 5784 0026 0FCD     		ldmia	r5!, {r0, r1, r2, r3}
 5785 0028 0FC4     		stmia	r4!, {r0, r1, r2, r3}
 5786 002a 0FCD     		ldmia	r5!, {r0, r1, r2, r3}
 5787 002c 0FC4     		stmia	r4!, {r0, r1, r2, r3}
 5788 002e 95E80700 		ldm	r5, {r0, r1, r2}
 5789 0032 84E80700 		stm	r4, {r0, r1, r2}
 5790 0036 96E80F00 		ldm	r6, {r0, r1, r2, r3}
 5791 003a FFF7FEFF 		bl	firstInCommandBuffer_Gcode
 5792              	.LVL802:
 455:Src/Gcode/Buffer_Gcode.c **** 
 5793              		.loc 1 455 1 view .LVU1241
 5794 003e 26B0     		add	sp, sp, #152
 5795              	.LCFI60:
 5796              		.cfi_def_cfa_offset 16
 5797              		@ sp needed
 5798 0040 70BD     		pop	{r4, r5, r6, pc}
 455:Src/Gcode/Buffer_Gcode.c **** 
 5799              		.loc 1 455 1 view .LVU1242
 5800              		.cfi_endproc
 5801              	.LFE25:
 5803              		.section	.text.SetBedTemp_Analyser,"ax",%progbits
 5804              		.align	1
 5805              		.syntax unified
 5806              		.thumb
 5807              		.thumb_func
 5808              		.fpu softvfp
 5810              	SetBedTemp_Analyser:
 5811              	.LFB26:
 458:Src/Gcode/Buffer_Gcode.c ****     float t  = getDescreteCommandBufferElement_Gcode(2).bedT;
 5812              		.loc 1 458 1 is_stmt 1 view -0
 5813              		.cfi_startproc
 5814              		@ args = 0, pretend = 0, frame = 104
 5815              		@ frame_needed = 0, uses_anonymous_args = 0
 5816 0000 70B5     		push	{r4, r5, r6, lr}
 5817              	.LCFI61:
 5818              		.cfi_def_cfa_offset 16
 5819              		.cfi_offset 4, -16
 5820              		.cfi_offset 5, -12
 5821              		.cfi_offset 6, -8
 5822              		.cfi_offset 14, -4
 5823 0002 A6B0     		sub	sp, sp, #152
 5824              	.LCFI62:
 5825              		.cfi_def_cfa_offset 168
 459:Src/Gcode/Buffer_Gcode.c ****     command_Gcode command = {HEAT_BED_COMMAND, 0, 0, 0, 0,   0, 0, 0, 0,    0, 0, 0, 0,   0, t};   
 5826              		.loc 1 459 5 view .LVU1244
 459:Src/Gcode/Buffer_Gcode.c ****     command_Gcode command = {HEAT_BED_COMMAND, 0, 0, 0, 0,   0, 0, 0, 0,    0, 0, 0, 0,   0, t};   
 5827              		.loc 1 459 16 is_stmt 0 view .LVU1245
 5828 0004 0221     		movs	r1, #2
 5829 0006 0DA8     		add	r0, sp, #52
 5830 0008 FFF7FEFF 		bl	getDescreteCommandBufferElement_Gcode
 5831              	.LVL803:
 459:Src/Gcode/Buffer_Gcode.c ****     command_Gcode command = {HEAT_BED_COMMAND, 0, 0, 0, 0,   0, 0, 0, 0,    0, 0, 0, 0,   0, t};   
 5832              		.loc 1 459 11 view .LVU1246
ARM GAS  /tmp/ccMe0kQ8.s 			page 133


 5833 000c 169C     		ldr	r4, [sp, #88]	@ float
 5834              	.LVL804:
 460:Src/Gcode/Buffer_Gcode.c **** }
 5835              		.loc 1 460 5 is_stmt 1 view .LVU1247
 460:Src/Gcode/Buffer_Gcode.c **** }
 5836              		.loc 1 460 19 is_stmt 0 view .LVU1248
 5837 000e 17AE     		add	r6, sp, #92
 5838 0010 3822     		movs	r2, #56
 5839 0012 0021     		movs	r1, #0
 5840 0014 3046     		mov	r0, r6
 5841 0016 FFF7FEFF 		bl	memset
 5842              	.LVL805:
 5843 001a 0B23     		movs	r3, #11
 5844 001c 8DF85C30 		strb	r3, [sp, #92]
 5845 0020 2594     		str	r4, [sp, #148]	@ float
 460:Src/Gcode/Buffer_Gcode.c **** }
 5846              		.loc 1 460 102 is_stmt 1 view .LVU1249
 5847 0022 6C46     		mov	r4, sp
 5848              	.LVL806:
 460:Src/Gcode/Buffer_Gcode.c **** }
 5849              		.loc 1 460 102 is_stmt 0 view .LVU1250
 5850 0024 1BAD     		add	r5, sp, #108
 5851 0026 0FCD     		ldmia	r5!, {r0, r1, r2, r3}
 5852 0028 0FC4     		stmia	r4!, {r0, r1, r2, r3}
 5853 002a 0FCD     		ldmia	r5!, {r0, r1, r2, r3}
 5854 002c 0FC4     		stmia	r4!, {r0, r1, r2, r3}
 5855 002e 95E80700 		ldm	r5, {r0, r1, r2}
 5856 0032 84E80700 		stm	r4, {r0, r1, r2}
 5857 0036 96E80F00 		ldm	r6, {r0, r1, r2, r3}
 5858 003a FFF7FEFF 		bl	firstInCommandBuffer_Gcode
 5859              	.LVL807:
 461:Src/Gcode/Buffer_Gcode.c **** 
 5860              		.loc 1 461 1 view .LVU1251
 5861 003e 26B0     		add	sp, sp, #152
 5862              	.LCFI63:
 5863              		.cfi_def_cfa_offset 16
 5864              		@ sp needed
 5865 0040 70BD     		pop	{r4, r5, r6, pc}
 461:Src/Gcode/Buffer_Gcode.c **** 
 5866              		.loc 1 461 1 view .LVU1252
 5867              		.cfi_endproc
 5868              	.LFE26:
 5870              		.section	.text.WaitExtrTemp_Analyser,"ax",%progbits
 5871              		.align	1
 5872              		.syntax unified
 5873              		.thumb
 5874              		.thumb_func
 5875              		.fpu softvfp
 5877              	WaitExtrTemp_Analyser:
 5878              	.LFB27:
 464:Src/Gcode/Buffer_Gcode.c ****     float t  = getDescreteCommandBufferElement_Gcode(2).extrT;
 5879              		.loc 1 464 1 is_stmt 1 view -0
 5880              		.cfi_startproc
 5881              		@ args = 0, pretend = 0, frame = 104
 5882              		@ frame_needed = 0, uses_anonymous_args = 0
 5883 0000 70B5     		push	{r4, r5, r6, lr}
 5884              	.LCFI64:
ARM GAS  /tmp/ccMe0kQ8.s 			page 134


 5885              		.cfi_def_cfa_offset 16
 5886              		.cfi_offset 4, -16
 5887              		.cfi_offset 5, -12
 5888              		.cfi_offset 6, -8
 5889              		.cfi_offset 14, -4
 5890 0002 A6B0     		sub	sp, sp, #152
 5891              	.LCFI65:
 5892              		.cfi_def_cfa_offset 168
 465:Src/Gcode/Buffer_Gcode.c ****     command_Gcode command = {WAIT_HEAT_EXTRUDER_COMMAND, 0, 0, 0, 0,   0, 0, 0, 0,    0, 0, 0, 0,  
 5893              		.loc 1 465 5 view .LVU1254
 465:Src/Gcode/Buffer_Gcode.c ****     command_Gcode command = {WAIT_HEAT_EXTRUDER_COMMAND, 0, 0, 0, 0,   0, 0, 0, 0,    0, 0, 0, 0,  
 5894              		.loc 1 465 16 is_stmt 0 view .LVU1255
 5895 0004 0221     		movs	r1, #2
 5896 0006 0DA8     		add	r0, sp, #52
 5897 0008 FFF7FEFF 		bl	getDescreteCommandBufferElement_Gcode
 5898              	.LVL808:
 465:Src/Gcode/Buffer_Gcode.c ****     command_Gcode command = {WAIT_HEAT_EXTRUDER_COMMAND, 0, 0, 0, 0,   0, 0, 0, 0,    0, 0, 0, 0,  
 5899              		.loc 1 465 11 view .LVU1256
 5900 000c 159C     		ldr	r4, [sp, #84]	@ float
 5901              	.LVL809:
 466:Src/Gcode/Buffer_Gcode.c **** }
 5902              		.loc 1 466 5 is_stmt 1 view .LVU1257
 466:Src/Gcode/Buffer_Gcode.c **** }
 5903              		.loc 1 466 19 is_stmt 0 view .LVU1258
 5904 000e 17AE     		add	r6, sp, #92
 5905 0010 3C22     		movs	r2, #60
 5906 0012 0021     		movs	r1, #0
 5907 0014 3046     		mov	r0, r6
 5908 0016 FFF7FEFF 		bl	memset
 5909              	.LVL810:
 5910 001a 0C23     		movs	r3, #12
 5911 001c 8DF85C30 		strb	r3, [sp, #92]
 5912 0020 2494     		str	r4, [sp, #144]	@ float
 466:Src/Gcode/Buffer_Gcode.c **** }
 5913              		.loc 1 466 112 is_stmt 1 view .LVU1259
 5914 0022 6C46     		mov	r4, sp
 5915              	.LVL811:
 466:Src/Gcode/Buffer_Gcode.c **** }
 5916              		.loc 1 466 112 is_stmt 0 view .LVU1260
 5917 0024 1BAD     		add	r5, sp, #108
 5918 0026 0FCD     		ldmia	r5!, {r0, r1, r2, r3}
 5919 0028 0FC4     		stmia	r4!, {r0, r1, r2, r3}
 5920 002a 0FCD     		ldmia	r5!, {r0, r1, r2, r3}
 5921 002c 0FC4     		stmia	r4!, {r0, r1, r2, r3}
 5922 002e 95E80700 		ldm	r5, {r0, r1, r2}
 5923 0032 84E80700 		stm	r4, {r0, r1, r2}
 5924 0036 96E80F00 		ldm	r6, {r0, r1, r2, r3}
 5925 003a FFF7FEFF 		bl	firstInCommandBuffer_Gcode
 5926              	.LVL812:
 467:Src/Gcode/Buffer_Gcode.c **** 
 5927              		.loc 1 467 1 view .LVU1261
 5928 003e 26B0     		add	sp, sp, #152
 5929              	.LCFI66:
 5930              		.cfi_def_cfa_offset 16
 5931              		@ sp needed
 5932 0040 70BD     		pop	{r4, r5, r6, pc}
 467:Src/Gcode/Buffer_Gcode.c **** 
ARM GAS  /tmp/ccMe0kQ8.s 			page 135


 5933              		.loc 1 467 1 view .LVU1262
 5934              		.cfi_endproc
 5935              	.LFE27:
 5937              		.section	.text.WaitBedTemp_Analyser,"ax",%progbits
 5938              		.align	1
 5939              		.syntax unified
 5940              		.thumb
 5941              		.thumb_func
 5942              		.fpu softvfp
 5944              	WaitBedTemp_Analyser:
 5945              	.LFB28:
 470:Src/Gcode/Buffer_Gcode.c ****     float t  = getDescreteCommandBufferElement_Gcode(2).bedT;
 5946              		.loc 1 470 1 is_stmt 1 view -0
 5947              		.cfi_startproc
 5948              		@ args = 0, pretend = 0, frame = 104
 5949              		@ frame_needed = 0, uses_anonymous_args = 0
 5950 0000 70B5     		push	{r4, r5, r6, lr}
 5951              	.LCFI67:
 5952              		.cfi_def_cfa_offset 16
 5953              		.cfi_offset 4, -16
 5954              		.cfi_offset 5, -12
 5955              		.cfi_offset 6, -8
 5956              		.cfi_offset 14, -4
 5957 0002 A6B0     		sub	sp, sp, #152
 5958              	.LCFI68:
 5959              		.cfi_def_cfa_offset 168
 471:Src/Gcode/Buffer_Gcode.c ****     command_Gcode command = {WAIT_HEAT_BED_COMMAND, 0, 0, 0, 0,   0, 0, 0, 0,    0, 0, 0, 0,   0, t
 5960              		.loc 1 471 5 view .LVU1264
 471:Src/Gcode/Buffer_Gcode.c ****     command_Gcode command = {WAIT_HEAT_BED_COMMAND, 0, 0, 0, 0,   0, 0, 0, 0,    0, 0, 0, 0,   0, t
 5961              		.loc 1 471 16 is_stmt 0 view .LVU1265
 5962 0004 0221     		movs	r1, #2
 5963 0006 0DA8     		add	r0, sp, #52
 5964 0008 FFF7FEFF 		bl	getDescreteCommandBufferElement_Gcode
 5965              	.LVL813:
 471:Src/Gcode/Buffer_Gcode.c ****     command_Gcode command = {WAIT_HEAT_BED_COMMAND, 0, 0, 0, 0,   0, 0, 0, 0,    0, 0, 0, 0,   0, t
 5966              		.loc 1 471 11 view .LVU1266
 5967 000c 169C     		ldr	r4, [sp, #88]	@ float
 5968              	.LVL814:
 472:Src/Gcode/Buffer_Gcode.c **** }
 5969              		.loc 1 472 5 is_stmt 1 view .LVU1267
 472:Src/Gcode/Buffer_Gcode.c **** }
 5970              		.loc 1 472 19 is_stmt 0 view .LVU1268
 5971 000e 17AE     		add	r6, sp, #92
 5972 0010 3822     		movs	r2, #56
 5973 0012 0021     		movs	r1, #0
 5974 0014 3046     		mov	r0, r6
 5975 0016 FFF7FEFF 		bl	memset
 5976              	.LVL815:
 5977 001a 0D23     		movs	r3, #13
 5978 001c 8DF85C30 		strb	r3, [sp, #92]
 5979 0020 2594     		str	r4, [sp, #148]	@ float
 472:Src/Gcode/Buffer_Gcode.c **** }
 5980              		.loc 1 472 107 is_stmt 1 view .LVU1269
 5981 0022 6C46     		mov	r4, sp
 5982              	.LVL816:
 472:Src/Gcode/Buffer_Gcode.c **** }
 5983              		.loc 1 472 107 is_stmt 0 view .LVU1270
ARM GAS  /tmp/ccMe0kQ8.s 			page 136


 5984 0024 1BAD     		add	r5, sp, #108
 5985 0026 0FCD     		ldmia	r5!, {r0, r1, r2, r3}
 5986 0028 0FC4     		stmia	r4!, {r0, r1, r2, r3}
 5987 002a 0FCD     		ldmia	r5!, {r0, r1, r2, r3}
 5988 002c 0FC4     		stmia	r4!, {r0, r1, r2, r3}
 5989 002e 95E80700 		ldm	r5, {r0, r1, r2}
 5990 0032 84E80700 		stm	r4, {r0, r1, r2}
 5991 0036 96E80F00 		ldm	r6, {r0, r1, r2, r3}
 5992 003a FFF7FEFF 		bl	firstInCommandBuffer_Gcode
 5993              	.LVL817:
 473:Src/Gcode/Buffer_Gcode.c **** 
 5994              		.loc 1 473 1 view .LVU1271
 5995 003e 26B0     		add	sp, sp, #152
 5996              	.LCFI69:
 5997              		.cfi_def_cfa_offset 16
 5998              		@ sp needed
 5999 0040 70BD     		pop	{r4, r5, r6, pc}
 473:Src/Gcode/Buffer_Gcode.c **** 
 6000              		.loc 1 473 1 view .LVU1272
 6001              		.cfi_endproc
 6002              	.LFE28:
 6004              		.section	.text.shiftRightAllTheCommandsTillThis,"ax",%progbits
 6005              		.align	1
 6006              		.syntax unified
 6007              		.thumb
 6008              		.thumb_func
 6009              		.fpu softvfp
 6011              	shiftRightAllTheCommandsTillThis:
 6012              	.LVL818:
 6013              	.LFB34:
 542:Src/Gcode/Buffer_Gcode.c ****     int currentCommandNumber = lastCommandNumber();
 6014              		.loc 1 542 1 is_stmt 1 view -0
 6015              		.cfi_startproc
 6016              		@ args = 0, pretend = 0, frame = 64
 6017              		@ frame_needed = 0, uses_anonymous_args = 0
 542:Src/Gcode/Buffer_Gcode.c ****     int currentCommandNumber = lastCommandNumber();
 6018              		.loc 1 542 1 is_stmt 0 view .LVU1274
 6019 0000 2DE9F041 		push	{r4, r5, r6, r7, r8, lr}
 6020              	.LCFI70:
 6021              		.cfi_def_cfa_offset 24
 6022              		.cfi_offset 4, -24
 6023              		.cfi_offset 5, -20
 6024              		.cfi_offset 6, -16
 6025              		.cfi_offset 7, -12
 6026              		.cfi_offset 8, -8
 6027              		.cfi_offset 14, -4
 6028 0004 9CB0     		sub	sp, sp, #112
 6029              	.LCFI71:
 6030              		.cfi_def_cfa_offset 136
 6031 0006 8046     		mov	r8, r0
 543:Src/Gcode/Buffer_Gcode.c ****     firstInCommandBuffer_Gcode(lastCommand());
 6032              		.loc 1 543 5 is_stmt 1 view .LVU1275
 543:Src/Gcode/Buffer_Gcode.c ****     firstInCommandBuffer_Gcode(lastCommand());
 6033              		.loc 1 543 32 is_stmt 0 view .LVU1276
 6034 0008 FFF7FEFF 		bl	lastCommandNumber
 6035              	.LVL819:
 543:Src/Gcode/Buffer_Gcode.c ****     firstInCommandBuffer_Gcode(lastCommand());
ARM GAS  /tmp/ccMe0kQ8.s 			page 137


 6036              		.loc 1 543 32 view .LVU1277
 6037 000c 0446     		mov	r4, r0
 6038              	.LVL820:
 544:Src/Gcode/Buffer_Gcode.c ****     while ((currentCommandNumber != commandNumber))
 6039              		.loc 1 544 5 is_stmt 1 view .LVU1278
 6040 000e 0DAF     		add	r7, sp, #52
 6041 0010 3846     		mov	r0, r7
 6042              	.LVL821:
 544:Src/Gcode/Buffer_Gcode.c ****     while ((currentCommandNumber != commandNumber))
 6043              		.loc 1 544 5 is_stmt 0 view .LVU1279
 6044 0012 FFF7FEFF 		bl	lastCommand
 6045              	.LVL822:
 6046 0016 6D46     		mov	r5, sp
 6047 0018 11AE     		add	r6, sp, #68
 6048 001a 0FCE     		ldmia	r6!, {r0, r1, r2, r3}
 6049 001c 0FC5     		stmia	r5!, {r0, r1, r2, r3}
 6050 001e 0FCE     		ldmia	r6!, {r0, r1, r2, r3}
 6051 0020 0FC5     		stmia	r5!, {r0, r1, r2, r3}
 6052 0022 96E80700 		ldm	r6, {r0, r1, r2}
 6053 0026 85E80700 		stm	r5, {r0, r1, r2}
 6054 002a 97E80F00 		ldm	r7, {r0, r1, r2, r3}
 6055 002e FFF7FEFF 		bl	firstInCommandBuffer_Gcode
 6056              	.LVL823:
 545:Src/Gcode/Buffer_Gcode.c ****     {
 6057              		.loc 1 545 5 is_stmt 1 view .LVU1280
 6058              	.L188:
 545:Src/Gcode/Buffer_Gcode.c ****     {
 6059              		.loc 1 545 11 view .LVU1281
 6060 0032 4445     		cmp	r4, r8
 6061 0034 1ED0     		beq	.L191
 547:Src/Gcode/Buffer_Gcode.c ****         currentCommandNumber = prevoiusCommandNumber(currentCommandNumber);
 6062              		.loc 1 547 9 view .LVU1282
 547:Src/Gcode/Buffer_Gcode.c ****         currentCommandNumber = prevoiusCommandNumber(currentCommandNumber);
 6063              		.loc 1 547 69 is_stmt 0 view .LVU1283
 6064 0036 2046     		mov	r0, r4
 6065 0038 FFF7FEFF 		bl	prevoiusCommandNumber
 6066              	.LVL824:
 6067 003c 0746     		mov	r7, r0
 6068 003e FFF7FEFF 		bl	number
 6069              	.LVL825:
 6070 0042 0646     		mov	r6, r0
 547:Src/Gcode/Buffer_Gcode.c ****         currentCommandNumber = prevoiusCommandNumber(currentCommandNumber);
 6071              		.loc 1 547 23 view .LVU1284
 6072 0044 2046     		mov	r0, r4
 6073 0046 FFF7FEFF 		bl	number
 6074              	.LVL826:
 547:Src/Gcode/Buffer_Gcode.c ****         currentCommandNumber = prevoiusCommandNumber(currentCommandNumber);
 6075              		.loc 1 547 53 view .LVU1285
 6076 004a 0C4D     		ldr	r5, .L192
 6077 004c C0EB0014 		rsb	r4, r0, r0, lsl #4
 6078              	.LVL827:
 547:Src/Gcode/Buffer_Gcode.c ****         currentCommandNumber = prevoiusCommandNumber(currentCommandNumber);
 6079              		.loc 1 547 53 view .LVU1286
 6080 0050 C6EB0616 		rsb	r6, r6, r6, lsl #4
 6081 0054 05EB8404 		add	r4, r5, r4, lsl #2
 6082 0058 05EB8605 		add	r5, r5, r6, lsl #2
 6083 005c 0FCD     		ldmia	r5!, {r0, r1, r2, r3}
ARM GAS  /tmp/ccMe0kQ8.s 			page 138


 6084 005e 0FC4     		stmia	r4!, {r0, r1, r2, r3}
 6085 0060 0FCD     		ldmia	r5!, {r0, r1, r2, r3}
 6086 0062 0FC4     		stmia	r4!, {r0, r1, r2, r3}
 6087 0064 0FCD     		ldmia	r5!, {r0, r1, r2, r3}
 6088 0066 0FC4     		stmia	r4!, {r0, r1, r2, r3}
 6089 0068 95E80700 		ldm	r5, {r0, r1, r2}
 6090 006c 84E80700 		stm	r4, {r0, r1, r2}
 548:Src/Gcode/Buffer_Gcode.c ****     }
 6091              		.loc 1 548 9 is_stmt 1 view .LVU1287
 6092              	.LVL828:
 548:Src/Gcode/Buffer_Gcode.c ****     }
 6093              		.loc 1 548 32 is_stmt 0 view .LVU1288
 6094 0070 3C46     		mov	r4, r7
 6095 0072 DEE7     		b	.L188
 6096              	.LVL829:
 6097              	.L191:
 550:Src/Gcode/Buffer_Gcode.c **** 
 6098              		.loc 1 550 1 view .LVU1289
 6099 0074 1CB0     		add	sp, sp, #112
 6100              	.LCFI72:
 6101              		.cfi_def_cfa_offset 24
 6102              		@ sp needed
 6103 0076 BDE8F081 		pop	{r4, r5, r6, r7, r8, pc}
 6104              	.LVL830:
 6105              	.L193:
 550:Src/Gcode/Buffer_Gcode.c **** 
 6106              		.loc 1 550 1 view .LVU1290
 6107 007a 00BF     		.align	2
 6108              	.L192:
 6109 007c 00000000 		.word	.LANCHOR2
 6110              		.cfi_endproc
 6111              	.LFE34:
 6113              		.section	.text.firstOutCommandBuffer_Gcode,"ax",%progbits
 6114              		.align	1
 6115              		.global	firstOutCommandBuffer_Gcode
 6116              		.syntax unified
 6117              		.thumb
 6118              		.thumb_func
 6119              		.fpu softvfp
 6121              	firstOutCommandBuffer_Gcode:
 6122              	.LVL831:
 6123              	.LFB8:
  82:Src/Gcode/Buffer_Gcode.c ****     return commandBuffer[number(firstOccupedElementCommandBuffer)];
 6124              		.loc 1 82 1 is_stmt 1 view -0
 6125              		.cfi_startproc
 6126              		@ args = 0, pretend = 0, frame = 0
 6127              		@ frame_needed = 0, uses_anonymous_args = 0
  82:Src/Gcode/Buffer_Gcode.c ****     return commandBuffer[number(firstOccupedElementCommandBuffer)];
 6128              		.loc 1 82 1 is_stmt 0 view .LVU1292
 6129 0000 70B5     		push	{r4, r5, r6, lr}
 6130              	.LCFI73:
 6131              		.cfi_def_cfa_offset 16
 6132              		.cfi_offset 4, -16
 6133              		.cfi_offset 5, -12
 6134              		.cfi_offset 6, -8
 6135              		.cfi_offset 14, -4
 6136 0002 0646     		mov	r6, r0
ARM GAS  /tmp/ccMe0kQ8.s 			page 139


  83:Src/Gcode/Buffer_Gcode.c **** }
 6137              		.loc 1 83 5 is_stmt 1 view .LVU1293
  83:Src/Gcode/Buffer_Gcode.c **** }
 6138              		.loc 1 83 26 is_stmt 0 view .LVU1294
 6139 0004 0A4B     		ldr	r3, .L196
 6140 0006 1868     		ldr	r0, [r3]
 6141              	.LVL832:
  83:Src/Gcode/Buffer_Gcode.c **** }
 6142              		.loc 1 83 26 view .LVU1295
 6143 0008 FFF7FEFF 		bl	number
 6144              	.LVL833:
  83:Src/Gcode/Buffer_Gcode.c **** }
 6145              		.loc 1 83 25 view .LVU1296
 6146 000c C0EB0010 		rsb	r0, r0, r0, lsl #4
 6147 0010 3546     		mov	r5, r6
 6148 0012 084C     		ldr	r4, .L196+4
 6149 0014 04EB8004 		add	r4, r4, r0, lsl #2
 6150 0018 0FCC     		ldmia	r4!, {r0, r1, r2, r3}
 6151 001a 0FC5     		stmia	r5!, {r0, r1, r2, r3}
 6152 001c 0FCC     		ldmia	r4!, {r0, r1, r2, r3}
 6153 001e 0FC5     		stmia	r5!, {r0, r1, r2, r3}
 6154 0020 0FCC     		ldmia	r4!, {r0, r1, r2, r3}
 6155 0022 0FC5     		stmia	r5!, {r0, r1, r2, r3}
 6156 0024 94E80700 		ldm	r4, {r0, r1, r2}
 6157 0028 85E80700 		stm	r5, {r0, r1, r2}
  84:Src/Gcode/Buffer_Gcode.c **** 
 6158              		.loc 1 84 1 view .LVU1297
 6159 002c 3046     		mov	r0, r6
 6160 002e 70BD     		pop	{r4, r5, r6, pc}
 6161              	.LVL834:
 6162              	.L197:
  84:Src/Gcode/Buffer_Gcode.c **** 
 6163              		.loc 1 84 1 view .LVU1298
 6164              		.align	2
 6165              	.L196:
 6166 0030 00000000 		.word	.LANCHOR3
 6167 0034 00000000 		.word	.LANCHOR2
 6168              		.cfi_endproc
 6169              	.LFE8:
 6171              		.section	.text.eraseFirstCommandBuffer_Gcode,"ax",%progbits
 6172              		.align	1
 6173              		.global	eraseFirstCommandBuffer_Gcode
 6174              		.syntax unified
 6175              		.thumb
 6176              		.thumb_func
 6177              		.fpu softvfp
 6179              	eraseFirstCommandBuffer_Gcode:
 6180              	.LFB9:
  87:Src/Gcode/Buffer_Gcode.c ****     if (firstOccupedElementCommandBuffer == firstFreeElementCommandBuffer)
 6181              		.loc 1 87 1 is_stmt 1 view -0
 6182              		.cfi_startproc
 6183              		@ args = 0, pretend = 0, frame = 0
 6184              		@ frame_needed = 0, uses_anonymous_args = 0
 6185 0000 10B5     		push	{r4, lr}
 6186              	.LCFI74:
 6187              		.cfi_def_cfa_offset 8
 6188              		.cfi_offset 4, -8
ARM GAS  /tmp/ccMe0kQ8.s 			page 140


 6189              		.cfi_offset 14, -4
  88:Src/Gcode/Buffer_Gcode.c ****         if (!commandBufferIsFull)
 6190              		.loc 1 88 5 view .LVU1300
  88:Src/Gcode/Buffer_Gcode.c ****         if (!commandBufferIsFull)
 6191              		.loc 1 88 42 is_stmt 0 view .LVU1301
 6192 0002 124B     		ldr	r3, .L205
 6193 0004 1C68     		ldr	r4, [r3]
 6194 0006 124B     		ldr	r3, .L205+4
 6195 0008 1B68     		ldr	r3, [r3]
  88:Src/Gcode/Buffer_Gcode.c ****         if (!commandBufferIsFull)
 6196              		.loc 1 88 8 view .LVU1302
 6197 000a 9C42     		cmp	r4, r3
 6198 000c 15D0     		beq	.L203
 6199              	.L199:
  92:Src/Gcode/Buffer_Gcode.c **** 
 6200              		.loc 1 92 5 is_stmt 1 view .LVU1303
  92:Src/Gcode/Buffer_Gcode.c **** 
 6201              		.loc 1 92 19 is_stmt 0 view .LVU1304
 6202 000e 2046     		mov	r0, r4
 6203 0010 FFF7FEFF 		bl	number
 6204              	.LVL835:
  92:Src/Gcode/Buffer_Gcode.c **** 
 6205              		.loc 1 92 61 view .LVU1305
 6206 0014 C0EB0010 		rsb	r0, r0, r0, lsl #4
 6207 0018 3C22     		movs	r2, #60
 6208 001a 0021     		movs	r1, #0
 6209 001c 0D4B     		ldr	r3, .L205+8
 6210 001e 03EB8000 		add	r0, r3, r0, lsl #2
 6211 0022 FFF7FEFF 		bl	memset
 6212              	.LVL836:
  94:Src/Gcode/Buffer_Gcode.c ****         firstOccupedElementCommandBuffer = firstOccupedElementCommandBuffer - COMMAND_BUFFER_LENGTH
 6213              		.loc 1 94 5 is_stmt 1 view .LVU1306
  94:Src/Gcode/Buffer_Gcode.c ****         firstOccupedElementCommandBuffer = firstOccupedElementCommandBuffer - COMMAND_BUFFER_LENGTH
 6214              		.loc 1 94 8 is_stmt 0 view .LVU1307
 6215 0026 322C     		cmp	r4, #50
 6216 0028 0CD0     		beq	.L204
 6217              	.L201:
  96:Src/Gcode/Buffer_Gcode.c ****     commandBufferIsFull = false;
 6218              		.loc 1 96 5 is_stmt 1 view .LVU1308
  96:Src/Gcode/Buffer_Gcode.c ****     commandBufferIsFull = false;
 6219              		.loc 1 96 37 is_stmt 0 view .LVU1309
 6220 002a 084A     		ldr	r2, .L205
 6221 002c 1368     		ldr	r3, [r2]
 6222 002e 0133     		adds	r3, r3, #1
 6223 0030 1360     		str	r3, [r2]
  97:Src/Gcode/Buffer_Gcode.c **** }
 6224              		.loc 1 97 5 is_stmt 1 view .LVU1310
  97:Src/Gcode/Buffer_Gcode.c **** }
 6225              		.loc 1 97 25 is_stmt 0 view .LVU1311
 6226 0032 094B     		ldr	r3, .L205+12
 6227 0034 0022     		movs	r2, #0
 6228 0036 1A70     		strb	r2, [r3]
 6229              	.L198:
  98:Src/Gcode/Buffer_Gcode.c **** 
 6230              		.loc 1 98 1 view .LVU1312
 6231 0038 10BD     		pop	{r4, pc}
 6232              	.L203:
ARM GAS  /tmp/ccMe0kQ8.s 			page 141


  89:Src/Gcode/Buffer_Gcode.c ****             return;
 6233              		.loc 1 89 9 is_stmt 1 view .LVU1313
  89:Src/Gcode/Buffer_Gcode.c ****             return;
 6234              		.loc 1 89 13 is_stmt 0 view .LVU1314
 6235 003a 074B     		ldr	r3, .L205+12
 6236 003c 1B78     		ldrb	r3, [r3]	@ zero_extendqisi2
  89:Src/Gcode/Buffer_Gcode.c ****             return;
 6237              		.loc 1 89 12 view .LVU1315
 6238 003e 002B     		cmp	r3, #0
 6239 0040 E5D1     		bne	.L199
 6240 0042 F9E7     		b	.L198
 6241              	.L204:
  95:Src/Gcode/Buffer_Gcode.c ****     firstOccupedElementCommandBuffer++;
 6242              		.loc 1 95 9 is_stmt 1 view .LVU1316
  95:Src/Gcode/Buffer_Gcode.c ****     firstOccupedElementCommandBuffer++;
 6243              		.loc 1 95 77 is_stmt 0 view .LVU1317
 6244 0044 323C     		subs	r4, r4, #50
  95:Src/Gcode/Buffer_Gcode.c ****     firstOccupedElementCommandBuffer++;
 6245              		.loc 1 95 42 view .LVU1318
 6246 0046 014B     		ldr	r3, .L205
 6247 0048 1C60     		str	r4, [r3]
 6248 004a EEE7     		b	.L201
 6249              	.L206:
 6250              		.align	2
 6251              	.L205:
 6252 004c 00000000 		.word	.LANCHOR3
 6253 0050 00000000 		.word	.LANCHOR0
 6254 0054 00000000 		.word	.LANCHOR2
 6255 0058 00000000 		.word	.LANCHOR4
 6256              		.cfi_endproc
 6257              	.LFE9:
 6259              		.section	.text.checkFreeSpaceCommandBuffer_Gcode,"ax",%progbits
 6260              		.align	1
 6261              		.global	checkFreeSpaceCommandBuffer_Gcode
 6262              		.syntax unified
 6263              		.thumb
 6264              		.thumb_func
 6265              		.fpu softvfp
 6267              	checkFreeSpaceCommandBuffer_Gcode:
 6268              	.LFB10:
 101:Src/Gcode/Buffer_Gcode.c ****     if (firstFreeElementCommandBuffer == firstOccupedElementCommandBuffer)
 6269              		.loc 1 101 1 is_stmt 1 view -0
 6270              		.cfi_startproc
 6271              		@ args = 0, pretend = 0, frame = 0
 6272              		@ frame_needed = 0, uses_anonymous_args = 0
 6273              		@ link register save eliminated.
 102:Src/Gcode/Buffer_Gcode.c ****         if (commandBufferIsFull)
 6274              		.loc 1 102 5 view .LVU1320
 102:Src/Gcode/Buffer_Gcode.c ****         if (commandBufferIsFull)
 6275              		.loc 1 102 39 is_stmt 0 view .LVU1321
 6276 0000 094B     		ldr	r3, .L214
 6277 0002 1868     		ldr	r0, [r3]
 6278 0004 094B     		ldr	r3, .L214+4
 6279 0006 1B68     		ldr	r3, [r3]
 102:Src/Gcode/Buffer_Gcode.c ****         if (commandBufferIsFull)
 6280              		.loc 1 102 8 view .LVU1322
 6281 0008 9842     		cmp	r0, r3
ARM GAS  /tmp/ccMe0kQ8.s 			page 142


 6282 000a 04D0     		beq	.L212
 6283              	.L208:
 106:Src/Gcode/Buffer_Gcode.c ****     if (occupedSpace < 0)
 6284              		.loc 1 106 5 is_stmt 1 view .LVU1323
 6285              	.LVL837:
 107:Src/Gcode/Buffer_Gcode.c ****         occupedSpace = occupedSpace + COMMAND_BUFFER_LENGTH;
 6286              		.loc 1 107 5 view .LVU1324
 107:Src/Gcode/Buffer_Gcode.c ****         occupedSpace = occupedSpace + COMMAND_BUFFER_LENGTH;
 6287              		.loc 1 107 8 is_stmt 0 view .LVU1325
 6288 000c C01A     		subs	r0, r0, r3
 6289              	.LVL838:
 107:Src/Gcode/Buffer_Gcode.c ****         occupedSpace = occupedSpace + COMMAND_BUFFER_LENGTH;
 6290              		.loc 1 107 8 view .LVU1326
 6291 000e 08D4     		bmi	.L213
 6292              	.LVL839:
 6293              	.L210:
 109:Src/Gcode/Buffer_Gcode.c ****     return freeSpace;
 6294              		.loc 1 109 5 is_stmt 1 view .LVU1327
 109:Src/Gcode/Buffer_Gcode.c ****     return freeSpace;
 6295              		.loc 1 109 9 is_stmt 0 view .LVU1328
 6296 0010 C0F13200 		rsb	r0, r0, #50
 6297              	.LVL840:
 110:Src/Gcode/Buffer_Gcode.c **** }
 6298              		.loc 1 110 5 is_stmt 1 view .LVU1329
 110:Src/Gcode/Buffer_Gcode.c **** }
 6299              		.loc 1 110 12 is_stmt 0 view .LVU1330
 6300 0014 7047     		bx	lr
 6301              	.LVL841:
 6302              	.L212:
 103:Src/Gcode/Buffer_Gcode.c ****             return 0;
 6303              		.loc 1 103 9 is_stmt 1 view .LVU1331
 103:Src/Gcode/Buffer_Gcode.c ****             return 0;
 6304              		.loc 1 103 13 is_stmt 0 view .LVU1332
 6305 0016 064A     		ldr	r2, .L214+8
 6306 0018 1278     		ldrb	r2, [r2]	@ zero_extendqisi2
 103:Src/Gcode/Buffer_Gcode.c ****             return 0;
 6307              		.loc 1 103 12 view .LVU1333
 6308 001a 002A     		cmp	r2, #0
 6309 001c F6D0     		beq	.L208
 104:Src/Gcode/Buffer_Gcode.c **** 
 6310              		.loc 1 104 20 view .LVU1334
 6311 001e 0020     		movs	r0, #0
 111:Src/Gcode/Buffer_Gcode.c **** 
 6312              		.loc 1 111 1 view .LVU1335
 6313 0020 7047     		bx	lr
 6314              	.LVL842:
 6315              	.L213:
 108:Src/Gcode/Buffer_Gcode.c ****     int freeSpace = COMMAND_BUFFER_LENGTH - occupedSpace;
 6316              		.loc 1 108 9 is_stmt 1 view .LVU1336
 108:Src/Gcode/Buffer_Gcode.c ****     int freeSpace = COMMAND_BUFFER_LENGTH - occupedSpace;
 6317              		.loc 1 108 22 is_stmt 0 view .LVU1337
 6318 0022 3230     		adds	r0, r0, #50
 6319              	.LVL843:
 108:Src/Gcode/Buffer_Gcode.c ****     int freeSpace = COMMAND_BUFFER_LENGTH - occupedSpace;
 6320              		.loc 1 108 22 view .LVU1338
 6321 0024 F4E7     		b	.L210
 6322              	.L215:
ARM GAS  /tmp/ccMe0kQ8.s 			page 143


 6323 0026 00BF     		.align	2
 6324              	.L214:
 6325 0028 00000000 		.word	.LANCHOR0
 6326 002c 00000000 		.word	.LANCHOR3
 6327 0030 00000000 		.word	.LANCHOR4
 6328              		.cfi_endproc
 6329              	.LFE10:
 6331              		.section	.text.enoghSpaceIsReservedCommandBuffer_Gcode,"ax",%progbits
 6332              		.align	1
 6333              		.global	enoghSpaceIsReservedCommandBuffer_Gcode
 6334              		.syntax unified
 6335              		.thumb
 6336              		.thumb_func
 6337              		.fpu softvfp
 6339              	enoghSpaceIsReservedCommandBuffer_Gcode:
 6340              	.LFB11:
 114:Src/Gcode/Buffer_Gcode.c ****     return checkFreeSpaceCommandBuffer_Gcode() > RESERVE_LENGTH;
 6341              		.loc 1 114 1 is_stmt 1 view -0
 6342              		.cfi_startproc
 6343              		@ args = 0, pretend = 0, frame = 0
 6344              		@ frame_needed = 0, uses_anonymous_args = 0
 6345 0000 08B5     		push	{r3, lr}
 6346              	.LCFI75:
 6347              		.cfi_def_cfa_offset 8
 6348              		.cfi_offset 3, -8
 6349              		.cfi_offset 14, -4
 115:Src/Gcode/Buffer_Gcode.c **** }
 6350              		.loc 1 115 5 view .LVU1340
 115:Src/Gcode/Buffer_Gcode.c **** }
 6351              		.loc 1 115 12 is_stmt 0 view .LVU1341
 6352 0002 FFF7FEFF 		bl	checkFreeSpaceCommandBuffer_Gcode
 6353              	.LVL844:
 116:Src/Gcode/Buffer_Gcode.c **** 
 6354              		.loc 1 116 1 view .LVU1342
 6355 0006 0A28     		cmp	r0, #10
 6356 0008 D4BF     		ite	le
 6357 000a 0020     		movle	r0, #0
 6358 000c 0120     		movgt	r0, #1
 6359 000e 08BD     		pop	{r3, pc}
 6360              		.cfi_endproc
 6361              	.LFE11:
 6363              		.section	.text.descreteCommandAnalyser_Gcode,"ax",%progbits
 6364              		.align	1
 6365              		.global	descreteCommandAnalyser_Gcode
 6366              		.syntax unified
 6367              		.thumb
 6368              		.thumb_func
 6369              		.fpu softvfp
 6371              	descreteCommandAnalyser_Gcode:
 6372              	.LFB29:
 476:Src/Gcode/Buffer_Gcode.c ****     commandType_Gcode typeOfCommand = getDescreteCommandBufferElement_Gcode(2).type;
 6373              		.loc 1 476 1 is_stmt 1 view -0
 6374              		.cfi_startproc
 6375              		@ args = 0, pretend = 0, frame = 368
 6376              		@ frame_needed = 0, uses_anonymous_args = 0
 6377 0000 2DE9F04F 		push	{r4, r5, r6, r7, r8, r9, r10, fp, lr}
 6378              	.LCFI76:
ARM GAS  /tmp/ccMe0kQ8.s 			page 144


 6379              		.cfi_def_cfa_offset 36
 6380              		.cfi_offset 4, -36
 6381              		.cfi_offset 5, -32
 6382              		.cfi_offset 6, -28
 6383              		.cfi_offset 7, -24
 6384              		.cfi_offset 8, -20
 6385              		.cfi_offset 9, -16
 6386              		.cfi_offset 10, -12
 6387              		.cfi_offset 11, -8
 6388              		.cfi_offset 14, -4
 6389 0004 DDB0     		sub	sp, sp, #372
 6390              	.LCFI77:
 6391              		.cfi_def_cfa_offset 408
 477:Src/Gcode/Buffer_Gcode.c ****     long dXn = getDescreteCommandBufferElement_Gcode(2).Xn - getDescreteCommandBufferElement_Gcode(
 6392              		.loc 1 477 5 view .LVU1344
 477:Src/Gcode/Buffer_Gcode.c ****     long dXn = getDescreteCommandBufferElement_Gcode(2).Xn - getDescreteCommandBufferElement_Gcode(
 6393              		.loc 1 477 39 is_stmt 0 view .LVU1345
 6394 0006 0221     		movs	r1, #2
 6395 0008 02A8     		add	r0, sp, #8
 6396 000a FFF7FEFF 		bl	getDescreteCommandBufferElement_Gcode
 6397              	.LVL845:
 477:Src/Gcode/Buffer_Gcode.c ****     long dXn = getDescreteCommandBufferElement_Gcode(2).Xn - getDescreteCommandBufferElement_Gcode(
 6398              		.loc 1 477 23 view .LVU1346
 6399 000e 9DF80840 		ldrb	r4, [sp, #8]	@ zero_extendqisi2
 6400              	.LVL846:
 478:Src/Gcode/Buffer_Gcode.c ****     long dYn = getDescreteCommandBufferElement_Gcode(2).Yn - getDescreteCommandBufferElement_Gcode(
 6401              		.loc 1 478 5 is_stmt 1 view .LVU1347
 478:Src/Gcode/Buffer_Gcode.c ****     long dYn = getDescreteCommandBufferElement_Gcode(2).Yn - getDescreteCommandBufferElement_Gcode(
 6402              		.loc 1 478 16 is_stmt 0 view .LVU1348
 6403 0012 0221     		movs	r1, #2
 6404 0014 0CA8     		add	r0, sp, #48
 6405 0016 FFF7FEFF 		bl	getDescreteCommandBufferElement_Gcode
 6406              	.LVL847:
 478:Src/Gcode/Buffer_Gcode.c ****     long dYn = getDescreteCommandBufferElement_Gcode(2).Yn - getDescreteCommandBufferElement_Gcode(
 6407              		.loc 1 478 56 view .LVU1349
 6408 001a DDF834A0 		ldr	r10, [sp, #52]
 478:Src/Gcode/Buffer_Gcode.c ****     long dYn = getDescreteCommandBufferElement_Gcode(2).Yn - getDescreteCommandBufferElement_Gcode(
 6409              		.loc 1 478 62 view .LVU1350
 6410 001e 0121     		movs	r1, #1
 6411 0020 16A8     		add	r0, sp, #88
 6412 0022 FFF7FEFF 		bl	getDescreteCommandBufferElement_Gcode
 6413              	.LVL848:
 478:Src/Gcode/Buffer_Gcode.c ****     long dYn = getDescreteCommandBufferElement_Gcode(2).Yn - getDescreteCommandBufferElement_Gcode(
 6414              		.loc 1 478 102 view .LVU1351
 6415 0026 179D     		ldr	r5, [sp, #92]
 6416              	.LVL849:
 479:Src/Gcode/Buffer_Gcode.c ****     long dZn = getDescreteCommandBufferElement_Gcode(2).Zn - getDescreteCommandBufferElement_Gcode(
 6417              		.loc 1 479 5 is_stmt 1 view .LVU1352
 479:Src/Gcode/Buffer_Gcode.c ****     long dZn = getDescreteCommandBufferElement_Gcode(2).Zn - getDescreteCommandBufferElement_Gcode(
 6418              		.loc 1 479 16 is_stmt 0 view .LVU1353
 6419 0028 0221     		movs	r1, #2
 6420 002a 20A8     		add	r0, sp, #128
 6421 002c FFF7FEFF 		bl	getDescreteCommandBufferElement_Gcode
 6422              	.LVL850:
 479:Src/Gcode/Buffer_Gcode.c ****     long dZn = getDescreteCommandBufferElement_Gcode(2).Zn - getDescreteCommandBufferElement_Gcode(
 6423              		.loc 1 479 56 view .LVU1354
 6424 0030 DDF88890 		ldr	r9, [sp, #136]
ARM GAS  /tmp/ccMe0kQ8.s 			page 145


 479:Src/Gcode/Buffer_Gcode.c ****     long dZn = getDescreteCommandBufferElement_Gcode(2).Zn - getDescreteCommandBufferElement_Gcode(
 6425              		.loc 1 479 62 view .LVU1355
 6426 0034 0121     		movs	r1, #1
 6427 0036 2AA8     		add	r0, sp, #168
 6428 0038 FFF7FEFF 		bl	getDescreteCommandBufferElement_Gcode
 6429              	.LVL851:
 479:Src/Gcode/Buffer_Gcode.c ****     long dZn = getDescreteCommandBufferElement_Gcode(2).Zn - getDescreteCommandBufferElement_Gcode(
 6430              		.loc 1 479 102 view .LVU1356
 6431 003c DDF8B080 		ldr	r8, [sp, #176]
 6432              	.LVL852:
 480:Src/Gcode/Buffer_Gcode.c ****     long dEn = getDescreteCommandBufferElement_Gcode(2).En - getDescreteCommandBufferElement_Gcode(
 6433              		.loc 1 480 5 is_stmt 1 view .LVU1357
 480:Src/Gcode/Buffer_Gcode.c ****     long dEn = getDescreteCommandBufferElement_Gcode(2).En - getDescreteCommandBufferElement_Gcode(
 6434              		.loc 1 480 16 is_stmt 0 view .LVU1358
 6435 0040 0221     		movs	r1, #2
 6436 0042 34A8     		add	r0, sp, #208
 6437 0044 FFF7FEFF 		bl	getDescreteCommandBufferElement_Gcode
 6438              	.LVL853:
 480:Src/Gcode/Buffer_Gcode.c ****     long dEn = getDescreteCommandBufferElement_Gcode(2).En - getDescreteCommandBufferElement_Gcode(
 6439              		.loc 1 480 56 view .LVU1359
 6440 0048 379F     		ldr	r7, [sp, #220]
 480:Src/Gcode/Buffer_Gcode.c ****     long dEn = getDescreteCommandBufferElement_Gcode(2).En - getDescreteCommandBufferElement_Gcode(
 6441              		.loc 1 480 62 view .LVU1360
 6442 004a 0121     		movs	r1, #1
 6443 004c 3EA8     		add	r0, sp, #248
 6444 004e FFF7FEFF 		bl	getDescreteCommandBufferElement_Gcode
 6445              	.LVL854:
 480:Src/Gcode/Buffer_Gcode.c ****     long dEn = getDescreteCommandBufferElement_Gcode(2).En - getDescreteCommandBufferElement_Gcode(
 6446              		.loc 1 480 102 view .LVU1361
 6447 0052 419E     		ldr	r6, [sp, #260]
 6448              	.LVL855:
 481:Src/Gcode/Buffer_Gcode.c **** 
 6449              		.loc 1 481 5 is_stmt 1 view .LVU1362
 481:Src/Gcode/Buffer_Gcode.c **** 
 6450              		.loc 1 481 16 is_stmt 0 view .LVU1363
 6451 0054 0221     		movs	r1, #2
 6452 0056 48A8     		add	r0, sp, #288
 6453 0058 FFF7FEFF 		bl	getDescreteCommandBufferElement_Gcode
 6454              	.LVL856:
 481:Src/Gcode/Buffer_Gcode.c **** 
 6455              		.loc 1 481 56 view .LVU1364
 6456 005c DDF830B1 		ldr	fp, [sp, #304]
 481:Src/Gcode/Buffer_Gcode.c **** 
 6457              		.loc 1 481 62 view .LVU1365
 6458 0060 0121     		movs	r1, #1
 6459 0062 52A8     		add	r0, sp, #328
 6460 0064 FFF7FEFF 		bl	getDescreteCommandBufferElement_Gcode
 6461              	.LVL857:
 481:Src/Gcode/Buffer_Gcode.c **** 
 6462              		.loc 1 481 102 view .LVU1366
 6463 0068 569B     		ldr	r3, [sp, #344]
 6464 006a 0193     		str	r3, [sp, #4]
 6465              	.LVL858:
 483:Src/Gcode/Buffer_Gcode.c ****     {
 6466              		.loc 1 483 5 is_stmt 1 view .LVU1367
 483:Src/Gcode/Buffer_Gcode.c ****     {
 6467              		.loc 1 483 8 is_stmt 0 view .LVU1368
ARM GAS  /tmp/ccMe0kQ8.s 			page 146


 6468 006c 012C     		cmp	r4, #1
 6469 006e 18D0     		beq	.L236
 497:Src/Gcode/Buffer_Gcode.c ****     if (typeOfCommand == GO_HOME_Y_COMMAND)   {HomeY_Analyser();  return;}
 6470              		.loc 1 497 5 is_stmt 1 view .LVU1369
 497:Src/Gcode/Buffer_Gcode.c ****     if (typeOfCommand == GO_HOME_Y_COMMAND)   {HomeY_Analyser();  return;}
 6471              		.loc 1 497 8 is_stmt 0 view .LVU1370
 6472 0070 032C     		cmp	r4, #3
 6473 0072 2AD0     		beq	.L237
 498:Src/Gcode/Buffer_Gcode.c ****     if (typeOfCommand == GO_HOME_Z_COMMAND)   {HomeZ_Analyser();  return;}
 6474              		.loc 1 498 5 is_stmt 1 view .LVU1371
 498:Src/Gcode/Buffer_Gcode.c ****     if (typeOfCommand == GO_HOME_Z_COMMAND)   {HomeZ_Analyser();  return;}
 6475              		.loc 1 498 8 is_stmt 0 view .LVU1372
 6476 0074 042C     		cmp	r4, #4
 6477 0076 2BD0     		beq	.L238
 499:Src/Gcode/Buffer_Gcode.c ****     if (typeOfCommand == GO_HOME_XY_COMMAND)  {HomeXY_Analyser(); return;}
 6478              		.loc 1 499 5 is_stmt 1 view .LVU1373
 499:Src/Gcode/Buffer_Gcode.c ****     if (typeOfCommand == GO_HOME_XY_COMMAND)  {HomeXY_Analyser(); return;}
 6479              		.loc 1 499 8 is_stmt 0 view .LVU1374
 6480 0078 052C     		cmp	r4, #5
 6481 007a 2CD0     		beq	.L239
 500:Src/Gcode/Buffer_Gcode.c ****     if (typeOfCommand == GO_HOME_XZ_COMMAND)  {HomeZ_Analyser();  HomeX_Analyser();  return;}
 6482              		.loc 1 500 5 is_stmt 1 view .LVU1375
 500:Src/Gcode/Buffer_Gcode.c ****     if (typeOfCommand == GO_HOME_XZ_COMMAND)  {HomeZ_Analyser();  HomeX_Analyser();  return;}
 6483              		.loc 1 500 8 is_stmt 0 view .LVU1376
 6484 007c 062C     		cmp	r4, #6
 6485 007e 2DD0     		beq	.L240
 501:Src/Gcode/Buffer_Gcode.c ****     if (typeOfCommand == GO_HOME_YZ_COMMAND)  {HomeZ_Analyser();  HomeY_Analyser();  return;}
 6486              		.loc 1 501 5 is_stmt 1 view .LVU1377
 501:Src/Gcode/Buffer_Gcode.c ****     if (typeOfCommand == GO_HOME_YZ_COMMAND)  {HomeZ_Analyser();  HomeY_Analyser();  return;}
 6487              		.loc 1 501 8 is_stmt 0 view .LVU1378
 6488 0080 072C     		cmp	r4, #7
 6489 0082 2ED0     		beq	.L241
 502:Src/Gcode/Buffer_Gcode.c ****     if (typeOfCommand == GO_HOME_XYZ_COMMAND) {HomeZ_Analyser();  HomeXY_Analyser(); return;}
 6490              		.loc 1 502 5 is_stmt 1 view .LVU1379
 502:Src/Gcode/Buffer_Gcode.c ****     if (typeOfCommand == GO_HOME_XYZ_COMMAND) {HomeZ_Analyser();  HomeXY_Analyser(); return;}
 6491              		.loc 1 502 8 is_stmt 0 view .LVU1380
 6492 0084 082C     		cmp	r4, #8
 6493 0086 31D0     		beq	.L242
 503:Src/Gcode/Buffer_Gcode.c **** 
 6494              		.loc 1 503 5 is_stmt 1 view .LVU1381
 503:Src/Gcode/Buffer_Gcode.c **** 
 6495              		.loc 1 503 8 is_stmt 0 view .LVU1382
 6496 0088 092C     		cmp	r4, #9
 6497 008a 34D0     		beq	.L243
 505:Src/Gcode/Buffer_Gcode.c ****     if (typeOfCommand == HEAT_BED_COMMAND)        {SetBedTemp_Analyser();   return;}
 6498              		.loc 1 505 5 is_stmt 1 view .LVU1383
 505:Src/Gcode/Buffer_Gcode.c ****     if (typeOfCommand == HEAT_BED_COMMAND)        {SetBedTemp_Analyser();   return;}
 6499              		.loc 1 505 8 is_stmt 0 view .LVU1384
 6500 008c 0A2C     		cmp	r4, #10
 6501 008e 37D0     		beq	.L244
 506:Src/Gcode/Buffer_Gcode.c **** 
 6502              		.loc 1 506 5 is_stmt 1 view .LVU1385
 506:Src/Gcode/Buffer_Gcode.c **** 
 6503              		.loc 1 506 8 is_stmt 0 view .LVU1386
 6504 0090 0B2C     		cmp	r4, #11
 6505 0092 38D0     		beq	.L245
 508:Src/Gcode/Buffer_Gcode.c ****     if (typeOfCommand == WAIT_HEAT_BED_COMMAND)        {WaitBedTemp_Analyser();   return;}
ARM GAS  /tmp/ccMe0kQ8.s 			page 147


 6506              		.loc 1 508 5 is_stmt 1 view .LVU1387
 508:Src/Gcode/Buffer_Gcode.c ****     if (typeOfCommand == WAIT_HEAT_BED_COMMAND)        {WaitBedTemp_Analyser();   return;}
 6507              		.loc 1 508 8 is_stmt 0 view .LVU1388
 6508 0094 0C2C     		cmp	r4, #12
 6509 0096 39D0     		beq	.L246
 509:Src/Gcode/Buffer_Gcode.c **** }
 6510              		.loc 1 509 5 is_stmt 1 view .LVU1389
 509:Src/Gcode/Buffer_Gcode.c **** }
 6511              		.loc 1 509 8 is_stmt 0 view .LVU1390
 6512 0098 0D2C     		cmp	r4, #13
 6513 009a 0AD1     		bne	.L218
 509:Src/Gcode/Buffer_Gcode.c **** }
 6514              		.loc 1 509 57 is_stmt 1 discriminator 1 view .LVU1391
 6515 009c FFF7FEFF 		bl	WaitBedTemp_Analyser
 6516              	.LVL859:
 509:Src/Gcode/Buffer_Gcode.c **** }
 6517              		.loc 1 509 83 discriminator 1 view .LVU1392
 6518 00a0 07E0     		b	.L218
 6519              	.LVL860:
 6520              	.L236:
 485:Src/Gcode/Buffer_Gcode.c ****             MoveZ_Analyser();
 6521              		.loc 1 485 9 view .LVU1393
 485:Src/Gcode/Buffer_Gcode.c ****             MoveZ_Analyser();
 6522              		.loc 1 485 12 is_stmt 0 view .LVU1394
 6523 00a2 B742     		cmp	r7, r6
 6524 00a4 08D1     		bne	.L247
 6525              	.LVL861:
 6526              	.L220:
 487:Src/Gcode/Buffer_Gcode.c ****         {
 6527              		.loc 1 487 9 is_stmt 1 view .LVU1395
 487:Src/Gcode/Buffer_Gcode.c ****         {
 6528              		.loc 1 487 12 is_stmt 0 view .LVU1396
 6529 00a6 AA45     		cmp	r10, r5
 6530 00a8 01D1     		bne	.L221
 487:Src/Gcode/Buffer_Gcode.c ****         {
 6531              		.loc 1 487 22 discriminator 1 view .LVU1397
 6532 00aa C145     		cmp	r9, r8
 6533 00ac 07D0     		beq	.L222
 6534              	.L221:
 489:Src/Gcode/Buffer_Gcode.c ****             return;
 6535              		.loc 1 489 13 is_stmt 1 view .LVU1398
 6536 00ae FFF7FEFF 		bl	MoveXY_Analyser
 6537              	.LVL862:
 490:Src/Gcode/Buffer_Gcode.c ****         }
 6538              		.loc 1 490 13 view .LVU1399
 6539              	.L218:
 510:Src/Gcode/Buffer_Gcode.c **** 
 6540              		.loc 1 510 1 is_stmt 0 view .LVU1400
 6541 00b2 5DB0     		add	sp, sp, #372
 6542              	.LCFI78:
 6543              		.cfi_remember_state
 6544              		.cfi_def_cfa_offset 36
 6545              		@ sp needed
 6546 00b4 BDE8F08F 		pop	{r4, r5, r6, r7, r8, r9, r10, fp, pc}
 6547              	.LVL863:
 6548              	.L247:
 6549              	.LCFI79:
ARM GAS  /tmp/ccMe0kQ8.s 			page 148


 6550              		.cfi_restore_state
 486:Src/Gcode/Buffer_Gcode.c ****         if (dXn != 0 || dYn != 0)
 6551              		.loc 1 486 13 is_stmt 1 view .LVU1401
 6552 00b8 FFF7FEFF 		bl	MoveZ_Analyser
 6553              	.LVL864:
 486:Src/Gcode/Buffer_Gcode.c ****         if (dXn != 0 || dYn != 0)
 6554              		.loc 1 486 13 is_stmt 0 view .LVU1402
 6555 00bc F3E7     		b	.L220
 6556              	.L222:
 492:Src/Gcode/Buffer_Gcode.c ****             MoveE_Analyser();
 6557              		.loc 1 492 9 is_stmt 1 view .LVU1403
 492:Src/Gcode/Buffer_Gcode.c ****             MoveE_Analyser();
 6558              		.loc 1 492 12 is_stmt 0 view .LVU1404
 6559 00be 019B     		ldr	r3, [sp, #4]
 6560 00c0 9B45     		cmp	fp, r3
 6561 00c2 F6D0     		beq	.L218
 493:Src/Gcode/Buffer_Gcode.c ****         return;
 6562              		.loc 1 493 13 is_stmt 1 view .LVU1405
 6563 00c4 FFF7FEFF 		bl	MoveE_Analyser
 6564              	.LVL865:
 494:Src/Gcode/Buffer_Gcode.c ****     }
 6565              		.loc 1 494 9 view .LVU1406
 6566 00c8 F3E7     		b	.L218
 6567              	.LVL866:
 6568              	.L237:
 497:Src/Gcode/Buffer_Gcode.c ****     if (typeOfCommand == GO_HOME_Y_COMMAND)   {HomeY_Analyser();  return;}
 6569              		.loc 1 497 48 discriminator 1 view .LVU1407
 6570 00ca FFF7FEFF 		bl	HomeX_Analyser
 6571              	.LVL867:
 497:Src/Gcode/Buffer_Gcode.c ****     if (typeOfCommand == GO_HOME_Y_COMMAND)   {HomeY_Analyser();  return;}
 6572              		.loc 1 497 67 discriminator 1 view .LVU1408
 6573 00ce F0E7     		b	.L218
 6574              	.LVL868:
 6575              	.L238:
 498:Src/Gcode/Buffer_Gcode.c ****     if (typeOfCommand == GO_HOME_Z_COMMAND)   {HomeZ_Analyser();  return;}
 6576              		.loc 1 498 48 discriminator 1 view .LVU1409
 6577 00d0 FFF7FEFF 		bl	HomeY_Analyser
 6578              	.LVL869:
 498:Src/Gcode/Buffer_Gcode.c ****     if (typeOfCommand == GO_HOME_Z_COMMAND)   {HomeZ_Analyser();  return;}
 6579              		.loc 1 498 67 discriminator 1 view .LVU1410
 6580 00d4 EDE7     		b	.L218
 6581              	.LVL870:
 6582              	.L239:
 499:Src/Gcode/Buffer_Gcode.c ****     if (typeOfCommand == GO_HOME_XY_COMMAND)  {HomeXY_Analyser(); return;}
 6583              		.loc 1 499 48 discriminator 1 view .LVU1411
 6584 00d6 FFF7FEFF 		bl	HomeZ_Analyser
 6585              	.LVL871:
 499:Src/Gcode/Buffer_Gcode.c ****     if (typeOfCommand == GO_HOME_XY_COMMAND)  {HomeXY_Analyser(); return;}
 6586              		.loc 1 499 67 discriminator 1 view .LVU1412
 6587 00da EAE7     		b	.L218
 6588              	.LVL872:
 6589              	.L240:
 500:Src/Gcode/Buffer_Gcode.c ****     if (typeOfCommand == GO_HOME_XZ_COMMAND)  {HomeZ_Analyser();  HomeX_Analyser();  return;}
 6590              		.loc 1 500 48 discriminator 1 view .LVU1413
 6591 00dc FFF7FEFF 		bl	HomeXY_Analyser
 6592              	.LVL873:
 500:Src/Gcode/Buffer_Gcode.c ****     if (typeOfCommand == GO_HOME_XZ_COMMAND)  {HomeZ_Analyser();  HomeX_Analyser();  return;}
ARM GAS  /tmp/ccMe0kQ8.s 			page 149


 6593              		.loc 1 500 67 discriminator 1 view .LVU1414
 6594 00e0 E7E7     		b	.L218
 6595              	.LVL874:
 6596              	.L241:
 501:Src/Gcode/Buffer_Gcode.c ****     if (typeOfCommand == GO_HOME_YZ_COMMAND)  {HomeZ_Analyser();  HomeY_Analyser();  return;}
 6597              		.loc 1 501 48 discriminator 1 view .LVU1415
 6598 00e2 FFF7FEFF 		bl	HomeZ_Analyser
 6599              	.LVL875:
 501:Src/Gcode/Buffer_Gcode.c ****     if (typeOfCommand == GO_HOME_YZ_COMMAND)  {HomeZ_Analyser();  HomeY_Analyser();  return;}
 6600              		.loc 1 501 67 discriminator 1 view .LVU1416
 6601 00e6 FFF7FEFF 		bl	HomeX_Analyser
 6602              	.LVL876:
 501:Src/Gcode/Buffer_Gcode.c ****     if (typeOfCommand == GO_HOME_YZ_COMMAND)  {HomeZ_Analyser();  HomeY_Analyser();  return;}
 6603              		.loc 1 501 86 discriminator 1 view .LVU1417
 6604 00ea E2E7     		b	.L218
 6605              	.LVL877:
 6606              	.L242:
 502:Src/Gcode/Buffer_Gcode.c ****     if (typeOfCommand == GO_HOME_XYZ_COMMAND) {HomeZ_Analyser();  HomeXY_Analyser(); return;}
 6607              		.loc 1 502 48 discriminator 1 view .LVU1418
 6608 00ec FFF7FEFF 		bl	HomeZ_Analyser
 6609              	.LVL878:
 502:Src/Gcode/Buffer_Gcode.c ****     if (typeOfCommand == GO_HOME_XYZ_COMMAND) {HomeZ_Analyser();  HomeXY_Analyser(); return;}
 6610              		.loc 1 502 67 discriminator 1 view .LVU1419
 6611 00f0 FFF7FEFF 		bl	HomeY_Analyser
 6612              	.LVL879:
 502:Src/Gcode/Buffer_Gcode.c ****     if (typeOfCommand == GO_HOME_XYZ_COMMAND) {HomeZ_Analyser();  HomeXY_Analyser(); return;}
 6613              		.loc 1 502 86 discriminator 1 view .LVU1420
 6614 00f4 DDE7     		b	.L218
 6615              	.LVL880:
 6616              	.L243:
 503:Src/Gcode/Buffer_Gcode.c **** 
 6617              		.loc 1 503 48 discriminator 1 view .LVU1421
 6618 00f6 FFF7FEFF 		bl	HomeZ_Analyser
 6619              	.LVL881:
 503:Src/Gcode/Buffer_Gcode.c **** 
 6620              		.loc 1 503 67 discriminator 1 view .LVU1422
 6621 00fa FFF7FEFF 		bl	HomeXY_Analyser
 6622              	.LVL882:
 503:Src/Gcode/Buffer_Gcode.c **** 
 6623              		.loc 1 503 86 discriminator 1 view .LVU1423
 6624 00fe D8E7     		b	.L218
 6625              	.LVL883:
 6626              	.L244:
 505:Src/Gcode/Buffer_Gcode.c ****     if (typeOfCommand == HEAT_BED_COMMAND)        {SetBedTemp_Analyser();   return;}
 6627              		.loc 1 505 52 discriminator 1 view .LVU1424
 6628 0100 FFF7FEFF 		bl	SetExtrTemp_Analyser
 6629              	.LVL884:
 505:Src/Gcode/Buffer_Gcode.c ****     if (typeOfCommand == HEAT_BED_COMMAND)        {SetBedTemp_Analyser();   return;}
 6630              		.loc 1 505 77 discriminator 1 view .LVU1425
 6631 0104 D5E7     		b	.L218
 6632              	.LVL885:
 6633              	.L245:
 506:Src/Gcode/Buffer_Gcode.c **** 
 6634              		.loc 1 506 52 discriminator 1 view .LVU1426
 6635 0106 FFF7FEFF 		bl	SetBedTemp_Analyser
 6636              	.LVL886:
 506:Src/Gcode/Buffer_Gcode.c **** 
ARM GAS  /tmp/ccMe0kQ8.s 			page 150


 6637              		.loc 1 506 77 discriminator 1 view .LVU1427
 6638 010a D2E7     		b	.L218
 6639              	.LVL887:
 6640              	.L246:
 508:Src/Gcode/Buffer_Gcode.c ****     if (typeOfCommand == WAIT_HEAT_BED_COMMAND)        {WaitBedTemp_Analyser();   return;}
 6641              		.loc 1 508 57 discriminator 1 view .LVU1428
 6642 010c FFF7FEFF 		bl	WaitExtrTemp_Analyser
 6643              	.LVL888:
 508:Src/Gcode/Buffer_Gcode.c ****     if (typeOfCommand == WAIT_HEAT_BED_COMMAND)        {WaitBedTemp_Analyser();   return;}
 6644              		.loc 1 508 83 discriminator 1 view .LVU1429
 6645 0110 CFE7     		b	.L218
 6646              		.cfi_endproc
 6647              	.LFE29:
 6649              		.global	__aeabi_dcmpgt
 6650              		.global	__aeabi_dcmplt
 6651              		.section	.text.smoothStop_Gcode,"ax",%progbits
 6652              		.align	1
 6653              		.global	smoothStop_Gcode
 6654              		.syntax unified
 6655              		.thumb
 6656              		.thumb_func
 6657              		.fpu softvfp
 6659              	smoothStop_Gcode:
 6660              	.LFB36:
 557:Src/Gcode/Buffer_Gcode.c **** 
 558:Src/Gcode/Buffer_Gcode.c **** void smoothStop_Gcode(void)
 559:Src/Gcode/Buffer_Gcode.c **** {
 6661              		.loc 1 559 1 view -0
 6662              		.cfi_startproc
 6663              		@ args = 0, pretend = 0, frame = 104
 6664              		@ frame_needed = 0, uses_anonymous_args = 0
 6665 0000 2DE9F04F 		push	{r4, r5, r6, r7, r8, r9, r10, fp, lr}
 6666              	.LCFI80:
 6667              		.cfi_def_cfa_offset 36
 6668              		.cfi_offset 4, -36
 6669              		.cfi_offset 5, -32
 6670              		.cfi_offset 6, -28
 6671              		.cfi_offset 7, -24
 6672              		.cfi_offset 8, -20
 6673              		.cfi_offset 9, -16
 6674              		.cfi_offset 10, -12
 6675              		.cfi_offset 11, -8
 6676              		.cfi_offset 14, -4
 6677 0004 9BB0     		sub	sp, sp, #108
 6678              	.LCFI81:
 6679              		.cfi_def_cfa_offset 144
 560:Src/Gcode/Buffer_Gcode.c ****     int currentCommandNumber = lastCommandNumber();
 6680              		.loc 1 560 5 view .LVU1431
 6681              		.loc 1 560 32 is_stmt 0 view .LVU1432
 6682 0006 FFF7FEFF 		bl	lastCommandNumber
 6683              	.LVL889:
 6684 000a 0290     		str	r0, [sp, #8]
 6685              	.LVL890:
 561:Src/Gcode/Buffer_Gcode.c ****     command_Gcode command = commandBuffer[number(currentCommandNumber)];
 6686              		.loc 1 561 5 is_stmt 1 view .LVU1433
 6687              		.loc 1 561 43 is_stmt 0 view .LVU1434
 6688 000c FFF7FEFF 		bl	number
ARM GAS  /tmp/ccMe0kQ8.s 			page 151


 6689              	.LVL891:
 6690              		.loc 1 561 19 view .LVU1435
 6691 0010 C0EB0010 		rsb	r0, r0, r0, lsl #4
 6692 0014 0BAD     		add	r5, sp, #44
 6693 0016 414C     		ldr	r4, .L255
 6694 0018 04EB8004 		add	r4, r4, r0, lsl #2
 6695 001c 0FCC     		ldmia	r4!, {r0, r1, r2, r3}
 6696 001e 0FC5     		stmia	r5!, {r0, r1, r2, r3}
 6697 0020 0FCC     		ldmia	r4!, {r0, r1, r2, r3}
 6698 0022 0FC5     		stmia	r5!, {r0, r1, r2, r3}
 6699 0024 0FCC     		ldmia	r4!, {r0, r1, r2, r3}
 6700 0026 0FC5     		stmia	r5!, {r0, r1, r2, r3}
 6701 0028 94E80700 		ldm	r4, {r0, r1, r2}
 6702 002c 85E80700 		stm	r5, {r0, r1, r2}
 562:Src/Gcode/Buffer_Gcode.c **** 
 563:Src/Gcode/Buffer_Gcode.c ****     if (!smoothable(command.type)) return;
 6703              		.loc 1 563 5 is_stmt 1 view .LVU1436
 6704              		.loc 1 563 10 is_stmt 0 view .LVU1437
 6705 0030 9DF82C00 		ldrb	r0, [sp, #44]	@ zero_extendqisi2
 6706 0034 FFF7FEFF 		bl	smoothable
 6707              	.LVL892:
 6708              		.loc 1 563 8 view .LVU1438
 6709 0038 10B9     		cbnz	r0, .L254
 6710              	.LVL893:
 6711              	.L248:
 564:Src/Gcode/Buffer_Gcode.c **** 
 565:Src/Gcode/Buffer_Gcode.c ****     float speedAtTheEnd = 0;
 566:Src/Gcode/Buffer_Gcode.c ****     float speedAtTheStart = sqrtf(pow(command.FnX,2)+pow(command.FnY,2));
 567:Src/Gcode/Buffer_Gcode.c ****     float acceleration = ACCELERATION_XY_STEPS_PER_SS;
 568:Src/Gcode/Buffer_Gcode.c ****     float allowedDistance = sqrtf( pow(command.dXn,2) + pow(command.dYn,2) );
 569:Src/Gcode/Buffer_Gcode.c ****     float cosX = (float)command.dXn/allowedDistance;
 570:Src/Gcode/Buffer_Gcode.c ****     float cosY = (float)command.dYn/allowedDistance;
 571:Src/Gcode/Buffer_Gcode.c ****     float cosE = (float)command.dEn/allowedDistance;
 572:Src/Gcode/Buffer_Gcode.c **** 
 573:Src/Gcode/Buffer_Gcode.c ****     if    (allowedDistance + 0.5 > distanceRequired(speedAtTheStart, speedAtTheEnd, acceleration)) 
 574:Src/Gcode/Buffer_Gcode.c ****     while (allowedDistance + 0.5 < distanceRequired(speedAtTheStart, speedAtTheEnd, acceleration))
 575:Src/Gcode/Buffer_Gcode.c ****     {
 576:Src/Gcode/Buffer_Gcode.c ****         commandBuffer[number(currentCommandNumber)].FnX = cosX*sqrtf(pow(speedAtTheEnd,2)+2*acceler
 577:Src/Gcode/Buffer_Gcode.c ****         commandBuffer[number(currentCommandNumber)].FnY = cosY*sqrtf(pow(speedAtTheEnd,2)+2*acceler
 578:Src/Gcode/Buffer_Gcode.c ****         commandBuffer[number(currentCommandNumber)].FnE = cosE*sqrtf(pow(speedAtTheEnd,2)+2*acceler
 579:Src/Gcode/Buffer_Gcode.c ****         commandBuffer[number(currentCommandNumber)].AnX = -cosX*acceleration;
 580:Src/Gcode/Buffer_Gcode.c ****         commandBuffer[number(currentCommandNumber)].AnY = -cosY*acceleration;
 581:Src/Gcode/Buffer_Gcode.c ****         commandBuffer[number(currentCommandNumber)].AnE = -cosE*acceleration;
 582:Src/Gcode/Buffer_Gcode.c **** 
 583:Src/Gcode/Buffer_Gcode.c ****         currentCommandNumber = prevoiusCommandNumber(currentCommandNumber);
 584:Src/Gcode/Buffer_Gcode.c ****         command = commandBuffer[number(currentCommandNumber)];
 585:Src/Gcode/Buffer_Gcode.c **** 
 586:Src/Gcode/Buffer_Gcode.c ****         speedAtTheEnd = sqrtf( pow(commandBuffer[number(nextCommandNumber(currentCommandNumber))].F
 587:Src/Gcode/Buffer_Gcode.c ****         speedAtTheStart = sqrtf(pow(command.FnX,2)+pow(command.FnY,2));
 588:Src/Gcode/Buffer_Gcode.c ****         acceleration = ACCELERATION_XY_STEPS_PER_SS;
 589:Src/Gcode/Buffer_Gcode.c ****         allowedDistance = sqrtf( pow(command.dXn,2) + pow(command.dYn,2) );
 590:Src/Gcode/Buffer_Gcode.c ****         cosX = (float)command.dXn/allowedDistance;
 591:Src/Gcode/Buffer_Gcode.c ****         cosY = (float)command.dYn/allowedDistance;
 592:Src/Gcode/Buffer_Gcode.c ****         cosE = (float)command.dEn/allowedDistance;
 593:Src/Gcode/Buffer_Gcode.c ****     }
 594:Src/Gcode/Buffer_Gcode.c **** 
 595:Src/Gcode/Buffer_Gcode.c ****     shiftRightAllTheCommandsTillThis(currentCommandNumber);
ARM GAS  /tmp/ccMe0kQ8.s 			page 152


 596:Src/Gcode/Buffer_Gcode.c **** 
 597:Src/Gcode/Buffer_Gcode.c ****     float aStar = sqrtf(pow(command.AnX,2)+pow(command.AnY,2));
 598:Src/Gcode/Buffer_Gcode.c ****     float lStar = acceleration*allowedDistance/(acceleration+aStar) + ( pow(speedAtTheEnd,2) - pow(
 599:Src/Gcode/Buffer_Gcode.c ****     float vStar = sqrtf( pow(speedAtTheStart,2) + 2*aStar*lStar );
 600:Src/Gcode/Buffer_Gcode.c **** 
 601:Src/Gcode/Buffer_Gcode.c ****     commandBuffer[number(currentCommandNumber)].dXn = lroundf(lStar*cosX);              commandBuff
 602:Src/Gcode/Buffer_Gcode.c **** 
 603:Src/Gcode/Buffer_Gcode.c ****     currentCommandNumber = nextCommandNumber(currentCommandNumber);
 604:Src/Gcode/Buffer_Gcode.c ****     commandBuffer[number(currentCommandNumber)].dXn = command.dXn-lroundf(lStar*cosX);  commandBuff
 605:Src/Gcode/Buffer_Gcode.c ****     commandBuffer[number(currentCommandNumber)].FnX = vStar*cosX;                       commandBuff
 606:Src/Gcode/Buffer_Gcode.c ****     commandBuffer[number(currentCommandNumber)].AnX = -acceleration*cosX;               commandBuff
 607:Src/Gcode/Buffer_Gcode.c **** }
 6712              		.loc 1 607 1 view .LVU1439
 6713 003a 1BB0     		add	sp, sp, #108
 6714              	.LCFI82:
 6715              		.cfi_remember_state
 6716              		.cfi_def_cfa_offset 36
 6717              		@ sp needed
 6718 003c BDE8F08F 		pop	{r4, r5, r6, r7, r8, r9, r10, fp, pc}
 6719              	.LVL894:
 6720              	.L254:
 6721              	.LCFI83:
 6722              		.cfi_restore_state
 565:Src/Gcode/Buffer_Gcode.c ****     float speedAtTheStart = sqrtf(pow(command.FnX,2)+pow(command.FnY,2));
 6723              		.loc 1 565 5 is_stmt 1 view .LVU1440
 566:Src/Gcode/Buffer_Gcode.c ****     float acceleration = ACCELERATION_XY_STEPS_PER_SS;
 6724              		.loc 1 566 5 view .LVU1441
 566:Src/Gcode/Buffer_Gcode.c ****     float acceleration = ACCELERATION_XY_STEPS_PER_SS;
 6725              		.loc 1 566 35 is_stmt 0 view .LVU1442
 6726 0040 0024     		movs	r4, #0
 6727 0042 4FF08045 		mov	r5, #1073741824
 6728 0046 1098     		ldr	r0, [sp, #64]	@ float
 6729 0048 FFF7FEFF 		bl	__aeabi_f2d
 6730              	.LVL895:
 6731 004c 2246     		mov	r2, r4
 6732 004e 2B46     		mov	r3, r5
 6733 0050 FFF7FEFF 		bl	pow
 6734              	.LVL896:
 6735 0054 0646     		mov	r6, r0
 6736 0056 0F46     		mov	r7, r1
 566:Src/Gcode/Buffer_Gcode.c ****     float acceleration = ACCELERATION_XY_STEPS_PER_SS;
 6737              		.loc 1 566 54 view .LVU1443
 6738 0058 1198     		ldr	r0, [sp, #68]	@ float
 6739 005a FFF7FEFF 		bl	__aeabi_f2d
 6740              	.LVL897:
 6741 005e 2246     		mov	r2, r4
 6742 0060 2B46     		mov	r3, r5
 6743 0062 FFF7FEFF 		bl	pow
 6744              	.LVL898:
 6745 0066 0246     		mov	r2, r0
 6746 0068 0B46     		mov	r3, r1
 566:Src/Gcode/Buffer_Gcode.c ****     float acceleration = ACCELERATION_XY_STEPS_PER_SS;
 6747              		.loc 1 566 53 view .LVU1444
 6748 006a 3046     		mov	r0, r6
 6749 006c 3946     		mov	r1, r7
 6750 006e FFF7FEFF 		bl	__aeabi_dadd
 6751              	.LVL899:
ARM GAS  /tmp/ccMe0kQ8.s 			page 153


 566:Src/Gcode/Buffer_Gcode.c ****     float acceleration = ACCELERATION_XY_STEPS_PER_SS;
 6752              		.loc 1 566 29 view .LVU1445
 6753 0072 FFF7FEFF 		bl	__aeabi_d2f
 6754              	.LVL900:
 6755 0076 FFF7FEFF 		bl	sqrtf
 6756              	.LVL901:
 6757 007a 8346     		mov	fp, r0
 6758              	.LVL902:
 567:Src/Gcode/Buffer_Gcode.c ****     float allowedDistance = sqrtf( pow(command.dXn,2) + pow(command.dYn,2) );
 6759              		.loc 1 567 5 is_stmt 1 view .LVU1446
 568:Src/Gcode/Buffer_Gcode.c ****     float cosX = (float)command.dXn/allowedDistance;
 6760              		.loc 1 568 5 view .LVU1447
 568:Src/Gcode/Buffer_Gcode.c ****     float cosX = (float)command.dXn/allowedDistance;
 6761              		.loc 1 568 47 is_stmt 0 view .LVU1448
 6762 007c DDF830A0 		ldr	r10, [sp, #48]
 568:Src/Gcode/Buffer_Gcode.c ****     float cosX = (float)command.dXn/allowedDistance;
 6763              		.loc 1 568 36 view .LVU1449
 6764 0080 5046     		mov	r0, r10
 6765              	.LVL903:
 568:Src/Gcode/Buffer_Gcode.c ****     float cosX = (float)command.dXn/allowedDistance;
 6766              		.loc 1 568 36 view .LVU1450
 6767 0082 FFF7FEFF 		bl	__aeabi_i2d
 6768              	.LVL904:
 6769 0086 2246     		mov	r2, r4
 6770 0088 2B46     		mov	r3, r5
 6771 008a FFF7FEFF 		bl	pow
 6772              	.LVL905:
 6773 008e 0646     		mov	r6, r0
 6774 0090 0F46     		mov	r7, r1
 568:Src/Gcode/Buffer_Gcode.c ****     float cosX = (float)command.dXn/allowedDistance;
 6775              		.loc 1 568 68 view .LVU1451
 6776 0092 DDF83490 		ldr	r9, [sp, #52]
 568:Src/Gcode/Buffer_Gcode.c ****     float cosX = (float)command.dXn/allowedDistance;
 6777              		.loc 1 568 57 view .LVU1452
 6778 0096 4846     		mov	r0, r9
 6779 0098 FFF7FEFF 		bl	__aeabi_i2d
 6780              	.LVL906:
 6781 009c 2246     		mov	r2, r4
 6782 009e 2B46     		mov	r3, r5
 6783 00a0 FFF7FEFF 		bl	pow
 6784              	.LVL907:
 6785 00a4 0246     		mov	r2, r0
 6786 00a6 0B46     		mov	r3, r1
 568:Src/Gcode/Buffer_Gcode.c ****     float cosX = (float)command.dXn/allowedDistance;
 6787              		.loc 1 568 55 view .LVU1453
 6788 00a8 3046     		mov	r0, r6
 6789 00aa 3946     		mov	r1, r7
 6790 00ac FFF7FEFF 		bl	__aeabi_dadd
 6791              	.LVL908:
 568:Src/Gcode/Buffer_Gcode.c ****     float cosX = (float)command.dXn/allowedDistance;
 6792              		.loc 1 568 29 view .LVU1454
 6793 00b0 FFF7FEFF 		bl	__aeabi_d2f
 6794              	.LVL909:
 6795 00b4 FFF7FEFF 		bl	sqrtf
 6796              	.LVL910:
 6797 00b8 8046     		mov	r8, r0
 6798              	.LVL911:
ARM GAS  /tmp/ccMe0kQ8.s 			page 154


 569:Src/Gcode/Buffer_Gcode.c ****     float cosY = (float)command.dYn/allowedDistance;
 6799              		.loc 1 569 5 is_stmt 1 view .LVU1455
 569:Src/Gcode/Buffer_Gcode.c ****     float cosY = (float)command.dYn/allowedDistance;
 6800              		.loc 1 569 18 is_stmt 0 view .LVU1456
 6801 00ba 5046     		mov	r0, r10
 6802              	.LVL912:
 569:Src/Gcode/Buffer_Gcode.c ****     float cosY = (float)command.dYn/allowedDistance;
 6803              		.loc 1 569 18 view .LVU1457
 6804 00bc FFF7FEFF 		bl	__aeabi_i2f
 6805              	.LVL913:
 569:Src/Gcode/Buffer_Gcode.c ****     float cosY = (float)command.dYn/allowedDistance;
 6806              		.loc 1 569 11 view .LVU1458
 6807 00c0 4146     		mov	r1, r8
 6808 00c2 FFF7FEFF 		bl	__aeabi_fdiv
 6809              	.LVL914:
 6810 00c6 0190     		str	r0, [sp, #4]	@ float
 6811              	.LVL915:
 570:Src/Gcode/Buffer_Gcode.c ****     float cosE = (float)command.dEn/allowedDistance;
 6812              		.loc 1 570 5 is_stmt 1 view .LVU1459
 570:Src/Gcode/Buffer_Gcode.c ****     float cosE = (float)command.dEn/allowedDistance;
 6813              		.loc 1 570 18 is_stmt 0 view .LVU1460
 6814 00c8 4846     		mov	r0, r9
 6815              	.LVL916:
 570:Src/Gcode/Buffer_Gcode.c ****     float cosE = (float)command.dEn/allowedDistance;
 6816              		.loc 1 570 18 view .LVU1461
 6817 00ca FFF7FEFF 		bl	__aeabi_i2f
 6818              	.LVL917:
 570:Src/Gcode/Buffer_Gcode.c ****     float cosE = (float)command.dEn/allowedDistance;
 6819              		.loc 1 570 11 view .LVU1462
 6820 00ce 4146     		mov	r1, r8
 6821 00d0 FFF7FEFF 		bl	__aeabi_fdiv
 6822              	.LVL918:
 6823 00d4 0890     		str	r0, [sp, #32]	@ float
 6824              	.LVL919:
 571:Src/Gcode/Buffer_Gcode.c **** 
 6825              		.loc 1 571 5 is_stmt 1 view .LVU1463
 571:Src/Gcode/Buffer_Gcode.c **** 
 6826              		.loc 1 571 18 is_stmt 0 view .LVU1464
 6827 00d6 0F98     		ldr	r0, [sp, #60]
 6828              	.LVL920:
 571:Src/Gcode/Buffer_Gcode.c **** 
 6829              		.loc 1 571 18 view .LVU1465
 6830 00d8 FFF7FEFF 		bl	__aeabi_i2f
 6831              	.LVL921:
 571:Src/Gcode/Buffer_Gcode.c **** 
 6832              		.loc 1 571 11 view .LVU1466
 6833 00dc 4146     		mov	r1, r8
 6834 00de FFF7FEFF 		bl	__aeabi_fdiv
 6835              	.LVL922:
 6836 00e2 8146     		mov	r9, r0
 6837              	.LVL923:
 573:Src/Gcode/Buffer_Gcode.c ****     while (allowedDistance + 0.5 < distanceRequired(speedAtTheStart, speedAtTheEnd, acceleration))
 6838              		.loc 1 573 5 is_stmt 1 view .LVU1467
 573:Src/Gcode/Buffer_Gcode.c ****     while (allowedDistance + 0.5 < distanceRequired(speedAtTheStart, speedAtTheEnd, acceleration))
 6839              		.loc 1 573 28 is_stmt 0 view .LVU1468
 6840 00e4 4046     		mov	r0, r8
 6841              	.LVL924:
ARM GAS  /tmp/ccMe0kQ8.s 			page 155


 573:Src/Gcode/Buffer_Gcode.c ****     while (allowedDistance + 0.5 < distanceRequired(speedAtTheStart, speedAtTheEnd, acceleration))
 6842              		.loc 1 573 28 view .LVU1469
 6843 00e6 FFF7FEFF 		bl	__aeabi_f2d
 6844              	.LVL925:
 6845 00ea 0022     		movs	r2, #0
 6846 00ec 0C4B     		ldr	r3, .L255+4
 6847 00ee FFF7FEFF 		bl	__aeabi_dadd
 6848              	.LVL926:
 6849 00f2 0446     		mov	r4, r0
 6850 00f4 0D46     		mov	r5, r1
 573:Src/Gcode/Buffer_Gcode.c ****     while (allowedDistance + 0.5 < distanceRequired(speedAtTheStart, speedAtTheEnd, acceleration))
 6851              		.loc 1 573 36 view .LVU1470
 6852 00f6 0B4A     		ldr	r2, .L255+8
 6853 00f8 0021     		movs	r1, #0
 6854 00fa 5846     		mov	r0, fp
 6855 00fc FFF7FEFF 		bl	distanceRequired
 6856              	.LVL927:
 573:Src/Gcode/Buffer_Gcode.c ****     while (allowedDistance + 0.5 < distanceRequired(speedAtTheStart, speedAtTheEnd, acceleration))
 6857              		.loc 1 573 34 view .LVU1471
 6858 0100 FFF7FEFF 		bl	__aeabi_i2d
 6859              	.LVL928:
 6860 0104 0246     		mov	r2, r0
 6861 0106 0B46     		mov	r3, r1
 573:Src/Gcode/Buffer_Gcode.c ****     while (allowedDistance + 0.5 < distanceRequired(speedAtTheStart, speedAtTheEnd, acceleration))
 6862              		.loc 1 573 11 view .LVU1472
 6863 0108 2046     		mov	r0, r4
 6864 010a 2946     		mov	r1, r5
 6865 010c FFF7FEFF 		bl	__aeabi_dcmpgt
 6866              	.LVL929:
 6867 0110 0028     		cmp	r0, #0
 6868 0112 92D1     		bne	.L248
 565:Src/Gcode/Buffer_Gcode.c ****     float speedAtTheStart = sqrtf(pow(command.FnX,2)+pow(command.FnY,2));
 6869              		.loc 1 565 11 view .LVU1473
 6870 0114 0026     		movs	r6, #0
 6871 0116 029C     		ldr	r4, [sp, #8]
 6872 0118 5D46     		mov	r5, fp
 6873 011a 01E1     		b	.L250
 6874              	.L256:
 6875              		.align	2
 6876              	.L255:
 6877 011c 00000000 		.word	.LANCHOR2
 6878 0120 0000E03F 		.word	1071644672
 6879 0124 ABAAA644 		.word	1151773355
 6880              	.LVL930:
 6881              	.L251:
 576:Src/Gcode/Buffer_Gcode.c ****         commandBuffer[number(currentCommandNumber)].FnY = cosY*sqrtf(pow(speedAtTheEnd,2)+2*acceler
 6882              		.loc 1 576 9 is_stmt 1 view .LVU1474
 576:Src/Gcode/Buffer_Gcode.c ****         commandBuffer[number(currentCommandNumber)].FnY = cosY*sqrtf(pow(speedAtTheEnd,2)+2*acceler
 6883              		.loc 1 576 70 is_stmt 0 view .LVU1475
 6884 0128 3046     		mov	r0, r6
 6885 012a FFF7FEFF 		bl	__aeabi_f2d
 6886              	.LVL931:
 6887 012e 0246     		mov	r2, r0
 6888 0130 0B46     		mov	r3, r1
 6889 0132 CDE90223 		strd	r2, [sp, #8]
 6890 0136 4FF0000A 		mov	r10, #0
 6891 013a 4FF0804B 		mov	fp, #1073741824
ARM GAS  /tmp/ccMe0kQ8.s 			page 156


 6892 013e 5246     		mov	r2, r10
 6893 0140 5B46     		mov	r3, fp
 6894 0142 FFF7FEFF 		bl	pow
 6895              	.LVL932:
 6896 0146 0646     		mov	r6, r0
 6897              	.LVL933:
 576:Src/Gcode/Buffer_Gcode.c ****         commandBuffer[number(currentCommandNumber)].FnY = cosY*sqrtf(pow(speedAtTheEnd,2)+2*acceler
 6898              		.loc 1 576 70 view .LVU1476
 6899 0148 0F46     		mov	r7, r1
 576:Src/Gcode/Buffer_Gcode.c ****         commandBuffer[number(currentCommandNumber)].FnY = cosY*sqrtf(pow(speedAtTheEnd,2)+2*acceler
 6900              		.loc 1 576 105 view .LVU1477
 6901 014a CF49     		ldr	r1, .L257
 6902 014c 4046     		mov	r0, r8
 6903 014e FFF7FEFF 		bl	__aeabi_fmul
 6904              	.LVL934:
 6905 0152 FFF7FEFF 		bl	__aeabi_f2d
 6906              	.LVL935:
 576:Src/Gcode/Buffer_Gcode.c ****         commandBuffer[number(currentCommandNumber)].FnY = cosY*sqrtf(pow(speedAtTheEnd,2)+2*acceler
 6907              		.loc 1 576 90 view .LVU1478
 6908 0156 CDE90401 		strd	r0, [sp, #16]
 6909 015a 0246     		mov	r2, r0
 6910 015c 0B46     		mov	r3, r1
 6911 015e 3046     		mov	r0, r6
 6912 0160 3946     		mov	r1, r7
 6913 0162 FFF7FEFF 		bl	__aeabi_dadd
 6914              	.LVL936:
 576:Src/Gcode/Buffer_Gcode.c ****         commandBuffer[number(currentCommandNumber)].FnY = cosY*sqrtf(pow(speedAtTheEnd,2)+2*acceler
 6915              		.loc 1 576 64 view .LVU1479
 6916 0166 FFF7FEFF 		bl	__aeabi_d2f
 6917              	.LVL937:
 6918 016a FFF7FEFF 		bl	sqrtf
 6919              	.LVL938:
 6920 016e 0546     		mov	r5, r0
 6921              	.LVL939:
 576:Src/Gcode/Buffer_Gcode.c ****         commandBuffer[number(currentCommandNumber)].FnY = cosY*sqrtf(pow(speedAtTheEnd,2)+2*acceler
 6922              		.loc 1 576 23 view .LVU1480
 6923 0170 2046     		mov	r0, r4
 6924 0172 FFF7FEFF 		bl	number
 6925              	.LVL940:
 6926 0176 0746     		mov	r7, r0
 576:Src/Gcode/Buffer_Gcode.c ****         commandBuffer[number(currentCommandNumber)].FnY = cosY*sqrtf(pow(speedAtTheEnd,2)+2*acceler
 6927              		.loc 1 576 63 view .LVU1481
 6928 0178 0199     		ldr	r1, [sp, #4]	@ float
 6929 017a 2846     		mov	r0, r5
 6930 017c FFF7FEFF 		bl	__aeabi_fmul
 6931              	.LVL941:
 576:Src/Gcode/Buffer_Gcode.c ****         commandBuffer[number(currentCommandNumber)].FnY = cosY*sqrtf(pow(speedAtTheEnd,2)+2*acceler
 6932              		.loc 1 576 57 view .LVU1482
 6933 0180 C24D     		ldr	r5, .L257+4
 6934 0182 C7EB0716 		rsb	r6, r7, r7, lsl #4
 6935 0186 05EB8606 		add	r6, r5, r6, lsl #2
 6936 018a 7061     		str	r0, [r6, #20]	@ float
 577:Src/Gcode/Buffer_Gcode.c ****         commandBuffer[number(currentCommandNumber)].FnE = cosE*sqrtf(pow(speedAtTheEnd,2)+2*acceler
 6937              		.loc 1 577 9 is_stmt 1 view .LVU1483
 577:Src/Gcode/Buffer_Gcode.c ****         commandBuffer[number(currentCommandNumber)].FnE = cosE*sqrtf(pow(speedAtTheEnd,2)+2*acceler
 6938              		.loc 1 577 70 is_stmt 0 view .LVU1484
 6939 018c 5246     		mov	r2, r10
ARM GAS  /tmp/ccMe0kQ8.s 			page 157


 6940 018e 5B46     		mov	r3, fp
 6941 0190 DDE90201 		ldrd	r0, [sp, #8]
 6942 0194 FFF7FEFF 		bl	pow
 6943              	.LVL942:
 6944 0198 0246     		mov	r2, r0
 6945 019a 0B46     		mov	r3, r1
 577:Src/Gcode/Buffer_Gcode.c ****         commandBuffer[number(currentCommandNumber)].FnE = cosE*sqrtf(pow(speedAtTheEnd,2)+2*acceler
 6946              		.loc 1 577 90 view .LVU1485
 6947 019c DDE90401 		ldrd	r0, [sp, #16]
 6948 01a0 FFF7FEFF 		bl	__aeabi_dadd
 6949              	.LVL943:
 577:Src/Gcode/Buffer_Gcode.c ****         commandBuffer[number(currentCommandNumber)].FnE = cosE*sqrtf(pow(speedAtTheEnd,2)+2*acceler
 6950              		.loc 1 577 64 view .LVU1486
 6951 01a4 FFF7FEFF 		bl	__aeabi_d2f
 6952              	.LVL944:
 6953 01a8 FFF7FEFF 		bl	sqrtf
 6954              	.LVL945:
 577:Src/Gcode/Buffer_Gcode.c ****         commandBuffer[number(currentCommandNumber)].FnE = cosE*sqrtf(pow(speedAtTheEnd,2)+2*acceler
 6955              		.loc 1 577 63 view .LVU1487
 6956 01ac 0899     		ldr	r1, [sp, #32]	@ float
 6957 01ae FFF7FEFF 		bl	__aeabi_fmul
 6958              	.LVL946:
 577:Src/Gcode/Buffer_Gcode.c ****         commandBuffer[number(currentCommandNumber)].FnE = cosE*sqrtf(pow(speedAtTheEnd,2)+2*acceler
 6959              		.loc 1 577 57 view .LVU1488
 6960 01b2 B061     		str	r0, [r6, #24]	@ float
 578:Src/Gcode/Buffer_Gcode.c ****         commandBuffer[number(currentCommandNumber)].AnX = -cosX*acceleration;
 6961              		.loc 1 578 9 is_stmt 1 view .LVU1489
 578:Src/Gcode/Buffer_Gcode.c ****         commandBuffer[number(currentCommandNumber)].AnX = -cosX*acceleration;
 6962              		.loc 1 578 70 is_stmt 0 view .LVU1490
 6963 01b4 5246     		mov	r2, r10
 6964 01b6 5B46     		mov	r3, fp
 6965 01b8 DDE90201 		ldrd	r0, [sp, #8]
 6966 01bc FFF7FEFF 		bl	pow
 6967              	.LVL947:
 6968 01c0 0246     		mov	r2, r0
 6969 01c2 0B46     		mov	r3, r1
 578:Src/Gcode/Buffer_Gcode.c ****         commandBuffer[number(currentCommandNumber)].AnX = -cosX*acceleration;
 6970              		.loc 1 578 90 view .LVU1491
 6971 01c4 DDE90401 		ldrd	r0, [sp, #16]
 6972 01c8 FFF7FEFF 		bl	__aeabi_dadd
 6973              	.LVL948:
 578:Src/Gcode/Buffer_Gcode.c ****         commandBuffer[number(currentCommandNumber)].AnX = -cosX*acceleration;
 6974              		.loc 1 578 64 view .LVU1492
 6975 01cc FFF7FEFF 		bl	__aeabi_d2f
 6976              	.LVL949:
 6977 01d0 FFF7FEFF 		bl	sqrtf
 6978              	.LVL950:
 578:Src/Gcode/Buffer_Gcode.c ****         commandBuffer[number(currentCommandNumber)].AnX = -cosX*acceleration;
 6979              		.loc 1 578 63 view .LVU1493
 6980 01d4 4946     		mov	r1, r9
 6981 01d6 FFF7FEFF 		bl	__aeabi_fmul
 6982              	.LVL951:
 578:Src/Gcode/Buffer_Gcode.c ****         commandBuffer[number(currentCommandNumber)].AnX = -cosX*acceleration;
 6983              		.loc 1 578 57 view .LVU1494
 6984 01da 3062     		str	r0, [r6, #32]	@ float
 579:Src/Gcode/Buffer_Gcode.c ****         commandBuffer[number(currentCommandNumber)].AnY = -cosY*acceleration;
 6985              		.loc 1 579 9 is_stmt 1 view .LVU1495
ARM GAS  /tmp/ccMe0kQ8.s 			page 158


 579:Src/Gcode/Buffer_Gcode.c ****         commandBuffer[number(currentCommandNumber)].AnY = -cosY*acceleration;
 6986              		.loc 1 579 59 is_stmt 0 view .LVU1496
 6987 01dc 019B     		ldr	r3, [sp, #4]
 6988 01de 03F10040 		add	r0, r3, #-2147483648
 579:Src/Gcode/Buffer_Gcode.c ****         commandBuffer[number(currentCommandNumber)].AnY = -cosY*acceleration;
 6989              		.loc 1 579 64 view .LVU1497
 6990 01e2 AB49     		ldr	r1, .L257+8
 6991 01e4 FFF7FEFF 		bl	__aeabi_fmul
 6992              	.LVL952:
 579:Src/Gcode/Buffer_Gcode.c ****         commandBuffer[number(currentCommandNumber)].AnY = -cosY*acceleration;
 6993              		.loc 1 579 57 view .LVU1498
 6994 01e8 7062     		str	r0, [r6, #36]	@ float
 580:Src/Gcode/Buffer_Gcode.c ****         commandBuffer[number(currentCommandNumber)].AnE = -cosE*acceleration;
 6995              		.loc 1 580 9 is_stmt 1 view .LVU1499
 580:Src/Gcode/Buffer_Gcode.c ****         commandBuffer[number(currentCommandNumber)].AnE = -cosE*acceleration;
 6996              		.loc 1 580 59 is_stmt 0 view .LVU1500
 6997 01ea 089B     		ldr	r3, [sp, #32]
 6998 01ec 03F10040 		add	r0, r3, #-2147483648
 580:Src/Gcode/Buffer_Gcode.c ****         commandBuffer[number(currentCommandNumber)].AnE = -cosE*acceleration;
 6999              		.loc 1 580 64 view .LVU1501
 7000 01f0 A749     		ldr	r1, .L257+8
 7001 01f2 FFF7FEFF 		bl	__aeabi_fmul
 7002              	.LVL953:
 580:Src/Gcode/Buffer_Gcode.c ****         commandBuffer[number(currentCommandNumber)].AnE = -cosE*acceleration;
 7003              		.loc 1 580 57 view .LVU1502
 7004 01f6 B062     		str	r0, [r6, #40]	@ float
 581:Src/Gcode/Buffer_Gcode.c **** 
 7005              		.loc 1 581 9 is_stmt 1 view .LVU1503
 581:Src/Gcode/Buffer_Gcode.c **** 
 7006              		.loc 1 581 59 is_stmt 0 view .LVU1504
 7007 01f8 09F10040 		add	r0, r9, #-2147483648
 581:Src/Gcode/Buffer_Gcode.c **** 
 7008              		.loc 1 581 64 view .LVU1505
 7009 01fc A449     		ldr	r1, .L257+8
 7010 01fe FFF7FEFF 		bl	__aeabi_fmul
 7011              	.LVL954:
 581:Src/Gcode/Buffer_Gcode.c **** 
 7012              		.loc 1 581 57 view .LVU1506
 7013 0202 3063     		str	r0, [r6, #48]	@ float
 583:Src/Gcode/Buffer_Gcode.c ****         command = commandBuffer[number(currentCommandNumber)];
 7014              		.loc 1 583 9 is_stmt 1 view .LVU1507
 583:Src/Gcode/Buffer_Gcode.c ****         command = commandBuffer[number(currentCommandNumber)];
 7015              		.loc 1 583 32 is_stmt 0 view .LVU1508
 7016 0204 2046     		mov	r0, r4
 7017 0206 FFF7FEFF 		bl	prevoiusCommandNumber
 7018              	.LVL955:
 7019 020a 0446     		mov	r4, r0
 7020              	.LVL956:
 584:Src/Gcode/Buffer_Gcode.c **** 
 7021              		.loc 1 584 9 is_stmt 1 view .LVU1509
 584:Src/Gcode/Buffer_Gcode.c **** 
 7022              		.loc 1 584 33 is_stmt 0 view .LVU1510
 7023 020c FFF7FEFF 		bl	number
 7024              	.LVL957:
 584:Src/Gcode/Buffer_Gcode.c **** 
 7025              		.loc 1 584 17 view .LVU1511
 7026 0210 C0EB0010 		rsb	r0, r0, r0, lsl #4
ARM GAS  /tmp/ccMe0kQ8.s 			page 159


 7027 0214 0BAF     		add	r7, sp, #44
 7028 0216 05EB8006 		add	r6, r5, r0, lsl #2
 7029 021a 0FCE     		ldmia	r6!, {r0, r1, r2, r3}
 7030 021c 0FC7     		stmia	r7!, {r0, r1, r2, r3}
 7031 021e 0FCE     		ldmia	r6!, {r0, r1, r2, r3}
 7032 0220 0FC7     		stmia	r7!, {r0, r1, r2, r3}
 7033 0222 0FCE     		ldmia	r6!, {r0, r1, r2, r3}
 7034 0224 0FC7     		stmia	r7!, {r0, r1, r2, r3}
 7035 0226 96E80700 		ldm	r6, {r0, r1, r2}
 7036 022a 87E80700 		stm	r7, {r0, r1, r2}
 586:Src/Gcode/Buffer_Gcode.c ****         speedAtTheStart = sqrtf(pow(command.FnX,2)+pow(command.FnY,2));
 7037              		.loc 1 586 9 is_stmt 1 view .LVU1512
 586:Src/Gcode/Buffer_Gcode.c ****         speedAtTheStart = sqrtf(pow(command.FnX,2)+pow(command.FnY,2));
 7038              		.loc 1 586 50 is_stmt 0 view .LVU1513
 7039 022e 2046     		mov	r0, r4
 7040 0230 FFF7FEFF 		bl	nextCommandNumber
 7041              	.LVL958:
 7042 0234 FFF7FEFF 		bl	number
 7043              	.LVL959:
 7044 0238 8046     		mov	r8, r0
 7045              	.LVL960:
 586:Src/Gcode/Buffer_Gcode.c ****         speedAtTheStart = sqrtf(pow(command.FnX,2)+pow(command.FnY,2));
 7046              		.loc 1 586 98 view .LVU1514
 7047 023a 4FEA0019 		lsl	r9, r0, #4
 7048              	.LVL961:
 586:Src/Gcode/Buffer_Gcode.c ****         speedAtTheStart = sqrtf(pow(command.FnX,2)+pow(command.FnY,2));
 7049              		.loc 1 586 98 view .LVU1515
 7050 023e C0EB0013 		rsb	r3, r0, r0, lsl #4
 7051 0242 05EB8303 		add	r3, r5, r3, lsl #2
 586:Src/Gcode/Buffer_Gcode.c ****         speedAtTheStart = sqrtf(pow(command.FnX,2)+pow(command.FnY,2));
 7052              		.loc 1 586 32 view .LVU1516
 7053 0246 5869     		ldr	r0, [r3, #20]	@ float
 7054 0248 FFF7FEFF 		bl	__aeabi_f2d
 7055              	.LVL962:
 7056 024c 5246     		mov	r2, r10
 7057 024e 5B46     		mov	r3, fp
 7058 0250 FFF7FEFF 		bl	pow
 7059              	.LVL963:
 7060 0254 0646     		mov	r6, r0
 7061 0256 0F46     		mov	r7, r1
 586:Src/Gcode/Buffer_Gcode.c ****         speedAtTheStart = sqrtf(pow(command.FnX,2)+pow(command.FnY,2));
 7062              		.loc 1 586 172 view .LVU1517
 7063 0258 A9EB0808 		sub	r8, r9, r8
 7064 025c 05EB8805 		add	r5, r5, r8, lsl #2
 586:Src/Gcode/Buffer_Gcode.c ****         speedAtTheStart = sqrtf(pow(command.FnX,2)+pow(command.FnY,2));
 7065              		.loc 1 586 106 view .LVU1518
 7066 0260 A869     		ldr	r0, [r5, #24]	@ float
 7067 0262 FFF7FEFF 		bl	__aeabi_f2d
 7068              	.LVL964:
 7069 0266 5246     		mov	r2, r10
 7070 0268 5B46     		mov	r3, fp
 7071 026a FFF7FEFF 		bl	pow
 7072              	.LVL965:
 7073 026e 0246     		mov	r2, r0
 7074 0270 0B46     		mov	r3, r1
 586:Src/Gcode/Buffer_Gcode.c ****         speedAtTheStart = sqrtf(pow(command.FnX,2)+pow(command.FnY,2));
 7075              		.loc 1 586 105 view .LVU1519
ARM GAS  /tmp/ccMe0kQ8.s 			page 160


 7076 0272 3046     		mov	r0, r6
 7077 0274 3946     		mov	r1, r7
 7078 0276 FFF7FEFF 		bl	__aeabi_dadd
 7079              	.LVL966:
 586:Src/Gcode/Buffer_Gcode.c ****         speedAtTheStart = sqrtf(pow(command.FnX,2)+pow(command.FnY,2));
 7080              		.loc 1 586 25 view .LVU1520
 7081 027a FFF7FEFF 		bl	__aeabi_d2f
 7082              	.LVL967:
 7083 027e FFF7FEFF 		bl	sqrtf
 7084              	.LVL968:
 7085 0282 0646     		mov	r6, r0
 7086              	.LVL969:
 587:Src/Gcode/Buffer_Gcode.c ****         acceleration = ACCELERATION_XY_STEPS_PER_SS;
 7087              		.loc 1 587 9 is_stmt 1 view .LVU1521
 587:Src/Gcode/Buffer_Gcode.c ****         acceleration = ACCELERATION_XY_STEPS_PER_SS;
 7088              		.loc 1 587 33 is_stmt 0 view .LVU1522
 7089 0284 1098     		ldr	r0, [sp, #64]	@ float
 7090              	.LVL970:
 587:Src/Gcode/Buffer_Gcode.c ****         acceleration = ACCELERATION_XY_STEPS_PER_SS;
 7091              		.loc 1 587 33 view .LVU1523
 7092 0286 FFF7FEFF 		bl	__aeabi_f2d
 7093              	.LVL971:
 7094 028a 5246     		mov	r2, r10
 7095 028c 5B46     		mov	r3, fp
 7096 028e FFF7FEFF 		bl	pow
 7097              	.LVL972:
 7098 0292 8046     		mov	r8, r0
 7099 0294 8946     		mov	r9, r1
 587:Src/Gcode/Buffer_Gcode.c ****         acceleration = ACCELERATION_XY_STEPS_PER_SS;
 7100              		.loc 1 587 52 view .LVU1524
 7101 0296 1198     		ldr	r0, [sp, #68]	@ float
 7102 0298 FFF7FEFF 		bl	__aeabi_f2d
 7103              	.LVL973:
 7104 029c 5246     		mov	r2, r10
 7105 029e 5B46     		mov	r3, fp
 7106 02a0 FFF7FEFF 		bl	pow
 7107              	.LVL974:
 7108 02a4 0246     		mov	r2, r0
 7109 02a6 0B46     		mov	r3, r1
 587:Src/Gcode/Buffer_Gcode.c ****         acceleration = ACCELERATION_XY_STEPS_PER_SS;
 7110              		.loc 1 587 51 view .LVU1525
 7111 02a8 4046     		mov	r0, r8
 7112 02aa 4946     		mov	r1, r9
 7113 02ac FFF7FEFF 		bl	__aeabi_dadd
 7114              	.LVL975:
 587:Src/Gcode/Buffer_Gcode.c ****         acceleration = ACCELERATION_XY_STEPS_PER_SS;
 7115              		.loc 1 587 27 view .LVU1526
 7116 02b0 FFF7FEFF 		bl	__aeabi_d2f
 7117              	.LVL976:
 7118 02b4 FFF7FEFF 		bl	sqrtf
 7119              	.LVL977:
 7120 02b8 0546     		mov	r5, r0
 7121              	.LVL978:
 588:Src/Gcode/Buffer_Gcode.c ****         allowedDistance = sqrtf( pow(command.dXn,2) + pow(command.dYn,2) );
 7122              		.loc 1 588 9 is_stmt 1 view .LVU1527
 589:Src/Gcode/Buffer_Gcode.c ****         cosX = (float)command.dXn/allowedDistance;
 7123              		.loc 1 589 9 view .LVU1528
ARM GAS  /tmp/ccMe0kQ8.s 			page 161


 589:Src/Gcode/Buffer_Gcode.c ****         cosX = (float)command.dXn/allowedDistance;
 7124              		.loc 1 589 45 is_stmt 0 view .LVU1529
 7125 02ba 0C9B     		ldr	r3, [sp, #48]
 589:Src/Gcode/Buffer_Gcode.c ****         cosX = (float)command.dXn/allowedDistance;
 7126              		.loc 1 589 34 view .LVU1530
 7127 02bc 0193     		str	r3, [sp, #4]
 7128              	.LVL979:
 589:Src/Gcode/Buffer_Gcode.c ****         cosX = (float)command.dXn/allowedDistance;
 7129              		.loc 1 589 34 view .LVU1531
 7130 02be 1846     		mov	r0, r3
 7131              	.LVL980:
 589:Src/Gcode/Buffer_Gcode.c ****         cosX = (float)command.dXn/allowedDistance;
 7132              		.loc 1 589 34 view .LVU1532
 7133 02c0 FFF7FEFF 		bl	__aeabi_i2d
 7134              	.LVL981:
 7135 02c4 5246     		mov	r2, r10
 7136 02c6 5B46     		mov	r3, fp
 7137 02c8 FFF7FEFF 		bl	pow
 7138              	.LVL982:
 7139 02cc 8046     		mov	r8, r0
 7140 02ce 8946     		mov	r9, r1
 589:Src/Gcode/Buffer_Gcode.c ****         cosX = (float)command.dXn/allowedDistance;
 7141              		.loc 1 589 66 view .LVU1533
 7142 02d0 0D9F     		ldr	r7, [sp, #52]
 589:Src/Gcode/Buffer_Gcode.c ****         cosX = (float)command.dXn/allowedDistance;
 7143              		.loc 1 589 55 view .LVU1534
 7144 02d2 3846     		mov	r0, r7
 7145 02d4 FFF7FEFF 		bl	__aeabi_i2d
 7146              	.LVL983:
 7147 02d8 5246     		mov	r2, r10
 7148 02da 5B46     		mov	r3, fp
 7149 02dc FFF7FEFF 		bl	pow
 7150              	.LVL984:
 7151 02e0 0246     		mov	r2, r0
 7152 02e2 0B46     		mov	r3, r1
 589:Src/Gcode/Buffer_Gcode.c ****         cosX = (float)command.dXn/allowedDistance;
 7153              		.loc 1 589 53 view .LVU1535
 7154 02e4 4046     		mov	r0, r8
 7155 02e6 4946     		mov	r1, r9
 7156 02e8 FFF7FEFF 		bl	__aeabi_dadd
 7157              	.LVL985:
 589:Src/Gcode/Buffer_Gcode.c ****         cosX = (float)command.dXn/allowedDistance;
 7158              		.loc 1 589 27 view .LVU1536
 7159 02ec FFF7FEFF 		bl	__aeabi_d2f
 7160              	.LVL986:
 7161 02f0 FFF7FEFF 		bl	sqrtf
 7162              	.LVL987:
 7163 02f4 8046     		mov	r8, r0
 7164              	.LVL988:
 590:Src/Gcode/Buffer_Gcode.c ****         cosY = (float)command.dYn/allowedDistance;
 7165              		.loc 1 590 9 is_stmt 1 view .LVU1537
 590:Src/Gcode/Buffer_Gcode.c ****         cosY = (float)command.dYn/allowedDistance;
 7166              		.loc 1 590 16 is_stmt 0 view .LVU1538
 7167 02f6 0198     		ldr	r0, [sp, #4]
 7168              	.LVL989:
 590:Src/Gcode/Buffer_Gcode.c ****         cosY = (float)command.dYn/allowedDistance;
 7169              		.loc 1 590 16 view .LVU1539
ARM GAS  /tmp/ccMe0kQ8.s 			page 162


 7170 02f8 FFF7FEFF 		bl	__aeabi_i2f
 7171              	.LVL990:
 590:Src/Gcode/Buffer_Gcode.c ****         cosY = (float)command.dYn/allowedDistance;
 7172              		.loc 1 590 14 view .LVU1540
 7173 02fc 4146     		mov	r1, r8
 7174 02fe FFF7FEFF 		bl	__aeabi_fdiv
 7175              	.LVL991:
 7176 0302 0190     		str	r0, [sp, #4]	@ float
 7177              	.LVL992:
 591:Src/Gcode/Buffer_Gcode.c ****         cosE = (float)command.dEn/allowedDistance;
 7178              		.loc 1 591 9 is_stmt 1 view .LVU1541
 591:Src/Gcode/Buffer_Gcode.c ****         cosE = (float)command.dEn/allowedDistance;
 7179              		.loc 1 591 16 is_stmt 0 view .LVU1542
 7180 0304 3846     		mov	r0, r7
 7181              	.LVL993:
 591:Src/Gcode/Buffer_Gcode.c ****         cosE = (float)command.dEn/allowedDistance;
 7182              		.loc 1 591 16 view .LVU1543
 7183 0306 FFF7FEFF 		bl	__aeabi_i2f
 7184              	.LVL994:
 591:Src/Gcode/Buffer_Gcode.c ****         cosE = (float)command.dEn/allowedDistance;
 7185              		.loc 1 591 14 view .LVU1544
 7186 030a 4146     		mov	r1, r8
 7187 030c FFF7FEFF 		bl	__aeabi_fdiv
 7188              	.LVL995:
 7189 0310 0890     		str	r0, [sp, #32]	@ float
 7190              	.LVL996:
 592:Src/Gcode/Buffer_Gcode.c ****     }
 7191              		.loc 1 592 9 is_stmt 1 view .LVU1545
 592:Src/Gcode/Buffer_Gcode.c ****     }
 7192              		.loc 1 592 16 is_stmt 0 view .LVU1546
 7193 0312 0F98     		ldr	r0, [sp, #60]
 7194              	.LVL997:
 592:Src/Gcode/Buffer_Gcode.c ****     }
 7195              		.loc 1 592 16 view .LVU1547
 7196 0314 FFF7FEFF 		bl	__aeabi_i2f
 7197              	.LVL998:
 592:Src/Gcode/Buffer_Gcode.c ****     }
 7198              		.loc 1 592 14 view .LVU1548
 7199 0318 4146     		mov	r1, r8
 7200 031a FFF7FEFF 		bl	__aeabi_fdiv
 7201              	.LVL999:
 7202 031e 8146     		mov	r9, r0
 7203              	.LVL1000:
 7204              	.L250:
 574:Src/Gcode/Buffer_Gcode.c ****     {
 7205              		.loc 1 574 11 is_stmt 1 view .LVU1549
 574:Src/Gcode/Buffer_Gcode.c ****     {
 7206              		.loc 1 574 28 is_stmt 0 view .LVU1550
 7207 0320 4046     		mov	r0, r8
 7208 0322 FFF7FEFF 		bl	__aeabi_f2d
 7209              	.LVL1001:
 7210 0326 0022     		movs	r2, #0
 7211 0328 5A4B     		ldr	r3, .L257+12
 7212 032a FFF7FEFF 		bl	__aeabi_dadd
 7213              	.LVL1002:
 7214 032e 8246     		mov	r10, r0
 7215 0330 8B46     		mov	fp, r1
ARM GAS  /tmp/ccMe0kQ8.s 			page 163


 574:Src/Gcode/Buffer_Gcode.c ****     {
 7216              		.loc 1 574 36 view .LVU1551
 7217 0332 574A     		ldr	r2, .L257+8
 7218 0334 3146     		mov	r1, r6
 7219 0336 2846     		mov	r0, r5
 7220 0338 FFF7FEFF 		bl	distanceRequired
 7221              	.LVL1003:
 574:Src/Gcode/Buffer_Gcode.c ****     {
 7222              		.loc 1 574 34 view .LVU1552
 7223 033c FFF7FEFF 		bl	__aeabi_i2d
 7224              	.LVL1004:
 7225 0340 0246     		mov	r2, r0
 7226 0342 0B46     		mov	r3, r1
 574:Src/Gcode/Buffer_Gcode.c ****     {
 7227              		.loc 1 574 11 view .LVU1553
 7228 0344 5046     		mov	r0, r10
 7229 0346 5946     		mov	r1, fp
 7230 0348 FFF7FEFF 		bl	__aeabi_dcmplt
 7231              	.LVL1005:
 7232 034c 0028     		cmp	r0, #0
 7233 034e 7FF4EBAE 		bne	.L251
 574:Src/Gcode/Buffer_Gcode.c ****     {
 7234              		.loc 1 574 11 view .LVU1554
 7235 0352 AB46     		mov	fp, r5
 7236 0354 CDF81090 		str	r9, [sp, #16]	@ float
 595:Src/Gcode/Buffer_Gcode.c **** 
 7237              		.loc 1 595 5 is_stmt 1 view .LVU1555
 7238 0358 0294     		str	r4, [sp, #8]
 7239 035a 2046     		mov	r0, r4
 7240 035c FFF7FEFF 		bl	shiftRightAllTheCommandsTillThis
 7241              	.LVL1006:
 597:Src/Gcode/Buffer_Gcode.c ****     float lStar = acceleration*allowedDistance/(acceleration+aStar) + ( pow(speedAtTheEnd,2) - pow(
 7242              		.loc 1 597 5 view .LVU1556
 597:Src/Gcode/Buffer_Gcode.c ****     float lStar = acceleration*allowedDistance/(acceleration+aStar) + ( pow(speedAtTheEnd,2) - pow(
 7243              		.loc 1 597 25 is_stmt 0 view .LVU1557
 7244 0360 0024     		movs	r4, #0
 7245              	.LVL1007:
 597:Src/Gcode/Buffer_Gcode.c ****     float lStar = acceleration*allowedDistance/(acceleration+aStar) + ( pow(speedAtTheEnd,2) - pow(
 7246              		.loc 1 597 25 view .LVU1558
 7247 0362 4FF08045 		mov	r5, #1073741824
 7248              	.LVL1008:
 597:Src/Gcode/Buffer_Gcode.c ****     float lStar = acceleration*allowedDistance/(acceleration+aStar) + ( pow(speedAtTheEnd,2) - pow(
 7249              		.loc 1 597 25 view .LVU1559
 7250 0366 1498     		ldr	r0, [sp, #80]	@ float
 7251 0368 FFF7FEFF 		bl	__aeabi_f2d
 7252              	.LVL1009:
 7253 036c 2246     		mov	r2, r4
 7254 036e 2B46     		mov	r3, r5
 7255 0370 FFF7FEFF 		bl	pow
 7256              	.LVL1010:
 7257 0374 8146     		mov	r9, r0
 7258              	.LVL1011:
 597:Src/Gcode/Buffer_Gcode.c ****     float lStar = acceleration*allowedDistance/(acceleration+aStar) + ( pow(speedAtTheEnd,2) - pow(
 7259              		.loc 1 597 25 view .LVU1560
 7260 0376 8A46     		mov	r10, r1
 597:Src/Gcode/Buffer_Gcode.c ****     float lStar = acceleration*allowedDistance/(acceleration+aStar) + ( pow(speedAtTheEnd,2) - pow(
 7261              		.loc 1 597 44 view .LVU1561
ARM GAS  /tmp/ccMe0kQ8.s 			page 164


 7262 0378 1598     		ldr	r0, [sp, #84]	@ float
 7263 037a FFF7FEFF 		bl	__aeabi_f2d
 7264              	.LVL1012:
 7265 037e 2246     		mov	r2, r4
 7266 0380 2B46     		mov	r3, r5
 7267 0382 FFF7FEFF 		bl	pow
 7268              	.LVL1013:
 7269 0386 0246     		mov	r2, r0
 7270 0388 0B46     		mov	r3, r1
 597:Src/Gcode/Buffer_Gcode.c ****     float lStar = acceleration*allowedDistance/(acceleration+aStar) + ( pow(speedAtTheEnd,2) - pow(
 7271              		.loc 1 597 43 view .LVU1562
 7272 038a 4846     		mov	r0, r9
 7273 038c 5146     		mov	r1, r10
 7274 038e FFF7FEFF 		bl	__aeabi_dadd
 7275              	.LVL1014:
 597:Src/Gcode/Buffer_Gcode.c ****     float lStar = acceleration*allowedDistance/(acceleration+aStar) + ( pow(speedAtTheEnd,2) - pow(
 7276              		.loc 1 597 19 view .LVU1563
 7277 0392 FFF7FEFF 		bl	__aeabi_d2f
 7278              	.LVL1015:
 7279 0396 FFF7FEFF 		bl	sqrtf
 7280              	.LVL1016:
 7281 039a 0746     		mov	r7, r0
 7282              	.LVL1017:
 598:Src/Gcode/Buffer_Gcode.c ****     float vStar = sqrtf( pow(speedAtTheStart,2) + 2*aStar*lStar );
 7283              		.loc 1 598 5 is_stmt 1 view .LVU1564
 598:Src/Gcode/Buffer_Gcode.c ****     float vStar = sqrtf( pow(speedAtTheStart,2) + 2*aStar*lStar );
 7284              		.loc 1 598 31 is_stmt 0 view .LVU1565
 7285 039c 3C49     		ldr	r1, .L257+8
 7286 039e 4046     		mov	r0, r8
 7287              	.LVL1018:
 598:Src/Gcode/Buffer_Gcode.c ****     float vStar = sqrtf( pow(speedAtTheStart,2) + 2*aStar*lStar );
 7288              		.loc 1 598 31 view .LVU1566
 7289 03a0 FFF7FEFF 		bl	__aeabi_fmul
 7290              	.LVL1019:
 7291 03a4 8046     		mov	r8, r0
 7292              	.LVL1020:
 598:Src/Gcode/Buffer_Gcode.c ****     float vStar = sqrtf( pow(speedAtTheStart,2) + 2*aStar*lStar );
 7293              		.loc 1 598 61 view .LVU1567
 7294 03a6 3A49     		ldr	r1, .L257+8
 7295 03a8 3846     		mov	r0, r7
 7296 03aa FFF7FEFF 		bl	__aeabi_fadd
 7297              	.LVL1021:
 598:Src/Gcode/Buffer_Gcode.c ****     float vStar = sqrtf( pow(speedAtTheStart,2) + 2*aStar*lStar );
 7298              		.loc 1 598 47 view .LVU1568
 7299 03ae 0990     		str	r0, [sp, #36]	@ float
 7300 03b0 0146     		mov	r1, r0
 7301 03b2 4046     		mov	r0, r8
 7302 03b4 FFF7FEFF 		bl	__aeabi_fdiv
 7303              	.LVL1022:
 7304 03b8 FFF7FEFF 		bl	__aeabi_f2d
 7305              	.LVL1023:
 7306 03bc CDE90601 		strd	r0, [sp, #24]
 598:Src/Gcode/Buffer_Gcode.c ****     float vStar = sqrtf( pow(speedAtTheStart,2) + 2*aStar*lStar );
 7307              		.loc 1 598 73 view .LVU1569
 7308 03c0 3046     		mov	r0, r6
 7309 03c2 FFF7FEFF 		bl	__aeabi_f2d
 7310              	.LVL1024:
ARM GAS  /tmp/ccMe0kQ8.s 			page 165


 7311 03c6 2246     		mov	r2, r4
 7312 03c8 2B46     		mov	r3, r5
 7313 03ca FFF7FEFF 		bl	pow
 7314              	.LVL1025:
 7315 03ce 8046     		mov	r8, r0
 7316 03d0 8946     		mov	r9, r1
 598:Src/Gcode/Buffer_Gcode.c ****     float vStar = sqrtf( pow(speedAtTheStart,2) + 2*aStar*lStar );
 7317              		.loc 1 598 96 view .LVU1570
 7318 03d2 5846     		mov	r0, fp
 7319 03d4 FFF7FEFF 		bl	__aeabi_f2d
 7320              	.LVL1026:
 7321 03d8 8246     		mov	r10, r0
 7322 03da 8B46     		mov	fp, r1
 7323              	.LVL1027:
 598:Src/Gcode/Buffer_Gcode.c ****     float vStar = sqrtf( pow(speedAtTheStart,2) + 2*aStar*lStar );
 7324              		.loc 1 598 96 view .LVU1571
 7325 03dc 2246     		mov	r2, r4
 7326 03de 2B46     		mov	r3, r5
 7327 03e0 FFF7FEFF 		bl	pow
 7328              	.LVL1028:
 7329 03e4 0246     		mov	r2, r0
 7330 03e6 0B46     		mov	r3, r1
 598:Src/Gcode/Buffer_Gcode.c ****     float vStar = sqrtf( pow(speedAtTheStart,2) + 2*aStar*lStar );
 7331              		.loc 1 598 94 view .LVU1572
 7332 03e8 4046     		mov	r0, r8
 7333 03ea 4946     		mov	r1, r9
 7334 03ec FFF7FEFF 		bl	__aeabi_dsub
 7335              	.LVL1029:
 598:Src/Gcode/Buffer_Gcode.c ****     float vStar = sqrtf( pow(speedAtTheStart,2) + 2*aStar*lStar );
 7336              		.loc 1 598 120 view .LVU1573
 7337 03f0 0022     		movs	r2, #0
 7338 03f2 284B     		ldr	r3, .L257+12
 7339 03f4 FFF7FEFF 		bl	__aeabi_dmul
 7340              	.LVL1030:
 7341 03f8 8046     		mov	r8, r0
 7342 03fa 8946     		mov	r9, r1
 598:Src/Gcode/Buffer_Gcode.c ****     float vStar = sqrtf( pow(speedAtTheStart,2) + 2*aStar*lStar );
 7343              		.loc 1 598 136 view .LVU1574
 7344 03fc 0998     		ldr	r0, [sp, #36]	@ float
 7345 03fe FFF7FEFF 		bl	__aeabi_f2d
 7346              	.LVL1031:
 7347 0402 0246     		mov	r2, r0
 7348 0404 0B46     		mov	r3, r1
 598:Src/Gcode/Buffer_Gcode.c ****     float vStar = sqrtf( pow(speedAtTheStart,2) + 2*aStar*lStar );
 7349              		.loc 1 598 122 view .LVU1575
 7350 0406 4046     		mov	r0, r8
 7351 0408 4946     		mov	r1, r9
 7352 040a FFF7FEFF 		bl	__aeabi_ddiv
 7353              	.LVL1032:
 7354 040e 0246     		mov	r2, r0
 7355 0410 0B46     		mov	r3, r1
 598:Src/Gcode/Buffer_Gcode.c ****     float vStar = sqrtf( pow(speedAtTheStart,2) + 2*aStar*lStar );
 7356              		.loc 1 598 69 view .LVU1576
 7357 0412 DDE90601 		ldrd	r0, [sp, #24]
 7358 0416 FFF7FEFF 		bl	__aeabi_dadd
 7359              	.LVL1033:
 598:Src/Gcode/Buffer_Gcode.c ****     float vStar = sqrtf( pow(speedAtTheStart,2) + 2*aStar*lStar );
ARM GAS  /tmp/ccMe0kQ8.s 			page 166


 7360              		.loc 1 598 11 view .LVU1577
 7361 041a FFF7FEFF 		bl	__aeabi_d2f
 7362              	.LVL1034:
 7363 041e 0646     		mov	r6, r0
 7364              	.LVL1035:
 599:Src/Gcode/Buffer_Gcode.c **** 
 7365              		.loc 1 599 5 is_stmt 1 view .LVU1578
 599:Src/Gcode/Buffer_Gcode.c **** 
 7366              		.loc 1 599 26 is_stmt 0 view .LVU1579
 7367 0420 2246     		mov	r2, r4
 7368 0422 2B46     		mov	r3, r5
 7369 0424 5046     		mov	r0, r10
 7370              	.LVL1036:
 599:Src/Gcode/Buffer_Gcode.c **** 
 7371              		.loc 1 599 26 view .LVU1580
 7372 0426 5946     		mov	r1, fp
 7373 0428 FFF7FEFF 		bl	pow
 7374              	.LVL1037:
 7375 042c 0446     		mov	r4, r0
 7376 042e 0D46     		mov	r5, r1
 599:Src/Gcode/Buffer_Gcode.c **** 
 7377              		.loc 1 599 52 view .LVU1581
 7378 0430 3946     		mov	r1, r7
 7379 0432 3846     		mov	r0, r7
 7380 0434 FFF7FEFF 		bl	__aeabi_fadd
 7381              	.LVL1038:
 599:Src/Gcode/Buffer_Gcode.c **** 
 7382              		.loc 1 599 58 view .LVU1582
 7383 0438 3146     		mov	r1, r6
 7384 043a FFF7FEFF 		bl	__aeabi_fmul
 7385              	.LVL1039:
 7386 043e FFF7FEFF 		bl	__aeabi_f2d
 7387              	.LVL1040:
 7388 0442 0246     		mov	r2, r0
 7389 0444 0B46     		mov	r3, r1
 599:Src/Gcode/Buffer_Gcode.c **** 
 7390              		.loc 1 599 49 view .LVU1583
 7391 0446 2046     		mov	r0, r4
 7392 0448 2946     		mov	r1, r5
 7393 044a FFF7FEFF 		bl	__aeabi_dadd
 7394              	.LVL1041:
 599:Src/Gcode/Buffer_Gcode.c **** 
 7395              		.loc 1 599 19 view .LVU1584
 7396 044e FFF7FEFF 		bl	__aeabi_d2f
 7397              	.LVL1042:
 7398 0452 FFF7FEFF 		bl	sqrtf
 7399              	.LVL1043:
 7400 0456 0746     		mov	r7, r0
 7401              	.LVL1044:
 601:Src/Gcode/Buffer_Gcode.c **** 
 7402              		.loc 1 601 5 is_stmt 1 view .LVU1585
 601:Src/Gcode/Buffer_Gcode.c **** 
 7403              		.loc 1 601 55 is_stmt 0 view .LVU1586
 7404 0458 3146     		mov	r1, r6
 7405 045a 0198     		ldr	r0, [sp, #4]	@ float
 7406              	.LVL1045:
 601:Src/Gcode/Buffer_Gcode.c **** 
ARM GAS  /tmp/ccMe0kQ8.s 			page 167


 7407              		.loc 1 601 55 view .LVU1587
 7408 045c FFF7FEFF 		bl	__aeabi_fmul
 7409              	.LVL1046:
 7410 0460 8146     		mov	r9, r0
 601:Src/Gcode/Buffer_Gcode.c **** 
 7411              		.loc 1 601 19 view .LVU1588
 7412 0462 0298     		ldr	r0, [sp, #8]
 7413 0464 FFF7FEFF 		bl	number
 7414              	.LVL1047:
 7415 0468 0546     		mov	r5, r0
 601:Src/Gcode/Buffer_Gcode.c **** 
 7416              		.loc 1 601 55 view .LVU1589
 7417 046a 4846     		mov	r0, r9
 7418 046c FFF7FEFF 		bl	lroundf
 7419              	.LVL1048:
 601:Src/Gcode/Buffer_Gcode.c **** 
 7420              		.loc 1 601 53 view .LVU1590
 7421 0470 064C     		ldr	r4, .L257+4
 7422 0472 C5EB051A 		rsb	r10, r5, r5, lsl #4
 7423 0476 04EB8A0A 		add	r10, r4, r10, lsl #2
 7424 047a CAF80400 		str	r0, [r10, #4]
 601:Src/Gcode/Buffer_Gcode.c **** 
 7425              		.loc 1 601 89 is_stmt 1 view .LVU1591
 601:Src/Gcode/Buffer_Gcode.c **** 
 7426              		.loc 1 601 139 is_stmt 0 view .LVU1592
 7427 047e 3146     		mov	r1, r6
 7428 0480 0898     		ldr	r0, [sp, #32]	@ float
 7429 0482 FFF7FEFF 		bl	__aeabi_fmul
 7430              	.LVL1049:
 7431 0486 07E0     		b	.L258
 7432              	.L259:
 7433              		.align	2
 7434              	.L257:
 7435 0488 ABAA2645 		.word	1160161963
 7436 048c 00000000 		.word	.LANCHOR2
 7437 0490 ABAAA644 		.word	1151773355
 7438 0494 0000E03F 		.word	1071644672
 7439              	.L258:
 7440 0498 8346     		mov	fp, r0
 7441 049a FFF7FEFF 		bl	lroundf
 7442              	.LVL1050:
 601:Src/Gcode/Buffer_Gcode.c **** 
 7443              		.loc 1 601 137 view .LVU1593
 7444 049e CAF80800 		str	r0, [r10, #8]
 601:Src/Gcode/Buffer_Gcode.c **** 
 7445              		.loc 1 601 173 is_stmt 1 view .LVU1594
 601:Src/Gcode/Buffer_Gcode.c **** 
 7446              		.loc 1 601 223 is_stmt 0 view .LVU1595
 7447 04a2 3146     		mov	r1, r6
 7448 04a4 0498     		ldr	r0, [sp, #16]	@ float
 7449 04a6 FFF7FEFF 		bl	__aeabi_fmul
 7450              	.LVL1051:
 7451 04aa 0646     		mov	r6, r0
 7452              	.LVL1052:
 601:Src/Gcode/Buffer_Gcode.c **** 
 7453              		.loc 1 601 223 view .LVU1596
 7454 04ac FFF7FEFF 		bl	lroundf
ARM GAS  /tmp/ccMe0kQ8.s 			page 168


 7455              	.LVL1053:
 601:Src/Gcode/Buffer_Gcode.c **** 
 7456              		.loc 1 601 221 view .LVU1597
 7457 04b0 CAF81000 		str	r0, [r10, #16]
 603:Src/Gcode/Buffer_Gcode.c ****     commandBuffer[number(currentCommandNumber)].dXn = command.dXn-lroundf(lStar*cosX);  commandBuff
 7458              		.loc 1 603 5 is_stmt 1 view .LVU1598
 603:Src/Gcode/Buffer_Gcode.c ****     commandBuffer[number(currentCommandNumber)].dXn = command.dXn-lroundf(lStar*cosX);  commandBuff
 7459              		.loc 1 603 28 is_stmt 0 view .LVU1599
 7460 04b4 0298     		ldr	r0, [sp, #8]
 7461 04b6 FFF7FEFF 		bl	nextCommandNumber
 7462              	.LVL1054:
 7463 04ba 8046     		mov	r8, r0
 7464              	.LVL1055:
 604:Src/Gcode/Buffer_Gcode.c ****     commandBuffer[number(currentCommandNumber)].FnX = vStar*cosX;                       commandBuff
 7465              		.loc 1 604 5 is_stmt 1 view .LVU1600
 604:Src/Gcode/Buffer_Gcode.c ****     commandBuffer[number(currentCommandNumber)].FnX = vStar*cosX;                       commandBuff
 7466              		.loc 1 604 62 is_stmt 0 view .LVU1601
 7467 04bc 0C9D     		ldr	r5, [sp, #48]
 604:Src/Gcode/Buffer_Gcode.c ****     commandBuffer[number(currentCommandNumber)].FnX = vStar*cosX;                       commandBuff
 7468              		.loc 1 604 67 view .LVU1602
 7469 04be 4846     		mov	r0, r9
 7470              	.LVL1056:
 604:Src/Gcode/Buffer_Gcode.c ****     commandBuffer[number(currentCommandNumber)].FnX = vStar*cosX;                       commandBuff
 7471              		.loc 1 604 67 view .LVU1603
 7472 04c0 FFF7FEFF 		bl	lroundf
 7473              	.LVL1057:
 7474 04c4 8146     		mov	r9, r0
 604:Src/Gcode/Buffer_Gcode.c ****     commandBuffer[number(currentCommandNumber)].FnX = vStar*cosX;                       commandBuff
 7475              		.loc 1 604 19 view .LVU1604
 7476 04c6 4046     		mov	r0, r8
 7477 04c8 FFF7FEFF 		bl	number
 7478              	.LVL1058:
 7479 04cc 8046     		mov	r8, r0
 7480              	.LVL1059:
 604:Src/Gcode/Buffer_Gcode.c ****     commandBuffer[number(currentCommandNumber)].FnX = vStar*cosX;                       commandBuff
 7481              		.loc 1 604 66 view .LVU1605
 7482 04ce A5EB0900 		sub	r0, r5, r9
 604:Src/Gcode/Buffer_Gcode.c ****     commandBuffer[number(currentCommandNumber)].FnX = vStar*cosX;                       commandBuff
 7483              		.loc 1 604 53 view .LVU1606
 7484 04d2 C8EB0815 		rsb	r5, r8, r8, lsl #4
 7485 04d6 04EB8505 		add	r5, r4, r5, lsl #2
 7486 04da 6860     		str	r0, [r5, #4]
 604:Src/Gcode/Buffer_Gcode.c ****     commandBuffer[number(currentCommandNumber)].FnX = vStar*cosX;                       commandBuff
 7487              		.loc 1 604 89 is_stmt 1 view .LVU1607
 604:Src/Gcode/Buffer_Gcode.c ****     commandBuffer[number(currentCommandNumber)].FnX = vStar*cosX;                       commandBuff
 7488              		.loc 1 604 146 is_stmt 0 view .LVU1608
 7489 04dc DDF834A0 		ldr	r10, [sp, #52]
 604:Src/Gcode/Buffer_Gcode.c ****     commandBuffer[number(currentCommandNumber)].FnX = vStar*cosX;                       commandBuff
 7490              		.loc 1 604 151 view .LVU1609
 7491 04e0 5846     		mov	r0, fp
 7492 04e2 FFF7FEFF 		bl	lroundf
 7493              	.LVL1060:
 604:Src/Gcode/Buffer_Gcode.c ****     commandBuffer[number(currentCommandNumber)].FnX = vStar*cosX;                       commandBuff
 7494              		.loc 1 604 150 view .LVU1610
 7495 04e6 AAEB0000 		sub	r0, r10, r0
 604:Src/Gcode/Buffer_Gcode.c ****     commandBuffer[number(currentCommandNumber)].FnX = vStar*cosX;                       commandBuff
 7496              		.loc 1 604 137 view .LVU1611
ARM GAS  /tmp/ccMe0kQ8.s 			page 169


 7497 04ea A860     		str	r0, [r5, #8]
 604:Src/Gcode/Buffer_Gcode.c ****     commandBuffer[number(currentCommandNumber)].FnX = vStar*cosX;                       commandBuff
 7498              		.loc 1 604 173 is_stmt 1 view .LVU1612
 604:Src/Gcode/Buffer_Gcode.c ****     commandBuffer[number(currentCommandNumber)].FnX = vStar*cosX;                       commandBuff
 7499              		.loc 1 604 230 is_stmt 0 view .LVU1613
 7500 04ec DDF83CA0 		ldr	r10, [sp, #60]
 604:Src/Gcode/Buffer_Gcode.c ****     commandBuffer[number(currentCommandNumber)].FnX = vStar*cosX;                       commandBuff
 7501              		.loc 1 604 235 view .LVU1614
 7502 04f0 3046     		mov	r0, r6
 7503 04f2 FFF7FEFF 		bl	lroundf
 7504              	.LVL1061:
 604:Src/Gcode/Buffer_Gcode.c ****     commandBuffer[number(currentCommandNumber)].FnX = vStar*cosX;                       commandBuff
 7505              		.loc 1 604 234 view .LVU1615
 7506 04f6 AAEB0000 		sub	r0, r10, r0
 604:Src/Gcode/Buffer_Gcode.c ****     commandBuffer[number(currentCommandNumber)].FnX = vStar*cosX;                       commandBuff
 7507              		.loc 1 604 221 view .LVU1616
 7508 04fa 2861     		str	r0, [r5, #16]
 605:Src/Gcode/Buffer_Gcode.c ****     commandBuffer[number(currentCommandNumber)].AnX = -acceleration*cosX;               commandBuff
 7509              		.loc 1 605 5 is_stmt 1 view .LVU1617
 605:Src/Gcode/Buffer_Gcode.c ****     commandBuffer[number(currentCommandNumber)].AnX = -acceleration*cosX;               commandBuff
 7510              		.loc 1 605 60 is_stmt 0 view .LVU1618
 7511 04fc 3946     		mov	r1, r7
 7512 04fe DDF804B0 		ldr	fp, [sp, #4]	@ float
 7513 0502 5846     		mov	r0, fp
 7514 0504 FFF7FEFF 		bl	__aeabi_fmul
 7515              	.LVL1062:
 605:Src/Gcode/Buffer_Gcode.c ****     commandBuffer[number(currentCommandNumber)].AnX = -acceleration*cosX;               commandBuff
 7516              		.loc 1 605 53 view .LVU1619
 7517 0508 6861     		str	r0, [r5, #20]	@ float
 605:Src/Gcode/Buffer_Gcode.c ****     commandBuffer[number(currentCommandNumber)].AnX = -acceleration*cosX;               commandBuff
 7518              		.loc 1 605 89 is_stmt 1 view .LVU1620
 605:Src/Gcode/Buffer_Gcode.c ****     commandBuffer[number(currentCommandNumber)].AnX = -acceleration*cosX;               commandBuff
 7519              		.loc 1 605 144 is_stmt 0 view .LVU1621
 7520 050a 3946     		mov	r1, r7
 7521 050c DDF820A0 		ldr	r10, [sp, #32]	@ float
 7522 0510 5046     		mov	r0, r10
 7523 0512 FFF7FEFF 		bl	__aeabi_fmul
 7524              	.LVL1063:
 605:Src/Gcode/Buffer_Gcode.c ****     commandBuffer[number(currentCommandNumber)].AnX = -acceleration*cosX;               commandBuff
 7525              		.loc 1 605 137 view .LVU1622
 7526 0516 A861     		str	r0, [r5, #24]	@ float
 605:Src/Gcode/Buffer_Gcode.c ****     commandBuffer[number(currentCommandNumber)].AnX = -acceleration*cosX;               commandBuff
 7527              		.loc 1 605 173 is_stmt 1 view .LVU1623
 605:Src/Gcode/Buffer_Gcode.c ****     commandBuffer[number(currentCommandNumber)].AnX = -acceleration*cosX;               commandBuff
 7528              		.loc 1 605 228 is_stmt 0 view .LVU1624
 7529 0518 3946     		mov	r1, r7
 7530 051a 049E     		ldr	r6, [sp, #16]	@ float
 7531 051c 3046     		mov	r0, r6
 7532 051e FFF7FEFF 		bl	__aeabi_fmul
 7533              	.LVL1064:
 605:Src/Gcode/Buffer_Gcode.c ****     commandBuffer[number(currentCommandNumber)].AnX = -acceleration*cosX;               commandBuff
 7534              		.loc 1 605 221 view .LVU1625
 7535 0522 2862     		str	r0, [r5, #32]	@ float
 606:Src/Gcode/Buffer_Gcode.c **** }
 7536              		.loc 1 606 5 is_stmt 1 view .LVU1626
 606:Src/Gcode/Buffer_Gcode.c **** }
 7537              		.loc 1 606 68 is_stmt 0 view .LVU1627
ARM GAS  /tmp/ccMe0kQ8.s 			page 170


 7538 0524 0749     		ldr	r1, .L260
 7539 0526 5846     		mov	r0, fp
 7540 0528 FFF7FEFF 		bl	__aeabi_fmul
 7541              	.LVL1065:
 606:Src/Gcode/Buffer_Gcode.c **** }
 7542              		.loc 1 606 53 view .LVU1628
 7543 052c 6862     		str	r0, [r5, #36]	@ float
 606:Src/Gcode/Buffer_Gcode.c **** }
 7544              		.loc 1 606 89 is_stmt 1 view .LVU1629
 606:Src/Gcode/Buffer_Gcode.c **** }
 7545              		.loc 1 606 152 is_stmt 0 view .LVU1630
 7546 052e 0549     		ldr	r1, .L260
 7547 0530 5046     		mov	r0, r10
 7548 0532 FFF7FEFF 		bl	__aeabi_fmul
 7549              	.LVL1066:
 606:Src/Gcode/Buffer_Gcode.c **** }
 7550              		.loc 1 606 137 view .LVU1631
 7551 0536 A862     		str	r0, [r5, #40]	@ float
 606:Src/Gcode/Buffer_Gcode.c **** }
 7552              		.loc 1 606 173 is_stmt 1 view .LVU1632
 606:Src/Gcode/Buffer_Gcode.c **** }
 7553              		.loc 1 606 236 is_stmt 0 view .LVU1633
 7554 0538 0249     		ldr	r1, .L260
 7555 053a 3046     		mov	r0, r6
 7556 053c FFF7FEFF 		bl	__aeabi_fmul
 7557              	.LVL1067:
 606:Src/Gcode/Buffer_Gcode.c **** }
 7558              		.loc 1 606 221 view .LVU1634
 7559 0540 2863     		str	r0, [r5, #48]	@ float
 7560 0542 7AE5     		b	.L248
 7561              	.L261:
 7562              		.align	2
 7563              	.L260:
 7564 0544 ABAAA6C4 		.word	-995710293
 7565              		.cfi_endproc
 7566              	.LFE36:
 7568              		.global	defaultCommand
 7569              		.global	defaultDescreteCommand
 7570              		.section	.bss.commandBuffer,"aw",%nobits
 7571              		.align	2
 7572              		.set	.LANCHOR2,. + 0
 7575              	commandBuffer:
 7576 0000 00000000 		.space	3000
 7576      00000000 
 7576      00000000 
 7576      00000000 
 7576      00000000 
 7577              		.section	.bss.commandBufferIsFull,"aw",%nobits
 7578              		.set	.LANCHOR4,. + 0
 7581              	commandBufferIsFull:
 7582 0000 00       		.space	1
 7583              		.section	.bss.descreteBuffer,"aw",%nobits
 7584              		.align	2
 7585              		.set	.LANCHOR1,. + 0
 7588              	descreteBuffer:
 7589 0000 00000000 		.space	120
 7589      00000000 
ARM GAS  /tmp/ccMe0kQ8.s 			page 171


 7589      00000000 
 7589      00000000 
 7589      00000000 
 7590              		.section	.bss.firstFreeElementCommandBuffer,"aw",%nobits
 7591              		.align	2
 7592              		.set	.LANCHOR0,. + 0
 7595              	firstFreeElementCommandBuffer:
 7596 0000 00000000 		.space	4
 7597              		.section	.bss.firstOccupedElementCommandBuffer,"aw",%nobits
 7598              		.align	2
 7599              		.set	.LANCHOR3,. + 0
 7602              	firstOccupedElementCommandBuffer:
 7603 0000 00000000 		.space	4
 7604              		.section	.rodata.defaultCommand,"a"
 7605              		.align	2
 7608              	defaultCommand:
 7609 0000 00000000 		.space	60
 7609      00000000 
 7609      00000000 
 7609      00000000 
 7609      00000000 
 7610              		.section	.rodata.defaultDescreteCommand,"a"
 7611              		.align	2
 7614              	defaultDescreteCommand:
 7615 0000 00000000 		.space	40
 7615      00000000 
 7615      00000000 
 7615      00000000 
 7615      00000000 
 7616              		.text
 7617              	.Letext0:
 7618              		.file 2 "Inc/Gcode/Config_Gcode.h"
 7619              		.file 3 "Inc/Gcode/GcodeConverter_Gcode.h"
 7620              		.file 4 "Inc/Gcode/Descritization_Gcode.h"
 7621              		.file 5 "Inc/Gcode/Buffer_Gcode.h"
 7622              		.file 6 "/usr/lib/gcc/arm-none-eabi/9.2.1/include/stddef.h"
 7623              		.file 7 "/usr/include/newlib/sys/_types.h"
 7624              		.file 8 "/usr/include/newlib/sys/reent.h"
 7625              		.file 9 "/usr/include/newlib/sys/lock.h"
 7626              		.file 10 "/usr/include/newlib/math.h"
 7627              		.file 11 "/usr/include/newlib/stdlib.h"
 7628              		.file 12 "<built-in>"
ARM GAS  /tmp/ccMe0kQ8.s 			page 172


DEFINED SYMBOLS
                            *ABS*:0000000000000000 Buffer_Gcode.c
     /tmp/ccMe0kQ8.s:16     .text.number:0000000000000000 $t
     /tmp/ccMe0kQ8.s:23     .text.number:0000000000000000 number
     /tmp/ccMe0kQ8.s:43     .text.sign:0000000000000000 $t
     /tmp/ccMe0kQ8.s:49     .text.sign:0000000000000000 sign
     /tmp/ccMe0kQ8.s:86     .text.distanceStartFastMove:0000000000000000 $t
     /tmp/ccMe0kQ8.s:92     .text.distanceStartFastMove:0000000000000000 distanceStartFastMove
     /tmp/ccMe0kQ8.s:179    .text.lastCommandNumber:0000000000000000 $t
     /tmp/ccMe0kQ8.s:185    .text.lastCommandNumber:0000000000000000 lastCommandNumber
     /tmp/ccMe0kQ8.s:211    .text.lastCommandNumber:0000000000000010 $d
     /tmp/ccMe0kQ8.s:216    .text.prevoiusCommandNumber:0000000000000000 $t
     /tmp/ccMe0kQ8.s:222    .text.prevoiusCommandNumber:0000000000000000 prevoiusCommandNumber
     /tmp/ccMe0kQ8.s:251    .text.nextCommandNumber:0000000000000000 $t
     /tmp/ccMe0kQ8.s:257    .text.nextCommandNumber:0000000000000000 nextCommandNumber
     /tmp/ccMe0kQ8.s:286    .text.smoothable:0000000000000000 $t
     /tmp/ccMe0kQ8.s:292    .text.smoothable:0000000000000000 smoothable
     /tmp/ccMe0kQ8.s:324    .text.distanceRequired:0000000000000000 $t
     /tmp/ccMe0kQ8.s:330    .text.distanceRequired:0000000000000000 distanceRequired
     /tmp/ccMe0kQ8.s:415    .text.speedMaxFastMove:0000000000000000 $t
     /tmp/ccMe0kQ8.s:421    .text.speedMaxFastMove:0000000000000000 speedMaxFastMove
     /tmp/ccMe0kQ8.s:546    .text.createDescreteCommandBuffer_Gcode:0000000000000000 $t
     /tmp/ccMe0kQ8.s:553    .text.createDescreteCommandBuffer_Gcode:0000000000000000 createDescreteCommandBuffer_Gcode
     /tmp/ccMe0kQ8.s:609    .text.createDescreteCommandBuffer_Gcode:000000000000004c $d
     /tmp/ccMe0kQ8.s:614    .text.addElementToDescreteCommandBuffer_Gcode:0000000000000000 $t
     /tmp/ccMe0kQ8.s:621    .text.addElementToDescreteCommandBuffer_Gcode:0000000000000000 addElementToDescreteCommandBuffer_Gcode
     /tmp/ccMe0kQ8.s:709    .text.addElementToDescreteCommandBuffer_Gcode:0000000000000088 $d
     /tmp/ccMe0kQ8.s:714    .text.clearDescreteBuffer_Gcode:0000000000000000 $t
     /tmp/ccMe0kQ8.s:721    .text.clearDescreteBuffer_Gcode:0000000000000000 clearDescreteBuffer_Gcode
     /tmp/ccMe0kQ8.s:777    .text.clearDescreteBuffer_Gcode:000000000000004c $d
     /tmp/ccMe0kQ8.s:782    .text.getDescreteCommandBufferElement_Gcode:0000000000000000 $t
     /tmp/ccMe0kQ8.s:789    .text.getDescreteCommandBufferElement_Gcode:0000000000000000 getDescreteCommandBufferElement_Gcode
     /tmp/ccMe0kQ8.s:847    .text.getDescreteCommandBufferElement_Gcode:0000000000000038 $d
     /tmp/ccMe0kQ8.s:852    .text.conserveSpeedFinish:0000000000000000 $t
     /tmp/ccMe0kQ8.s:858    .text.conserveSpeedFinish:0000000000000000 conserveSpeedFinish
     /tmp/ccMe0kQ8.s:1079   .text.conserveSpeedFinish:0000000000000100 $d
     /tmp/ccMe0kQ8.s:1085   .text.createCommandBuffer_Gcode:0000000000000000 $t
     /tmp/ccMe0kQ8.s:1092   .text.createCommandBuffer_Gcode:0000000000000000 createCommandBuffer_Gcode
     /tmp/ccMe0kQ8.s:1155   .text.createCommandBuffer_Gcode:0000000000000038 $d
     /tmp/ccMe0kQ8.s:1163   .text.getCommandBufferElement_Gcode:0000000000000000 $t
     /tmp/ccMe0kQ8.s:1170   .text.getCommandBufferElement_Gcode:0000000000000000 getCommandBufferElement_Gcode
     /tmp/ccMe0kQ8.s:1230   .text.getCommandBufferElement_Gcode:000000000000003c $d
     /tmp/ccMe0kQ8.s:1235   .text.lastCommand:0000000000000000 $t
     /tmp/ccMe0kQ8.s:1241   .text.lastCommand:0000000000000000 lastCommand
     /tmp/ccMe0kQ8.s:1286   .text.lastCommand:0000000000000018 $d
     /tmp/ccMe0kQ8.s:1291   .text.conserveSpeedStart:0000000000000000 $t
     /tmp/ccMe0kQ8.s:1297   .text.conserveSpeedStart:0000000000000000 conserveSpeedStart
     /tmp/ccMe0kQ8.s:1526   .text.conserveSpeedStart:00000000000000f0 $d
     /tmp/ccMe0kQ8.s:1534   .text.firstInCommandBuffer_Gcode:0000000000000000 $t
     /tmp/ccMe0kQ8.s:1541   .text.firstInCommandBuffer_Gcode:0000000000000000 firstInCommandBuffer_Gcode
     /tmp/ccMe0kQ8.s:1638   .text.firstInCommandBuffer_Gcode:0000000000000064 $d
     /tmp/ccMe0kQ8.s:1647   .text.MoveZ_Analyser:0000000000000000 $t
     /tmp/ccMe0kQ8.s:1653   .text.MoveZ_Analyser:0000000000000000 MoveZ_Analyser
     /tmp/ccMe0kQ8.s:2045   .text.MoveZ_Analyser:000000000000023c $d
     /tmp/ccMe0kQ8.s:2055   .text.MoveZ_Analyser:0000000000000248 $t
     /tmp/ccMe0kQ8.s:2215   .text.MoveXY_Analyser:0000000000000000 $t
     /tmp/ccMe0kQ8.s:2221   .text.MoveXY_Analyser:0000000000000000 MoveXY_Analyser
ARM GAS  /tmp/ccMe0kQ8.s 			page 173


     /tmp/ccMe0kQ8.s:2765   .text.MoveXY_Analyser:00000000000002f0 $d
     /tmp/ccMe0kQ8.s:2772   .text.MoveXY_Analyser:0000000000000300 $t
     /tmp/ccMe0kQ8.s:3722   .text.MoveE_Analyser:0000000000000000 $t
     /tmp/ccMe0kQ8.s:3728   .text.MoveE_Analyser:0000000000000000 MoveE_Analyser
     /tmp/ccMe0kQ8.s:3853   .text.MoveE_Analyser:0000000000000090 $d
     /tmp/ccMe0kQ8.s:3858   .text.HomeX_Analyser:0000000000000000 $t
     /tmp/ccMe0kQ8.s:3864   .text.HomeX_Analyser:0000000000000000 HomeX_Analyser
     /tmp/ccMe0kQ8.s:4251   .text.HomeX_Analyser:00000000000002c4 $d
     /tmp/ccMe0kQ8.s:4261   .text.HomeY_Analyser:0000000000000000 $t
     /tmp/ccMe0kQ8.s:4267   .text.HomeY_Analyser:0000000000000000 HomeY_Analyser
     /tmp/ccMe0kQ8.s:4654   .text.HomeY_Analyser:00000000000002c4 $d
     /tmp/ccMe0kQ8.s:4664   .text.HomeZ_Analyser:0000000000000000 $t
     /tmp/ccMe0kQ8.s:4670   .text.HomeZ_Analyser:0000000000000000 HomeZ_Analyser
     /tmp/ccMe0kQ8.s:5071   .text.HomeZ_Analyser:00000000000002dc $d
     /tmp/ccMe0kQ8.s:5082   .text.HomeXY_Analyser:0000000000000000 $t
     /tmp/ccMe0kQ8.s:5088   .text.HomeXY_Analyser:0000000000000000 HomeXY_Analyser
     /tmp/ccMe0kQ8.s:5545   .text.HomeXY_Analyser:00000000000002d8 $d
     /tmp/ccMe0kQ8.s:5557   .text.HomeXY_Analyser:00000000000002ec $t
     /tmp/ccMe0kQ8.s:5731   .text.HomeXY_Analyser:00000000000003f8 $d
     /tmp/ccMe0kQ8.s:5737   .text.SetExtrTemp_Analyser:0000000000000000 $t
     /tmp/ccMe0kQ8.s:5743   .text.SetExtrTemp_Analyser:0000000000000000 SetExtrTemp_Analyser
     /tmp/ccMe0kQ8.s:5804   .text.SetBedTemp_Analyser:0000000000000000 $t
     /tmp/ccMe0kQ8.s:5810   .text.SetBedTemp_Analyser:0000000000000000 SetBedTemp_Analyser
     /tmp/ccMe0kQ8.s:5871   .text.WaitExtrTemp_Analyser:0000000000000000 $t
     /tmp/ccMe0kQ8.s:5877   .text.WaitExtrTemp_Analyser:0000000000000000 WaitExtrTemp_Analyser
     /tmp/ccMe0kQ8.s:5938   .text.WaitBedTemp_Analyser:0000000000000000 $t
     /tmp/ccMe0kQ8.s:5944   .text.WaitBedTemp_Analyser:0000000000000000 WaitBedTemp_Analyser
     /tmp/ccMe0kQ8.s:6005   .text.shiftRightAllTheCommandsTillThis:0000000000000000 $t
     /tmp/ccMe0kQ8.s:6011   .text.shiftRightAllTheCommandsTillThis:0000000000000000 shiftRightAllTheCommandsTillThis
     /tmp/ccMe0kQ8.s:6109   .text.shiftRightAllTheCommandsTillThis:000000000000007c $d
     /tmp/ccMe0kQ8.s:6114   .text.firstOutCommandBuffer_Gcode:0000000000000000 $t
     /tmp/ccMe0kQ8.s:6121   .text.firstOutCommandBuffer_Gcode:0000000000000000 firstOutCommandBuffer_Gcode
     /tmp/ccMe0kQ8.s:6166   .text.firstOutCommandBuffer_Gcode:0000000000000030 $d
     /tmp/ccMe0kQ8.s:6172   .text.eraseFirstCommandBuffer_Gcode:0000000000000000 $t
     /tmp/ccMe0kQ8.s:6179   .text.eraseFirstCommandBuffer_Gcode:0000000000000000 eraseFirstCommandBuffer_Gcode
     /tmp/ccMe0kQ8.s:6252   .text.eraseFirstCommandBuffer_Gcode:000000000000004c $d
     /tmp/ccMe0kQ8.s:6260   .text.checkFreeSpaceCommandBuffer_Gcode:0000000000000000 $t
     /tmp/ccMe0kQ8.s:6267   .text.checkFreeSpaceCommandBuffer_Gcode:0000000000000000 checkFreeSpaceCommandBuffer_Gcode
     /tmp/ccMe0kQ8.s:6325   .text.checkFreeSpaceCommandBuffer_Gcode:0000000000000028 $d
     /tmp/ccMe0kQ8.s:6332   .text.enoghSpaceIsReservedCommandBuffer_Gcode:0000000000000000 $t
     /tmp/ccMe0kQ8.s:6339   .text.enoghSpaceIsReservedCommandBuffer_Gcode:0000000000000000 enoghSpaceIsReservedCommandBuffer_Gcode
     /tmp/ccMe0kQ8.s:6364   .text.descreteCommandAnalyser_Gcode:0000000000000000 $t
     /tmp/ccMe0kQ8.s:6371   .text.descreteCommandAnalyser_Gcode:0000000000000000 descreteCommandAnalyser_Gcode
     /tmp/ccMe0kQ8.s:6652   .text.smoothStop_Gcode:0000000000000000 $t
     /tmp/ccMe0kQ8.s:6659   .text.smoothStop_Gcode:0000000000000000 smoothStop_Gcode
     /tmp/ccMe0kQ8.s:6877   .text.smoothStop_Gcode:000000000000011c $d
     /tmp/ccMe0kQ8.s:6884   .text.smoothStop_Gcode:0000000000000128 $t
     /tmp/ccMe0kQ8.s:7435   .text.smoothStop_Gcode:0000000000000488 $d
     /tmp/ccMe0kQ8.s:7440   .text.smoothStop_Gcode:0000000000000498 $t
     /tmp/ccMe0kQ8.s:7564   .text.smoothStop_Gcode:0000000000000544 $d
     /tmp/ccMe0kQ8.s:7608   .rodata.defaultCommand:0000000000000000 defaultCommand
     /tmp/ccMe0kQ8.s:7614   .rodata.defaultDescreteCommand:0000000000000000 defaultDescreteCommand
     /tmp/ccMe0kQ8.s:7571   .bss.commandBuffer:0000000000000000 $d
     /tmp/ccMe0kQ8.s:7575   .bss.commandBuffer:0000000000000000 commandBuffer
     /tmp/ccMe0kQ8.s:7581   .bss.commandBufferIsFull:0000000000000000 commandBufferIsFull
     /tmp/ccMe0kQ8.s:7582   .bss.commandBufferIsFull:0000000000000000 $d
     /tmp/ccMe0kQ8.s:7584   .bss.descreteBuffer:0000000000000000 $d
ARM GAS  /tmp/ccMe0kQ8.s 			page 174


     /tmp/ccMe0kQ8.s:7588   .bss.descreteBuffer:0000000000000000 descreteBuffer
     /tmp/ccMe0kQ8.s:7591   .bss.firstFreeElementCommandBuffer:0000000000000000 $d
     /tmp/ccMe0kQ8.s:7595   .bss.firstFreeElementCommandBuffer:0000000000000000 firstFreeElementCommandBuffer
     /tmp/ccMe0kQ8.s:7598   .bss.firstOccupedElementCommandBuffer:0000000000000000 $d
     /tmp/ccMe0kQ8.s:7602   .bss.firstOccupedElementCommandBuffer:0000000000000000 firstOccupedElementCommandBuffer
     /tmp/ccMe0kQ8.s:7605   .rodata.defaultCommand:0000000000000000 $d
     /tmp/ccMe0kQ8.s:7611   .rodata.defaultDescreteCommand:0000000000000000 $d

UNDEFINED SYMBOLS
__aeabi_fcmplt
__aeabi_fsub
__aeabi_fdiv
__aeabi_fmul
__aeabi_fadd
__aeabi_f2d
__aeabi_dsub
__aeabi_ddiv
__aeabi_d2f
pow
lroundf
__aeabi_i2f
__aeabi_dmul
sqrt
memset
sqrtf
__aeabi_fcmpgt
__aeabi_i2d
__aeabi_dadd
__aeabi_dcmpgt
__aeabi_dcmplt
