ARM GAS  /tmp/cc6V3UeM.s 			page 1


   1              		.cpu cortex-m3
   2              		.eabi_attribute 20, 1
   3              		.eabi_attribute 21, 1
   4              		.eabi_attribute 23, 3
   5              		.eabi_attribute 24, 1
   6              		.eabi_attribute 25, 1
   7              		.eabi_attribute 26, 1
   8              		.eabi_attribute 30, 1
   9              		.eabi_attribute 34, 1
  10              		.eabi_attribute 18, 4
  11              		.file	"ccsbcs.c"
  12              		.text
  13              	.Ltext0:
  14              		.cfi_sections	.debug_frame
  15              		.section	.text.ff_convert,"ax",%progbits
  16              		.align	1
  17              		.global	ff_convert
  18              		.syntax unified
  19              		.thumb
  20              		.thumb_func
  21              		.fpu softvfp
  23              	ff_convert:
  24              	.LFB66:
  25              		.file 1 "Middlewares/Third_Party/FatFs/src/option/ccsbcs.c"
   1:Middlewares/Third_Party/FatFs/src/option/ccsbcs.c **** /*------------------------------------------------------------------------*/
   2:Middlewares/Third_Party/FatFs/src/option/ccsbcs.c **** /* Unicode - Local code bidirectional converter  (C)ChaN, 2012            */
   3:Middlewares/Third_Party/FatFs/src/option/ccsbcs.c **** /* (SBCS code pages)                                                      */
   4:Middlewares/Third_Party/FatFs/src/option/ccsbcs.c **** /*------------------------------------------------------------------------*/
   5:Middlewares/Third_Party/FatFs/src/option/ccsbcs.c **** /*  437   U.S. (OEM)
   6:Middlewares/Third_Party/FatFs/src/option/ccsbcs.c **** /   720   Arabic (OEM)
   7:Middlewares/Third_Party/FatFs/src/option/ccsbcs.c **** /   1256  Arabic (Windows)
   8:Middlewares/Third_Party/FatFs/src/option/ccsbcs.c **** /   737   Greek (OEM)
   9:Middlewares/Third_Party/FatFs/src/option/ccsbcs.c **** /   1253  Greek (Windows)
  10:Middlewares/Third_Party/FatFs/src/option/ccsbcs.c **** /   1250  Central Europe (Windows)
  11:Middlewares/Third_Party/FatFs/src/option/ccsbcs.c **** /   775   Baltic (OEM)
  12:Middlewares/Third_Party/FatFs/src/option/ccsbcs.c **** /   1257  Baltic (Windows)
  13:Middlewares/Third_Party/FatFs/src/option/ccsbcs.c **** /   850   Multilingual Latin 1 (OEM)
  14:Middlewares/Third_Party/FatFs/src/option/ccsbcs.c **** /   852   Latin 2 (OEM)
  15:Middlewares/Third_Party/FatFs/src/option/ccsbcs.c **** /   1252  Latin 1 (Windows)
  16:Middlewares/Third_Party/FatFs/src/option/ccsbcs.c **** /   855   Cyrillic (OEM)
  17:Middlewares/Third_Party/FatFs/src/option/ccsbcs.c **** /   1251  Cyrillic (Windows)
  18:Middlewares/Third_Party/FatFs/src/option/ccsbcs.c **** /   866   Russian (OEM)
  19:Middlewares/Third_Party/FatFs/src/option/ccsbcs.c **** /   857   Turkish (OEM)
  20:Middlewares/Third_Party/FatFs/src/option/ccsbcs.c **** /   1254  Turkish (Windows)
  21:Middlewares/Third_Party/FatFs/src/option/ccsbcs.c **** /   858   Multilingual Latin 1 + Euro (OEM)
  22:Middlewares/Third_Party/FatFs/src/option/ccsbcs.c **** /   862   Hebrew (OEM)
  23:Middlewares/Third_Party/FatFs/src/option/ccsbcs.c **** /   1255  Hebrew (Windows)
  24:Middlewares/Third_Party/FatFs/src/option/ccsbcs.c **** /   874   Thai (OEM, Windows)
  25:Middlewares/Third_Party/FatFs/src/option/ccsbcs.c **** /   1258  Vietnam (OEM, Windows)
  26:Middlewares/Third_Party/FatFs/src/option/ccsbcs.c **** */
  27:Middlewares/Third_Party/FatFs/src/option/ccsbcs.c **** 
  28:Middlewares/Third_Party/FatFs/src/option/ccsbcs.c **** #include "../ff.h"
  29:Middlewares/Third_Party/FatFs/src/option/ccsbcs.c **** 
  30:Middlewares/Third_Party/FatFs/src/option/ccsbcs.c **** 
  31:Middlewares/Third_Party/FatFs/src/option/ccsbcs.c **** #if _CODE_PAGE == 437
  32:Middlewares/Third_Party/FatFs/src/option/ccsbcs.c **** #define _TBLDEF 1
  33:Middlewares/Third_Party/FatFs/src/option/ccsbcs.c **** static
ARM GAS  /tmp/cc6V3UeM.s 			page 2


  34:Middlewares/Third_Party/FatFs/src/option/ccsbcs.c **** const WCHAR Tbl[] = {	/*  CP437(0x80-0xFF) to Unicode conversion table */
  35:Middlewares/Third_Party/FatFs/src/option/ccsbcs.c **** 	0x00C7, 0x00FC, 0x00E9, 0x00E2, 0x00E4, 0x00E0, 0x00E5, 0x00E7,
  36:Middlewares/Third_Party/FatFs/src/option/ccsbcs.c **** 	0x00EA, 0x00EB, 0x00E8, 0x00EF, 0x00EE, 0x00EC, 0x00C4, 0x00C5,
  37:Middlewares/Third_Party/FatFs/src/option/ccsbcs.c **** 	0x00C9, 0x00E6, 0x00C6, 0x00F4, 0x00F6, 0x00F2, 0x00FB, 0x00F9,
  38:Middlewares/Third_Party/FatFs/src/option/ccsbcs.c **** 	0x00FF, 0x00D6, 0x00DC, 0x00A2, 0x00A3, 0x00A5, 0x20A7, 0x0192,
  39:Middlewares/Third_Party/FatFs/src/option/ccsbcs.c **** 	0x00E1, 0x00ED, 0x00F3, 0x00FA, 0x00F1, 0x00D1, 0x00AA, 0x00BA,
  40:Middlewares/Third_Party/FatFs/src/option/ccsbcs.c **** 	0x00BF, 0x2310, 0x00AC, 0x00BD, 0x00BC, 0x00A1, 0x00AB, 0x00BB,
  41:Middlewares/Third_Party/FatFs/src/option/ccsbcs.c **** 	0x2591, 0x2592, 0x2593, 0x2502, 0x2524, 0x2561, 0x2562, 0x2556,
  42:Middlewares/Third_Party/FatFs/src/option/ccsbcs.c **** 	0x2555, 0x2563, 0x2551, 0x2557, 0x255D, 0x255C, 0x255B, 0x2510,
  43:Middlewares/Third_Party/FatFs/src/option/ccsbcs.c **** 	0x2514, 0x2534, 0x252C, 0x251C, 0x2500, 0x253C, 0x255E, 0x255F,
  44:Middlewares/Third_Party/FatFs/src/option/ccsbcs.c **** 	0x255A, 0x2554, 0x2569, 0x2566, 0x2560, 0x2550, 0x256C, 0x2567,
  45:Middlewares/Third_Party/FatFs/src/option/ccsbcs.c **** 	0x2568, 0x2564, 0x2565, 0x2559, 0x2558, 0x2552, 0x2553, 0x256B,
  46:Middlewares/Third_Party/FatFs/src/option/ccsbcs.c **** 	0x256A, 0x2518, 0x250C, 0x2588, 0x2584, 0x258C, 0x2590, 0x2580,
  47:Middlewares/Third_Party/FatFs/src/option/ccsbcs.c **** 	0x03B1, 0x00DF, 0x0393, 0x03C0, 0x03A3, 0x03C3, 0x00B5, 0x03C4,
  48:Middlewares/Third_Party/FatFs/src/option/ccsbcs.c **** 	0x03A6, 0x0398, 0x03A9, 0x03B4, 0x221E, 0x03C6, 0x03B5, 0x2229,
  49:Middlewares/Third_Party/FatFs/src/option/ccsbcs.c **** 	0x2261, 0x00B1, 0x2265, 0x2264, 0x2320, 0x2321, 0x00F7, 0x2248,
  50:Middlewares/Third_Party/FatFs/src/option/ccsbcs.c **** 	0x00B0, 0x2219, 0x00B7, 0x221A, 0x207F, 0x00B2, 0x25A0, 0x00A0
  51:Middlewares/Third_Party/FatFs/src/option/ccsbcs.c **** };
  52:Middlewares/Third_Party/FatFs/src/option/ccsbcs.c **** 
  53:Middlewares/Third_Party/FatFs/src/option/ccsbcs.c **** #elif _CODE_PAGE == 720
  54:Middlewares/Third_Party/FatFs/src/option/ccsbcs.c **** #define _TBLDEF 1
  55:Middlewares/Third_Party/FatFs/src/option/ccsbcs.c **** static
  56:Middlewares/Third_Party/FatFs/src/option/ccsbcs.c **** const WCHAR Tbl[] = {	/*  CP720(0x80-0xFF) to Unicode conversion table */
  57:Middlewares/Third_Party/FatFs/src/option/ccsbcs.c **** 	0x0000, 0x0000, 0x00E9, 0x00E2, 0x0000, 0x00E0, 0x0000, 0x00E7,
  58:Middlewares/Third_Party/FatFs/src/option/ccsbcs.c **** 	0x00EA, 0x00EB, 0x00E8, 0x00EF, 0x00EE, 0x0000, 0x0000, 0x0000,
  59:Middlewares/Third_Party/FatFs/src/option/ccsbcs.c **** 	0x0000, 0x0651, 0x0652, 0x00F4, 0x00A4, 0x0640, 0x00FB, 0x00F9,
  60:Middlewares/Third_Party/FatFs/src/option/ccsbcs.c **** 	0x0621, 0x0622, 0x0623, 0x0624, 0x00A3, 0x0625, 0x0626, 0x0627,
  61:Middlewares/Third_Party/FatFs/src/option/ccsbcs.c **** 	0x0628, 0x0629, 0x062A, 0x062B, 0x062C, 0x062D, 0x062E, 0x062F,
  62:Middlewares/Third_Party/FatFs/src/option/ccsbcs.c **** 	0x0630, 0x0631, 0x0632, 0x0633, 0x0634, 0x0635, 0x00AB, 0x00BB,
  63:Middlewares/Third_Party/FatFs/src/option/ccsbcs.c **** 	0x2591, 0x2592, 0x2593, 0x2502, 0x2524, 0x2561, 0x2562, 0x2556,
  64:Middlewares/Third_Party/FatFs/src/option/ccsbcs.c **** 	0x2555, 0x2563, 0x2551, 0x2557, 0x255D, 0x255C, 0x255B, 0x2510,
  65:Middlewares/Third_Party/FatFs/src/option/ccsbcs.c **** 	0x2514, 0x2534, 0x252C, 0x251C, 0x2500, 0x253C, 0x255E, 0x255F,
  66:Middlewares/Third_Party/FatFs/src/option/ccsbcs.c **** 	0x255A, 0x2554, 0x2569, 0x2566, 0x2560, 0x2550, 0x256C, 0x2567,
  67:Middlewares/Third_Party/FatFs/src/option/ccsbcs.c **** 	0x2568, 0x2564, 0x2565, 0x2559, 0x2558, 0x2552, 0x2553, 0x256B,
  68:Middlewares/Third_Party/FatFs/src/option/ccsbcs.c **** 	0x256A, 0x2518, 0x250C, 0x2588, 0x2584, 0x258C, 0x2590, 0x2580,
  69:Middlewares/Third_Party/FatFs/src/option/ccsbcs.c **** 	0x0636, 0x0637, 0x0638, 0x0639, 0x063A, 0x0641, 0x00B5, 0x0642,
  70:Middlewares/Third_Party/FatFs/src/option/ccsbcs.c **** 	0x0643, 0x0644, 0x0645, 0x0646, 0x0647, 0x0648, 0x0649, 0x064A,
  71:Middlewares/Third_Party/FatFs/src/option/ccsbcs.c **** 	0x2261, 0x064B, 0x064C, 0x064D, 0x064E, 0x064F, 0x0650, 0x2248,
  72:Middlewares/Third_Party/FatFs/src/option/ccsbcs.c **** 	0x00B0, 0x2219, 0x00B7, 0x221A, 0x207F, 0x00B2, 0x25A0, 0x00A0
  73:Middlewares/Third_Party/FatFs/src/option/ccsbcs.c **** };
  74:Middlewares/Third_Party/FatFs/src/option/ccsbcs.c **** 
  75:Middlewares/Third_Party/FatFs/src/option/ccsbcs.c **** #elif _CODE_PAGE == 737
  76:Middlewares/Third_Party/FatFs/src/option/ccsbcs.c **** #define _TBLDEF 1
  77:Middlewares/Third_Party/FatFs/src/option/ccsbcs.c **** static
  78:Middlewares/Third_Party/FatFs/src/option/ccsbcs.c **** const WCHAR Tbl[] = {	/*  CP737(0x80-0xFF) to Unicode conversion table */
  79:Middlewares/Third_Party/FatFs/src/option/ccsbcs.c **** 	0x0391, 0x0392, 0x0393, 0x0394, 0x0395, 0x0396, 0x0397, 0x0398,
  80:Middlewares/Third_Party/FatFs/src/option/ccsbcs.c **** 	0x0399, 0x039A, 0x039B, 0x039C, 0x039D, 0x039E, 0x039F, 0x03A0,
  81:Middlewares/Third_Party/FatFs/src/option/ccsbcs.c **** 	0x03A1, 0x03A3, 0x03A4, 0x03A5, 0x03A6, 0x03A7, 0x03A8, 0x03A9,
  82:Middlewares/Third_Party/FatFs/src/option/ccsbcs.c **** 	0x03B1, 0x03B2, 0x03B3, 0x03B4, 0x03B5, 0x03B6, 0x03B7, 0x03B8,
  83:Middlewares/Third_Party/FatFs/src/option/ccsbcs.c **** 	0x03B9, 0x03BA, 0x03BB, 0x03BC, 0x03BD, 0x03BE, 0x03BF, 0x03C0,
  84:Middlewares/Third_Party/FatFs/src/option/ccsbcs.c **** 	0x03C1, 0x03C3, 0x03C2, 0x03C4, 0x03C5, 0x03C6, 0x03C7, 0x03C8,
  85:Middlewares/Third_Party/FatFs/src/option/ccsbcs.c **** 	0x2591, 0x2592, 0x2593, 0x2502, 0x2524, 0x2561, 0x2562, 0x2556,
  86:Middlewares/Third_Party/FatFs/src/option/ccsbcs.c **** 	0x2555, 0x2563, 0x2551, 0x2557, 0x255D, 0x255C, 0x255B, 0x2510,
  87:Middlewares/Third_Party/FatFs/src/option/ccsbcs.c **** 	0x2514, 0x2534, 0x252C, 0x251C, 0x2500, 0x253C, 0x255E, 0x255F,
  88:Middlewares/Third_Party/FatFs/src/option/ccsbcs.c **** 	0x255A, 0x2554, 0x2569, 0x2566, 0x2560, 0x2550, 0x256C, 0x2567,
  89:Middlewares/Third_Party/FatFs/src/option/ccsbcs.c **** 	0x2568, 0x2564, 0x2565, 0x2559, 0x2558, 0x2552, 0x2553, 0x256B,
  90:Middlewares/Third_Party/FatFs/src/option/ccsbcs.c **** 	0x256A, 0x2518, 0x250C, 0x2588, 0x2584, 0x258C, 0x2590, 0x2580,
ARM GAS  /tmp/cc6V3UeM.s 			page 3


  91:Middlewares/Third_Party/FatFs/src/option/ccsbcs.c **** 	0x03C9, 0x03AC, 0x03AD, 0x03AE, 0x03CA, 0x03AF, 0x03CC, 0x03CD,
  92:Middlewares/Third_Party/FatFs/src/option/ccsbcs.c **** 	0x03CB, 0x03CE, 0x0386, 0x0388, 0x0389, 0x038A, 0x038C, 0x038E,
  93:Middlewares/Third_Party/FatFs/src/option/ccsbcs.c **** 	0x038F, 0x00B1, 0x2265, 0x2264, 0x03AA, 0x03AB, 0x00F7, 0x2248,
  94:Middlewares/Third_Party/FatFs/src/option/ccsbcs.c **** 	0x00B0, 0x2219, 0x00B7, 0x221A, 0x207F, 0x00B2, 0x25A0, 0x00A0
  95:Middlewares/Third_Party/FatFs/src/option/ccsbcs.c **** };
  96:Middlewares/Third_Party/FatFs/src/option/ccsbcs.c **** 
  97:Middlewares/Third_Party/FatFs/src/option/ccsbcs.c **** #elif _CODE_PAGE == 775
  98:Middlewares/Third_Party/FatFs/src/option/ccsbcs.c **** #define _TBLDEF 1
  99:Middlewares/Third_Party/FatFs/src/option/ccsbcs.c **** static
 100:Middlewares/Third_Party/FatFs/src/option/ccsbcs.c **** const WCHAR Tbl[] = {	/*  CP775(0x80-0xFF) to Unicode conversion table */
 101:Middlewares/Third_Party/FatFs/src/option/ccsbcs.c **** 	0x0106, 0x00FC, 0x00E9, 0x0101, 0x00E4, 0x0123, 0x00E5, 0x0107,
 102:Middlewares/Third_Party/FatFs/src/option/ccsbcs.c **** 	0x0142, 0x0113, 0x0156, 0x0157, 0x012B, 0x0179, 0x00C4, 0x00C5,
 103:Middlewares/Third_Party/FatFs/src/option/ccsbcs.c **** 	0x00C9, 0x00E6, 0x00C6, 0x014D, 0x00F6, 0x0122, 0x00A2, 0x015A,
 104:Middlewares/Third_Party/FatFs/src/option/ccsbcs.c **** 	0x015B, 0x00D6, 0x00DC, 0x00F8, 0x00A3, 0x00D8, 0x00D7, 0x00A4,
 105:Middlewares/Third_Party/FatFs/src/option/ccsbcs.c **** 	0x0100, 0x012A, 0x00F3, 0x017B, 0x017C, 0x017A, 0x201D, 0x00A6,
 106:Middlewares/Third_Party/FatFs/src/option/ccsbcs.c **** 	0x00A9, 0x00AE, 0x00AC, 0x00BD, 0x00BC, 0x0141, 0x00AB, 0x00BB,
 107:Middlewares/Third_Party/FatFs/src/option/ccsbcs.c **** 	0x2591, 0x2592, 0x2593, 0x2502, 0x2524, 0x0104, 0x010C, 0x0118,
 108:Middlewares/Third_Party/FatFs/src/option/ccsbcs.c **** 	0x0116, 0x2563, 0x2551, 0x2557, 0x255D, 0x012E, 0x0160, 0x2510,
 109:Middlewares/Third_Party/FatFs/src/option/ccsbcs.c **** 	0x2514, 0x2534, 0x252C, 0x251C, 0x2500, 0x253C, 0x0172, 0x016A,
 110:Middlewares/Third_Party/FatFs/src/option/ccsbcs.c **** 	0x255A, 0x2554, 0x2569, 0x2566, 0x2560, 0x2550, 0x256C, 0x017D,
 111:Middlewares/Third_Party/FatFs/src/option/ccsbcs.c **** 	0x0105, 0x010D, 0x0119, 0x0117, 0x012F, 0x0161, 0x0173, 0x016B,
 112:Middlewares/Third_Party/FatFs/src/option/ccsbcs.c **** 	0x017E, 0x2518, 0x250C, 0x2588, 0x2584, 0x258C, 0x2590, 0x2580,
 113:Middlewares/Third_Party/FatFs/src/option/ccsbcs.c **** 	0x00D3, 0x00DF, 0x014C, 0x0143, 0x00F5, 0x00D5, 0x00B5, 0x0144,
 114:Middlewares/Third_Party/FatFs/src/option/ccsbcs.c **** 	0x0136, 0x0137, 0x013B, 0x013C, 0x0146, 0x0112, 0x0145, 0x2019,
 115:Middlewares/Third_Party/FatFs/src/option/ccsbcs.c **** 	0x00AD, 0x00B1, 0x201C, 0x00BE, 0x00B6, 0x00A7, 0x00F7, 0x201E,
 116:Middlewares/Third_Party/FatFs/src/option/ccsbcs.c **** 	0x00B0, 0x2219, 0x00B7, 0x00B9, 0x00B3, 0x00B2, 0x25A0, 0x00A0
 117:Middlewares/Third_Party/FatFs/src/option/ccsbcs.c **** };
 118:Middlewares/Third_Party/FatFs/src/option/ccsbcs.c **** 
 119:Middlewares/Third_Party/FatFs/src/option/ccsbcs.c **** #elif _CODE_PAGE == 850
 120:Middlewares/Third_Party/FatFs/src/option/ccsbcs.c **** #define _TBLDEF 1
 121:Middlewares/Third_Party/FatFs/src/option/ccsbcs.c **** static
 122:Middlewares/Third_Party/FatFs/src/option/ccsbcs.c **** const WCHAR Tbl[] = {	/*  CP850(0x80-0xFF) to Unicode conversion table */
 123:Middlewares/Third_Party/FatFs/src/option/ccsbcs.c **** 	0x00C7, 0x00FC, 0x00E9, 0x00E2, 0x00E4, 0x00E0, 0x00E5, 0x00E7,
 124:Middlewares/Third_Party/FatFs/src/option/ccsbcs.c **** 	0x00EA, 0x00EB, 0x00E8, 0x00EF, 0x00EE, 0x00EC, 0x00C4, 0x00C5,
 125:Middlewares/Third_Party/FatFs/src/option/ccsbcs.c **** 	0x00C9, 0x00E6, 0x00C6, 0x00F4, 0x00F6, 0x00F2, 0x00FB, 0x00F9,
 126:Middlewares/Third_Party/FatFs/src/option/ccsbcs.c **** 	0x00FF, 0x00D6, 0x00DC, 0x00F8, 0x00A3, 0x00D8, 0x00D7, 0x0192,
 127:Middlewares/Third_Party/FatFs/src/option/ccsbcs.c **** 	0x00E1, 0x00ED, 0x00F3, 0x00FA, 0x00F1, 0x00D1, 0x00AA, 0x00BA,
 128:Middlewares/Third_Party/FatFs/src/option/ccsbcs.c **** 	0x00BF, 0x00AE, 0x00AC, 0x00BD, 0x00BC, 0x00A1, 0x00AB, 0x00BB,
 129:Middlewares/Third_Party/FatFs/src/option/ccsbcs.c **** 	0x2591, 0x2592, 0x2593, 0x2502, 0x2524, 0x00C1, 0x00C2, 0x00C0,
 130:Middlewares/Third_Party/FatFs/src/option/ccsbcs.c **** 	0x00A9, 0x2563, 0x2551, 0x2557, 0x255D, 0x00A2, 0x00A5, 0x2510,
 131:Middlewares/Third_Party/FatFs/src/option/ccsbcs.c **** 	0x2514, 0x2534, 0x252C, 0x251C, 0x2500, 0x253C, 0x00E3, 0x00C3,
 132:Middlewares/Third_Party/FatFs/src/option/ccsbcs.c **** 	0x255A, 0x2554, 0x2569, 0x2566, 0x2560, 0x2550, 0x256C, 0x00A4,
 133:Middlewares/Third_Party/FatFs/src/option/ccsbcs.c **** 	0x00F0, 0x00D0, 0x00CA, 0x00CB, 0x00C8, 0x0131, 0x00CD, 0x00CE,
 134:Middlewares/Third_Party/FatFs/src/option/ccsbcs.c **** 	0x00CF, 0x2518, 0x250C, 0x2588, 0x2584, 0x00A6, 0x00CC, 0x2580,
 135:Middlewares/Third_Party/FatFs/src/option/ccsbcs.c **** 	0x00D3, 0x00DF, 0x00D4, 0x00D2, 0x00F5, 0x00D5, 0x00B5, 0x00FE,
 136:Middlewares/Third_Party/FatFs/src/option/ccsbcs.c **** 	0x00DE, 0x00DA, 0x00DB, 0x00D9, 0x00FD, 0x00DD, 0x00AF, 0x00B4,
 137:Middlewares/Third_Party/FatFs/src/option/ccsbcs.c **** 	0x00AD, 0x00B1, 0x2017, 0x00BE, 0x00B6, 0x00A7, 0x00F7, 0x00B8,
 138:Middlewares/Third_Party/FatFs/src/option/ccsbcs.c **** 	0x00B0, 0x00A8, 0x00B7, 0x00B9, 0x00B3, 0x00B2, 0x25A0, 0x00A0
 139:Middlewares/Third_Party/FatFs/src/option/ccsbcs.c **** };
 140:Middlewares/Third_Party/FatFs/src/option/ccsbcs.c **** 
 141:Middlewares/Third_Party/FatFs/src/option/ccsbcs.c **** #elif _CODE_PAGE == 852
 142:Middlewares/Third_Party/FatFs/src/option/ccsbcs.c **** #define _TBLDEF 1
 143:Middlewares/Third_Party/FatFs/src/option/ccsbcs.c **** static
 144:Middlewares/Third_Party/FatFs/src/option/ccsbcs.c **** const WCHAR Tbl[] = {	/*  CP852(0x80-0xFF) to Unicode conversion table */
 145:Middlewares/Third_Party/FatFs/src/option/ccsbcs.c **** 	0x00C7, 0x00FC, 0x00E9, 0x00E2, 0x00E4, 0x016F, 0x0107, 0x00E7,
 146:Middlewares/Third_Party/FatFs/src/option/ccsbcs.c **** 	0x0142, 0x00EB, 0x0150, 0x0151, 0x00EE, 0x0179, 0x00C4, 0x0106,
 147:Middlewares/Third_Party/FatFs/src/option/ccsbcs.c **** 	0x00C9, 0x0139, 0x013A, 0x00F4, 0x00F6, 0x013D, 0x013E, 0x015A,
ARM GAS  /tmp/cc6V3UeM.s 			page 4


 148:Middlewares/Third_Party/FatFs/src/option/ccsbcs.c **** 	0x015B, 0x00D6, 0x00DC, 0x0164, 0x0165, 0x0141, 0x00D7, 0x010D,
 149:Middlewares/Third_Party/FatFs/src/option/ccsbcs.c **** 	0x00E1, 0x00ED, 0x00F3, 0x00FA, 0x0104, 0x0105, 0x017D, 0x017E,
 150:Middlewares/Third_Party/FatFs/src/option/ccsbcs.c **** 	0x0118, 0x0119, 0x00AC, 0x017A, 0x010C, 0x015F, 0x00AB, 0x00BB,
 151:Middlewares/Third_Party/FatFs/src/option/ccsbcs.c **** 	0x2591, 0x2592, 0x2593, 0x2502, 0x2524, 0x00C1, 0x00C2, 0x011A,
 152:Middlewares/Third_Party/FatFs/src/option/ccsbcs.c **** 	0x015E, 0x2563, 0x2551, 0x2557, 0x255D, 0x017B, 0x017C, 0x2510,
 153:Middlewares/Third_Party/FatFs/src/option/ccsbcs.c **** 	0x2514, 0x2534, 0x252C, 0x251C, 0x2500, 0x253C, 0x0102, 0x0103,
 154:Middlewares/Third_Party/FatFs/src/option/ccsbcs.c **** 	0x255A, 0x2554, 0x2569, 0x2566, 0x2560, 0x2550, 0x256C, 0x00A4,
 155:Middlewares/Third_Party/FatFs/src/option/ccsbcs.c **** 	0x0111, 0x0110, 0x010E, 0x00CB, 0x010F, 0x0147, 0x00CD, 0x00CE,
 156:Middlewares/Third_Party/FatFs/src/option/ccsbcs.c **** 	0x011B, 0x2518, 0x250C, 0x2588, 0x2584, 0x0162, 0x016E, 0x2580,
 157:Middlewares/Third_Party/FatFs/src/option/ccsbcs.c **** 	0x00D3, 0x00DF, 0x00D4, 0x0143, 0x0144, 0x0148, 0x0160, 0x0161,
 158:Middlewares/Third_Party/FatFs/src/option/ccsbcs.c **** 	0x0154, 0x00DA, 0x0155, 0x0170, 0x00FD, 0x00DD, 0x0163, 0x00B4,
 159:Middlewares/Third_Party/FatFs/src/option/ccsbcs.c **** 	0x00AD, 0x02DD, 0x02DB, 0x02C7, 0x02D8, 0x00A7, 0x00F7, 0x00B8,
 160:Middlewares/Third_Party/FatFs/src/option/ccsbcs.c **** 	0x00B0, 0x00A8, 0x02D9, 0x0171, 0x0158, 0x0159, 0x25A0, 0x00A0
 161:Middlewares/Third_Party/FatFs/src/option/ccsbcs.c **** };
 162:Middlewares/Third_Party/FatFs/src/option/ccsbcs.c **** 
 163:Middlewares/Third_Party/FatFs/src/option/ccsbcs.c **** #elif _CODE_PAGE == 855
 164:Middlewares/Third_Party/FatFs/src/option/ccsbcs.c **** #define _TBLDEF 1
 165:Middlewares/Third_Party/FatFs/src/option/ccsbcs.c **** static
 166:Middlewares/Third_Party/FatFs/src/option/ccsbcs.c **** const WCHAR Tbl[] = {	/*  CP855(0x80-0xFF) to Unicode conversion table */
 167:Middlewares/Third_Party/FatFs/src/option/ccsbcs.c **** 	0x0452, 0x0402, 0x0453, 0x0403, 0x0451, 0x0401, 0x0454, 0x0404,
 168:Middlewares/Third_Party/FatFs/src/option/ccsbcs.c **** 	0x0455, 0x0405, 0x0456, 0x0406, 0x0457, 0x0407, 0x0458, 0x0408,
 169:Middlewares/Third_Party/FatFs/src/option/ccsbcs.c **** 	0x0459, 0x0409, 0x045A, 0x040A, 0x045B, 0x040B, 0x045C, 0x040C,
 170:Middlewares/Third_Party/FatFs/src/option/ccsbcs.c **** 	0x045E, 0x040E, 0x045F, 0x040F, 0x044E, 0x042E, 0x044A, 0x042A,
 171:Middlewares/Third_Party/FatFs/src/option/ccsbcs.c **** 	0x0430, 0x0410, 0x0431, 0x0411, 0x0446, 0x0426, 0x0434, 0x0414,
 172:Middlewares/Third_Party/FatFs/src/option/ccsbcs.c **** 	0x0435, 0x0415, 0x0444, 0x0424, 0x0433, 0x0413, 0x00AB, 0x00BB,
 173:Middlewares/Third_Party/FatFs/src/option/ccsbcs.c **** 	0x2591, 0x2592, 0x2593, 0x2502, 0x2524, 0x0445, 0x0425, 0x0438,
 174:Middlewares/Third_Party/FatFs/src/option/ccsbcs.c **** 	0x0418, 0x2563, 0x2551, 0x2557, 0x255D, 0x0439, 0x0419, 0x2510,
 175:Middlewares/Third_Party/FatFs/src/option/ccsbcs.c **** 	0x2514, 0x2534, 0x252C, 0x251C, 0x2500, 0x253C, 0x043A, 0x041A,
 176:Middlewares/Third_Party/FatFs/src/option/ccsbcs.c **** 	0x255A, 0x2554, 0x2569, 0x2566, 0x2560, 0x2550, 0x256C, 0x00A4,
 177:Middlewares/Third_Party/FatFs/src/option/ccsbcs.c **** 	0x043B, 0x041B, 0x043C, 0x041C, 0x043D, 0x041D, 0x043E, 0x041E,
 178:Middlewares/Third_Party/FatFs/src/option/ccsbcs.c **** 	0x043F, 0x2518, 0x250C, 0x2588, 0x2584, 0x041F, 0x044F, 0x2580,
 179:Middlewares/Third_Party/FatFs/src/option/ccsbcs.c **** 	0x042F, 0x0440, 0x0420, 0x0441, 0x0421, 0x0442, 0x0422, 0x0443,
 180:Middlewares/Third_Party/FatFs/src/option/ccsbcs.c **** 	0x0423, 0x0436, 0x0416, 0x0432, 0x0412, 0x044C, 0x042C, 0x2116,
 181:Middlewares/Third_Party/FatFs/src/option/ccsbcs.c **** 	0x00AD, 0x044B, 0x042B, 0x0437, 0x0417, 0x0448, 0x0428, 0x044D,
 182:Middlewares/Third_Party/FatFs/src/option/ccsbcs.c **** 	0x042D, 0x0449, 0x0429, 0x0447, 0x0427, 0x00A7, 0x25A0, 0x00A0
 183:Middlewares/Third_Party/FatFs/src/option/ccsbcs.c **** };
 184:Middlewares/Third_Party/FatFs/src/option/ccsbcs.c **** 
 185:Middlewares/Third_Party/FatFs/src/option/ccsbcs.c **** #elif _CODE_PAGE == 857
 186:Middlewares/Third_Party/FatFs/src/option/ccsbcs.c **** #define _TBLDEF 1
 187:Middlewares/Third_Party/FatFs/src/option/ccsbcs.c **** static
 188:Middlewares/Third_Party/FatFs/src/option/ccsbcs.c **** const WCHAR Tbl[] = {	/*  CP857(0x80-0xFF) to Unicode conversion table */
 189:Middlewares/Third_Party/FatFs/src/option/ccsbcs.c **** 	0x00C7, 0x00FC, 0x00E9, 0x00E2, 0x00E4, 0x00E0, 0x00E5, 0x00E7,
 190:Middlewares/Third_Party/FatFs/src/option/ccsbcs.c **** 	0x00EA, 0x00EB, 0x00E8, 0x00EF, 0x00EE, 0x0131, 0x00C4, 0x00C5,
 191:Middlewares/Third_Party/FatFs/src/option/ccsbcs.c **** 	0x00C9, 0x00E6, 0x00C6, 0x00F4, 0x00F6, 0x00F2, 0x00FB, 0x00F9,
 192:Middlewares/Third_Party/FatFs/src/option/ccsbcs.c **** 	0x0130, 0x00D6, 0x00DC, 0x00F8, 0x00A3, 0x00D8, 0x015E, 0x015F,
 193:Middlewares/Third_Party/FatFs/src/option/ccsbcs.c **** 	0x00E1, 0x00ED, 0x00F3, 0x00FA, 0x00F1, 0x00D1, 0x011E, 0x011F,
 194:Middlewares/Third_Party/FatFs/src/option/ccsbcs.c **** 	0x00BF, 0x00AE, 0x00AC, 0x00BD, 0x00BC, 0x00A1, 0x00AB, 0x00BB,
 195:Middlewares/Third_Party/FatFs/src/option/ccsbcs.c **** 	0x2591, 0x2592, 0x2593, 0x2502, 0x2524, 0x00C1, 0x00C2, 0x00C0,
 196:Middlewares/Third_Party/FatFs/src/option/ccsbcs.c **** 	0x00A9, 0x2563, 0x2551, 0x2557, 0x255D, 0x00A2, 0x00A5, 0x2510,
 197:Middlewares/Third_Party/FatFs/src/option/ccsbcs.c **** 	0x2514, 0x2534, 0x252C, 0x251C, 0x2500, 0x253C, 0x00E3, 0x00C3,
 198:Middlewares/Third_Party/FatFs/src/option/ccsbcs.c **** 	0x255A, 0x2554, 0x2569, 0x2566, 0x2560, 0x2550, 0x256C, 0x00A4,
 199:Middlewares/Third_Party/FatFs/src/option/ccsbcs.c **** 	0x00BA, 0x00AA, 0x00CA, 0x00CB, 0x00C8, 0x0000, 0x00CD, 0x00CE,
 200:Middlewares/Third_Party/FatFs/src/option/ccsbcs.c **** 	0x00CF, 0x2518, 0x250C, 0x2588, 0x2584, 0x00A6, 0x00CC, 0x2580,
 201:Middlewares/Third_Party/FatFs/src/option/ccsbcs.c **** 	0x00D3, 0x00DF, 0x00D4, 0x00D2, 0x00F5, 0x00D5, 0x00B5, 0x0000,
 202:Middlewares/Third_Party/FatFs/src/option/ccsbcs.c **** 	0x00D7, 0x00DA, 0x00DB, 0x00D9, 0x00EC, 0x00FF, 0x00AF, 0x00B4,
 203:Middlewares/Third_Party/FatFs/src/option/ccsbcs.c **** 	0x00AD, 0x00B1, 0x0000, 0x00BE, 0x00B6, 0x00A7, 0x00F7, 0x00B8,
 204:Middlewares/Third_Party/FatFs/src/option/ccsbcs.c **** 	0x00B0, 0x00A8, 0x00B7, 0x00B9, 0x00B3, 0x00B2, 0x25A0, 0x00A0
ARM GAS  /tmp/cc6V3UeM.s 			page 5


 205:Middlewares/Third_Party/FatFs/src/option/ccsbcs.c **** };
 206:Middlewares/Third_Party/FatFs/src/option/ccsbcs.c **** 
 207:Middlewares/Third_Party/FatFs/src/option/ccsbcs.c **** #elif _CODE_PAGE == 858
 208:Middlewares/Third_Party/FatFs/src/option/ccsbcs.c **** #define _TBLDEF 1
 209:Middlewares/Third_Party/FatFs/src/option/ccsbcs.c **** static
 210:Middlewares/Third_Party/FatFs/src/option/ccsbcs.c **** const WCHAR Tbl[] = {	/*  CP858(0x80-0xFF) to Unicode conversion table */
 211:Middlewares/Third_Party/FatFs/src/option/ccsbcs.c **** 	0x00C7, 0x00FC, 0x00E9, 0x00E2, 0x00E4, 0x00E0, 0x00E5, 0x00E7,
 212:Middlewares/Third_Party/FatFs/src/option/ccsbcs.c **** 	0x00EA, 0x00EB, 0x00E8, 0x00EF, 0x00EE, 0x00EC, 0x00C4, 0x00C5,
 213:Middlewares/Third_Party/FatFs/src/option/ccsbcs.c **** 	0x00C9, 0x00E6, 0x00C6, 0x00F4, 0x00F6, 0x00F2, 0x00FB, 0x00F9,
 214:Middlewares/Third_Party/FatFs/src/option/ccsbcs.c **** 	0x00FF, 0x00D6, 0x00DC, 0x00F8, 0x00A3, 0x00D8, 0x00D7, 0x0192,
 215:Middlewares/Third_Party/FatFs/src/option/ccsbcs.c **** 	0x00E1, 0x00ED, 0x00F3, 0x00FA, 0x00F1, 0x00D1, 0x00AA, 0x00BA,
 216:Middlewares/Third_Party/FatFs/src/option/ccsbcs.c **** 	0x00BF, 0x00AE, 0x00AC, 0x00BD, 0x00BC, 0x00A1, 0x00AB, 0x00BB,
 217:Middlewares/Third_Party/FatFs/src/option/ccsbcs.c **** 	0x2591, 0x2592, 0x2593, 0x2502, 0x2524, 0x00C1, 0x00C2, 0x00C0,
 218:Middlewares/Third_Party/FatFs/src/option/ccsbcs.c **** 	0x00A9, 0x2563, 0x2551, 0x2557, 0x2550, 0x00A2, 0x00A5, 0x2510,
 219:Middlewares/Third_Party/FatFs/src/option/ccsbcs.c **** 	0x2514, 0x2534, 0x252C, 0x251C, 0x2500, 0x253C, 0x00E3, 0x00C3,
 220:Middlewares/Third_Party/FatFs/src/option/ccsbcs.c **** 	0x255A, 0x2554, 0x2569, 0x2566, 0x2560, 0x2550, 0x256C, 0x00A4,
 221:Middlewares/Third_Party/FatFs/src/option/ccsbcs.c **** 	0x00F0, 0x00D0, 0x00CA, 0x00CB, 0x00C8, 0x20AC, 0x00CD, 0x00CE,
 222:Middlewares/Third_Party/FatFs/src/option/ccsbcs.c **** 	0x00CF, 0x2518, 0x250C, 0x2588, 0x2584, 0x00C6, 0x00CC, 0x2580,
 223:Middlewares/Third_Party/FatFs/src/option/ccsbcs.c **** 	0x00D3, 0x00DF, 0x00D4, 0x00D2, 0x00F5, 0x00D5, 0x00B5, 0x00FE,
 224:Middlewares/Third_Party/FatFs/src/option/ccsbcs.c **** 	0x00DE, 0x00DA, 0x00DB, 0x00D9, 0x00FD, 0x00DD, 0x00AF, 0x00B4,
 225:Middlewares/Third_Party/FatFs/src/option/ccsbcs.c **** 	0x00AD, 0x00B1, 0x2017, 0x00BE, 0x00B6, 0x00A7, 0x00F7, 0x00B8,
 226:Middlewares/Third_Party/FatFs/src/option/ccsbcs.c **** 	0x00B0, 0x00A8, 0x00B7, 0x00B9, 0x00B3, 0x00B2, 0x25A0, 0x00A0
 227:Middlewares/Third_Party/FatFs/src/option/ccsbcs.c **** };
 228:Middlewares/Third_Party/FatFs/src/option/ccsbcs.c **** 
 229:Middlewares/Third_Party/FatFs/src/option/ccsbcs.c **** #elif _CODE_PAGE == 862
 230:Middlewares/Third_Party/FatFs/src/option/ccsbcs.c **** #define _TBLDEF 1
 231:Middlewares/Third_Party/FatFs/src/option/ccsbcs.c **** static
 232:Middlewares/Third_Party/FatFs/src/option/ccsbcs.c **** const WCHAR Tbl[] = {	/*  CP862(0x80-0xFF) to Unicode conversion table */
 233:Middlewares/Third_Party/FatFs/src/option/ccsbcs.c **** 	0x05D0, 0x05D1, 0x05D2, 0x05D3, 0x05D4, 0x05D5, 0x05D6, 0x05D7,
 234:Middlewares/Third_Party/FatFs/src/option/ccsbcs.c **** 	0x05D8, 0x05D9, 0x05DA, 0x05DB, 0x05DC, 0x05DD, 0x05DE, 0x05DF,
 235:Middlewares/Third_Party/FatFs/src/option/ccsbcs.c **** 	0x05E0, 0x05E1, 0x05E2, 0x05E3, 0x05E4, 0x05E5, 0x05E6, 0x05E7,
 236:Middlewares/Third_Party/FatFs/src/option/ccsbcs.c **** 	0x05E8, 0x05E9, 0x05EA, 0x00A2, 0x00A3, 0x00A5, 0x20A7, 0x0192,
 237:Middlewares/Third_Party/FatFs/src/option/ccsbcs.c **** 	0x00E1, 0x00ED, 0x00F3, 0x00FA, 0x00F1, 0x00D1, 0x00AA, 0x00BA,
 238:Middlewares/Third_Party/FatFs/src/option/ccsbcs.c **** 	0x00BF, 0x2310, 0x00AC, 0x00BD, 0x00BC, 0x00A1, 0x00AB, 0x00BB,
 239:Middlewares/Third_Party/FatFs/src/option/ccsbcs.c **** 	0x2591, 0x2592, 0x2593, 0x2502, 0x2524, 0x2561, 0x2562, 0x2556,
 240:Middlewares/Third_Party/FatFs/src/option/ccsbcs.c **** 	0x2555, 0x2563, 0x2551, 0x2557, 0x255D, 0x255C, 0x255B, 0x2510,
 241:Middlewares/Third_Party/FatFs/src/option/ccsbcs.c **** 	0x2514, 0x2534, 0x252C, 0x251C, 0x2500, 0x253C, 0x255E, 0x255F,
 242:Middlewares/Third_Party/FatFs/src/option/ccsbcs.c **** 	0x255A, 0x2554, 0x2569, 0x2566, 0x2560, 0x2550, 0x256C, 0x2567,
 243:Middlewares/Third_Party/FatFs/src/option/ccsbcs.c **** 	0x2568, 0x2564, 0x2565, 0x2559, 0x2558, 0x2552, 0x2553, 0x256B,
 244:Middlewares/Third_Party/FatFs/src/option/ccsbcs.c **** 	0x256A, 0x2518, 0x250C, 0x2588, 0x2584, 0x258C, 0x2590, 0x2580,
 245:Middlewares/Third_Party/FatFs/src/option/ccsbcs.c **** 	0x03B1, 0x00DF, 0x0393, 0x03C0, 0x03A3, 0x03C3, 0x00B5, 0x03C4,
 246:Middlewares/Third_Party/FatFs/src/option/ccsbcs.c **** 	0x03A6, 0x0398, 0x03A9, 0x03B4, 0x221E, 0x03C6, 0x03B5, 0x2229,
 247:Middlewares/Third_Party/FatFs/src/option/ccsbcs.c **** 	0x2261, 0x00B1, 0x2265, 0x2264, 0x2320, 0x2321, 0x00F7, 0x2248,
 248:Middlewares/Third_Party/FatFs/src/option/ccsbcs.c **** 	0x00B0, 0x2219, 0x00B7, 0x221A, 0x207F, 0x00B2, 0x25A0, 0x00A0
 249:Middlewares/Third_Party/FatFs/src/option/ccsbcs.c **** };
 250:Middlewares/Third_Party/FatFs/src/option/ccsbcs.c **** 
 251:Middlewares/Third_Party/FatFs/src/option/ccsbcs.c **** #elif _CODE_PAGE == 866
 252:Middlewares/Third_Party/FatFs/src/option/ccsbcs.c **** #define _TBLDEF 1
 253:Middlewares/Third_Party/FatFs/src/option/ccsbcs.c **** static
 254:Middlewares/Third_Party/FatFs/src/option/ccsbcs.c **** const WCHAR Tbl[] = {	/*  CP866(0x80-0xFF) to Unicode conversion table */
 255:Middlewares/Third_Party/FatFs/src/option/ccsbcs.c **** 	0x0410, 0x0411, 0x0412, 0x0413, 0x0414, 0x0415, 0x0416, 0x0417,
 256:Middlewares/Third_Party/FatFs/src/option/ccsbcs.c **** 	0x0418, 0x0419, 0x041A, 0x041B, 0x041C, 0x041D, 0x041E, 0x041F,
 257:Middlewares/Third_Party/FatFs/src/option/ccsbcs.c **** 	0x0420, 0x0421, 0x0422, 0x0423, 0x0424, 0x0425, 0x0426, 0x0427,
 258:Middlewares/Third_Party/FatFs/src/option/ccsbcs.c **** 	0x0428, 0x0429, 0x042A, 0x042B, 0x042C, 0x042D, 0x042E, 0x042F,
 259:Middlewares/Third_Party/FatFs/src/option/ccsbcs.c **** 	0x0430, 0x0431, 0x0432, 0x0433, 0x0434, 0x0435, 0x0436, 0x0437,
 260:Middlewares/Third_Party/FatFs/src/option/ccsbcs.c **** 	0x0438, 0x0439, 0x043A, 0x043B, 0x043C, 0x043D, 0x043E, 0x043F,
 261:Middlewares/Third_Party/FatFs/src/option/ccsbcs.c **** 	0x2591, 0x2592, 0x2593, 0x2502, 0x2524, 0x2561, 0x2562, 0x2556,
ARM GAS  /tmp/cc6V3UeM.s 			page 6


 262:Middlewares/Third_Party/FatFs/src/option/ccsbcs.c **** 	0x2555, 0x2563, 0x2551, 0x2557, 0x255D, 0x255C, 0x255B, 0x2510,
 263:Middlewares/Third_Party/FatFs/src/option/ccsbcs.c **** 	0x2514, 0x2534, 0x252C, 0x251C, 0x2500, 0x253C, 0x255E, 0x255F,
 264:Middlewares/Third_Party/FatFs/src/option/ccsbcs.c **** 	0x255A, 0x2554, 0x2569, 0x2566, 0x2560, 0x2550, 0x256C, 0x2567,
 265:Middlewares/Third_Party/FatFs/src/option/ccsbcs.c **** 	0x2568, 0x2564, 0x2565, 0x2559, 0x2558, 0x2552, 0x2553, 0x256B,
 266:Middlewares/Third_Party/FatFs/src/option/ccsbcs.c **** 	0x256A, 0x2518, 0x250C, 0x2588, 0x2584, 0x258C, 0x2590, 0x2580,
 267:Middlewares/Third_Party/FatFs/src/option/ccsbcs.c **** 	0x0440, 0x0441, 0x0442, 0x0443, 0x0444, 0x0445, 0x0446, 0x0447,
 268:Middlewares/Third_Party/FatFs/src/option/ccsbcs.c **** 	0x0448, 0x0449, 0x044A, 0x044B, 0x044C, 0x044D, 0x044E, 0x044F,
 269:Middlewares/Third_Party/FatFs/src/option/ccsbcs.c **** 	0x0401, 0x0451, 0x0404, 0x0454, 0x0407, 0x0457, 0x040E, 0x045E,
 270:Middlewares/Third_Party/FatFs/src/option/ccsbcs.c **** 	0x00B0, 0x2219, 0x00B7, 0x221A, 0x2116, 0x00A4, 0x25A0, 0x00A0
 271:Middlewares/Third_Party/FatFs/src/option/ccsbcs.c **** };
 272:Middlewares/Third_Party/FatFs/src/option/ccsbcs.c **** 
 273:Middlewares/Third_Party/FatFs/src/option/ccsbcs.c **** #elif _CODE_PAGE == 874
 274:Middlewares/Third_Party/FatFs/src/option/ccsbcs.c **** #define _TBLDEF 1
 275:Middlewares/Third_Party/FatFs/src/option/ccsbcs.c **** static
 276:Middlewares/Third_Party/FatFs/src/option/ccsbcs.c **** const WCHAR Tbl[] = {	/*  CP874(0x80-0xFF) to Unicode conversion table */
 277:Middlewares/Third_Party/FatFs/src/option/ccsbcs.c **** 	0x20AC, 0x0000, 0x0000, 0x0000, 0x0000, 0x2026, 0x0000, 0x0000,
 278:Middlewares/Third_Party/FatFs/src/option/ccsbcs.c **** 	0x0000, 0x0000, 0x0000, 0x0000, 0x0000, 0x0000, 0x0000, 0x0000,
 279:Middlewares/Third_Party/FatFs/src/option/ccsbcs.c **** 	0x0000, 0x2018, 0x2019, 0x201C, 0x201D, 0x2022, 0x2013, 0x2014,
 280:Middlewares/Third_Party/FatFs/src/option/ccsbcs.c **** 	0x0000, 0x0000, 0x0000, 0x0000, 0x0000, 0x0000, 0x0000, 0x0000,
 281:Middlewares/Third_Party/FatFs/src/option/ccsbcs.c **** 	0x00A0, 0x0E01, 0x0E02, 0x0E03, 0x0E04, 0x0E05, 0x0E06, 0x0E07,
 282:Middlewares/Third_Party/FatFs/src/option/ccsbcs.c **** 	0x0E08, 0x0E09, 0x0E0A, 0x0E0B, 0x0E0C, 0x0E0D, 0x0E0E, 0x0E0F,
 283:Middlewares/Third_Party/FatFs/src/option/ccsbcs.c **** 	0x0E10, 0x0E11, 0x0E12, 0x0E13, 0x0E14, 0x0E15, 0x0E16, 0x0E17,
 284:Middlewares/Third_Party/FatFs/src/option/ccsbcs.c **** 	0x0E18, 0x0E19, 0x0E1A, 0x0E1B, 0x0E1C, 0x0E1D, 0x0E1E, 0x0E1F,
 285:Middlewares/Third_Party/FatFs/src/option/ccsbcs.c **** 	0x0E20, 0x0E21, 0x0E22, 0x0E23, 0x0E24, 0x0E25, 0x0E26, 0x0E27,
 286:Middlewares/Third_Party/FatFs/src/option/ccsbcs.c **** 	0x0E28, 0x0E29, 0x0E2A, 0x0E2B, 0x0E2C, 0x0E2D, 0x0E2E, 0x0E2F,
 287:Middlewares/Third_Party/FatFs/src/option/ccsbcs.c **** 	0x0E30, 0x0E31, 0x0E32, 0x0E33, 0x0E34, 0x0E35, 0x0E36, 0x0E37,
 288:Middlewares/Third_Party/FatFs/src/option/ccsbcs.c **** 	0x0E38, 0x0E39, 0x0E3A, 0x0000, 0x0000, 0x0000, 0x0000, 0x0E3F,
 289:Middlewares/Third_Party/FatFs/src/option/ccsbcs.c **** 	0x0E40, 0x0E41, 0x0E42, 0x0E43, 0x0E44, 0x0E45, 0x0E46, 0x0E47,
 290:Middlewares/Third_Party/FatFs/src/option/ccsbcs.c **** 	0x0E48, 0x0E49, 0x0E4A, 0x0E4B, 0x0E4C, 0x0E4D, 0x0E4E, 0x0E4F,
 291:Middlewares/Third_Party/FatFs/src/option/ccsbcs.c **** 	0x0E50, 0x0E51, 0x0E52, 0x0E53, 0x0E54, 0x0E55, 0x0E56, 0x0E57,
 292:Middlewares/Third_Party/FatFs/src/option/ccsbcs.c **** 	0x0E58, 0x0E59, 0x0E5A, 0x0E5B, 0x0000, 0x0000, 0x0000, 0x0000
 293:Middlewares/Third_Party/FatFs/src/option/ccsbcs.c **** };
 294:Middlewares/Third_Party/FatFs/src/option/ccsbcs.c **** 
 295:Middlewares/Third_Party/FatFs/src/option/ccsbcs.c **** #elif _CODE_PAGE == 1250
 296:Middlewares/Third_Party/FatFs/src/option/ccsbcs.c **** #define _TBLDEF 1
 297:Middlewares/Third_Party/FatFs/src/option/ccsbcs.c **** static
 298:Middlewares/Third_Party/FatFs/src/option/ccsbcs.c **** const WCHAR Tbl[] = {	/*  CP1250(0x80-0xFF) to Unicode conversion table */
 299:Middlewares/Third_Party/FatFs/src/option/ccsbcs.c **** 	0x20AC, 0x0000, 0x201A, 0x0000, 0x201E, 0x2026, 0x2020, 0x2021,
 300:Middlewares/Third_Party/FatFs/src/option/ccsbcs.c **** 	0x0000, 0x2030, 0x0160, 0x2039, 0x015A, 0x0164, 0x017D, 0x0179,
 301:Middlewares/Third_Party/FatFs/src/option/ccsbcs.c **** 	0x0000, 0x2018, 0x2019, 0x201C, 0x201D, 0x2022, 0x2013, 0x2014,
 302:Middlewares/Third_Party/FatFs/src/option/ccsbcs.c **** 	0x0000, 0x2122, 0x0161, 0x203A, 0x015B, 0x0165, 0x017E, 0x017A,
 303:Middlewares/Third_Party/FatFs/src/option/ccsbcs.c **** 	0x00A0, 0x02C7, 0x02D8, 0x0141, 0x00A4, 0x0104, 0x00A6, 0x00A7,
 304:Middlewares/Third_Party/FatFs/src/option/ccsbcs.c **** 	0x00A8, 0x00A9, 0x015E, 0x00AB, 0x00AC, 0x00AD, 0x00AE, 0x017B,
 305:Middlewares/Third_Party/FatFs/src/option/ccsbcs.c **** 	0x00B0, 0x00B1, 0x02DB, 0x0142, 0x00B4, 0x00B5, 0x00B6, 0x00B7,
 306:Middlewares/Third_Party/FatFs/src/option/ccsbcs.c **** 	0x00B8, 0x0105, 0x015F, 0x00BB, 0x013D, 0x02DD, 0x013E, 0x017C,
 307:Middlewares/Third_Party/FatFs/src/option/ccsbcs.c **** 	0x0154, 0x00C1, 0x00C2, 0x0102, 0x00C4, 0x0139, 0x0106, 0x00C7,
 308:Middlewares/Third_Party/FatFs/src/option/ccsbcs.c **** 	0x010C, 0x00C9, 0x0118, 0x00CB, 0x011A, 0x00CD, 0x00CE, 0x010E,
 309:Middlewares/Third_Party/FatFs/src/option/ccsbcs.c **** 	0x0110, 0x0143, 0x0147, 0x00D3, 0x00D4, 0x0150, 0x00D6, 0x00D7,
 310:Middlewares/Third_Party/FatFs/src/option/ccsbcs.c **** 	0x0158, 0x016E, 0x00DA, 0x0170, 0x00DC, 0x00DD, 0x0162, 0x00DF,
 311:Middlewares/Third_Party/FatFs/src/option/ccsbcs.c **** 	0x0155, 0x00E1, 0x00E2, 0x0103, 0x00E4, 0x013A, 0x0107, 0x00E7,
 312:Middlewares/Third_Party/FatFs/src/option/ccsbcs.c **** 	0x010D, 0x00E9, 0x0119, 0x00EB, 0x011B, 0x00ED, 0x00EE, 0x010F,
 313:Middlewares/Third_Party/FatFs/src/option/ccsbcs.c **** 	0x0111, 0x0144, 0x0148, 0x00F3, 0x00F4, 0x0151, 0x00F6, 0x00F7,
 314:Middlewares/Third_Party/FatFs/src/option/ccsbcs.c **** 	0x0159, 0x016F, 0x00FA, 0x0171, 0x00FC, 0x00FD, 0x0163, 0x02D9
 315:Middlewares/Third_Party/FatFs/src/option/ccsbcs.c **** };
 316:Middlewares/Third_Party/FatFs/src/option/ccsbcs.c **** 
 317:Middlewares/Third_Party/FatFs/src/option/ccsbcs.c **** #elif _CODE_PAGE == 1251
 318:Middlewares/Third_Party/FatFs/src/option/ccsbcs.c **** #define _TBLDEF 1
ARM GAS  /tmp/cc6V3UeM.s 			page 7


 319:Middlewares/Third_Party/FatFs/src/option/ccsbcs.c **** static
 320:Middlewares/Third_Party/FatFs/src/option/ccsbcs.c **** const WCHAR Tbl[] = {	/*  CP1251(0x80-0xFF) to Unicode conversion table */
 321:Middlewares/Third_Party/FatFs/src/option/ccsbcs.c **** 	0x0402, 0x0403, 0x201A, 0x0453, 0x201E, 0x2026, 0x2020, 0x2021,
 322:Middlewares/Third_Party/FatFs/src/option/ccsbcs.c **** 	0x20AC, 0x2030, 0x0409, 0x2039, 0x040A, 0x040C, 0x040B, 0x040F,
 323:Middlewares/Third_Party/FatFs/src/option/ccsbcs.c **** 	0x0452, 0x2018, 0x2019, 0x201C, 0x201D, 0x2022, 0x2013, 0x2014,
 324:Middlewares/Third_Party/FatFs/src/option/ccsbcs.c **** 	0x0000, 0x2111, 0x0459, 0x203A, 0x045A, 0x045C, 0x045B, 0x045F,
 325:Middlewares/Third_Party/FatFs/src/option/ccsbcs.c **** 	0x00A0, 0x040E, 0x045E, 0x0408, 0x00A4, 0x0490, 0x00A6, 0x00A7,
 326:Middlewares/Third_Party/FatFs/src/option/ccsbcs.c **** 	0x0401, 0x00A9, 0x0404, 0x00AB, 0x00AC, 0x00AD, 0x00AE, 0x0407,
 327:Middlewares/Third_Party/FatFs/src/option/ccsbcs.c **** 	0x00B0, 0x00B1, 0x0406, 0x0456, 0x0491, 0x00B5, 0x00B6, 0x00B7,
 328:Middlewares/Third_Party/FatFs/src/option/ccsbcs.c **** 	0x0451, 0x2116, 0x0454, 0x00BB, 0x0458, 0x0405, 0x0455, 0x0457,
 329:Middlewares/Third_Party/FatFs/src/option/ccsbcs.c **** 	0x0410, 0x0411, 0x0412, 0x0413, 0x0414, 0x0415, 0x0416, 0x0417,
 330:Middlewares/Third_Party/FatFs/src/option/ccsbcs.c **** 	0x0418, 0x0419, 0x041A, 0x041B, 0x041C, 0x041D, 0x041E, 0x041F,
 331:Middlewares/Third_Party/FatFs/src/option/ccsbcs.c **** 	0x0420, 0x0421, 0x0422, 0x0423, 0x0424, 0x0425, 0x0426, 0x0427,
 332:Middlewares/Third_Party/FatFs/src/option/ccsbcs.c **** 	0x0428, 0x0429, 0x042A, 0x042B, 0x042C, 0x042D, 0x042E, 0x042F,
 333:Middlewares/Third_Party/FatFs/src/option/ccsbcs.c **** 	0x0430, 0x0431, 0x0432, 0x0433, 0x0434, 0x0435, 0x0436, 0x0437,
 334:Middlewares/Third_Party/FatFs/src/option/ccsbcs.c **** 	0x0438, 0x0439, 0x043A, 0x043B, 0x043C, 0x043D, 0x043E, 0x043F,
 335:Middlewares/Third_Party/FatFs/src/option/ccsbcs.c **** 	0x0440, 0x0441, 0x0442, 0x0443, 0x0444, 0x0445, 0x0446, 0x0447,
 336:Middlewares/Third_Party/FatFs/src/option/ccsbcs.c **** 	0x0448, 0x0449, 0x044A, 0x044B, 0x044C, 0x044D, 0x044E, 0x044F
 337:Middlewares/Third_Party/FatFs/src/option/ccsbcs.c **** };
 338:Middlewares/Third_Party/FatFs/src/option/ccsbcs.c **** 
 339:Middlewares/Third_Party/FatFs/src/option/ccsbcs.c **** #elif _CODE_PAGE == 1252
 340:Middlewares/Third_Party/FatFs/src/option/ccsbcs.c **** #define _TBLDEF 1
 341:Middlewares/Third_Party/FatFs/src/option/ccsbcs.c **** static
 342:Middlewares/Third_Party/FatFs/src/option/ccsbcs.c **** const WCHAR Tbl[] = {	/*  CP1252(0x80-0xFF) to Unicode conversion table */
 343:Middlewares/Third_Party/FatFs/src/option/ccsbcs.c **** 	0x20AC, 0x0000, 0x201A, 0x0192, 0x201E, 0x2026, 0x2020, 0x2021,
 344:Middlewares/Third_Party/FatFs/src/option/ccsbcs.c **** 	0x02C6, 0x2030, 0x0160, 0x2039, 0x0152, 0x0000, 0x017D, 0x0000,
 345:Middlewares/Third_Party/FatFs/src/option/ccsbcs.c **** 	0x0000, 0x2018, 0x2019, 0x201C, 0x201D, 0x2022, 0x2013, 0x2014,
 346:Middlewares/Third_Party/FatFs/src/option/ccsbcs.c **** 	0x02DC, 0x2122, 0x0161, 0x203A, 0x0153, 0x0000, 0x017E, 0x0178,
 347:Middlewares/Third_Party/FatFs/src/option/ccsbcs.c **** 	0x00A0, 0x00A1, 0x00A2, 0x00A3, 0x00A4, 0x00A5, 0x00A6, 0x00A7,
 348:Middlewares/Third_Party/FatFs/src/option/ccsbcs.c **** 	0x00A8, 0x00A9, 0x00AA, 0x00AB, 0x00AC, 0x00AD, 0x00AE, 0x00AF,
 349:Middlewares/Third_Party/FatFs/src/option/ccsbcs.c **** 	0x00B0, 0x00B1, 0x00B2, 0x00B3, 0x00B4, 0x00B5, 0x00B6, 0x00B7,
 350:Middlewares/Third_Party/FatFs/src/option/ccsbcs.c **** 	0x00B8, 0x00B9, 0x00BA, 0x00BB, 0x00BC, 0x00BD, 0x00BE, 0x00BF,
 351:Middlewares/Third_Party/FatFs/src/option/ccsbcs.c **** 	0x00C0, 0x00C1, 0x00C2, 0x00C3, 0x00C4, 0x00C5, 0x00C6, 0x00C7,
 352:Middlewares/Third_Party/FatFs/src/option/ccsbcs.c **** 	0x00C8, 0x00C9, 0x00CA, 0x00CB, 0x00CC, 0x00CD, 0x00CE, 0x00CF,
 353:Middlewares/Third_Party/FatFs/src/option/ccsbcs.c **** 	0x00D0, 0x00D1, 0x00D2, 0x00D3, 0x00D4, 0x00D5, 0x00D6, 0x00D7,
 354:Middlewares/Third_Party/FatFs/src/option/ccsbcs.c **** 	0x00D8, 0x00D9, 0x00DA, 0x00DB, 0x00DC, 0x00DD, 0x00DE, 0x00DF,
 355:Middlewares/Third_Party/FatFs/src/option/ccsbcs.c **** 	0x00E0, 0x00E1, 0x00E2, 0x00E3, 0x00E4, 0x00E5, 0x00E6, 0x00E7,
 356:Middlewares/Third_Party/FatFs/src/option/ccsbcs.c **** 	0x00E8, 0x00E9, 0x00EA, 0x00EB, 0x00EC, 0x00ED, 0x00EE, 0x00EF,
 357:Middlewares/Third_Party/FatFs/src/option/ccsbcs.c **** 	0x00F0, 0x00F1, 0x00F2, 0x00F3, 0x00F4, 0x00F5, 0x00F6, 0x00F7,
 358:Middlewares/Third_Party/FatFs/src/option/ccsbcs.c **** 	0x00F8, 0x00F9, 0x00FA, 0x00FB, 0x00FC, 0x00FD, 0x00FE, 0x00FF
 359:Middlewares/Third_Party/FatFs/src/option/ccsbcs.c **** };
 360:Middlewares/Third_Party/FatFs/src/option/ccsbcs.c **** 
 361:Middlewares/Third_Party/FatFs/src/option/ccsbcs.c **** #elif _CODE_PAGE == 1253
 362:Middlewares/Third_Party/FatFs/src/option/ccsbcs.c **** #define _TBLDEF 1
 363:Middlewares/Third_Party/FatFs/src/option/ccsbcs.c **** static
 364:Middlewares/Third_Party/FatFs/src/option/ccsbcs.c **** const WCHAR Tbl[] = {	/*  CP1253(0x80-0xFF) to Unicode conversion table */
 365:Middlewares/Third_Party/FatFs/src/option/ccsbcs.c **** 	0x20AC, 0x0000, 0x201A, 0x0192, 0x201E, 0x2026, 0x2020, 0x2021,
 366:Middlewares/Third_Party/FatFs/src/option/ccsbcs.c **** 	0x0000, 0x2030, 0x0000, 0x2039, 0x000C, 0x0000, 0x0000, 0x0000,
 367:Middlewares/Third_Party/FatFs/src/option/ccsbcs.c **** 	0x0000, 0x2018, 0x2019, 0x201C, 0x201D, 0x2022, 0x2013, 0x2014,
 368:Middlewares/Third_Party/FatFs/src/option/ccsbcs.c **** 	0x0000, 0x2122, 0x0000, 0x203A, 0x0000, 0x0000, 0x0000, 0x0000,
 369:Middlewares/Third_Party/FatFs/src/option/ccsbcs.c **** 	0x00A0, 0x0385, 0x0386, 0x00A3, 0x00A4, 0x00A5, 0x00A6, 0x00A7,
 370:Middlewares/Third_Party/FatFs/src/option/ccsbcs.c **** 	0x00A8, 0x00A9, 0x0000, 0x00AB, 0x00AC, 0x00AD, 0x00AE, 0x2015,
 371:Middlewares/Third_Party/FatFs/src/option/ccsbcs.c **** 	0x00B0, 0x00B1, 0x00B2, 0x00B3, 0x0384, 0x00B5, 0x00B6, 0x00B7,
 372:Middlewares/Third_Party/FatFs/src/option/ccsbcs.c **** 	0x0388, 0x0389, 0x038A, 0x00BB, 0x038C, 0x00BD, 0x038E, 0x038F,
 373:Middlewares/Third_Party/FatFs/src/option/ccsbcs.c **** 	0x0390, 0x0391, 0x0392, 0x0393, 0x0394, 0x0395, 0x0396, 0x0397,
 374:Middlewares/Third_Party/FatFs/src/option/ccsbcs.c **** 	0x0398, 0x0399, 0x039A, 0x039B, 0x039C, 0x039D, 0x039E, 0x039F,
 375:Middlewares/Third_Party/FatFs/src/option/ccsbcs.c **** 	0x03A0, 0x03A1, 0x0000, 0x03A3, 0x03A4, 0x03A5, 0x03A6, 0x03A7,
ARM GAS  /tmp/cc6V3UeM.s 			page 8


 376:Middlewares/Third_Party/FatFs/src/option/ccsbcs.c **** 	0x03A8, 0x03A9, 0x03AA, 0x03AD, 0x03AC, 0x03AD, 0x03AE, 0x03AF,
 377:Middlewares/Third_Party/FatFs/src/option/ccsbcs.c **** 	0x03B0, 0x03B1, 0x03B2, 0x03B3, 0x03B4, 0x03B5, 0x03B6, 0x03B7,
 378:Middlewares/Third_Party/FatFs/src/option/ccsbcs.c **** 	0x03B8, 0x03B9, 0x03BA, 0x03BB, 0x03BC, 0x03BD, 0x03BE, 0x03BF,
 379:Middlewares/Third_Party/FatFs/src/option/ccsbcs.c **** 	0x03C0, 0x03C1, 0x03C2, 0x03C3, 0x03C4, 0x03C5, 0x03C6, 0x03C7,
 380:Middlewares/Third_Party/FatFs/src/option/ccsbcs.c **** 	0x03C8, 0x03C9, 0x03CA, 0x03CB, 0x03CC, 0x03CD, 0x03CE, 0x0000
 381:Middlewares/Third_Party/FatFs/src/option/ccsbcs.c **** };
 382:Middlewares/Third_Party/FatFs/src/option/ccsbcs.c **** 
 383:Middlewares/Third_Party/FatFs/src/option/ccsbcs.c **** #elif _CODE_PAGE == 1254
 384:Middlewares/Third_Party/FatFs/src/option/ccsbcs.c **** #define _TBLDEF 1
 385:Middlewares/Third_Party/FatFs/src/option/ccsbcs.c **** static
 386:Middlewares/Third_Party/FatFs/src/option/ccsbcs.c **** const WCHAR Tbl[] = {	/*  CP1254(0x80-0xFF) to Unicode conversion table */
 387:Middlewares/Third_Party/FatFs/src/option/ccsbcs.c **** 	0x20AC, 0x0000, 0x210A, 0x0192, 0x201E, 0x2026, 0x2020, 0x2021,
 388:Middlewares/Third_Party/FatFs/src/option/ccsbcs.c **** 	0x02C6, 0x2030, 0x0160, 0x2039, 0x0152, 0x0000, 0x0000, 0x0000,
 389:Middlewares/Third_Party/FatFs/src/option/ccsbcs.c **** 	0x0000, 0x2018, 0x2019, 0x201C, 0x201D, 0x2022, 0x2013, 0x2014,
 390:Middlewares/Third_Party/FatFs/src/option/ccsbcs.c **** 	0x02DC, 0x2122, 0x0161, 0x203A, 0x0153, 0x0000, 0x0000, 0x0178,
 391:Middlewares/Third_Party/FatFs/src/option/ccsbcs.c **** 	0x00A0, 0x00A1, 0x00A2, 0x00A3, 0x00A4, 0x00A5, 0x00A6, 0x00A7,
 392:Middlewares/Third_Party/FatFs/src/option/ccsbcs.c **** 	0x00A8, 0x00A9, 0x00AA, 0x00AB, 0x00AC, 0x00AD, 0x00AE, 0x00AF,
 393:Middlewares/Third_Party/FatFs/src/option/ccsbcs.c **** 	0x00B0, 0x00B1, 0x00B2, 0x00B3, 0x00B4, 0x00B5, 0x00B6, 0x00B7,
 394:Middlewares/Third_Party/FatFs/src/option/ccsbcs.c **** 	0x00B8, 0x00B9, 0x00BA, 0x00BB, 0x00BC, 0x00BD, 0x00BE, 0x00BF,
 395:Middlewares/Third_Party/FatFs/src/option/ccsbcs.c **** 	0x00C0, 0x00C1, 0x00C2, 0x00C3, 0x00C4, 0x00C5, 0x00C6, 0x00C7,
 396:Middlewares/Third_Party/FatFs/src/option/ccsbcs.c **** 	0x00C8, 0x00C9, 0x00CA, 0x00CB, 0x00CC, 0x00CD, 0x00CE, 0x00CF,
 397:Middlewares/Third_Party/FatFs/src/option/ccsbcs.c **** 	0x011E, 0x00D1, 0x00D2, 0x00D3, 0x00D4, 0x00D5, 0x00D6, 0x00D7,
 398:Middlewares/Third_Party/FatFs/src/option/ccsbcs.c **** 	0x00D8, 0x00D9, 0x00DA, 0x00BD, 0x00DC, 0x0130, 0x015E, 0x00DF,
 399:Middlewares/Third_Party/FatFs/src/option/ccsbcs.c **** 	0x00E0, 0x00E1, 0x00E2, 0x00E3, 0x00E4, 0x00E5, 0x00E6, 0x00E7,
 400:Middlewares/Third_Party/FatFs/src/option/ccsbcs.c **** 	0x00E8, 0x00E9, 0x00EA, 0x00EB, 0x00EC, 0x00ED, 0x00EE, 0x00EF,
 401:Middlewares/Third_Party/FatFs/src/option/ccsbcs.c **** 	0x011F, 0x00F1, 0x00F2, 0x00F3, 0x00F4, 0x00F5, 0x00F6, 0x00F7,
 402:Middlewares/Third_Party/FatFs/src/option/ccsbcs.c **** 	0x00F8, 0x00F9, 0x00FA, 0x00FB, 0x00FC, 0x0131, 0x015F, 0x00FF
 403:Middlewares/Third_Party/FatFs/src/option/ccsbcs.c **** };
 404:Middlewares/Third_Party/FatFs/src/option/ccsbcs.c **** 
 405:Middlewares/Third_Party/FatFs/src/option/ccsbcs.c **** #elif _CODE_PAGE == 1255
 406:Middlewares/Third_Party/FatFs/src/option/ccsbcs.c **** #define _TBLDEF 1
 407:Middlewares/Third_Party/FatFs/src/option/ccsbcs.c **** static
 408:Middlewares/Third_Party/FatFs/src/option/ccsbcs.c **** const WCHAR Tbl[] = {	/*  CP1255(0x80-0xFF) to Unicode conversion table */
 409:Middlewares/Third_Party/FatFs/src/option/ccsbcs.c **** 	0x20AC, 0x0000, 0x201A, 0x0192, 0x201E, 0x2026, 0x2020, 0x2021,
 410:Middlewares/Third_Party/FatFs/src/option/ccsbcs.c **** 	0x02C6, 0x2030, 0x0000, 0x2039, 0x0000, 0x0000, 0x0000, 0x0000,
 411:Middlewares/Third_Party/FatFs/src/option/ccsbcs.c **** 	0x0000, 0x2018, 0x2019, 0x201C, 0x201D, 0x2022, 0x2013, 0x2014,
 412:Middlewares/Third_Party/FatFs/src/option/ccsbcs.c **** 	0x02DC, 0x2122, 0x0000, 0x203A, 0x0000, 0x0000, 0x0000, 0x0000,
 413:Middlewares/Third_Party/FatFs/src/option/ccsbcs.c **** 	0x00A0, 0x00A1, 0x00A2, 0x00A3, 0x00A4, 0x00A5, 0x00A6, 0x00A7,
 414:Middlewares/Third_Party/FatFs/src/option/ccsbcs.c **** 	0x00A8, 0x00A9, 0x00D7, 0x00AB, 0x00AC, 0x00AD, 0x00AE, 0x00AF,
 415:Middlewares/Third_Party/FatFs/src/option/ccsbcs.c **** 	0x00B0, 0x00B1, 0x00B2, 0x00B3, 0x00B4, 0x00B5, 0x00B6, 0x00B7,
 416:Middlewares/Third_Party/FatFs/src/option/ccsbcs.c **** 	0x00B8, 0x00B9, 0x00F7, 0x00BB, 0x00BC, 0x00BD, 0x00BE, 0x00BF,
 417:Middlewares/Third_Party/FatFs/src/option/ccsbcs.c **** 	0x05B0, 0x05B1, 0x05B2, 0x05B3, 0x05B4, 0x05B5, 0x05B6, 0x05B7,
 418:Middlewares/Third_Party/FatFs/src/option/ccsbcs.c **** 	0x05B8, 0x05B9, 0x0000, 0x05BB, 0x05BC, 0x05BD, 0x05BE, 0x05BF,
 419:Middlewares/Third_Party/FatFs/src/option/ccsbcs.c **** 	0x05C0, 0x05C1, 0x05C2, 0x05C3, 0x05F0, 0x05F1, 0x05F2, 0x05F3,
 420:Middlewares/Third_Party/FatFs/src/option/ccsbcs.c **** 	0x05F4, 0x0000, 0x0000, 0x0000, 0x0000, 0x0000, 0x0000, 0x0000,
 421:Middlewares/Third_Party/FatFs/src/option/ccsbcs.c **** 	0x05D0, 0x05D1, 0x05D2, 0x05D3, 0x05D4, 0x05D5, 0x05D6, 0x05D7,
 422:Middlewares/Third_Party/FatFs/src/option/ccsbcs.c **** 	0x05D8, 0x05D9, 0x05DA, 0x05DB, 0x05DC, 0x05DD, 0x05DE, 0x05DF,
 423:Middlewares/Third_Party/FatFs/src/option/ccsbcs.c **** 	0x05E0, 0x05E1, 0x05E2, 0x05E3, 0x05E4, 0x05E5, 0x05E6, 0x05E7,
 424:Middlewares/Third_Party/FatFs/src/option/ccsbcs.c **** 	0x05E8, 0x05E9, 0x05EA, 0x0000, 0x0000, 0x200E, 0x200F, 0x0000
 425:Middlewares/Third_Party/FatFs/src/option/ccsbcs.c **** };
 426:Middlewares/Third_Party/FatFs/src/option/ccsbcs.c **** 
 427:Middlewares/Third_Party/FatFs/src/option/ccsbcs.c **** #elif _CODE_PAGE == 1256
 428:Middlewares/Third_Party/FatFs/src/option/ccsbcs.c **** #define _TBLDEF 1
 429:Middlewares/Third_Party/FatFs/src/option/ccsbcs.c **** static
 430:Middlewares/Third_Party/FatFs/src/option/ccsbcs.c **** const WCHAR Tbl[] = {	/*  CP1256(0x80-0xFF) to Unicode conversion table */
 431:Middlewares/Third_Party/FatFs/src/option/ccsbcs.c **** 	0x20AC, 0x067E, 0x201A, 0x0192, 0x201E, 0x2026, 0x2020, 0x2021,
 432:Middlewares/Third_Party/FatFs/src/option/ccsbcs.c **** 	0x02C6, 0x2030, 0x0679, 0x2039, 0x0152, 0x0686, 0x0698, 0x0688,
ARM GAS  /tmp/cc6V3UeM.s 			page 9


 433:Middlewares/Third_Party/FatFs/src/option/ccsbcs.c **** 	0x06AF, 0x2018, 0x2019, 0x201C, 0x201D, 0x2022, 0x2013, 0x2014,
 434:Middlewares/Third_Party/FatFs/src/option/ccsbcs.c **** 	0x06A9, 0x2122, 0x0691, 0x203A, 0x0153, 0x200C, 0x200D, 0x06BA,
 435:Middlewares/Third_Party/FatFs/src/option/ccsbcs.c **** 	0x00A0, 0x060C, 0x00A2, 0x00A3, 0x00A4, 0x00A5, 0x00A6, 0x00A7,
 436:Middlewares/Third_Party/FatFs/src/option/ccsbcs.c **** 	0x00A8, 0x00A9, 0x06BE, 0x00AB, 0x00AC, 0x00AD, 0x00AE, 0x00AF,
 437:Middlewares/Third_Party/FatFs/src/option/ccsbcs.c **** 	0x00B0, 0x00B1, 0x00B2, 0x00B3, 0x00B4, 0x00B5, 0x00B6, 0x00B7,
 438:Middlewares/Third_Party/FatFs/src/option/ccsbcs.c **** 	0x00B8, 0x00B9, 0x061B, 0x00BB, 0x00BC, 0x00BD, 0x00BE, 0x061F,
 439:Middlewares/Third_Party/FatFs/src/option/ccsbcs.c **** 	0x06C1, 0x0621, 0x0622, 0x0623, 0x0624, 0x0625, 0x0626, 0x0627,
 440:Middlewares/Third_Party/FatFs/src/option/ccsbcs.c **** 	0x0628, 0x0629, 0x062A, 0x062B, 0x062C, 0x062D, 0x062E, 0x062F,
 441:Middlewares/Third_Party/FatFs/src/option/ccsbcs.c **** 	0x0630, 0x0631, 0x0632, 0x0633, 0x0634, 0x0635, 0x0636, 0x00D7,
 442:Middlewares/Third_Party/FatFs/src/option/ccsbcs.c **** 	0x0637, 0x0638, 0x0639, 0x063A, 0x0640, 0x0640, 0x0642, 0x0643,
 443:Middlewares/Third_Party/FatFs/src/option/ccsbcs.c **** 	0x00E0, 0x0644, 0x00E2, 0x0645, 0x0646, 0x0647, 0x0648, 0x00E7,
 444:Middlewares/Third_Party/FatFs/src/option/ccsbcs.c **** 	0x00E8, 0x00E9, 0x00EA, 0x00EB, 0x0649, 0x064A, 0x00EE, 0x00EF,
 445:Middlewares/Third_Party/FatFs/src/option/ccsbcs.c **** 	0x064B, 0x064C, 0x064D, 0x064E, 0x00F4, 0x064F, 0x0650, 0x00F7,
 446:Middlewares/Third_Party/FatFs/src/option/ccsbcs.c **** 	0x0651, 0x00F9, 0x0652, 0x00FB, 0x00FC, 0x200E, 0x200F, 0x06D2
 447:Middlewares/Third_Party/FatFs/src/option/ccsbcs.c **** };
 448:Middlewares/Third_Party/FatFs/src/option/ccsbcs.c **** 
 449:Middlewares/Third_Party/FatFs/src/option/ccsbcs.c **** #elif _CODE_PAGE == 1257
 450:Middlewares/Third_Party/FatFs/src/option/ccsbcs.c **** #define _TBLDEF 1
 451:Middlewares/Third_Party/FatFs/src/option/ccsbcs.c **** static
 452:Middlewares/Third_Party/FatFs/src/option/ccsbcs.c **** const WCHAR Tbl[] = {	/*  CP1257(0x80-0xFF) to Unicode conversion table */
 453:Middlewares/Third_Party/FatFs/src/option/ccsbcs.c **** 	0x20AC, 0x0000, 0x201A, 0x0000, 0x201E, 0x2026, 0x2020, 0x2021,
 454:Middlewares/Third_Party/FatFs/src/option/ccsbcs.c **** 	0x0000, 0x2030, 0x0000, 0x2039, 0x0000, 0x00A8, 0x02C7, 0x00B8,
 455:Middlewares/Third_Party/FatFs/src/option/ccsbcs.c **** 	0x0000, 0x2018, 0x2019, 0x201C, 0x201D, 0x2022, 0x2013, 0x2014,
 456:Middlewares/Third_Party/FatFs/src/option/ccsbcs.c **** 	0x0000, 0x2122, 0x0000, 0x203A, 0x0000, 0x00AF, 0x02DB, 0x0000,
 457:Middlewares/Third_Party/FatFs/src/option/ccsbcs.c **** 	0x00A0, 0x0000, 0x00A2, 0x00A3, 0x00A4, 0x0000, 0x00A6, 0x00A7,
 458:Middlewares/Third_Party/FatFs/src/option/ccsbcs.c **** 	0x00D8, 0x00A9, 0x0156, 0x00AB, 0x00AC, 0x00AD, 0x00AE, 0x00AF,
 459:Middlewares/Third_Party/FatFs/src/option/ccsbcs.c **** 	0x00B0, 0x00B1, 0x00B2, 0x00B3, 0x00B4, 0x00B5, 0x00B6, 0x00B7,
 460:Middlewares/Third_Party/FatFs/src/option/ccsbcs.c **** 	0x00B8, 0x00B9, 0x0157, 0x00BB, 0x00BC, 0x00BD, 0x00BE, 0x00E6,
 461:Middlewares/Third_Party/FatFs/src/option/ccsbcs.c **** 	0x0104, 0x012E, 0x0100, 0x0106, 0x00C4, 0x00C5, 0x0118, 0x0112,
 462:Middlewares/Third_Party/FatFs/src/option/ccsbcs.c **** 	0x010C, 0x00C9, 0x0179, 0x0116, 0x0122, 0x0136, 0x012A, 0x013B,
 463:Middlewares/Third_Party/FatFs/src/option/ccsbcs.c **** 	0x0160, 0x0143, 0x0145, 0x00D3, 0x014C, 0x00D5, 0x00D6, 0x00D7,
 464:Middlewares/Third_Party/FatFs/src/option/ccsbcs.c **** 	0x0172, 0x0141, 0x015A, 0x016A, 0x00DC, 0x017B, 0x017D, 0x00DF,
 465:Middlewares/Third_Party/FatFs/src/option/ccsbcs.c **** 	0x0105, 0x012F, 0x0101, 0x0107, 0x00E4, 0x00E5, 0x0119, 0x0113,
 466:Middlewares/Third_Party/FatFs/src/option/ccsbcs.c **** 	0x010D, 0x00E9, 0x017A, 0x0117, 0x0123, 0x0137, 0x012B, 0x013C,
 467:Middlewares/Third_Party/FatFs/src/option/ccsbcs.c **** 	0x0161, 0x0144, 0x0146, 0x00F3, 0x014D, 0x00F5, 0x00F6, 0x00F7,
 468:Middlewares/Third_Party/FatFs/src/option/ccsbcs.c **** 	0x0173, 0x014E, 0x015B, 0x016B, 0x00FC, 0x017C, 0x017E, 0x02D9
 469:Middlewares/Third_Party/FatFs/src/option/ccsbcs.c **** };
 470:Middlewares/Third_Party/FatFs/src/option/ccsbcs.c **** 
 471:Middlewares/Third_Party/FatFs/src/option/ccsbcs.c **** #elif _CODE_PAGE == 1258
 472:Middlewares/Third_Party/FatFs/src/option/ccsbcs.c **** #define _TBLDEF 1
 473:Middlewares/Third_Party/FatFs/src/option/ccsbcs.c **** static
 474:Middlewares/Third_Party/FatFs/src/option/ccsbcs.c **** const WCHAR Tbl[] = {	/*  CP1258(0x80-0xFF) to Unicode conversion table */
 475:Middlewares/Third_Party/FatFs/src/option/ccsbcs.c **** 	0x20AC, 0x0000, 0x201A, 0x0192, 0x201E, 0x2026, 0x2020, 0x2021,
 476:Middlewares/Third_Party/FatFs/src/option/ccsbcs.c **** 	0x02C6, 0x2030, 0x0000, 0x2039, 0x0152, 0x0000, 0x0000, 0x0000,
 477:Middlewares/Third_Party/FatFs/src/option/ccsbcs.c **** 	0x0000, 0x2018, 0x2019, 0x201C, 0x201D, 0x2022, 0x2013, 0x2014,
 478:Middlewares/Third_Party/FatFs/src/option/ccsbcs.c **** 	0x02DC, 0x2122, 0x0000, 0x203A, 0x0153, 0x0000, 0x0000, 0x0178,
 479:Middlewares/Third_Party/FatFs/src/option/ccsbcs.c **** 	0x00A0, 0x00A1, 0x00A2, 0x00A3, 0x00A4, 0x00A5, 0x00A6, 0x00A7,
 480:Middlewares/Third_Party/FatFs/src/option/ccsbcs.c **** 	0x00A8, 0x00A9, 0x00AA, 0x00AB, 0x00AC, 0x00AD, 0x00AE, 0x00AF,
 481:Middlewares/Third_Party/FatFs/src/option/ccsbcs.c **** 	0x00B0, 0x00B1, 0x00B2, 0x00B3, 0x00B4, 0x00B5, 0x00B6, 0x00B7,
 482:Middlewares/Third_Party/FatFs/src/option/ccsbcs.c **** 	0x00B8, 0x00B9, 0x00BA, 0x00BB, 0x00BC, 0x00BD, 0x00BE, 0x00BF,
 483:Middlewares/Third_Party/FatFs/src/option/ccsbcs.c **** 	0x00C0, 0x00C1, 0x00C2, 0x0102, 0x00C4, 0x00C5, 0x00C6, 0x00C7,
 484:Middlewares/Third_Party/FatFs/src/option/ccsbcs.c **** 	0x00C8, 0x00C9, 0x00CA, 0x00CB, 0x0300, 0x00CD, 0x00CE, 0x00CF,
 485:Middlewares/Third_Party/FatFs/src/option/ccsbcs.c **** 	0x0110, 0x00D1, 0x0309, 0x00D3, 0x00D4, 0x01A0, 0x00D6, 0x00D7,
 486:Middlewares/Third_Party/FatFs/src/option/ccsbcs.c **** 	0x00D8, 0x00D9, 0x00DA, 0x00DB, 0x00DC, 0x01AF, 0x0303, 0x00DF,
 487:Middlewares/Third_Party/FatFs/src/option/ccsbcs.c **** 	0x00E0, 0x00E1, 0x00E2, 0x0103, 0x00E4, 0x00E5, 0x00E6, 0x00E7,
 488:Middlewares/Third_Party/FatFs/src/option/ccsbcs.c **** 	0x00E8, 0x00E9, 0x00EA, 0x00EB, 0x0301, 0x00ED, 0x00EE, 0x00EF,
 489:Middlewares/Third_Party/FatFs/src/option/ccsbcs.c **** 	0x0111, 0x00F1, 0x0323, 0x00F3, 0x00F4, 0x01A1, 0x00F6, 0x00F7,
ARM GAS  /tmp/cc6V3UeM.s 			page 10


 490:Middlewares/Third_Party/FatFs/src/option/ccsbcs.c **** 	0x00F8, 0x00F9, 0x00FA, 0x00FB, 0x00FC, 0x01B0, 0x20AB, 0x00FF
 491:Middlewares/Third_Party/FatFs/src/option/ccsbcs.c **** };
 492:Middlewares/Third_Party/FatFs/src/option/ccsbcs.c **** 
 493:Middlewares/Third_Party/FatFs/src/option/ccsbcs.c **** #endif
 494:Middlewares/Third_Party/FatFs/src/option/ccsbcs.c **** 
 495:Middlewares/Third_Party/FatFs/src/option/ccsbcs.c **** 
 496:Middlewares/Third_Party/FatFs/src/option/ccsbcs.c **** #if !_TBLDEF || !_USE_LFN
 497:Middlewares/Third_Party/FatFs/src/option/ccsbcs.c **** #error This file is not needed in current configuration. Remove from the project.
 498:Middlewares/Third_Party/FatFs/src/option/ccsbcs.c **** #endif
 499:Middlewares/Third_Party/FatFs/src/option/ccsbcs.c **** 
 500:Middlewares/Third_Party/FatFs/src/option/ccsbcs.c **** 
 501:Middlewares/Third_Party/FatFs/src/option/ccsbcs.c **** WCHAR ff_convert (	/* Converted character, Returns zero on error */
 502:Middlewares/Third_Party/FatFs/src/option/ccsbcs.c **** 	WCHAR	chr,	/* Character code to be converted */
 503:Middlewares/Third_Party/FatFs/src/option/ccsbcs.c **** 	UINT	dir		/* 0: Unicode to OEMCP, 1: OEMCP to Unicode */
 504:Middlewares/Third_Party/FatFs/src/option/ccsbcs.c **** )
 505:Middlewares/Third_Party/FatFs/src/option/ccsbcs.c **** {
  26              		.loc 1 505 0
  27              		.cfi_startproc
  28              		@ args = 0, pretend = 0, frame = 0
  29              		@ frame_needed = 0, uses_anonymous_args = 0
  30              		@ link register save eliminated.
  31              	.LVL0:
 506:Middlewares/Third_Party/FatFs/src/option/ccsbcs.c **** 	WCHAR c;
 507:Middlewares/Third_Party/FatFs/src/option/ccsbcs.c **** 
 508:Middlewares/Third_Party/FatFs/src/option/ccsbcs.c **** 
 509:Middlewares/Third_Party/FatFs/src/option/ccsbcs.c **** 	if (chr < 0x80) {	/* ASCII */
  32              		.loc 1 509 0
  33 0000 7F28     		cmp	r0, #127
  34 0002 16D9     		bls	.L2
 510:Middlewares/Third_Party/FatFs/src/option/ccsbcs.c **** 		c = chr;
 511:Middlewares/Third_Party/FatFs/src/option/ccsbcs.c **** 
 512:Middlewares/Third_Party/FatFs/src/option/ccsbcs.c **** 	} else {
 513:Middlewares/Third_Party/FatFs/src/option/ccsbcs.c **** 		if (dir) {		/* OEMCP to Unicode */
  35              		.loc 1 513 0
  36 0004 31B1     		cbz	r1, .L7
 514:Middlewares/Third_Party/FatFs/src/option/ccsbcs.c **** 			c = (chr >= 0x100) ? 0 : Tbl[chr - 0x80];
  37              		.loc 1 514 0
  38 0006 FF28     		cmp	r0, #255
  39 0008 12D8     		bhi	.L8
  40              		.loc 1 514 0 is_stmt 0 discriminator 1
  41 000a 8038     		subs	r0, r0, #128
  42              	.LVL1:
  43 000c 094B     		ldr	r3, .L9
  44 000e 33F81000 		ldrh	r0, [r3, r0, lsl #1]
  45 0012 7047     		bx	lr
  46              	.LVL2:
  47              	.L7:
 515:Middlewares/Third_Party/FatFs/src/option/ccsbcs.c **** 
 516:Middlewares/Third_Party/FatFs/src/option/ccsbcs.c **** 		} else {		/* Unicode to OEMCP */
 517:Middlewares/Third_Party/FatFs/src/option/ccsbcs.c **** 			for (c = 0; c < 0x80; c++) {
  48              		.loc 1 517 0 is_stmt 1
  49 0014 0023     		movs	r3, #0
  50              	.L3:
  51              	.LVL3:
  52              		.loc 1 517 0 is_stmt 0 discriminator 1
  53 0016 7F2B     		cmp	r3, #127
  54 0018 07D8     		bhi	.L4
ARM GAS  /tmp/cc6V3UeM.s 			page 11


 518:Middlewares/Third_Party/FatFs/src/option/ccsbcs.c **** 				if (chr == Tbl[c]) break;
  55              		.loc 1 518 0 is_stmt 1
  56 001a 064A     		ldr	r2, .L9
  57 001c 32F81320 		ldrh	r2, [r2, r3, lsl #1]
  58 0020 8242     		cmp	r2, r0
  59 0022 02D0     		beq	.L4
 517:Middlewares/Third_Party/FatFs/src/option/ccsbcs.c **** 				if (chr == Tbl[c]) break;
  60              		.loc 1 517 0 discriminator 2
  61 0024 0133     		adds	r3, r3, #1
  62              	.LVL4:
  63 0026 9BB2     		uxth	r3, r3
  64              	.LVL5:
  65 0028 F5E7     		b	.L3
  66              	.L4:
 519:Middlewares/Third_Party/FatFs/src/option/ccsbcs.c **** 			}
 520:Middlewares/Third_Party/FatFs/src/option/ccsbcs.c **** 			c = (c + 0x80) & 0xFF;
  67              		.loc 1 520 0
  68 002a 8033     		adds	r3, r3, #128
  69              	.LVL6:
  70 002c D8B2     		uxtb	r0, r3
  71              	.LVL7:
  72 002e 7047     		bx	lr
  73              	.LVL8:
  74              	.L8:
 514:Middlewares/Third_Party/FatFs/src/option/ccsbcs.c **** 
  75              		.loc 1 514 0
  76 0030 0020     		movs	r0, #0
  77              	.LVL9:
  78              	.L2:
 521:Middlewares/Third_Party/FatFs/src/option/ccsbcs.c **** 		}
 522:Middlewares/Third_Party/FatFs/src/option/ccsbcs.c **** 	}
 523:Middlewares/Third_Party/FatFs/src/option/ccsbcs.c **** 
 524:Middlewares/Third_Party/FatFs/src/option/ccsbcs.c **** 	return c;
 525:Middlewares/Third_Party/FatFs/src/option/ccsbcs.c **** }
  79              		.loc 1 525 0
  80 0032 7047     		bx	lr
  81              	.L10:
  82              		.align	2
  83              	.L9:
  84 0034 00000000 		.word	.LANCHOR0
  85              		.cfi_endproc
  86              	.LFE66:
  88              		.section	.text.ff_wtoupper,"ax",%progbits
  89              		.align	1
  90              		.global	ff_wtoupper
  91              		.syntax unified
  92              		.thumb
  93              		.thumb_func
  94              		.fpu softvfp
  96              	ff_wtoupper:
  97              	.LFB67:
 526:Middlewares/Third_Party/FatFs/src/option/ccsbcs.c **** 
 527:Middlewares/Third_Party/FatFs/src/option/ccsbcs.c **** 
 528:Middlewares/Third_Party/FatFs/src/option/ccsbcs.c **** WCHAR ff_wtoupper (	/* Upper converted character */
 529:Middlewares/Third_Party/FatFs/src/option/ccsbcs.c **** 	WCHAR chr		/* Input character */
 530:Middlewares/Third_Party/FatFs/src/option/ccsbcs.c **** )
 531:Middlewares/Third_Party/FatFs/src/option/ccsbcs.c **** {
ARM GAS  /tmp/cc6V3UeM.s 			page 12


  98              		.loc 1 531 0
  99              		.cfi_startproc
 100              		@ args = 0, pretend = 0, frame = 0
 101              		@ frame_needed = 0, uses_anonymous_args = 0
 102              		@ link register save eliminated.
 103              	.LVL10:
 532:Middlewares/Third_Party/FatFs/src/option/ccsbcs.c **** 	static const WCHAR tbl_lower[] = { 0x61, 0x62, 0x63, 0x64, 0x65, 0x66, 0x67, 0x68, 0x69, 0x6A, 0x6
 533:Middlewares/Third_Party/FatFs/src/option/ccsbcs.c **** 	static const WCHAR tbl_upper[] = { 0x41, 0x42, 0x43, 0x44, 0x45, 0x46, 0x47, 0x48, 0x49, 0x4A, 0x4
 534:Middlewares/Third_Party/FatFs/src/option/ccsbcs.c **** 	int i;
 535:Middlewares/Third_Party/FatFs/src/option/ccsbcs.c **** 
 536:Middlewares/Third_Party/FatFs/src/option/ccsbcs.c **** 
 537:Middlewares/Third_Party/FatFs/src/option/ccsbcs.c **** 	for (i = 0; tbl_lower[i] && chr != tbl_lower[i]; i++) ;
 104              		.loc 1 537 0
 105 0000 0022     		movs	r2, #0
 106 0002 00E0     		b	.L12
 107              	.LVL11:
 108              	.L14:
 109              		.loc 1 537 0 is_stmt 0 discriminator 4
 110 0004 0132     		adds	r2, r2, #1
 111              	.LVL12:
 112              	.L12:
 113              		.loc 1 537 0 discriminator 1
 114 0006 054B     		ldr	r3, .L17
 115 0008 33F81230 		ldrh	r3, [r3, r2, lsl #1]
 116 000c 0BB1     		cbz	r3, .L13
 117              		.loc 1 537 0 discriminator 3
 118 000e 8342     		cmp	r3, r0
 119 0010 F8D1     		bne	.L14
 120              	.L13:
 538:Middlewares/Third_Party/FatFs/src/option/ccsbcs.c **** 
 539:Middlewares/Third_Party/FatFs/src/option/ccsbcs.c **** 	return tbl_lower[i] ? tbl_upper[i] : chr;
 121              		.loc 1 539 0 is_stmt 1
 122 0012 13B1     		cbz	r3, .L15
 123              		.loc 1 539 0 is_stmt 0 discriminator 1
 124 0014 024B     		ldr	r3, .L17+4
 125 0016 33F81200 		ldrh	r0, [r3, r2, lsl #1]
 126              	.LVL13:
 127              	.L15:
 540:Middlewares/Third_Party/FatFs/src/option/ccsbcs.c **** }
 128              		.loc 1 540 0 is_stmt 1 discriminator 4
 129 001a 7047     		bx	lr
 130              	.L18:
 131              		.align	2
 132              	.L17:
 133 001c 00000000 		.word	.LANCHOR1
 134 0020 00000000 		.word	.LANCHOR2
 135              		.cfi_endproc
 136              	.LFE67:
 138              		.section	.rodata.Tbl,"a",%progbits
 139              		.align	2
 140              		.set	.LANCHOR0,. + 0
 143              	Tbl:
 144 0000 1004     		.short	1040
 145 0002 1104     		.short	1041
 146 0004 1204     		.short	1042
 147 0006 1304     		.short	1043
 148 0008 1404     		.short	1044
ARM GAS  /tmp/cc6V3UeM.s 			page 13


 149 000a 1504     		.short	1045
 150 000c 1604     		.short	1046
 151 000e 1704     		.short	1047
 152 0010 1804     		.short	1048
 153 0012 1904     		.short	1049
 154 0014 1A04     		.short	1050
 155 0016 1B04     		.short	1051
 156 0018 1C04     		.short	1052
 157 001a 1D04     		.short	1053
 158 001c 1E04     		.short	1054
 159 001e 1F04     		.short	1055
 160 0020 2004     		.short	1056
 161 0022 2104     		.short	1057
 162 0024 2204     		.short	1058
 163 0026 2304     		.short	1059
 164 0028 2404     		.short	1060
 165 002a 2504     		.short	1061
 166 002c 2604     		.short	1062
 167 002e 2704     		.short	1063
 168 0030 2804     		.short	1064
 169 0032 2904     		.short	1065
 170 0034 2A04     		.short	1066
 171 0036 2B04     		.short	1067
 172 0038 2C04     		.short	1068
 173 003a 2D04     		.short	1069
 174 003c 2E04     		.short	1070
 175 003e 2F04     		.short	1071
 176 0040 3004     		.short	1072
 177 0042 3104     		.short	1073
 178 0044 3204     		.short	1074
 179 0046 3304     		.short	1075
 180 0048 3404     		.short	1076
 181 004a 3504     		.short	1077
 182 004c 3604     		.short	1078
 183 004e 3704     		.short	1079
 184 0050 3804     		.short	1080
 185 0052 3904     		.short	1081
 186 0054 3A04     		.short	1082
 187 0056 3B04     		.short	1083
 188 0058 3C04     		.short	1084
 189 005a 3D04     		.short	1085
 190 005c 3E04     		.short	1086
 191 005e 3F04     		.short	1087
 192 0060 9125     		.short	9617
 193 0062 9225     		.short	9618
 194 0064 9325     		.short	9619
 195 0066 0225     		.short	9474
 196 0068 2425     		.short	9508
 197 006a 6125     		.short	9569
 198 006c 6225     		.short	9570
 199 006e 5625     		.short	9558
 200 0070 5525     		.short	9557
 201 0072 6325     		.short	9571
 202 0074 5125     		.short	9553
 203 0076 5725     		.short	9559
 204 0078 5D25     		.short	9565
 205 007a 5C25     		.short	9564
ARM GAS  /tmp/cc6V3UeM.s 			page 14


 206 007c 5B25     		.short	9563
 207 007e 1025     		.short	9488
 208 0080 1425     		.short	9492
 209 0082 3425     		.short	9524
 210 0084 2C25     		.short	9516
 211 0086 1C25     		.short	9500
 212 0088 0025     		.short	9472
 213 008a 3C25     		.short	9532
 214 008c 5E25     		.short	9566
 215 008e 5F25     		.short	9567
 216 0090 5A25     		.short	9562
 217 0092 5425     		.short	9556
 218 0094 6925     		.short	9577
 219 0096 6625     		.short	9574
 220 0098 6025     		.short	9568
 221 009a 5025     		.short	9552
 222 009c 6C25     		.short	9580
 223 009e 6725     		.short	9575
 224 00a0 6825     		.short	9576
 225 00a2 6425     		.short	9572
 226 00a4 6525     		.short	9573
 227 00a6 5925     		.short	9561
 228 00a8 5825     		.short	9560
 229 00aa 5225     		.short	9554
 230 00ac 5325     		.short	9555
 231 00ae 6B25     		.short	9579
 232 00b0 6A25     		.short	9578
 233 00b2 1825     		.short	9496
 234 00b4 0C25     		.short	9484
 235 00b6 8825     		.short	9608
 236 00b8 8425     		.short	9604
 237 00ba 8C25     		.short	9612
 238 00bc 9025     		.short	9616
 239 00be 8025     		.short	9600
 240 00c0 4004     		.short	1088
 241 00c2 4104     		.short	1089
 242 00c4 4204     		.short	1090
 243 00c6 4304     		.short	1091
 244 00c8 4404     		.short	1092
 245 00ca 4504     		.short	1093
 246 00cc 4604     		.short	1094
 247 00ce 4704     		.short	1095
 248 00d0 4804     		.short	1096
 249 00d2 4904     		.short	1097
 250 00d4 4A04     		.short	1098
 251 00d6 4B04     		.short	1099
 252 00d8 4C04     		.short	1100
 253 00da 4D04     		.short	1101
 254 00dc 4E04     		.short	1102
 255 00de 4F04     		.short	1103
 256 00e0 0104     		.short	1025
 257 00e2 5104     		.short	1105
 258 00e4 0404     		.short	1028
 259 00e6 5404     		.short	1108
 260 00e8 0704     		.short	1031
 261 00ea 5704     		.short	1111
 262 00ec 0E04     		.short	1038
ARM GAS  /tmp/cc6V3UeM.s 			page 15


 263 00ee 5E04     		.short	1118
 264 00f0 B000     		.short	176
 265 00f2 1922     		.short	8729
 266 00f4 B700     		.short	183
 267 00f6 1A22     		.short	8730
 268 00f8 1621     		.short	8470
 269 00fa A400     		.short	164
 270 00fc A025     		.short	9632
 271 00fe A000     		.short	160
 272              		.section	.rodata.tbl_lower.8782,"a",%progbits
 273              		.align	2
 274              		.set	.LANCHOR1,. + 0
 277              	tbl_lower.8782:
 278 0000 6100     		.short	97
 279 0002 6200     		.short	98
 280 0004 6300     		.short	99
 281 0006 6400     		.short	100
 282 0008 6500     		.short	101
 283 000a 6600     		.short	102
 284 000c 6700     		.short	103
 285 000e 6800     		.short	104
 286 0010 6900     		.short	105
 287 0012 6A00     		.short	106
 288 0014 6B00     		.short	107
 289 0016 6C00     		.short	108
 290 0018 6D00     		.short	109
 291 001a 6E00     		.short	110
 292 001c 6F00     		.short	111
 293 001e 7000     		.short	112
 294 0020 7100     		.short	113
 295 0022 7200     		.short	114
 296 0024 7300     		.short	115
 297 0026 7400     		.short	116
 298 0028 7500     		.short	117
 299 002a 7600     		.short	118
 300 002c 7700     		.short	119
 301 002e 7800     		.short	120
 302 0030 7900     		.short	121
 303 0032 7A00     		.short	122
 304 0034 A100     		.short	161
 305 0036 A200     		.short	162
 306 0038 A300     		.short	163
 307 003a A500     		.short	165
 308 003c AC00     		.short	172
 309 003e AF00     		.short	175
 310 0040 E000     		.short	224
 311 0042 E100     		.short	225
 312 0044 E200     		.short	226
 313 0046 E300     		.short	227
 314 0048 E400     		.short	228
 315 004a E500     		.short	229
 316 004c E600     		.short	230
 317 004e E700     		.short	231
 318 0050 E800     		.short	232
 319 0052 E900     		.short	233
 320 0054 EA00     		.short	234
 321 0056 EB00     		.short	235
ARM GAS  /tmp/cc6V3UeM.s 			page 16


 322 0058 EC00     		.short	236
 323 005a ED00     		.short	237
 324 005c EE00     		.short	238
 325 005e EF00     		.short	239
 326 0060 F000     		.short	240
 327 0062 F100     		.short	241
 328 0064 F200     		.short	242
 329 0066 F300     		.short	243
 330 0068 F400     		.short	244
 331 006a F500     		.short	245
 332 006c F600     		.short	246
 333 006e F800     		.short	248
 334 0070 F900     		.short	249
 335 0072 FA00     		.short	250
 336 0074 FB00     		.short	251
 337 0076 FC00     		.short	252
 338 0078 FD00     		.short	253
 339 007a FE00     		.short	254
 340 007c FF00     		.short	255
 341 007e 0101     		.short	257
 342 0080 0301     		.short	259
 343 0082 0501     		.short	261
 344 0084 0701     		.short	263
 345 0086 0901     		.short	265
 346 0088 0B01     		.short	267
 347 008a 0D01     		.short	269
 348 008c 0F01     		.short	271
 349 008e 1101     		.short	273
 350 0090 1301     		.short	275
 351 0092 1501     		.short	277
 352 0094 1701     		.short	279
 353 0096 1901     		.short	281
 354 0098 1B01     		.short	283
 355 009a 1D01     		.short	285
 356 009c 1F01     		.short	287
 357 009e 2101     		.short	289
 358 00a0 2301     		.short	291
 359 00a2 2501     		.short	293
 360 00a4 2701     		.short	295
 361 00a6 2901     		.short	297
 362 00a8 2B01     		.short	299
 363 00aa 2D01     		.short	301
 364 00ac 2F01     		.short	303
 365 00ae 3101     		.short	305
 366 00b0 3301     		.short	307
 367 00b2 3501     		.short	309
 368 00b4 3701     		.short	311
 369 00b6 3A01     		.short	314
 370 00b8 3C01     		.short	316
 371 00ba 3E01     		.short	318
 372 00bc 4001     		.short	320
 373 00be 4201     		.short	322
 374 00c0 4401     		.short	324
 375 00c2 4601     		.short	326
 376 00c4 4801     		.short	328
 377 00c6 4B01     		.short	331
 378 00c8 4D01     		.short	333
ARM GAS  /tmp/cc6V3UeM.s 			page 17


 379 00ca 4F01     		.short	335
 380 00cc 5101     		.short	337
 381 00ce 5301     		.short	339
 382 00d0 5501     		.short	341
 383 00d2 5701     		.short	343
 384 00d4 5901     		.short	345
 385 00d6 5B01     		.short	347
 386 00d8 5D01     		.short	349
 387 00da 5F01     		.short	351
 388 00dc 6101     		.short	353
 389 00de 6301     		.short	355
 390 00e0 6501     		.short	357
 391 00e2 6701     		.short	359
 392 00e4 6901     		.short	361
 393 00e6 6B01     		.short	363
 394 00e8 6D01     		.short	365
 395 00ea 6F01     		.short	367
 396 00ec 7101     		.short	369
 397 00ee 7301     		.short	371
 398 00f0 7501     		.short	373
 399 00f2 7701     		.short	375
 400 00f4 7A01     		.short	378
 401 00f6 7C01     		.short	380
 402 00f8 7E01     		.short	382
 403 00fa 9201     		.short	402
 404 00fc B103     		.short	945
 405 00fe B203     		.short	946
 406 0100 B303     		.short	947
 407 0102 B403     		.short	948
 408 0104 B503     		.short	949
 409 0106 B603     		.short	950
 410 0108 B703     		.short	951
 411 010a B803     		.short	952
 412 010c B903     		.short	953
 413 010e BA03     		.short	954
 414 0110 BB03     		.short	955
 415 0112 BC03     		.short	956
 416 0114 BD03     		.short	957
 417 0116 BE03     		.short	958
 418 0118 BF03     		.short	959
 419 011a C003     		.short	960
 420 011c C103     		.short	961
 421 011e C303     		.short	963
 422 0120 C403     		.short	964
 423 0122 C503     		.short	965
 424 0124 C603     		.short	966
 425 0126 C703     		.short	967
 426 0128 C803     		.short	968
 427 012a C903     		.short	969
 428 012c CA03     		.short	970
 429 012e 3004     		.short	1072
 430 0130 3104     		.short	1073
 431 0132 3204     		.short	1074
 432 0134 3304     		.short	1075
 433 0136 3404     		.short	1076
 434 0138 3504     		.short	1077
 435 013a 3604     		.short	1078
ARM GAS  /tmp/cc6V3UeM.s 			page 18


 436 013c 3704     		.short	1079
 437 013e 3804     		.short	1080
 438 0140 3904     		.short	1081
 439 0142 3A04     		.short	1082
 440 0144 3B04     		.short	1083
 441 0146 3C04     		.short	1084
 442 0148 3D04     		.short	1085
 443 014a 3E04     		.short	1086
 444 014c 3F04     		.short	1087
 445 014e 4004     		.short	1088
 446 0150 4104     		.short	1089
 447 0152 4204     		.short	1090
 448 0154 4304     		.short	1091
 449 0156 4404     		.short	1092
 450 0158 4504     		.short	1093
 451 015a 4604     		.short	1094
 452 015c 4704     		.short	1095
 453 015e 4804     		.short	1096
 454 0160 4904     		.short	1097
 455 0162 4A04     		.short	1098
 456 0164 4B04     		.short	1099
 457 0166 4C04     		.short	1100
 458 0168 4D04     		.short	1101
 459 016a 4E04     		.short	1102
 460 016c 4F04     		.short	1103
 461 016e 5104     		.short	1105
 462 0170 5204     		.short	1106
 463 0172 5304     		.short	1107
 464 0174 5404     		.short	1108
 465 0176 5504     		.short	1109
 466 0178 5604     		.short	1110
 467 017a 5704     		.short	1111
 468 017c 5804     		.short	1112
 469 017e 5904     		.short	1113
 470 0180 5A04     		.short	1114
 471 0182 5B04     		.short	1115
 472 0184 5C04     		.short	1116
 473 0186 5E04     		.short	1118
 474 0188 5F04     		.short	1119
 475 018a 7021     		.short	8560
 476 018c 7121     		.short	8561
 477 018e 7221     		.short	8562
 478 0190 7321     		.short	8563
 479 0192 7421     		.short	8564
 480 0194 7521     		.short	8565
 481 0196 7621     		.short	8566
 482 0198 7721     		.short	8567
 483 019a 7821     		.short	8568
 484 019c 7921     		.short	8569
 485 019e 7A21     		.short	8570
 486 01a0 7B21     		.short	8571
 487 01a2 7C21     		.short	8572
 488 01a4 7D21     		.short	8573
 489 01a6 7E21     		.short	8574
 490 01a8 7F21     		.short	8575
 491 01aa 41FF     		.short	-191
 492 01ac 42FF     		.short	-190
ARM GAS  /tmp/cc6V3UeM.s 			page 19


 493 01ae 43FF     		.short	-189
 494 01b0 44FF     		.short	-188
 495 01b2 45FF     		.short	-187
 496 01b4 46FF     		.short	-186
 497 01b6 47FF     		.short	-185
 498 01b8 48FF     		.short	-184
 499 01ba 49FF     		.short	-183
 500 01bc 4AFF     		.short	-182
 501 01be 4BFF     		.short	-181
 502 01c0 4CFF     		.short	-180
 503 01c2 4DFF     		.short	-179
 504 01c4 4EFF     		.short	-178
 505 01c6 4FFF     		.short	-177
 506 01c8 50FF     		.short	-176
 507 01ca 51FF     		.short	-175
 508 01cc 52FF     		.short	-174
 509 01ce 53FF     		.short	-173
 510 01d0 54FF     		.short	-172
 511 01d2 55FF     		.short	-171
 512 01d4 56FF     		.short	-170
 513 01d6 57FF     		.short	-169
 514 01d8 58FF     		.short	-168
 515 01da 59FF     		.short	-167
 516 01dc 5AFF     		.short	-166
 517 01de 0000     		.short	0
 518              		.section	.rodata.tbl_upper.8783,"a",%progbits
 519              		.align	2
 520              		.set	.LANCHOR2,. + 0
 523              	tbl_upper.8783:
 524 0000 4100     		.short	65
 525 0002 4200     		.short	66
 526 0004 4300     		.short	67
 527 0006 4400     		.short	68
 528 0008 4500     		.short	69
 529 000a 4600     		.short	70
 530 000c 4700     		.short	71
 531 000e 4800     		.short	72
 532 0010 4900     		.short	73
 533 0012 4A00     		.short	74
 534 0014 4B00     		.short	75
 535 0016 4C00     		.short	76
 536 0018 4D00     		.short	77
 537 001a 4E00     		.short	78
 538 001c 4F00     		.short	79
 539 001e 5000     		.short	80
 540 0020 5100     		.short	81
 541 0022 5200     		.short	82
 542 0024 5300     		.short	83
 543 0026 5400     		.short	84
 544 0028 5500     		.short	85
 545 002a 5600     		.short	86
 546 002c 5700     		.short	87
 547 002e 5800     		.short	88
 548 0030 5900     		.short	89
 549 0032 5A00     		.short	90
 550 0034 2100     		.short	33
 551 0036 E0FF     		.short	-32
ARM GAS  /tmp/cc6V3UeM.s 			page 20


 552 0038 E1FF     		.short	-31
 553 003a E5FF     		.short	-27
 554 003c E2FF     		.short	-30
 555 003e E3FF     		.short	-29
 556 0040 C000     		.short	192
 557 0042 C100     		.short	193
 558 0044 C200     		.short	194
 559 0046 C300     		.short	195
 560 0048 C400     		.short	196
 561 004a C500     		.short	197
 562 004c C600     		.short	198
 563 004e C700     		.short	199
 564 0050 C800     		.short	200
 565 0052 C900     		.short	201
 566 0054 CA00     		.short	202
 567 0056 CB00     		.short	203
 568 0058 CC00     		.short	204
 569 005a CD00     		.short	205
 570 005c CE00     		.short	206
 571 005e CF00     		.short	207
 572 0060 D000     		.short	208
 573 0062 D100     		.short	209
 574 0064 D200     		.short	210
 575 0066 D300     		.short	211
 576 0068 D400     		.short	212
 577 006a D500     		.short	213
 578 006c D600     		.short	214
 579 006e D800     		.short	216
 580 0070 D900     		.short	217
 581 0072 DA00     		.short	218
 582 0074 DB00     		.short	219
 583 0076 DC00     		.short	220
 584 0078 DD00     		.short	221
 585 007a DE00     		.short	222
 586 007c 7801     		.short	376
 587 007e 0001     		.short	256
 588 0080 0201     		.short	258
 589 0082 0401     		.short	260
 590 0084 0601     		.short	262
 591 0086 0801     		.short	264
 592 0088 0A01     		.short	266
 593 008a 0C01     		.short	268
 594 008c 0E01     		.short	270
 595 008e 1001     		.short	272
 596 0090 1201     		.short	274
 597 0092 1401     		.short	276
 598 0094 1601     		.short	278
 599 0096 1801     		.short	280
 600 0098 1A01     		.short	282
 601 009a 1C01     		.short	284
 602 009c 1E01     		.short	286
 603 009e 2001     		.short	288
 604 00a0 2201     		.short	290
 605 00a2 2401     		.short	292
 606 00a4 2601     		.short	294
 607 00a6 2801     		.short	296
 608 00a8 2A01     		.short	298
ARM GAS  /tmp/cc6V3UeM.s 			page 21


 609 00aa 2C01     		.short	300
 610 00ac 2E01     		.short	302
 611 00ae 3001     		.short	304
 612 00b0 3201     		.short	306
 613 00b2 3401     		.short	308
 614 00b4 3601     		.short	310
 615 00b6 3901     		.short	313
 616 00b8 3B01     		.short	315
 617 00ba 3D01     		.short	317
 618 00bc 3F01     		.short	319
 619 00be 4101     		.short	321
 620 00c0 4301     		.short	323
 621 00c2 4501     		.short	325
 622 00c4 4701     		.short	327
 623 00c6 4A01     		.short	330
 624 00c8 4C01     		.short	332
 625 00ca 4E01     		.short	334
 626 00cc 5001     		.short	336
 627 00ce 5201     		.short	338
 628 00d0 5401     		.short	340
 629 00d2 5601     		.short	342
 630 00d4 5801     		.short	344
 631 00d6 5A01     		.short	346
 632 00d8 5C01     		.short	348
 633 00da 5E01     		.short	350
 634 00dc 6001     		.short	352
 635 00de 6201     		.short	354
 636 00e0 6401     		.short	356
 637 00e2 6601     		.short	358
 638 00e4 6801     		.short	360
 639 00e6 6A01     		.short	362
 640 00e8 6C01     		.short	364
 641 00ea 6E01     		.short	366
 642 00ec 7001     		.short	368
 643 00ee 7201     		.short	370
 644 00f0 7401     		.short	372
 645 00f2 7601     		.short	374
 646 00f4 7901     		.short	377
 647 00f6 7B01     		.short	379
 648 00f8 7D01     		.short	381
 649 00fa 9101     		.short	401
 650 00fc 9103     		.short	913
 651 00fe 9203     		.short	914
 652 0100 9303     		.short	915
 653 0102 9403     		.short	916
 654 0104 9503     		.short	917
 655 0106 9603     		.short	918
 656 0108 9703     		.short	919
 657 010a 9803     		.short	920
 658 010c 9903     		.short	921
 659 010e 9A03     		.short	922
 660 0110 9B03     		.short	923
 661 0112 9C03     		.short	924
 662 0114 9D03     		.short	925
 663 0116 9E03     		.short	926
 664 0118 9F03     		.short	927
 665 011a A003     		.short	928
ARM GAS  /tmp/cc6V3UeM.s 			page 22


 666 011c A103     		.short	929
 667 011e A303     		.short	931
 668 0120 A403     		.short	932
 669 0122 A503     		.short	933
 670 0124 A603     		.short	934
 671 0126 A703     		.short	935
 672 0128 A803     		.short	936
 673 012a A903     		.short	937
 674 012c AA03     		.short	938
 675 012e 1004     		.short	1040
 676 0130 1104     		.short	1041
 677 0132 1204     		.short	1042
 678 0134 1304     		.short	1043
 679 0136 1404     		.short	1044
 680 0138 1504     		.short	1045
 681 013a 1604     		.short	1046
 682 013c 1704     		.short	1047
 683 013e 1804     		.short	1048
 684 0140 1904     		.short	1049
 685 0142 1A04     		.short	1050
 686 0144 1B04     		.short	1051
 687 0146 1C04     		.short	1052
 688 0148 1D04     		.short	1053
 689 014a 1E04     		.short	1054
 690 014c 1F04     		.short	1055
 691 014e 2004     		.short	1056
 692 0150 2104     		.short	1057
 693 0152 2204     		.short	1058
 694 0154 2304     		.short	1059
 695 0156 2404     		.short	1060
 696 0158 2504     		.short	1061
 697 015a 2604     		.short	1062
 698 015c 2704     		.short	1063
 699 015e 2804     		.short	1064
 700 0160 2904     		.short	1065
 701 0162 2A04     		.short	1066
 702 0164 2B04     		.short	1067
 703 0166 2C04     		.short	1068
 704 0168 2D04     		.short	1069
 705 016a 2E04     		.short	1070
 706 016c 2F04     		.short	1071
 707 016e 0104     		.short	1025
 708 0170 0204     		.short	1026
 709 0172 0304     		.short	1027
 710 0174 0404     		.short	1028
 711 0176 0504     		.short	1029
 712 0178 0604     		.short	1030
 713 017a 0704     		.short	1031
 714 017c 0804     		.short	1032
 715 017e 0904     		.short	1033
 716 0180 0A04     		.short	1034
 717 0182 0B04     		.short	1035
 718 0184 0C04     		.short	1036
 719 0186 0E04     		.short	1038
 720 0188 0F04     		.short	1039
 721 018a 6021     		.short	8544
 722 018c 6121     		.short	8545
ARM GAS  /tmp/cc6V3UeM.s 			page 23


 723 018e 6221     		.short	8546
 724 0190 6321     		.short	8547
 725 0192 6421     		.short	8548
 726 0194 6521     		.short	8549
 727 0196 6621     		.short	8550
 728 0198 6721     		.short	8551
 729 019a 6821     		.short	8552
 730 019c 6921     		.short	8553
 731 019e 6A21     		.short	8554
 732 01a0 6B21     		.short	8555
 733 01a2 6C21     		.short	8556
 734 01a4 6D21     		.short	8557
 735 01a6 6E21     		.short	8558
 736 01a8 6F21     		.short	8559
 737 01aa 21FF     		.short	-223
 738 01ac 22FF     		.short	-222
 739 01ae 23FF     		.short	-221
 740 01b0 24FF     		.short	-220
 741 01b2 25FF     		.short	-219
 742 01b4 26FF     		.short	-218
 743 01b6 27FF     		.short	-217
 744 01b8 28FF     		.short	-216
 745 01ba 29FF     		.short	-215
 746 01bc 2AFF     		.short	-214
 747 01be 2BFF     		.short	-213
 748 01c0 2CFF     		.short	-212
 749 01c2 2DFF     		.short	-211
 750 01c4 2EFF     		.short	-210
 751 01c6 2FFF     		.short	-209
 752 01c8 30FF     		.short	-208
 753 01ca 31FF     		.short	-207
 754 01cc 32FF     		.short	-206
 755 01ce 33FF     		.short	-205
 756 01d0 34FF     		.short	-204
 757 01d2 35FF     		.short	-203
 758 01d4 36FF     		.short	-202
 759 01d6 37FF     		.short	-201
 760 01d8 38FF     		.short	-200
 761 01da 39FF     		.short	-199
 762 01dc 3AFF     		.short	-198
 763 01de 0000     		.short	0
 764              		.text
 765              	.Letext0:
 766              		.file 2 "Middlewares/Third_Party/FatFs/src/option/../integer.h"
 767              		.file 3 "/usr/arm-none-eabi/include/machine/_default_types.h"
 768              		.file 4 "/usr/arm-none-eabi/include/sys/_stdint.h"
 769              		.file 5 "Drivers/CMSIS/Include/core_cm3.h"
 770              		.file 6 "Drivers/CMSIS/Device/ST/STM32F1xx/Include/system_stm32f1xx.h"
 771              		.file 7 "/usr/arm-none-eabi/include/sys/lock.h"
 772              		.file 8 "/usr/arm-none-eabi/include/sys/_types.h"
 773              		.file 9 "/usr/lib/gcc/arm-none-eabi/7.3.1/include/stddef.h"
 774              		.file 10 "/usr/arm-none-eabi/include/sys/reent.h"
 775              		.file 11 "Drivers/STM32F1xx_HAL_Driver/Inc/stm32f1xx_hal.h"
 776              		.file 12 "/usr/arm-none-eabi/include/stdlib.h"
 777              		.file 13 "Middlewares/ST/STM32_USB_Host_Library/Core/Inc/usbh_def.h"
 778              		.file 14 "Middlewares/ST/STM32_USB_Host_Library/Core/Inc/usbh_ctlreq.h"
 779              		.file 15 "Middlewares/ST/STM32_USB_Host_Library/Class/MSC/Inc/usbh_msc.h"
ARM GAS  /tmp/cc6V3UeM.s 			page 24


ARM GAS  /tmp/cc6V3UeM.s 			page 25


DEFINED SYMBOLS
                            *ABS*:0000000000000000 ccsbcs.c
     /tmp/cc6V3UeM.s:16     .text.ff_convert:0000000000000000 $t
     /tmp/cc6V3UeM.s:23     .text.ff_convert:0000000000000000 ff_convert
     /tmp/cc6V3UeM.s:84     .text.ff_convert:0000000000000034 $d
     /tmp/cc6V3UeM.s:89     .text.ff_wtoupper:0000000000000000 $t
     /tmp/cc6V3UeM.s:96     .text.ff_wtoupper:0000000000000000 ff_wtoupper
     /tmp/cc6V3UeM.s:133    .text.ff_wtoupper:000000000000001c $d
     /tmp/cc6V3UeM.s:139    .rodata.Tbl:0000000000000000 $d
     /tmp/cc6V3UeM.s:143    .rodata.Tbl:0000000000000000 Tbl
     /tmp/cc6V3UeM.s:273    .rodata.tbl_lower.8782:0000000000000000 $d
     /tmp/cc6V3UeM.s:277    .rodata.tbl_lower.8782:0000000000000000 tbl_lower.8782
     /tmp/cc6V3UeM.s:519    .rodata.tbl_upper.8783:0000000000000000 $d
     /tmp/cc6V3UeM.s:523    .rodata.tbl_upper.8783:0000000000000000 tbl_upper.8783

NO UNDEFINED SYMBOLS
