ARM GAS  /tmp/ccbr5Fnn.s 			page 1


   1              		.cpu cortex-m3
   2              		.eabi_attribute 20, 1
   3              		.eabi_attribute 21, 1
   4              		.eabi_attribute 23, 3
   5              		.eabi_attribute 24, 1
   6              		.eabi_attribute 25, 1
   7              		.eabi_attribute 26, 1
   8              		.eabi_attribute 30, 1
   9              		.eabi_attribute 34, 1
  10              		.eabi_attribute 18, 4
  11              		.file	"CharacterConverter_LCD.c"
  12              		.text
  13              	.Ltext0:
  14              		.cfi_sections	.debug_frame
  15              		.section	.text.convertCharacter_LCD,"ax",%progbits
  16              		.align	1
  17              		.global	convertCharacter_LCD
  18              		.arch armv7-m
  19              		.syntax unified
  20              		.thumb
  21              		.thumb_func
  22              		.fpu softvfp
  24              	convertCharacter_LCD:
  25              	.LVL0:
  26              	.LFB0:
  27              		.file 1 "Src/LCD/CharacterConverter_LCD.c"
   1:Src/LCD/CharacterConverter_LCD.c **** #include "CharacterConverter_LCD.h"
   2:Src/LCD/CharacterConverter_LCD.c **** 
   3:Src/LCD/CharacterConverter_LCD.c **** #include "stdint.h"
   4:Src/LCD/CharacterConverter_LCD.c **** #include "unistd.h"
   5:Src/LCD/CharacterConverter_LCD.c **** #include <wchar.h>
   6:Src/LCD/CharacterConverter_LCD.c **** 
   7:Src/LCD/CharacterConverter_LCD.c **** 
   8:Src/LCD/CharacterConverter_LCD.c **** char convertCharacter_LCD(wchar_t letter)
   9:Src/LCD/CharacterConverter_LCD.c **** {
  28              		.loc 1 9 1 view -0
  29              		.cfi_startproc
  30              		@ args = 0, pretend = 0, frame = 0
  31              		@ frame_needed = 0, uses_anonymous_args = 0
  32              		@ link register save eliminated.
  10:Src/LCD/CharacterConverter_LCD.c ****     //English alphabed
  11:Src/LCD/CharacterConverter_LCD.c ****     if (letter == *L"a") return 'a';
  33              		.loc 1 11 5 view .LVU1
  34              		.loc 1 11 8 is_stmt 0 view .LVU2
  35 0000 6128     		cmp	r0, #97
  36 0002 00F04082 		beq	.L3
  12:Src/LCD/CharacterConverter_LCD.c ****     if (letter == *L"b") return 'b';
  37              		.loc 1 12 5 is_stmt 1 view .LVU3
  38              		.loc 1 12 8 is_stmt 0 view .LVU4
  39 0006 6228     		cmp	r0, #98
  40 0008 00F03F82 		beq	.L4
  13:Src/LCD/CharacterConverter_LCD.c ****     if (letter == *L"c") return 'c';
  41              		.loc 1 13 5 is_stmt 1 view .LVU5
  42              		.loc 1 13 8 is_stmt 0 view .LVU6
  43 000c 6328     		cmp	r0, #99
  44 000e 00F03E82 		beq	.L5
  14:Src/LCD/CharacterConverter_LCD.c ****     if (letter == *L"d") return 'd';
ARM GAS  /tmp/ccbr5Fnn.s 			page 2


  45              		.loc 1 14 5 is_stmt 1 view .LVU7
  46              		.loc 1 14 8 is_stmt 0 view .LVU8
  47 0012 6428     		cmp	r0, #100
  48 0014 00F03D82 		beq	.L6
  15:Src/LCD/CharacterConverter_LCD.c ****     if (letter == *L"e") return 'e';
  49              		.loc 1 15 5 is_stmt 1 view .LVU9
  50              		.loc 1 15 8 is_stmt 0 view .LVU10
  51 0018 6528     		cmp	r0, #101
  52 001a 00F03C82 		beq	.L7
  16:Src/LCD/CharacterConverter_LCD.c ****     if (letter == *L"f") return 'f';
  53              		.loc 1 16 5 is_stmt 1 view .LVU11
  54              		.loc 1 16 8 is_stmt 0 view .LVU12
  55 001e 6628     		cmp	r0, #102
  56 0020 00F03B82 		beq	.L8
  17:Src/LCD/CharacterConverter_LCD.c ****     if (letter == *L"g") return 'g';
  57              		.loc 1 17 5 is_stmt 1 view .LVU13
  58              		.loc 1 17 8 is_stmt 0 view .LVU14
  59 0024 6728     		cmp	r0, #103
  60 0026 00F03A82 		beq	.L9
  18:Src/LCD/CharacterConverter_LCD.c ****     if (letter == *L"h") return 'h';
  61              		.loc 1 18 5 is_stmt 1 view .LVU15
  62              		.loc 1 18 8 is_stmt 0 view .LVU16
  63 002a 6828     		cmp	r0, #104
  64 002c 00F03982 		beq	.L10
  19:Src/LCD/CharacterConverter_LCD.c ****     if (letter == *L"i") return 'i';
  65              		.loc 1 19 5 is_stmt 1 view .LVU17
  66              		.loc 1 19 8 is_stmt 0 view .LVU18
  67 0030 6928     		cmp	r0, #105
  68 0032 00F03882 		beq	.L11
  20:Src/LCD/CharacterConverter_LCD.c ****     if (letter == *L"j") return 'j';
  69              		.loc 1 20 5 is_stmt 1 view .LVU19
  70              		.loc 1 20 8 is_stmt 0 view .LVU20
  71 0036 6A28     		cmp	r0, #106
  72 0038 00F03782 		beq	.L12
  21:Src/LCD/CharacterConverter_LCD.c ****     if (letter == *L"k") return 'k';
  73              		.loc 1 21 5 is_stmt 1 view .LVU21
  74              		.loc 1 21 8 is_stmt 0 view .LVU22
  75 003c 6B28     		cmp	r0, #107
  76 003e 00F03682 		beq	.L13
  22:Src/LCD/CharacterConverter_LCD.c ****     if (letter == *L"l") return 'l';
  77              		.loc 1 22 5 is_stmt 1 view .LVU23
  78              		.loc 1 22 8 is_stmt 0 view .LVU24
  79 0042 6C28     		cmp	r0, #108
  80 0044 00F03582 		beq	.L14
  23:Src/LCD/CharacterConverter_LCD.c ****     if (letter == *L"m") return 'm';
  81              		.loc 1 23 5 is_stmt 1 view .LVU25
  82              		.loc 1 23 8 is_stmt 0 view .LVU26
  83 0048 6D28     		cmp	r0, #109
  84 004a 00F03482 		beq	.L15
  24:Src/LCD/CharacterConverter_LCD.c ****     if (letter == *L"n") return 'n';
  85              		.loc 1 24 5 is_stmt 1 view .LVU27
  86              		.loc 1 24 8 is_stmt 0 view .LVU28
  87 004e 6E28     		cmp	r0, #110
  88 0050 00F03382 		beq	.L16
  25:Src/LCD/CharacterConverter_LCD.c ****     if (letter == *L"o") return 'o';
  89              		.loc 1 25 5 is_stmt 1 view .LVU29
  90              		.loc 1 25 8 is_stmt 0 view .LVU30
ARM GAS  /tmp/ccbr5Fnn.s 			page 3


  91 0054 6F28     		cmp	r0, #111
  92 0056 00F03282 		beq	.L17
  26:Src/LCD/CharacterConverter_LCD.c ****     if (letter == *L"p") return 'p';
  93              		.loc 1 26 5 is_stmt 1 view .LVU31
  94              		.loc 1 26 8 is_stmt 0 view .LVU32
  95 005a 7028     		cmp	r0, #112
  96 005c 00F03182 		beq	.L18
  27:Src/LCD/CharacterConverter_LCD.c ****     if (letter == *L"q") return 'q';
  97              		.loc 1 27 5 is_stmt 1 view .LVU33
  98              		.loc 1 27 8 is_stmt 0 view .LVU34
  99 0060 7128     		cmp	r0, #113
 100 0062 00F03082 		beq	.L19
  28:Src/LCD/CharacterConverter_LCD.c ****     if (letter == *L"r") return 'r';
 101              		.loc 1 28 5 is_stmt 1 view .LVU35
 102              		.loc 1 28 8 is_stmt 0 view .LVU36
 103 0066 7228     		cmp	r0, #114
 104 0068 00F02F82 		beq	.L20
  29:Src/LCD/CharacterConverter_LCD.c ****     if (letter == *L"s") return 's';
 105              		.loc 1 29 5 is_stmt 1 view .LVU37
 106              		.loc 1 29 8 is_stmt 0 view .LVU38
 107 006c 7328     		cmp	r0, #115
 108 006e 00F02E82 		beq	.L21
  30:Src/LCD/CharacterConverter_LCD.c ****     if (letter == *L"t") return 't';
 109              		.loc 1 30 5 is_stmt 1 view .LVU39
 110              		.loc 1 30 8 is_stmt 0 view .LVU40
 111 0072 7428     		cmp	r0, #116
 112 0074 00F02D82 		beq	.L22
  31:Src/LCD/CharacterConverter_LCD.c ****     if (letter == *L"u") return 'u';
 113              		.loc 1 31 5 is_stmt 1 view .LVU41
 114              		.loc 1 31 8 is_stmt 0 view .LVU42
 115 0078 7528     		cmp	r0, #117
 116 007a 00F02C82 		beq	.L23
  32:Src/LCD/CharacterConverter_LCD.c ****     if (letter == *L"v") return 'v';
 117              		.loc 1 32 5 is_stmt 1 view .LVU43
 118              		.loc 1 32 8 is_stmt 0 view .LVU44
 119 007e 7628     		cmp	r0, #118
 120 0080 00F02B82 		beq	.L24
  33:Src/LCD/CharacterConverter_LCD.c ****     if (letter == *L"w") return 'w';
 121              		.loc 1 33 5 is_stmt 1 view .LVU45
 122              		.loc 1 33 8 is_stmt 0 view .LVU46
 123 0084 7728     		cmp	r0, #119
 124 0086 00F02A82 		beq	.L25
  34:Src/LCD/CharacterConverter_LCD.c ****     if (letter == *L"x") return 'x';
 125              		.loc 1 34 5 is_stmt 1 view .LVU47
 126              		.loc 1 34 8 is_stmt 0 view .LVU48
 127 008a 7828     		cmp	r0, #120
 128 008c 00F02982 		beq	.L26
  35:Src/LCD/CharacterConverter_LCD.c ****     if (letter == *L"y") return 'y';
 129              		.loc 1 35 5 is_stmt 1 view .LVU49
 130              		.loc 1 35 8 is_stmt 0 view .LVU50
 131 0090 7928     		cmp	r0, #121
 132 0092 00F02882 		beq	.L27
  36:Src/LCD/CharacterConverter_LCD.c ****     if (letter == *L"z") return 'z';
 133              		.loc 1 36 5 is_stmt 1 view .LVU51
 134              		.loc 1 36 8 is_stmt 0 view .LVU52
 135 0096 7A28     		cmp	r0, #122
 136 0098 00F02782 		beq	.L28
ARM GAS  /tmp/ccbr5Fnn.s 			page 4


  37:Src/LCD/CharacterConverter_LCD.c ****     if (letter == *L"A") return 'A';
 137              		.loc 1 37 5 is_stmt 1 view .LVU53
 138              		.loc 1 37 8 is_stmt 0 view .LVU54
 139 009c 4128     		cmp	r0, #65
 140 009e 00F02682 		beq	.L29
  38:Src/LCD/CharacterConverter_LCD.c ****     if (letter == *L"B") return 'B';
 141              		.loc 1 38 5 is_stmt 1 view .LVU55
 142              		.loc 1 38 8 is_stmt 0 view .LVU56
 143 00a2 4228     		cmp	r0, #66
 144 00a4 00F02582 		beq	.L30
  39:Src/LCD/CharacterConverter_LCD.c ****     if (letter == *L"C") return 'C';
 145              		.loc 1 39 5 is_stmt 1 view .LVU57
 146              		.loc 1 39 8 is_stmt 0 view .LVU58
 147 00a8 4328     		cmp	r0, #67
 148 00aa 00F02482 		beq	.L31
  40:Src/LCD/CharacterConverter_LCD.c ****     if (letter == *L"D") return 'D';
 149              		.loc 1 40 5 is_stmt 1 view .LVU59
 150              		.loc 1 40 8 is_stmt 0 view .LVU60
 151 00ae 4428     		cmp	r0, #68
 152 00b0 00F02382 		beq	.L32
  41:Src/LCD/CharacterConverter_LCD.c ****     if (letter == *L"E") return 'E';
 153              		.loc 1 41 5 is_stmt 1 view .LVU61
 154              		.loc 1 41 8 is_stmt 0 view .LVU62
 155 00b4 4528     		cmp	r0, #69
 156 00b6 00F02282 		beq	.L33
  42:Src/LCD/CharacterConverter_LCD.c ****     if (letter == *L"F") return 'F';
 157              		.loc 1 42 5 is_stmt 1 view .LVU63
 158              		.loc 1 42 8 is_stmt 0 view .LVU64
 159 00ba 4628     		cmp	r0, #70
 160 00bc 00F02182 		beq	.L34
  43:Src/LCD/CharacterConverter_LCD.c ****     if (letter == *L"G") return 'G';
 161              		.loc 1 43 5 is_stmt 1 view .LVU65
 162              		.loc 1 43 8 is_stmt 0 view .LVU66
 163 00c0 4728     		cmp	r0, #71
 164 00c2 00F02082 		beq	.L35
  44:Src/LCD/CharacterConverter_LCD.c ****     if (letter == *L"H") return 'H';
 165              		.loc 1 44 5 is_stmt 1 view .LVU67
 166              		.loc 1 44 8 is_stmt 0 view .LVU68
 167 00c6 4828     		cmp	r0, #72
 168 00c8 00F01F82 		beq	.L36
  45:Src/LCD/CharacterConverter_LCD.c ****     if (letter == *L"I") return 'I';
 169              		.loc 1 45 5 is_stmt 1 view .LVU69
 170              		.loc 1 45 8 is_stmt 0 view .LVU70
 171 00cc 4928     		cmp	r0, #73
 172 00ce 00F01E82 		beq	.L37
  46:Src/LCD/CharacterConverter_LCD.c ****     if (letter == *L"J") return 'J';
 173              		.loc 1 46 5 is_stmt 1 view .LVU71
 174              		.loc 1 46 8 is_stmt 0 view .LVU72
 175 00d2 4A28     		cmp	r0, #74
 176 00d4 00F01D82 		beq	.L38
  47:Src/LCD/CharacterConverter_LCD.c ****     if (letter == *L"K") return 'K';
 177              		.loc 1 47 5 is_stmt 1 view .LVU73
 178              		.loc 1 47 8 is_stmt 0 view .LVU74
 179 00d8 4B28     		cmp	r0, #75
 180 00da 00F01C82 		beq	.L39
  48:Src/LCD/CharacterConverter_LCD.c ****     if (letter == *L"L") return 'L';
 181              		.loc 1 48 5 is_stmt 1 view .LVU75
ARM GAS  /tmp/ccbr5Fnn.s 			page 5


 182              		.loc 1 48 8 is_stmt 0 view .LVU76
 183 00de 4C28     		cmp	r0, #76
 184 00e0 00F01B82 		beq	.L40
  49:Src/LCD/CharacterConverter_LCD.c ****     if (letter == *L"M") return 'M';
 185              		.loc 1 49 5 is_stmt 1 view .LVU77
 186              		.loc 1 49 8 is_stmt 0 view .LVU78
 187 00e4 4D28     		cmp	r0, #77
 188 00e6 00F01A82 		beq	.L41
  50:Src/LCD/CharacterConverter_LCD.c ****     if (letter == *L"N") return 'N';
 189              		.loc 1 50 5 is_stmt 1 view .LVU79
 190              		.loc 1 50 8 is_stmt 0 view .LVU80
 191 00ea 4E28     		cmp	r0, #78
 192 00ec 00F01982 		beq	.L42
  51:Src/LCD/CharacterConverter_LCD.c ****     if (letter == *L"O") return 'O';
 193              		.loc 1 51 5 is_stmt 1 view .LVU81
 194              		.loc 1 51 8 is_stmt 0 view .LVU82
 195 00f0 4F28     		cmp	r0, #79
 196 00f2 00F01882 		beq	.L43
  52:Src/LCD/CharacterConverter_LCD.c ****     if (letter == *L"P") return 'P';
 197              		.loc 1 52 5 is_stmt 1 view .LVU83
 198              		.loc 1 52 8 is_stmt 0 view .LVU84
 199 00f6 5028     		cmp	r0, #80
 200 00f8 00F01782 		beq	.L44
  53:Src/LCD/CharacterConverter_LCD.c ****     if (letter == *L"Q") return 'Q';
 201              		.loc 1 53 5 is_stmt 1 view .LVU85
 202              		.loc 1 53 8 is_stmt 0 view .LVU86
 203 00fc 5128     		cmp	r0, #81
 204 00fe 00F01682 		beq	.L45
  54:Src/LCD/CharacterConverter_LCD.c ****     if (letter == *L"R") return 'R';
 205              		.loc 1 54 5 is_stmt 1 view .LVU87
 206              		.loc 1 54 8 is_stmt 0 view .LVU88
 207 0102 5228     		cmp	r0, #82
 208 0104 00F01582 		beq	.L46
  55:Src/LCD/CharacterConverter_LCD.c ****     if (letter == *L"S") return 'S';
 209              		.loc 1 55 5 is_stmt 1 view .LVU89
 210              		.loc 1 55 8 is_stmt 0 view .LVU90
 211 0108 5328     		cmp	r0, #83
 212 010a 00F01482 		beq	.L47
  56:Src/LCD/CharacterConverter_LCD.c ****     if (letter == *L"T") return 'T';
 213              		.loc 1 56 5 is_stmt 1 view .LVU91
 214              		.loc 1 56 8 is_stmt 0 view .LVU92
 215 010e 5428     		cmp	r0, #84
 216 0110 00F01382 		beq	.L48
  57:Src/LCD/CharacterConverter_LCD.c ****     if (letter == *L"U") return 'U';
 217              		.loc 1 57 5 is_stmt 1 view .LVU93
 218              		.loc 1 57 8 is_stmt 0 view .LVU94
 219 0114 5528     		cmp	r0, #85
 220 0116 00F01282 		beq	.L49
  58:Src/LCD/CharacterConverter_LCD.c ****     if (letter == *L"V") return 'V';
 221              		.loc 1 58 5 is_stmt 1 view .LVU95
 222              		.loc 1 58 8 is_stmt 0 view .LVU96
 223 011a 5628     		cmp	r0, #86
 224 011c 00F01182 		beq	.L50
  59:Src/LCD/CharacterConverter_LCD.c ****     if (letter == *L"W") return 'W';
 225              		.loc 1 59 5 is_stmt 1 view .LVU97
 226              		.loc 1 59 8 is_stmt 0 view .LVU98
 227 0120 5728     		cmp	r0, #87
ARM GAS  /tmp/ccbr5Fnn.s 			page 6


 228 0122 00F01082 		beq	.L51
  60:Src/LCD/CharacterConverter_LCD.c ****     if (letter == *L"X") return 'X';
 229              		.loc 1 60 5 is_stmt 1 view .LVU99
 230              		.loc 1 60 8 is_stmt 0 view .LVU100
 231 0126 5828     		cmp	r0, #88
 232 0128 00F00F82 		beq	.L52
  61:Src/LCD/CharacterConverter_LCD.c ****     if (letter == *L"Y") return 'Y';
 233              		.loc 1 61 5 is_stmt 1 view .LVU101
 234              		.loc 1 61 8 is_stmt 0 view .LVU102
 235 012c 5928     		cmp	r0, #89
 236 012e 00F00E82 		beq	.L53
  62:Src/LCD/CharacterConverter_LCD.c ****     if (letter == *L"Z") return 'Z';
 237              		.loc 1 62 5 is_stmt 1 view .LVU103
 238              		.loc 1 62 8 is_stmt 0 view .LVU104
 239 0132 5A28     		cmp	r0, #90
 240 0134 00F00D82 		beq	.L54
  63:Src/LCD/CharacterConverter_LCD.c ****     //Russian alphabed
  64:Src/LCD/CharacterConverter_LCD.c ****     if (letter == *L"а") return (char)0x61;//0b01100001;
 241              		.loc 1 64 5 is_stmt 1 view .LVU105
 242              		.loc 1 64 8 is_stmt 0 view .LVU106
 243 0138 B0F5866F 		cmp	r0, #1072
 244 013c 00F00B82 		beq	.L55
  65:Src/LCD/CharacterConverter_LCD.c ****     if (letter == *L"б") return (char)0xB2;//0b10110010;
 245              		.loc 1 65 5 is_stmt 1 view .LVU107
 246              		.loc 1 65 8 is_stmt 0 view .LVU108
 247 0140 40F23143 		movw	r3, #1073
 248 0144 9842     		cmp	r0, r3
 249 0146 00F00882 		beq	.L56
  66:Src/LCD/CharacterConverter_LCD.c ****     if (letter == *L"в") return (char)0xB3;//0b10110011;
 250              		.loc 1 66 5 is_stmt 1 view .LVU109
 251              		.loc 1 66 8 is_stmt 0 view .LVU110
 252 014a 40F23243 		movw	r3, #1074
 253 014e 9842     		cmp	r0, r3
 254 0150 00F00582 		beq	.L57
  67:Src/LCD/CharacterConverter_LCD.c ****     if (letter == *L"г") return (char)0xB4;//0b10110100;
 255              		.loc 1 67 5 is_stmt 1 view .LVU111
 256              		.loc 1 67 8 is_stmt 0 view .LVU112
 257 0154 40F23343 		movw	r3, #1075
 258 0158 9842     		cmp	r0, r3
 259 015a 00F00282 		beq	.L58
  68:Src/LCD/CharacterConverter_LCD.c ****     if (letter == *L"д") return (char)0xE3;//0b11100011;
 260              		.loc 1 68 5 is_stmt 1 view .LVU113
 261              		.loc 1 68 8 is_stmt 0 view .LVU114
 262 015e 40F23443 		movw	r3, #1076
 263 0162 9842     		cmp	r0, r3
 264 0164 00F0FF81 		beq	.L59
  69:Src/LCD/CharacterConverter_LCD.c ****     if (letter == *L"е") return (char)0x65;//0b01100101;
 265              		.loc 1 69 5 is_stmt 1 view .LVU115
 266              		.loc 1 69 8 is_stmt 0 view .LVU116
 267 0168 40F23543 		movw	r3, #1077
 268 016c 9842     		cmp	r0, r3
 269 016e 00F0FC81 		beq	.L60
  70:Src/LCD/CharacterConverter_LCD.c ****     if (letter == *L"ё") return (char)0xB5;//0b10110101;
 270              		.loc 1 70 5 is_stmt 1 view .LVU117
 271              		.loc 1 70 8 is_stmt 0 view .LVU118
 272 0172 40F25143 		movw	r3, #1105
 273 0176 9842     		cmp	r0, r3
ARM GAS  /tmp/ccbr5Fnn.s 			page 7


 274 0178 00F0F981 		beq	.L61
  71:Src/LCD/CharacterConverter_LCD.c ****     if (letter == *L"ж") return (char)0xB6;//0b10110110;
 275              		.loc 1 71 5 is_stmt 1 view .LVU119
 276              		.loc 1 71 8 is_stmt 0 view .LVU120
 277 017c 40F23643 		movw	r3, #1078
 278 0180 9842     		cmp	r0, r3
 279 0182 00F0F681 		beq	.L62
  72:Src/LCD/CharacterConverter_LCD.c ****     if (letter == *L"з") return (char)0xB7;//0b10110111;
 280              		.loc 1 72 5 is_stmt 1 view .LVU121
 281              		.loc 1 72 8 is_stmt 0 view .LVU122
 282 0186 40F23743 		movw	r3, #1079
 283 018a 9842     		cmp	r0, r3
 284 018c 00F0F381 		beq	.L63
  73:Src/LCD/CharacterConverter_LCD.c ****     if (letter == *L"и") return (char)0xB8;//0b10111000;
 285              		.loc 1 73 5 is_stmt 1 view .LVU123
 286              		.loc 1 73 8 is_stmt 0 view .LVU124
 287 0190 B0F5876F 		cmp	r0, #1080
 288 0194 00F0F181 		beq	.L64
  74:Src/LCD/CharacterConverter_LCD.c ****     if (letter == *L"й") return (char)0xB9;//0b10111001;
 289              		.loc 1 74 5 is_stmt 1 view .LVU125
 290              		.loc 1 74 8 is_stmt 0 view .LVU126
 291 0198 40F23943 		movw	r3, #1081
 292 019c 9842     		cmp	r0, r3
 293 019e 00F0EE81 		beq	.L65
  75:Src/LCD/CharacterConverter_LCD.c ****     if (letter == *L"к") return (char)0xBA;//0b10111010;
 294              		.loc 1 75 5 is_stmt 1 view .LVU127
 295              		.loc 1 75 8 is_stmt 0 view .LVU128
 296 01a2 40F23A43 		movw	r3, #1082
 297 01a6 9842     		cmp	r0, r3
 298 01a8 00F0EB81 		beq	.L66
  76:Src/LCD/CharacterConverter_LCD.c ****     if (letter == *L"л") return (char)0xBB;//0b10111011;
 299              		.loc 1 76 5 is_stmt 1 view .LVU129
 300              		.loc 1 76 8 is_stmt 0 view .LVU130
 301 01ac 40F23B43 		movw	r3, #1083
 302 01b0 9842     		cmp	r0, r3
 303 01b2 00F0E881 		beq	.L67
  77:Src/LCD/CharacterConverter_LCD.c ****     if (letter == *L"м") return (char)0xBC;//0b10111100;
 304              		.loc 1 77 5 is_stmt 1 view .LVU131
 305              		.loc 1 77 8 is_stmt 0 view .LVU132
 306 01b6 40F23C43 		movw	r3, #1084
 307 01ba 9842     		cmp	r0, r3
 308 01bc 00F0E581 		beq	.L68
  78:Src/LCD/CharacterConverter_LCD.c ****     if (letter == *L"н") return (char)0xBD;//0b10111101;
 309              		.loc 1 78 5 is_stmt 1 view .LVU133
 310              		.loc 1 78 8 is_stmt 0 view .LVU134
 311 01c0 40F23D43 		movw	r3, #1085
 312 01c4 9842     		cmp	r0, r3
 313 01c6 00F0E281 		beq	.L69
  79:Src/LCD/CharacterConverter_LCD.c ****     if (letter == *L"о") return (char)0x6F;//0b01101111;
 314              		.loc 1 79 5 is_stmt 1 view .LVU135
 315              		.loc 1 79 8 is_stmt 0 view .LVU136
 316 01ca 40F23E43 		movw	r3, #1086
 317 01ce 9842     		cmp	r0, r3
 318 01d0 00F0DF81 		beq	.L70
  80:Src/LCD/CharacterConverter_LCD.c ****     if (letter == *L"п") return (char)0xBE;//0b10111110;
 319              		.loc 1 80 5 is_stmt 1 view .LVU137
 320              		.loc 1 80 8 is_stmt 0 view .LVU138
ARM GAS  /tmp/ccbr5Fnn.s 			page 8


 321 01d4 40F23F43 		movw	r3, #1087
 322 01d8 9842     		cmp	r0, r3
 323 01da 00F0DC81 		beq	.L71
  81:Src/LCD/CharacterConverter_LCD.c ****     if (letter == *L"р") return (char)0x70;//0b01110000;
 324              		.loc 1 81 5 is_stmt 1 view .LVU139
 325              		.loc 1 81 8 is_stmt 0 view .LVU140
 326 01de B0F5886F 		cmp	r0, #1088
 327 01e2 00F0DA81 		beq	.L72
  82:Src/LCD/CharacterConverter_LCD.c ****     if (letter == *L"с") return (char)0x63;//0b01100011;
 328              		.loc 1 82 5 is_stmt 1 view .LVU141
 329              		.loc 1 82 8 is_stmt 0 view .LVU142
 330 01e6 40F24143 		movw	r3, #1089
 331 01ea 9842     		cmp	r0, r3
 332 01ec 00F0D781 		beq	.L73
  83:Src/LCD/CharacterConverter_LCD.c ****     if (letter == *L"т") return (char)0xBF;//0b10111111;
 333              		.loc 1 83 5 is_stmt 1 view .LVU143
 334              		.loc 1 83 8 is_stmt 0 view .LVU144
 335 01f0 40F24243 		movw	r3, #1090
 336 01f4 9842     		cmp	r0, r3
 337 01f6 00F0D481 		beq	.L74
  84:Src/LCD/CharacterConverter_LCD.c ****     if (letter == *L"у") return (char)0x79;//0b01111001;
 338              		.loc 1 84 5 is_stmt 1 view .LVU145
 339              		.loc 1 84 8 is_stmt 0 view .LVU146
 340 01fa 40F24343 		movw	r3, #1091
 341 01fe 9842     		cmp	r0, r3
 342 0200 00F0D181 		beq	.L75
  85:Src/LCD/CharacterConverter_LCD.c ****     if (letter == *L"ф") return (char)0xE4;//0b11100100;
 343              		.loc 1 85 5 is_stmt 1 view .LVU147
 344              		.loc 1 85 8 is_stmt 0 view .LVU148
 345 0204 40F24443 		movw	r3, #1092
 346 0208 9842     		cmp	r0, r3
 347 020a 00F0CE81 		beq	.L76
  86:Src/LCD/CharacterConverter_LCD.c ****     if (letter == *L"х") return (char)0x78;//0b01111000;
 348              		.loc 1 86 5 is_stmt 1 view .LVU149
 349              		.loc 1 86 8 is_stmt 0 view .LVU150
 350 020e 40F24543 		movw	r3, #1093
 351 0212 9842     		cmp	r0, r3
 352 0214 00F0CB81 		beq	.L77
  87:Src/LCD/CharacterConverter_LCD.c ****     if (letter == *L"ц") return (char)0xE5;//0b11100101;
 353              		.loc 1 87 5 is_stmt 1 view .LVU151
 354              		.loc 1 87 8 is_stmt 0 view .LVU152
 355 0218 40F24643 		movw	r3, #1094
 356 021c 9842     		cmp	r0, r3
 357 021e 00F0C881 		beq	.L78
  88:Src/LCD/CharacterConverter_LCD.c ****     if (letter == *L"ч") return (char)0xC0;//0b11000000;
 358              		.loc 1 88 5 is_stmt 1 view .LVU153
 359              		.loc 1 88 8 is_stmt 0 view .LVU154
 360 0222 40F24743 		movw	r3, #1095
 361 0226 9842     		cmp	r0, r3
 362 0228 00F0C581 		beq	.L79
  89:Src/LCD/CharacterConverter_LCD.c ****     if (letter == *L"ш") return (char)0xC1;//0b11000001;
 363              		.loc 1 89 5 is_stmt 1 view .LVU155
 364              		.loc 1 89 8 is_stmt 0 view .LVU156
 365 022c B0F5896F 		cmp	r0, #1096
 366 0230 00F0C381 		beq	.L80
  90:Src/LCD/CharacterConverter_LCD.c ****     if (letter == *L"щ") return (char)0xE6;//0b11100110;
 367              		.loc 1 90 5 is_stmt 1 view .LVU157
ARM GAS  /tmp/ccbr5Fnn.s 			page 9


 368              		.loc 1 90 8 is_stmt 0 view .LVU158
 369 0234 40F24943 		movw	r3, #1097
 370 0238 9842     		cmp	r0, r3
 371 023a 00F0C081 		beq	.L81
  91:Src/LCD/CharacterConverter_LCD.c ****     if (letter == *L"ъ") return (char)0xC2;//0b11000010;
 372              		.loc 1 91 5 is_stmt 1 view .LVU159
 373              		.loc 1 91 8 is_stmt 0 view .LVU160
 374 023e 40F24A43 		movw	r3, #1098
 375 0242 9842     		cmp	r0, r3
 376 0244 00F0BD81 		beq	.L82
  92:Src/LCD/CharacterConverter_LCD.c ****     if (letter == *L"ы") return (char)0xC3;//0b11000011;
 377              		.loc 1 92 5 is_stmt 1 view .LVU161
 378              		.loc 1 92 8 is_stmt 0 view .LVU162
 379 0248 40F24B43 		movw	r3, #1099
 380 024c 9842     		cmp	r0, r3
 381 024e 00F0BA81 		beq	.L83
  93:Src/LCD/CharacterConverter_LCD.c ****     if (letter == *L"ь") return (char)0xC4;//0b11000100;
 382              		.loc 1 93 5 is_stmt 1 view .LVU163
 383              		.loc 1 93 8 is_stmt 0 view .LVU164
 384 0252 40F24C43 		movw	r3, #1100
 385 0256 9842     		cmp	r0, r3
 386 0258 00F0B781 		beq	.L84
  94:Src/LCD/CharacterConverter_LCD.c ****     if (letter == *L"э") return (char)0xC5;//0b11000101;
 387              		.loc 1 94 5 is_stmt 1 view .LVU165
 388              		.loc 1 94 8 is_stmt 0 view .LVU166
 389 025c 40F24D43 		movw	r3, #1101
 390 0260 9842     		cmp	r0, r3
 391 0262 00F0B481 		beq	.L85
  95:Src/LCD/CharacterConverter_LCD.c ****     if (letter == *L"ю") return (char)0xC6;//0b11000110;
 392              		.loc 1 95 5 is_stmt 1 view .LVU167
 393              		.loc 1 95 8 is_stmt 0 view .LVU168
 394 0266 40F24E43 		movw	r3, #1102
 395 026a 9842     		cmp	r0, r3
 396 026c 00F0B181 		beq	.L86
  96:Src/LCD/CharacterConverter_LCD.c ****     if (letter == *L"я") return (char)0xC7;//0b11000111;
 397              		.loc 1 96 5 is_stmt 1 view .LVU169
 398              		.loc 1 96 8 is_stmt 0 view .LVU170
 399 0270 40F24F43 		movw	r3, #1103
 400 0274 9842     		cmp	r0, r3
 401 0276 00F0AE81 		beq	.L87
  97:Src/LCD/CharacterConverter_LCD.c ****     if (letter == *L"А") return (char)0x41;//0b01000001;
 402              		.loc 1 97 5 is_stmt 1 view .LVU171
 403              		.loc 1 97 8 is_stmt 0 view .LVU172
 404 027a B0F5826F 		cmp	r0, #1040
 405 027e 00F0AC81 		beq	.L88
  98:Src/LCD/CharacterConverter_LCD.c ****     if (letter == *L"Б") return (char)0xA0;//0b10100000;
 406              		.loc 1 98 5 is_stmt 1 view .LVU173
 407              		.loc 1 98 8 is_stmt 0 view .LVU174
 408 0282 40F21143 		movw	r3, #1041
 409 0286 9842     		cmp	r0, r3
 410 0288 00F0A981 		beq	.L89
  99:Src/LCD/CharacterConverter_LCD.c ****     if (letter == *L"В") return (char)0x42;//0b01000010;
 411              		.loc 1 99 5 is_stmt 1 view .LVU175
 412              		.loc 1 99 8 is_stmt 0 view .LVU176
 413 028c 40F21243 		movw	r3, #1042
 414 0290 9842     		cmp	r0, r3
 415 0292 00F0A681 		beq	.L90
ARM GAS  /tmp/ccbr5Fnn.s 			page 10


 100:Src/LCD/CharacterConverter_LCD.c ****     if (letter == *L"Г") return (char)0xA1;//0b10100001;
 416              		.loc 1 100 5 is_stmt 1 view .LVU177
 417              		.loc 1 100 8 is_stmt 0 view .LVU178
 418 0296 40F21343 		movw	r3, #1043
 419 029a 9842     		cmp	r0, r3
 420 029c 00F0A381 		beq	.L91
 101:Src/LCD/CharacterConverter_LCD.c ****     if (letter == *L"Д") return (char)0xE0;//0b11100000;
 421              		.loc 1 101 5 is_stmt 1 view .LVU179
 422              		.loc 1 101 8 is_stmt 0 view .LVU180
 423 02a0 40F21443 		movw	r3, #1044
 424 02a4 9842     		cmp	r0, r3
 425 02a6 00F0A081 		beq	.L92
 102:Src/LCD/CharacterConverter_LCD.c ****     if (letter == *L"Е") return (char)0x45;//0b01000101;
 426              		.loc 1 102 5 is_stmt 1 view .LVU181
 427              		.loc 1 102 8 is_stmt 0 view .LVU182
 428 02aa 40F21543 		movw	r3, #1045
 429 02ae 9842     		cmp	r0, r3
 430 02b0 00F09D81 		beq	.L93
 103:Src/LCD/CharacterConverter_LCD.c ****     if (letter == *L"Ё") return (char)0x45;//0b01000101;
 431              		.loc 1 103 5 is_stmt 1 view .LVU183
 432              		.loc 1 103 8 is_stmt 0 view .LVU184
 433 02b4 40F20143 		movw	r3, #1025
 434 02b8 9842     		cmp	r0, r3
 435 02ba 00F09A81 		beq	.L94
 104:Src/LCD/CharacterConverter_LCD.c ****     if (letter == *L"Ж") return (char)0xA3;//0b10100011;
 436              		.loc 1 104 5 is_stmt 1 view .LVU185
 437              		.loc 1 104 8 is_stmt 0 view .LVU186
 438 02be 40F21643 		movw	r3, #1046
 439 02c2 9842     		cmp	r0, r3
 440 02c4 00F09781 		beq	.L95
 105:Src/LCD/CharacterConverter_LCD.c ****     if (letter == *L"З") return (char)0xA4;//0b10100100;
 441              		.loc 1 105 5 is_stmt 1 view .LVU187
 442              		.loc 1 105 8 is_stmt 0 view .LVU188
 443 02c8 40F21743 		movw	r3, #1047
 444 02cc 9842     		cmp	r0, r3
 445 02ce 00F09481 		beq	.L96
 106:Src/LCD/CharacterConverter_LCD.c ****     if (letter == *L"И") return (char)0xA5;//0b10100101;
 446              		.loc 1 106 5 is_stmt 1 view .LVU189
 447              		.loc 1 106 8 is_stmt 0 view .LVU190
 448 02d2 B0F5836F 		cmp	r0, #1048
 449 02d6 00F09281 		beq	.L97
 107:Src/LCD/CharacterConverter_LCD.c ****     if (letter == *L"Й") return (char)0xA6;//0b10100110;
 450              		.loc 1 107 5 is_stmt 1 view .LVU191
 451              		.loc 1 107 8 is_stmt 0 view .LVU192
 452 02da 40F21943 		movw	r3, #1049
 453 02de 9842     		cmp	r0, r3
 454 02e0 00F08F81 		beq	.L98
 108:Src/LCD/CharacterConverter_LCD.c ****     if (letter == *L"К") return (char)0x4B;//0b01001011;
 455              		.loc 1 108 5 is_stmt 1 view .LVU193
 456              		.loc 1 108 8 is_stmt 0 view .LVU194
 457 02e4 40F21A43 		movw	r3, #1050
 458 02e8 9842     		cmp	r0, r3
 459 02ea 00F08C81 		beq	.L99
 109:Src/LCD/CharacterConverter_LCD.c ****     if (letter == *L"Л") return (char)0xA7;//0b10100111;
 460              		.loc 1 109 5 is_stmt 1 view .LVU195
 461              		.loc 1 109 8 is_stmt 0 view .LVU196
 462 02ee 40F21B43 		movw	r3, #1051
ARM GAS  /tmp/ccbr5Fnn.s 			page 11


 463 02f2 9842     		cmp	r0, r3
 464 02f4 00F08981 		beq	.L100
 110:Src/LCD/CharacterConverter_LCD.c ****     if (letter == *L"М") return (char)0x4D;//0b01001101;
 465              		.loc 1 110 5 is_stmt 1 view .LVU197
 466              		.loc 1 110 8 is_stmt 0 view .LVU198
 467 02f8 40F21C43 		movw	r3, #1052
 468 02fc 9842     		cmp	r0, r3
 469 02fe 00F08681 		beq	.L101
 111:Src/LCD/CharacterConverter_LCD.c ****     if (letter == *L"Н") return (char)0x48;//0b01001000;
 470              		.loc 1 111 5 is_stmt 1 view .LVU199
 471              		.loc 1 111 8 is_stmt 0 view .LVU200
 472 0302 40F21D43 		movw	r3, #1053
 473 0306 9842     		cmp	r0, r3
 474 0308 00F08381 		beq	.L102
 112:Src/LCD/CharacterConverter_LCD.c ****     if (letter == *L"О") return (char)0x4F;//0b01001111;
 475              		.loc 1 112 5 is_stmt 1 view .LVU201
 476              		.loc 1 112 8 is_stmt 0 view .LVU202
 477 030c 40F21E43 		movw	r3, #1054
 478 0310 9842     		cmp	r0, r3
 479 0312 00F08081 		beq	.L103
 113:Src/LCD/CharacterConverter_LCD.c ****     if (letter == *L"П") return (char)0xA8;//0b10101000;
 480              		.loc 1 113 5 is_stmt 1 view .LVU203
 481              		.loc 1 113 8 is_stmt 0 view .LVU204
 482 0316 40F21F43 		movw	r3, #1055
 483 031a 9842     		cmp	r0, r3
 484 031c 00F07D81 		beq	.L104
 114:Src/LCD/CharacterConverter_LCD.c ****     if (letter == *L"Р") return (char)0x50;//0b01010000;
 485              		.loc 1 114 5 is_stmt 1 view .LVU205
 486              		.loc 1 114 8 is_stmt 0 view .LVU206
 487 0320 B0F5846F 		cmp	r0, #1056
 488 0324 00F07B81 		beq	.L105
 115:Src/LCD/CharacterConverter_LCD.c ****     if (letter == *L"С") return (char)0x43;//0b01000011;
 489              		.loc 1 115 5 is_stmt 1 view .LVU207
 490              		.loc 1 115 8 is_stmt 0 view .LVU208
 491 0328 40F22143 		movw	r3, #1057
 492 032c 9842     		cmp	r0, r3
 493 032e 00F07881 		beq	.L106
 116:Src/LCD/CharacterConverter_LCD.c ****     if (letter == *L"Т") return (char)0x54;//0b01010100;
 494              		.loc 1 116 5 is_stmt 1 view .LVU209
 495              		.loc 1 116 8 is_stmt 0 view .LVU210
 496 0332 40F22243 		movw	r3, #1058
 497 0336 9842     		cmp	r0, r3
 498 0338 00F07581 		beq	.L107
 117:Src/LCD/CharacterConverter_LCD.c ****     if (letter == *L"У") return (char)0xA9;//0b10101001;
 499              		.loc 1 117 5 is_stmt 1 view .LVU211
 500              		.loc 1 117 8 is_stmt 0 view .LVU212
 501 033c 40F22343 		movw	r3, #1059
 502 0340 9842     		cmp	r0, r3
 503 0342 00F07281 		beq	.L108
 118:Src/LCD/CharacterConverter_LCD.c ****     if (letter == *L"Ф") return (char)0xAA;//0b10101010;
 504              		.loc 1 118 5 is_stmt 1 view .LVU213
 505              		.loc 1 118 8 is_stmt 0 view .LVU214
 506 0346 40F22443 		movw	r3, #1060
 507 034a 9842     		cmp	r0, r3
 508 034c 00F06F81 		beq	.L109
 119:Src/LCD/CharacterConverter_LCD.c ****     if (letter == *L"Х") return (char)0x58;//0b01011000;
 509              		.loc 1 119 5 is_stmt 1 view .LVU215
ARM GAS  /tmp/ccbr5Fnn.s 			page 12


 510              		.loc 1 119 8 is_stmt 0 view .LVU216
 511 0350 40F22543 		movw	r3, #1061
 512 0354 9842     		cmp	r0, r3
 513 0356 00F06C81 		beq	.L110
 120:Src/LCD/CharacterConverter_LCD.c ****     if (letter == *L"Ц") return (char)0xE1;//0b11100001;
 514              		.loc 1 120 5 is_stmt 1 view .LVU217
 515              		.loc 1 120 8 is_stmt 0 view .LVU218
 516 035a 40F22643 		movw	r3, #1062
 517 035e 9842     		cmp	r0, r3
 518 0360 00F06981 		beq	.L111
 121:Src/LCD/CharacterConverter_LCD.c ****     if (letter == *L"Ч") return (char)0xAB;//0b10101011;
 519              		.loc 1 121 5 is_stmt 1 view .LVU219
 520              		.loc 1 121 8 is_stmt 0 view .LVU220
 521 0364 40F22743 		movw	r3, #1063
 522 0368 9842     		cmp	r0, r3
 523 036a 00F06681 		beq	.L112
 122:Src/LCD/CharacterConverter_LCD.c ****     if (letter == *L"Ш") return (char)0xAC;//0b10101100;
 524              		.loc 1 122 5 is_stmt 1 view .LVU221
 525              		.loc 1 122 8 is_stmt 0 view .LVU222
 526 036e B0F5856F 		cmp	r0, #1064
 527 0372 00F06481 		beq	.L113
 123:Src/LCD/CharacterConverter_LCD.c ****     if (letter == *L"Щ") return (char)0xE2;//0b11100010;
 528              		.loc 1 123 5 is_stmt 1 view .LVU223
 529              		.loc 1 123 8 is_stmt 0 view .LVU224
 530 0376 40F22943 		movw	r3, #1065
 531 037a 9842     		cmp	r0, r3
 532 037c 00F06181 		beq	.L114
 124:Src/LCD/CharacterConverter_LCD.c ****     if (letter == *L"Ъ") return (char)0xAD;//0b10101101;
 533              		.loc 1 124 5 is_stmt 1 view .LVU225
 534              		.loc 1 124 8 is_stmt 0 view .LVU226
 535 0380 40F22A43 		movw	r3, #1066
 536 0384 9842     		cmp	r0, r3
 537 0386 00F05E81 		beq	.L115
 125:Src/LCD/CharacterConverter_LCD.c ****     if (letter == *L"Ы") return (char)0xAE;//0b10101110;
 538              		.loc 1 125 5 is_stmt 1 view .LVU227
 539              		.loc 1 125 8 is_stmt 0 view .LVU228
 540 038a 40F22B43 		movw	r3, #1067
 541 038e 9842     		cmp	r0, r3
 542 0390 00F05B81 		beq	.L116
 126:Src/LCD/CharacterConverter_LCD.c ****     if (letter == *L"Ь") return (char)0x62;//0b01100010;
 543              		.loc 1 126 5 is_stmt 1 view .LVU229
 544              		.loc 1 126 8 is_stmt 0 view .LVU230
 545 0394 40F22C43 		movw	r3, #1068
 546 0398 9842     		cmp	r0, r3
 547 039a 00F05881 		beq	.L117
 127:Src/LCD/CharacterConverter_LCD.c ****     if (letter == *L"Э") return (char)0xAF;//0b10101111;
 548              		.loc 1 127 5 is_stmt 1 view .LVU231
 549              		.loc 1 127 8 is_stmt 0 view .LVU232
 550 039e 40F22D43 		movw	r3, #1069
 551 03a2 9842     		cmp	r0, r3
 552 03a4 00F05581 		beq	.L118
 128:Src/LCD/CharacterConverter_LCD.c ****     if (letter == *L"Ю") return (char)0xB0;//0b10110000;
 553              		.loc 1 128 5 is_stmt 1 view .LVU233
 554              		.loc 1 128 8 is_stmt 0 view .LVU234
 555 03a8 40F22E43 		movw	r3, #1070
 556 03ac 9842     		cmp	r0, r3
 557 03ae 00F05281 		beq	.L119
ARM GAS  /tmp/ccbr5Fnn.s 			page 13


 129:Src/LCD/CharacterConverter_LCD.c ****     if (letter == *L"Я") return (char)0xB1;//0b10110001;
 558              		.loc 1 129 5 is_stmt 1 view .LVU235
 559              		.loc 1 129 8 is_stmt 0 view .LVU236
 560 03b2 40F22F43 		movw	r3, #1071
 561 03b6 9842     		cmp	r0, r3
 562 03b8 00F04F81 		beq	.L120
 130:Src/LCD/CharacterConverter_LCD.c ****     //Special characters
 131:Src/LCD/CharacterConverter_LCD.c ****     if (letter == *L">") return '>';
 563              		.loc 1 131 5 is_stmt 1 view .LVU237
 564              		.loc 1 131 8 is_stmt 0 view .LVU238
 565 03bc 3E28     		cmp	r0, #62
 566 03be 00F04E81 		beq	.L121
 132:Src/LCD/CharacterConverter_LCD.c ****     if (letter == *L"<") return '<';
 567              		.loc 1 132 5 is_stmt 1 view .LVU239
 568              		.loc 1 132 8 is_stmt 0 view .LVU240
 569 03c2 3C28     		cmp	r0, #60
 570 03c4 00F04D81 		beq	.L122
 133:Src/LCD/CharacterConverter_LCD.c ****     if (letter == *L")") return ')';
 571              		.loc 1 133 5 is_stmt 1 view .LVU241
 572              		.loc 1 133 8 is_stmt 0 view .LVU242
 573 03c8 2928     		cmp	r0, #41
 574 03ca 00F04C81 		beq	.L123
 134:Src/LCD/CharacterConverter_LCD.c ****     if (letter == *L"(") return '(';
 575              		.loc 1 134 5 is_stmt 1 view .LVU243
 576              		.loc 1 134 8 is_stmt 0 view .LVU244
 577 03ce 2828     		cmp	r0, #40
 578 03d0 00F04B81 		beq	.L124
 135:Src/LCD/CharacterConverter_LCD.c ****     if (letter == *L"\"") return '\"';
 579              		.loc 1 135 5 is_stmt 1 view .LVU245
 580              		.loc 1 135 8 is_stmt 0 view .LVU246
 581 03d4 2228     		cmp	r0, #34
 582 03d6 00F04A81 		beq	.L125
 136:Src/LCD/CharacterConverter_LCD.c ****     if (letter == *L"!") return '!';
 583              		.loc 1 136 5 is_stmt 1 view .LVU247
 584              		.loc 1 136 8 is_stmt 0 view .LVU248
 585 03da 2128     		cmp	r0, #33
 586 03dc 00F04981 		beq	.L126
 137:Src/LCD/CharacterConverter_LCD.c ****     if (letter == *L"?") return '?';
 587              		.loc 1 137 5 is_stmt 1 view .LVU249
 588              		.loc 1 137 8 is_stmt 0 view .LVU250
 589 03e0 3F28     		cmp	r0, #63
 590 03e2 00F04881 		beq	.L127
 138:Src/LCD/CharacterConverter_LCD.c ****     if (letter == *L"#") return '#';
 591              		.loc 1 138 5 is_stmt 1 view .LVU251
 592              		.loc 1 138 8 is_stmt 0 view .LVU252
 593 03e6 2328     		cmp	r0, #35
 594 03e8 00F04781 		beq	.L128
 139:Src/LCD/CharacterConverter_LCD.c ****     if (letter == *L"$") return '$';
 595              		.loc 1 139 5 is_stmt 1 view .LVU253
 596              		.loc 1 139 8 is_stmt 0 view .LVU254
 597 03ec 2428     		cmp	r0, #36
 598 03ee 00F04681 		beq	.L129
 140:Src/LCD/CharacterConverter_LCD.c ****     if (letter == *L"%") return '%';
 599              		.loc 1 140 5 is_stmt 1 view .LVU255
 600              		.loc 1 140 8 is_stmt 0 view .LVU256
 601 03f2 2528     		cmp	r0, #37
 602 03f4 00F04581 		beq	.L130
ARM GAS  /tmp/ccbr5Fnn.s 			page 14


 141:Src/LCD/CharacterConverter_LCD.c ****     if (letter == *L"\'") return '\'';
 603              		.loc 1 141 5 is_stmt 1 view .LVU257
 604              		.loc 1 141 8 is_stmt 0 view .LVU258
 605 03f8 2728     		cmp	r0, #39
 606 03fa 00F04481 		beq	.L131
 142:Src/LCD/CharacterConverter_LCD.c ****     if (letter == *L"*") return '*';
 607              		.loc 1 142 5 is_stmt 1 view .LVU259
 608              		.loc 1 142 8 is_stmt 0 view .LVU260
 609 03fe 2A28     		cmp	r0, #42
 610 0400 00F04381 		beq	.L132
 143:Src/LCD/CharacterConverter_LCD.c ****     if (letter == *L"-") return '-';
 611              		.loc 1 143 5 is_stmt 1 view .LVU261
 612              		.loc 1 143 8 is_stmt 0 view .LVU262
 613 0404 2D28     		cmp	r0, #45
 614 0406 00F04281 		beq	.L133
 144:Src/LCD/CharacterConverter_LCD.c ****     if (letter == *L"+") return '+';
 615              		.loc 1 144 5 is_stmt 1 view .LVU263
 616              		.loc 1 144 8 is_stmt 0 view .LVU264
 617 040a 2B28     		cmp	r0, #43
 618 040c 00F04181 		beq	.L134
 145:Src/LCD/CharacterConverter_LCD.c ****     if (letter == *L".") return '.';
 619              		.loc 1 145 5 is_stmt 1 view .LVU265
 620              		.loc 1 145 8 is_stmt 0 view .LVU266
 621 0410 2E28     		cmp	r0, #46
 622 0412 00F04081 		beq	.L135
 146:Src/LCD/CharacterConverter_LCD.c ****     if (letter == *L",") return ',';
 623              		.loc 1 146 5 is_stmt 1 view .LVU267
 624              		.loc 1 146 8 is_stmt 0 view .LVU268
 625 0416 2C28     		cmp	r0, #44
 626 0418 00F03F81 		beq	.L136
 147:Src/LCD/CharacterConverter_LCD.c ****     if (letter == *L"_") return '_';
 627              		.loc 1 147 5 is_stmt 1 view .LVU269
 628              		.loc 1 147 8 is_stmt 0 view .LVU270
 629 041c 5F28     		cmp	r0, #95
 630 041e 00F03E81 		beq	.L137
 148:Src/LCD/CharacterConverter_LCD.c ****     if (letter == *L"=") return '=';
 631              		.loc 1 148 5 is_stmt 1 view .LVU271
 632              		.loc 1 148 8 is_stmt 0 view .LVU272
 633 0422 3D28     		cmp	r0, #61
 634 0424 00F03D81 		beq	.L138
 149:Src/LCD/CharacterConverter_LCD.c ****     if (letter == *L"^") return '^';
 635              		.loc 1 149 5 is_stmt 1 view .LVU273
 636              		.loc 1 149 8 is_stmt 0 view .LVU274
 637 0428 5E28     		cmp	r0, #94
 638 042a 00F03C81 		beq	.L139
 150:Src/LCD/CharacterConverter_LCD.c ****     if (letter == *L"/") return '/';
 639              		.loc 1 150 5 is_stmt 1 view .LVU275
 640              		.loc 1 150 8 is_stmt 0 view .LVU276
 641 042e 2F28     		cmp	r0, #47
 642 0430 00F03B81 		beq	.L140
 151:Src/LCD/CharacterConverter_LCD.c ****     if (letter == *L":") return ':';
 643              		.loc 1 151 5 is_stmt 1 view .LVU277
 644              		.loc 1 151 8 is_stmt 0 view .LVU278
 645 0434 3A28     		cmp	r0, #58
 646 0436 00F03A81 		beq	.L141
 152:Src/LCD/CharacterConverter_LCD.c ****     if (letter == *L";") return ';';
 647              		.loc 1 152 5 is_stmt 1 view .LVU279
ARM GAS  /tmp/ccbr5Fnn.s 			page 15


 648              		.loc 1 152 8 is_stmt 0 view .LVU280
 649 043a 3B28     		cmp	r0, #59
 650 043c 00F03981 		beq	.L142
 153:Src/LCD/CharacterConverter_LCD.c ****     if (letter == *L" ") return ' ';
 651              		.loc 1 153 5 is_stmt 1 view .LVU281
 652              		.loc 1 153 8 is_stmt 0 view .LVU282
 653 0440 2028     		cmp	r0, #32
 654 0442 00F03881 		beq	.L143
 154:Src/LCD/CharacterConverter_LCD.c ****     //Numbers
 155:Src/LCD/CharacterConverter_LCD.c ****     if (letter == *L"0") return '0';
 655              		.loc 1 155 5 is_stmt 1 view .LVU283
 656              		.loc 1 155 8 is_stmt 0 view .LVU284
 657 0446 3028     		cmp	r0, #48
 658 0448 00F03781 		beq	.L144
 156:Src/LCD/CharacterConverter_LCD.c ****     if (letter == *L"1") return '1';
 659              		.loc 1 156 5 is_stmt 1 view .LVU285
 660              		.loc 1 156 8 is_stmt 0 view .LVU286
 661 044c 3128     		cmp	r0, #49
 662 044e 00F03681 		beq	.L145
 157:Src/LCD/CharacterConverter_LCD.c ****     if (letter == *L"2") return '2';
 663              		.loc 1 157 5 is_stmt 1 view .LVU287
 664              		.loc 1 157 8 is_stmt 0 view .LVU288
 665 0452 3228     		cmp	r0, #50
 666 0454 00F03581 		beq	.L146
 158:Src/LCD/CharacterConverter_LCD.c ****     if (letter == *L"3") return '3';
 667              		.loc 1 158 5 is_stmt 1 view .LVU289
 668              		.loc 1 158 8 is_stmt 0 view .LVU290
 669 0458 3328     		cmp	r0, #51
 670 045a 00F03481 		beq	.L147
 159:Src/LCD/CharacterConverter_LCD.c ****     if (letter == *L"4") return '4';
 671              		.loc 1 159 5 is_stmt 1 view .LVU291
 672              		.loc 1 159 8 is_stmt 0 view .LVU292
 673 045e 3428     		cmp	r0, #52
 674 0460 00F03381 		beq	.L148
 160:Src/LCD/CharacterConverter_LCD.c ****     if (letter == *L"5") return '5';
 675              		.loc 1 160 5 is_stmt 1 view .LVU293
 676              		.loc 1 160 8 is_stmt 0 view .LVU294
 677 0464 3528     		cmp	r0, #53
 678 0466 00F03281 		beq	.L149
 161:Src/LCD/CharacterConverter_LCD.c ****     if (letter == *L"6") return '6';
 679              		.loc 1 161 5 is_stmt 1 view .LVU295
 680              		.loc 1 161 8 is_stmt 0 view .LVU296
 681 046a 3628     		cmp	r0, #54
 682 046c 00F03181 		beq	.L150
 162:Src/LCD/CharacterConverter_LCD.c ****     if (letter == *L"7") return '7';
 683              		.loc 1 162 5 is_stmt 1 view .LVU297
 684              		.loc 1 162 8 is_stmt 0 view .LVU298
 685 0470 3728     		cmp	r0, #55
 686 0472 00F03081 		beq	.L151
 163:Src/LCD/CharacterConverter_LCD.c ****     if (letter == *L"8") return '8';
 687              		.loc 1 163 5 is_stmt 1 view .LVU299
 688              		.loc 1 163 8 is_stmt 0 view .LVU300
 689 0476 3828     		cmp	r0, #56
 690 0478 00F02F81 		beq	.L152
 164:Src/LCD/CharacterConverter_LCD.c ****     if (letter == *L"9") return '9';
 691              		.loc 1 164 5 is_stmt 1 view .LVU301
 692              		.loc 1 164 8 is_stmt 0 view .LVU302
ARM GAS  /tmp/ccbr5Fnn.s 			page 16


 693 047c 3928     		cmp	r0, #57
 694 047e 00F02E81 		beq	.L153
 165:Src/LCD/CharacterConverter_LCD.c ****     //Default character
 166:Src/LCD/CharacterConverter_LCD.c ****     return '?';
 695              		.loc 1 166 12 view .LVU303
 696 0482 3F20     		movs	r0, #63
 697              	.LVL1:
 698              		.loc 1 166 12 view .LVU304
 699 0484 7047     		bx	lr
 700              	.LVL2:
 701              	.L3:
  11:Src/LCD/CharacterConverter_LCD.c ****     if (letter == *L"b") return 'b';
 702              		.loc 1 11 33 view .LVU305
 703 0486 6120     		movs	r0, #97
 704              	.LVL3:
  11:Src/LCD/CharacterConverter_LCD.c ****     if (letter == *L"b") return 'b';
 705              		.loc 1 11 33 view .LVU306
 706 0488 7047     		bx	lr
 707              	.LVL4:
 708              	.L4:
  12:Src/LCD/CharacterConverter_LCD.c ****     if (letter == *L"c") return 'c';
 709              		.loc 1 12 33 view .LVU307
 710 048a 6220     		movs	r0, #98
 711              	.LVL5:
  12:Src/LCD/CharacterConverter_LCD.c ****     if (letter == *L"c") return 'c';
 712              		.loc 1 12 33 view .LVU308
 713 048c 7047     		bx	lr
 714              	.LVL6:
 715              	.L5:
  13:Src/LCD/CharacterConverter_LCD.c ****     if (letter == *L"d") return 'd';
 716              		.loc 1 13 33 view .LVU309
 717 048e 6320     		movs	r0, #99
 718              	.LVL7:
  13:Src/LCD/CharacterConverter_LCD.c ****     if (letter == *L"d") return 'd';
 719              		.loc 1 13 33 view .LVU310
 720 0490 7047     		bx	lr
 721              	.LVL8:
 722              	.L6:
  14:Src/LCD/CharacterConverter_LCD.c ****     if (letter == *L"e") return 'e';
 723              		.loc 1 14 33 view .LVU311
 724 0492 6420     		movs	r0, #100
 725              	.LVL9:
  14:Src/LCD/CharacterConverter_LCD.c ****     if (letter == *L"e") return 'e';
 726              		.loc 1 14 33 view .LVU312
 727 0494 7047     		bx	lr
 728              	.LVL10:
 729              	.L7:
  15:Src/LCD/CharacterConverter_LCD.c ****     if (letter == *L"f") return 'f';
 730              		.loc 1 15 33 view .LVU313
 731 0496 6520     		movs	r0, #101
 732              	.LVL11:
  15:Src/LCD/CharacterConverter_LCD.c ****     if (letter == *L"f") return 'f';
 733              		.loc 1 15 33 view .LVU314
 734 0498 7047     		bx	lr
 735              	.LVL12:
 736              	.L8:
  16:Src/LCD/CharacterConverter_LCD.c ****     if (letter == *L"g") return 'g';
ARM GAS  /tmp/ccbr5Fnn.s 			page 17


 737              		.loc 1 16 33 view .LVU315
 738 049a 6620     		movs	r0, #102
 739              	.LVL13:
  16:Src/LCD/CharacterConverter_LCD.c ****     if (letter == *L"g") return 'g';
 740              		.loc 1 16 33 view .LVU316
 741 049c 7047     		bx	lr
 742              	.LVL14:
 743              	.L9:
  17:Src/LCD/CharacterConverter_LCD.c ****     if (letter == *L"h") return 'h';
 744              		.loc 1 17 33 view .LVU317
 745 049e 6720     		movs	r0, #103
 746              	.LVL15:
  17:Src/LCD/CharacterConverter_LCD.c ****     if (letter == *L"h") return 'h';
 747              		.loc 1 17 33 view .LVU318
 748 04a0 7047     		bx	lr
 749              	.LVL16:
 750              	.L10:
  18:Src/LCD/CharacterConverter_LCD.c ****     if (letter == *L"i") return 'i';
 751              		.loc 1 18 33 view .LVU319
 752 04a2 6820     		movs	r0, #104
 753              	.LVL17:
  18:Src/LCD/CharacterConverter_LCD.c ****     if (letter == *L"i") return 'i';
 754              		.loc 1 18 33 view .LVU320
 755 04a4 7047     		bx	lr
 756              	.LVL18:
 757              	.L11:
  19:Src/LCD/CharacterConverter_LCD.c ****     if (letter == *L"j") return 'j';
 758              		.loc 1 19 33 view .LVU321
 759 04a6 6920     		movs	r0, #105
 760              	.LVL19:
  19:Src/LCD/CharacterConverter_LCD.c ****     if (letter == *L"j") return 'j';
 761              		.loc 1 19 33 view .LVU322
 762 04a8 7047     		bx	lr
 763              	.LVL20:
 764              	.L12:
  20:Src/LCD/CharacterConverter_LCD.c ****     if (letter == *L"k") return 'k';
 765              		.loc 1 20 33 view .LVU323
 766 04aa 6A20     		movs	r0, #106
 767              	.LVL21:
  20:Src/LCD/CharacterConverter_LCD.c ****     if (letter == *L"k") return 'k';
 768              		.loc 1 20 33 view .LVU324
 769 04ac 7047     		bx	lr
 770              	.LVL22:
 771              	.L13:
  21:Src/LCD/CharacterConverter_LCD.c ****     if (letter == *L"l") return 'l';
 772              		.loc 1 21 33 view .LVU325
 773 04ae 6B20     		movs	r0, #107
 774              	.LVL23:
  21:Src/LCD/CharacterConverter_LCD.c ****     if (letter == *L"l") return 'l';
 775              		.loc 1 21 33 view .LVU326
 776 04b0 7047     		bx	lr
 777              	.LVL24:
 778              	.L14:
  22:Src/LCD/CharacterConverter_LCD.c ****     if (letter == *L"m") return 'm';
 779              		.loc 1 22 33 view .LVU327
 780 04b2 6C20     		movs	r0, #108
 781              	.LVL25:
ARM GAS  /tmp/ccbr5Fnn.s 			page 18


  22:Src/LCD/CharacterConverter_LCD.c ****     if (letter == *L"m") return 'm';
 782              		.loc 1 22 33 view .LVU328
 783 04b4 7047     		bx	lr
 784              	.LVL26:
 785              	.L15:
  23:Src/LCD/CharacterConverter_LCD.c ****     if (letter == *L"n") return 'n';
 786              		.loc 1 23 33 view .LVU329
 787 04b6 6D20     		movs	r0, #109
 788              	.LVL27:
  23:Src/LCD/CharacterConverter_LCD.c ****     if (letter == *L"n") return 'n';
 789              		.loc 1 23 33 view .LVU330
 790 04b8 7047     		bx	lr
 791              	.LVL28:
 792              	.L16:
  24:Src/LCD/CharacterConverter_LCD.c ****     if (letter == *L"o") return 'o';
 793              		.loc 1 24 33 view .LVU331
 794 04ba 6E20     		movs	r0, #110
 795              	.LVL29:
  24:Src/LCD/CharacterConverter_LCD.c ****     if (letter == *L"o") return 'o';
 796              		.loc 1 24 33 view .LVU332
 797 04bc 7047     		bx	lr
 798              	.LVL30:
 799              	.L17:
  25:Src/LCD/CharacterConverter_LCD.c ****     if (letter == *L"p") return 'p';
 800              		.loc 1 25 33 view .LVU333
 801 04be 6F20     		movs	r0, #111
 802              	.LVL31:
  25:Src/LCD/CharacterConverter_LCD.c ****     if (letter == *L"p") return 'p';
 803              		.loc 1 25 33 view .LVU334
 804 04c0 7047     		bx	lr
 805              	.LVL32:
 806              	.L18:
  26:Src/LCD/CharacterConverter_LCD.c ****     if (letter == *L"q") return 'q';
 807              		.loc 1 26 33 view .LVU335
 808 04c2 7020     		movs	r0, #112
 809              	.LVL33:
  26:Src/LCD/CharacterConverter_LCD.c ****     if (letter == *L"q") return 'q';
 810              		.loc 1 26 33 view .LVU336
 811 04c4 7047     		bx	lr
 812              	.LVL34:
 813              	.L19:
  27:Src/LCD/CharacterConverter_LCD.c ****     if (letter == *L"r") return 'r';
 814              		.loc 1 27 33 view .LVU337
 815 04c6 7120     		movs	r0, #113
 816              	.LVL35:
  27:Src/LCD/CharacterConverter_LCD.c ****     if (letter == *L"r") return 'r';
 817              		.loc 1 27 33 view .LVU338
 818 04c8 7047     		bx	lr
 819              	.LVL36:
 820              	.L20:
  28:Src/LCD/CharacterConverter_LCD.c ****     if (letter == *L"s") return 's';
 821              		.loc 1 28 33 view .LVU339
 822 04ca 7220     		movs	r0, #114
 823              	.LVL37:
  28:Src/LCD/CharacterConverter_LCD.c ****     if (letter == *L"s") return 's';
 824              		.loc 1 28 33 view .LVU340
 825 04cc 7047     		bx	lr
ARM GAS  /tmp/ccbr5Fnn.s 			page 19


 826              	.LVL38:
 827              	.L21:
  29:Src/LCD/CharacterConverter_LCD.c ****     if (letter == *L"t") return 't';
 828              		.loc 1 29 33 view .LVU341
 829 04ce 7320     		movs	r0, #115
 830              	.LVL39:
  29:Src/LCD/CharacterConverter_LCD.c ****     if (letter == *L"t") return 't';
 831              		.loc 1 29 33 view .LVU342
 832 04d0 7047     		bx	lr
 833              	.LVL40:
 834              	.L22:
  30:Src/LCD/CharacterConverter_LCD.c ****     if (letter == *L"u") return 'u';
 835              		.loc 1 30 33 view .LVU343
 836 04d2 7420     		movs	r0, #116
 837              	.LVL41:
  30:Src/LCD/CharacterConverter_LCD.c ****     if (letter == *L"u") return 'u';
 838              		.loc 1 30 33 view .LVU344
 839 04d4 7047     		bx	lr
 840              	.LVL42:
 841              	.L23:
  31:Src/LCD/CharacterConverter_LCD.c ****     if (letter == *L"v") return 'v';
 842              		.loc 1 31 33 view .LVU345
 843 04d6 7520     		movs	r0, #117
 844              	.LVL43:
  31:Src/LCD/CharacterConverter_LCD.c ****     if (letter == *L"v") return 'v';
 845              		.loc 1 31 33 view .LVU346
 846 04d8 7047     		bx	lr
 847              	.LVL44:
 848              	.L24:
  32:Src/LCD/CharacterConverter_LCD.c ****     if (letter == *L"w") return 'w';
 849              		.loc 1 32 33 view .LVU347
 850 04da 7620     		movs	r0, #118
 851              	.LVL45:
  32:Src/LCD/CharacterConverter_LCD.c ****     if (letter == *L"w") return 'w';
 852              		.loc 1 32 33 view .LVU348
 853 04dc 7047     		bx	lr
 854              	.LVL46:
 855              	.L25:
  33:Src/LCD/CharacterConverter_LCD.c ****     if (letter == *L"x") return 'x';
 856              		.loc 1 33 33 view .LVU349
 857 04de 7720     		movs	r0, #119
 858              	.LVL47:
  33:Src/LCD/CharacterConverter_LCD.c ****     if (letter == *L"x") return 'x';
 859              		.loc 1 33 33 view .LVU350
 860 04e0 7047     		bx	lr
 861              	.LVL48:
 862              	.L26:
  34:Src/LCD/CharacterConverter_LCD.c ****     if (letter == *L"y") return 'y';
 863              		.loc 1 34 33 view .LVU351
 864 04e2 7820     		movs	r0, #120
 865              	.LVL49:
  34:Src/LCD/CharacterConverter_LCD.c ****     if (letter == *L"y") return 'y';
 866              		.loc 1 34 33 view .LVU352
 867 04e4 7047     		bx	lr
 868              	.LVL50:
 869              	.L27:
  35:Src/LCD/CharacterConverter_LCD.c ****     if (letter == *L"z") return 'z';
ARM GAS  /tmp/ccbr5Fnn.s 			page 20


 870              		.loc 1 35 33 view .LVU353
 871 04e6 7920     		movs	r0, #121
 872              	.LVL51:
  35:Src/LCD/CharacterConverter_LCD.c ****     if (letter == *L"z") return 'z';
 873              		.loc 1 35 33 view .LVU354
 874 04e8 7047     		bx	lr
 875              	.LVL52:
 876              	.L28:
  36:Src/LCD/CharacterConverter_LCD.c ****     if (letter == *L"A") return 'A';
 877              		.loc 1 36 33 view .LVU355
 878 04ea 7A20     		movs	r0, #122
 879              	.LVL53:
  36:Src/LCD/CharacterConverter_LCD.c ****     if (letter == *L"A") return 'A';
 880              		.loc 1 36 33 view .LVU356
 881 04ec 7047     		bx	lr
 882              	.LVL54:
 883              	.L29:
  37:Src/LCD/CharacterConverter_LCD.c ****     if (letter == *L"B") return 'B';
 884              		.loc 1 37 33 view .LVU357
 885 04ee 4120     		movs	r0, #65
 886              	.LVL55:
  37:Src/LCD/CharacterConverter_LCD.c ****     if (letter == *L"B") return 'B';
 887              		.loc 1 37 33 view .LVU358
 888 04f0 7047     		bx	lr
 889              	.LVL56:
 890              	.L30:
  38:Src/LCD/CharacterConverter_LCD.c ****     if (letter == *L"C") return 'C';
 891              		.loc 1 38 33 view .LVU359
 892 04f2 4220     		movs	r0, #66
 893              	.LVL57:
  38:Src/LCD/CharacterConverter_LCD.c ****     if (letter == *L"C") return 'C';
 894              		.loc 1 38 33 view .LVU360
 895 04f4 7047     		bx	lr
 896              	.LVL58:
 897              	.L31:
  39:Src/LCD/CharacterConverter_LCD.c ****     if (letter == *L"D") return 'D';
 898              		.loc 1 39 33 view .LVU361
 899 04f6 4320     		movs	r0, #67
 900              	.LVL59:
  39:Src/LCD/CharacterConverter_LCD.c ****     if (letter == *L"D") return 'D';
 901              		.loc 1 39 33 view .LVU362
 902 04f8 7047     		bx	lr
 903              	.LVL60:
 904              	.L32:
  40:Src/LCD/CharacterConverter_LCD.c ****     if (letter == *L"E") return 'E';
 905              		.loc 1 40 33 view .LVU363
 906 04fa 4420     		movs	r0, #68
 907              	.LVL61:
  40:Src/LCD/CharacterConverter_LCD.c ****     if (letter == *L"E") return 'E';
 908              		.loc 1 40 33 view .LVU364
 909 04fc 7047     		bx	lr
 910              	.LVL62:
 911              	.L33:
  41:Src/LCD/CharacterConverter_LCD.c ****     if (letter == *L"F") return 'F';
 912              		.loc 1 41 33 view .LVU365
 913 04fe 4520     		movs	r0, #69
 914              	.LVL63:
ARM GAS  /tmp/ccbr5Fnn.s 			page 21


  41:Src/LCD/CharacterConverter_LCD.c ****     if (letter == *L"F") return 'F';
 915              		.loc 1 41 33 view .LVU366
 916 0500 7047     		bx	lr
 917              	.LVL64:
 918              	.L34:
  42:Src/LCD/CharacterConverter_LCD.c ****     if (letter == *L"G") return 'G';
 919              		.loc 1 42 33 view .LVU367
 920 0502 4620     		movs	r0, #70
 921              	.LVL65:
  42:Src/LCD/CharacterConverter_LCD.c ****     if (letter == *L"G") return 'G';
 922              		.loc 1 42 33 view .LVU368
 923 0504 7047     		bx	lr
 924              	.LVL66:
 925              	.L35:
  43:Src/LCD/CharacterConverter_LCD.c ****     if (letter == *L"H") return 'H';
 926              		.loc 1 43 33 view .LVU369
 927 0506 4720     		movs	r0, #71
 928              	.LVL67:
  43:Src/LCD/CharacterConverter_LCD.c ****     if (letter == *L"H") return 'H';
 929              		.loc 1 43 33 view .LVU370
 930 0508 7047     		bx	lr
 931              	.LVL68:
 932              	.L36:
  44:Src/LCD/CharacterConverter_LCD.c ****     if (letter == *L"I") return 'I';
 933              		.loc 1 44 33 view .LVU371
 934 050a 4820     		movs	r0, #72
 935              	.LVL69:
  44:Src/LCD/CharacterConverter_LCD.c ****     if (letter == *L"I") return 'I';
 936              		.loc 1 44 33 view .LVU372
 937 050c 7047     		bx	lr
 938              	.LVL70:
 939              	.L37:
  45:Src/LCD/CharacterConverter_LCD.c ****     if (letter == *L"J") return 'J';
 940              		.loc 1 45 33 view .LVU373
 941 050e 4920     		movs	r0, #73
 942              	.LVL71:
  45:Src/LCD/CharacterConverter_LCD.c ****     if (letter == *L"J") return 'J';
 943              		.loc 1 45 33 view .LVU374
 944 0510 7047     		bx	lr
 945              	.LVL72:
 946              	.L38:
  46:Src/LCD/CharacterConverter_LCD.c ****     if (letter == *L"K") return 'K';
 947              		.loc 1 46 33 view .LVU375
 948 0512 4A20     		movs	r0, #74
 949              	.LVL73:
  46:Src/LCD/CharacterConverter_LCD.c ****     if (letter == *L"K") return 'K';
 950              		.loc 1 46 33 view .LVU376
 951 0514 7047     		bx	lr
 952              	.LVL74:
 953              	.L39:
  47:Src/LCD/CharacterConverter_LCD.c ****     if (letter == *L"L") return 'L';
 954              		.loc 1 47 33 view .LVU377
 955 0516 4B20     		movs	r0, #75
 956              	.LVL75:
  47:Src/LCD/CharacterConverter_LCD.c ****     if (letter == *L"L") return 'L';
 957              		.loc 1 47 33 view .LVU378
 958 0518 7047     		bx	lr
ARM GAS  /tmp/ccbr5Fnn.s 			page 22


 959              	.LVL76:
 960              	.L40:
  48:Src/LCD/CharacterConverter_LCD.c ****     if (letter == *L"M") return 'M';
 961              		.loc 1 48 33 view .LVU379
 962 051a 4C20     		movs	r0, #76
 963              	.LVL77:
  48:Src/LCD/CharacterConverter_LCD.c ****     if (letter == *L"M") return 'M';
 964              		.loc 1 48 33 view .LVU380
 965 051c 7047     		bx	lr
 966              	.LVL78:
 967              	.L41:
  49:Src/LCD/CharacterConverter_LCD.c ****     if (letter == *L"N") return 'N';
 968              		.loc 1 49 33 view .LVU381
 969 051e 4D20     		movs	r0, #77
 970              	.LVL79:
  49:Src/LCD/CharacterConverter_LCD.c ****     if (letter == *L"N") return 'N';
 971              		.loc 1 49 33 view .LVU382
 972 0520 7047     		bx	lr
 973              	.LVL80:
 974              	.L42:
  50:Src/LCD/CharacterConverter_LCD.c ****     if (letter == *L"O") return 'O';
 975              		.loc 1 50 33 view .LVU383
 976 0522 4E20     		movs	r0, #78
 977              	.LVL81:
  50:Src/LCD/CharacterConverter_LCD.c ****     if (letter == *L"O") return 'O';
 978              		.loc 1 50 33 view .LVU384
 979 0524 7047     		bx	lr
 980              	.LVL82:
 981              	.L43:
  51:Src/LCD/CharacterConverter_LCD.c ****     if (letter == *L"P") return 'P';
 982              		.loc 1 51 33 view .LVU385
 983 0526 4F20     		movs	r0, #79
 984              	.LVL83:
  51:Src/LCD/CharacterConverter_LCD.c ****     if (letter == *L"P") return 'P';
 985              		.loc 1 51 33 view .LVU386
 986 0528 7047     		bx	lr
 987              	.LVL84:
 988              	.L44:
  52:Src/LCD/CharacterConverter_LCD.c ****     if (letter == *L"Q") return 'Q';
 989              		.loc 1 52 33 view .LVU387
 990 052a 5020     		movs	r0, #80
 991              	.LVL85:
  52:Src/LCD/CharacterConverter_LCD.c ****     if (letter == *L"Q") return 'Q';
 992              		.loc 1 52 33 view .LVU388
 993 052c 7047     		bx	lr
 994              	.LVL86:
 995              	.L45:
  53:Src/LCD/CharacterConverter_LCD.c ****     if (letter == *L"R") return 'R';
 996              		.loc 1 53 33 view .LVU389
 997 052e 5120     		movs	r0, #81
 998              	.LVL87:
  53:Src/LCD/CharacterConverter_LCD.c ****     if (letter == *L"R") return 'R';
 999              		.loc 1 53 33 view .LVU390
 1000 0530 7047     		bx	lr
 1001              	.LVL88:
 1002              	.L46:
  54:Src/LCD/CharacterConverter_LCD.c ****     if (letter == *L"S") return 'S';
ARM GAS  /tmp/ccbr5Fnn.s 			page 23


 1003              		.loc 1 54 33 view .LVU391
 1004 0532 5220     		movs	r0, #82
 1005              	.LVL89:
  54:Src/LCD/CharacterConverter_LCD.c ****     if (letter == *L"S") return 'S';
 1006              		.loc 1 54 33 view .LVU392
 1007 0534 7047     		bx	lr
 1008              	.LVL90:
 1009              	.L47:
  55:Src/LCD/CharacterConverter_LCD.c ****     if (letter == *L"T") return 'T';
 1010              		.loc 1 55 33 view .LVU393
 1011 0536 5320     		movs	r0, #83
 1012              	.LVL91:
  55:Src/LCD/CharacterConverter_LCD.c ****     if (letter == *L"T") return 'T';
 1013              		.loc 1 55 33 view .LVU394
 1014 0538 7047     		bx	lr
 1015              	.LVL92:
 1016              	.L48:
  56:Src/LCD/CharacterConverter_LCD.c ****     if (letter == *L"U") return 'U';
 1017              		.loc 1 56 33 view .LVU395
 1018 053a 5420     		movs	r0, #84
 1019              	.LVL93:
  56:Src/LCD/CharacterConverter_LCD.c ****     if (letter == *L"U") return 'U';
 1020              		.loc 1 56 33 view .LVU396
 1021 053c 7047     		bx	lr
 1022              	.LVL94:
 1023              	.L49:
  57:Src/LCD/CharacterConverter_LCD.c ****     if (letter == *L"V") return 'V';
 1024              		.loc 1 57 33 view .LVU397
 1025 053e 5520     		movs	r0, #85
 1026              	.LVL95:
  57:Src/LCD/CharacterConverter_LCD.c ****     if (letter == *L"V") return 'V';
 1027              		.loc 1 57 33 view .LVU398
 1028 0540 7047     		bx	lr
 1029              	.LVL96:
 1030              	.L50:
  58:Src/LCD/CharacterConverter_LCD.c ****     if (letter == *L"W") return 'W';
 1031              		.loc 1 58 33 view .LVU399
 1032 0542 5620     		movs	r0, #86
 1033              	.LVL97:
  58:Src/LCD/CharacterConverter_LCD.c ****     if (letter == *L"W") return 'W';
 1034              		.loc 1 58 33 view .LVU400
 1035 0544 7047     		bx	lr
 1036              	.LVL98:
 1037              	.L51:
  59:Src/LCD/CharacterConverter_LCD.c ****     if (letter == *L"X") return 'X';
 1038              		.loc 1 59 33 view .LVU401
 1039 0546 5720     		movs	r0, #87
 1040              	.LVL99:
  59:Src/LCD/CharacterConverter_LCD.c ****     if (letter == *L"X") return 'X';
 1041              		.loc 1 59 33 view .LVU402
 1042 0548 7047     		bx	lr
 1043              	.LVL100:
 1044              	.L52:
  60:Src/LCD/CharacterConverter_LCD.c ****     if (letter == *L"Y") return 'Y';
 1045              		.loc 1 60 33 view .LVU403
 1046 054a 5820     		movs	r0, #88
 1047              	.LVL101:
ARM GAS  /tmp/ccbr5Fnn.s 			page 24


  60:Src/LCD/CharacterConverter_LCD.c ****     if (letter == *L"Y") return 'Y';
 1048              		.loc 1 60 33 view .LVU404
 1049 054c 7047     		bx	lr
 1050              	.LVL102:
 1051              	.L53:
  61:Src/LCD/CharacterConverter_LCD.c ****     if (letter == *L"Z") return 'Z';
 1052              		.loc 1 61 33 view .LVU405
 1053 054e 5920     		movs	r0, #89
 1054              	.LVL103:
  61:Src/LCD/CharacterConverter_LCD.c ****     if (letter == *L"Z") return 'Z';
 1055              		.loc 1 61 33 view .LVU406
 1056 0550 7047     		bx	lr
 1057              	.LVL104:
 1058              	.L54:
  62:Src/LCD/CharacterConverter_LCD.c ****     //Russian alphabed
 1059              		.loc 1 62 33 view .LVU407
 1060 0552 5A20     		movs	r0, #90
 1061              	.LVL105:
  62:Src/LCD/CharacterConverter_LCD.c ****     //Russian alphabed
 1062              		.loc 1 62 33 view .LVU408
 1063 0554 7047     		bx	lr
 1064              	.LVL106:
 1065              	.L55:
  64:Src/LCD/CharacterConverter_LCD.c ****     if (letter == *L"б") return (char)0xB2;//0b10110010;
 1066              		.loc 1 64 34 view .LVU409
 1067 0556 6120     		movs	r0, #97
 1068              	.LVL107:
  64:Src/LCD/CharacterConverter_LCD.c ****     if (letter == *L"б") return (char)0xB2;//0b10110010;
 1069              		.loc 1 64 34 view .LVU410
 1070 0558 7047     		bx	lr
 1071              	.LVL108:
 1072              	.L56:
  65:Src/LCD/CharacterConverter_LCD.c ****     if (letter == *L"в") return (char)0xB3;//0b10110011;
 1073              		.loc 1 65 34 view .LVU411
 1074 055a B220     		movs	r0, #178
 1075              	.LVL109:
  65:Src/LCD/CharacterConverter_LCD.c ****     if (letter == *L"в") return (char)0xB3;//0b10110011;
 1076              		.loc 1 65 34 view .LVU412
 1077 055c 7047     		bx	lr
 1078              	.LVL110:
 1079              	.L57:
  66:Src/LCD/CharacterConverter_LCD.c ****     if (letter == *L"г") return (char)0xB4;//0b10110100;
 1080              		.loc 1 66 34 view .LVU413
 1081 055e B320     		movs	r0, #179
 1082              	.LVL111:
  66:Src/LCD/CharacterConverter_LCD.c ****     if (letter == *L"г") return (char)0xB4;//0b10110100;
 1083              		.loc 1 66 34 view .LVU414
 1084 0560 7047     		bx	lr
 1085              	.LVL112:
 1086              	.L58:
  67:Src/LCD/CharacterConverter_LCD.c ****     if (letter == *L"д") return (char)0xE3;//0b11100011;
 1087              		.loc 1 67 34 view .LVU415
 1088 0562 B420     		movs	r0, #180
 1089              	.LVL113:
  67:Src/LCD/CharacterConverter_LCD.c ****     if (letter == *L"д") return (char)0xE3;//0b11100011;
 1090              		.loc 1 67 34 view .LVU416
 1091 0564 7047     		bx	lr
ARM GAS  /tmp/ccbr5Fnn.s 			page 25


 1092              	.LVL114:
 1093              	.L59:
  68:Src/LCD/CharacterConverter_LCD.c ****     if (letter == *L"е") return (char)0x65;//0b01100101;
 1094              		.loc 1 68 34 view .LVU417
 1095 0566 E320     		movs	r0, #227
 1096              	.LVL115:
  68:Src/LCD/CharacterConverter_LCD.c ****     if (letter == *L"е") return (char)0x65;//0b01100101;
 1097              		.loc 1 68 34 view .LVU418
 1098 0568 7047     		bx	lr
 1099              	.LVL116:
 1100              	.L60:
  69:Src/LCD/CharacterConverter_LCD.c ****     if (letter == *L"ё") return (char)0xB5;//0b10110101;
 1101              		.loc 1 69 34 view .LVU419
 1102 056a 6520     		movs	r0, #101
 1103              	.LVL117:
  69:Src/LCD/CharacterConverter_LCD.c ****     if (letter == *L"ё") return (char)0xB5;//0b10110101;
 1104              		.loc 1 69 34 view .LVU420
 1105 056c 7047     		bx	lr
 1106              	.LVL118:
 1107              	.L61:
  70:Src/LCD/CharacterConverter_LCD.c ****     if (letter == *L"ж") return (char)0xB6;//0b10110110;
 1108              		.loc 1 70 34 view .LVU421
 1109 056e B520     		movs	r0, #181
 1110              	.LVL119:
  70:Src/LCD/CharacterConverter_LCD.c ****     if (letter == *L"ж") return (char)0xB6;//0b10110110;
 1111              		.loc 1 70 34 view .LVU422
 1112 0570 7047     		bx	lr
 1113              	.LVL120:
 1114              	.L62:
  71:Src/LCD/CharacterConverter_LCD.c ****     if (letter == *L"з") return (char)0xB7;//0b10110111;
 1115              		.loc 1 71 34 view .LVU423
 1116 0572 B620     		movs	r0, #182
 1117              	.LVL121:
  71:Src/LCD/CharacterConverter_LCD.c ****     if (letter == *L"з") return (char)0xB7;//0b10110111;
 1118              		.loc 1 71 34 view .LVU424
 1119 0574 7047     		bx	lr
 1120              	.LVL122:
 1121              	.L63:
  72:Src/LCD/CharacterConverter_LCD.c ****     if (letter == *L"и") return (char)0xB8;//0b10111000;
 1122              		.loc 1 72 34 view .LVU425
 1123 0576 B720     		movs	r0, #183
 1124              	.LVL123:
  72:Src/LCD/CharacterConverter_LCD.c ****     if (letter == *L"и") return (char)0xB8;//0b10111000;
 1125              		.loc 1 72 34 view .LVU426
 1126 0578 7047     		bx	lr
 1127              	.LVL124:
 1128              	.L64:
  73:Src/LCD/CharacterConverter_LCD.c ****     if (letter == *L"й") return (char)0xB9;//0b10111001;
 1129              		.loc 1 73 34 view .LVU427
 1130 057a B820     		movs	r0, #184
 1131              	.LVL125:
  73:Src/LCD/CharacterConverter_LCD.c ****     if (letter == *L"й") return (char)0xB9;//0b10111001;
 1132              		.loc 1 73 34 view .LVU428
 1133 057c 7047     		bx	lr
 1134              	.LVL126:
 1135              	.L65:
  74:Src/LCD/CharacterConverter_LCD.c ****     if (letter == *L"к") return (char)0xBA;//0b10111010;
ARM GAS  /tmp/ccbr5Fnn.s 			page 26


 1136              		.loc 1 74 34 view .LVU429
 1137 057e B920     		movs	r0, #185
 1138              	.LVL127:
  74:Src/LCD/CharacterConverter_LCD.c ****     if (letter == *L"к") return (char)0xBA;//0b10111010;
 1139              		.loc 1 74 34 view .LVU430
 1140 0580 7047     		bx	lr
 1141              	.LVL128:
 1142              	.L66:
  75:Src/LCD/CharacterConverter_LCD.c ****     if (letter == *L"л") return (char)0xBB;//0b10111011;
 1143              		.loc 1 75 34 view .LVU431
 1144 0582 BA20     		movs	r0, #186
 1145              	.LVL129:
  75:Src/LCD/CharacterConverter_LCD.c ****     if (letter == *L"л") return (char)0xBB;//0b10111011;
 1146              		.loc 1 75 34 view .LVU432
 1147 0584 7047     		bx	lr
 1148              	.LVL130:
 1149              	.L67:
  76:Src/LCD/CharacterConverter_LCD.c ****     if (letter == *L"м") return (char)0xBC;//0b10111100;
 1150              		.loc 1 76 34 view .LVU433
 1151 0586 BB20     		movs	r0, #187
 1152              	.LVL131:
  76:Src/LCD/CharacterConverter_LCD.c ****     if (letter == *L"м") return (char)0xBC;//0b10111100;
 1153              		.loc 1 76 34 view .LVU434
 1154 0588 7047     		bx	lr
 1155              	.LVL132:
 1156              	.L68:
  77:Src/LCD/CharacterConverter_LCD.c ****     if (letter == *L"н") return (char)0xBD;//0b10111101;
 1157              		.loc 1 77 34 view .LVU435
 1158 058a BC20     		movs	r0, #188
 1159              	.LVL133:
  77:Src/LCD/CharacterConverter_LCD.c ****     if (letter == *L"н") return (char)0xBD;//0b10111101;
 1160              		.loc 1 77 34 view .LVU436
 1161 058c 7047     		bx	lr
 1162              	.LVL134:
 1163              	.L69:
  78:Src/LCD/CharacterConverter_LCD.c ****     if (letter == *L"о") return (char)0x6F;//0b01101111;
 1164              		.loc 1 78 34 view .LVU437
 1165 058e BD20     		movs	r0, #189
 1166              	.LVL135:
  78:Src/LCD/CharacterConverter_LCD.c ****     if (letter == *L"о") return (char)0x6F;//0b01101111;
 1167              		.loc 1 78 34 view .LVU438
 1168 0590 7047     		bx	lr
 1169              	.LVL136:
 1170              	.L70:
  79:Src/LCD/CharacterConverter_LCD.c ****     if (letter == *L"п") return (char)0xBE;//0b10111110;
 1171              		.loc 1 79 34 view .LVU439
 1172 0592 6F20     		movs	r0, #111
 1173              	.LVL137:
  79:Src/LCD/CharacterConverter_LCD.c ****     if (letter == *L"п") return (char)0xBE;//0b10111110;
 1174              		.loc 1 79 34 view .LVU440
 1175 0594 7047     		bx	lr
 1176              	.LVL138:
 1177              	.L71:
  80:Src/LCD/CharacterConverter_LCD.c ****     if (letter == *L"р") return (char)0x70;//0b01110000;
 1178              		.loc 1 80 34 view .LVU441
 1179 0596 BE20     		movs	r0, #190
 1180              	.LVL139:
ARM GAS  /tmp/ccbr5Fnn.s 			page 27


  80:Src/LCD/CharacterConverter_LCD.c ****     if (letter == *L"р") return (char)0x70;//0b01110000;
 1181              		.loc 1 80 34 view .LVU442
 1182 0598 7047     		bx	lr
 1183              	.LVL140:
 1184              	.L72:
  81:Src/LCD/CharacterConverter_LCD.c ****     if (letter == *L"с") return (char)0x63;//0b01100011;
 1185              		.loc 1 81 34 view .LVU443
 1186 059a 7020     		movs	r0, #112
 1187              	.LVL141:
  81:Src/LCD/CharacterConverter_LCD.c ****     if (letter == *L"с") return (char)0x63;//0b01100011;
 1188              		.loc 1 81 34 view .LVU444
 1189 059c 7047     		bx	lr
 1190              	.LVL142:
 1191              	.L73:
  82:Src/LCD/CharacterConverter_LCD.c ****     if (letter == *L"т") return (char)0xBF;//0b10111111;
 1192              		.loc 1 82 34 view .LVU445
 1193 059e 6320     		movs	r0, #99
 1194              	.LVL143:
  82:Src/LCD/CharacterConverter_LCD.c ****     if (letter == *L"т") return (char)0xBF;//0b10111111;
 1195              		.loc 1 82 34 view .LVU446
 1196 05a0 7047     		bx	lr
 1197              	.LVL144:
 1198              	.L74:
  83:Src/LCD/CharacterConverter_LCD.c ****     if (letter == *L"у") return (char)0x79;//0b01111001;
 1199              		.loc 1 83 34 view .LVU447
 1200 05a2 BF20     		movs	r0, #191
 1201              	.LVL145:
  83:Src/LCD/CharacterConverter_LCD.c ****     if (letter == *L"у") return (char)0x79;//0b01111001;
 1202              		.loc 1 83 34 view .LVU448
 1203 05a4 7047     		bx	lr
 1204              	.LVL146:
 1205              	.L75:
  84:Src/LCD/CharacterConverter_LCD.c ****     if (letter == *L"ф") return (char)0xE4;//0b11100100;
 1206              		.loc 1 84 34 view .LVU449
 1207 05a6 7920     		movs	r0, #121
 1208              	.LVL147:
  84:Src/LCD/CharacterConverter_LCD.c ****     if (letter == *L"ф") return (char)0xE4;//0b11100100;
 1209              		.loc 1 84 34 view .LVU450
 1210 05a8 7047     		bx	lr
 1211              	.LVL148:
 1212              	.L76:
  85:Src/LCD/CharacterConverter_LCD.c ****     if (letter == *L"х") return (char)0x78;//0b01111000;
 1213              		.loc 1 85 34 view .LVU451
 1214 05aa E420     		movs	r0, #228
 1215              	.LVL149:
  85:Src/LCD/CharacterConverter_LCD.c ****     if (letter == *L"х") return (char)0x78;//0b01111000;
 1216              		.loc 1 85 34 view .LVU452
 1217 05ac 7047     		bx	lr
 1218              	.LVL150:
 1219              	.L77:
  86:Src/LCD/CharacterConverter_LCD.c ****     if (letter == *L"ц") return (char)0xE5;//0b11100101;
 1220              		.loc 1 86 34 view .LVU453
 1221 05ae 7820     		movs	r0, #120
 1222              	.LVL151:
  86:Src/LCD/CharacterConverter_LCD.c ****     if (letter == *L"ц") return (char)0xE5;//0b11100101;
 1223              		.loc 1 86 34 view .LVU454
 1224 05b0 7047     		bx	lr
ARM GAS  /tmp/ccbr5Fnn.s 			page 28


 1225              	.LVL152:
 1226              	.L78:
  87:Src/LCD/CharacterConverter_LCD.c ****     if (letter == *L"ч") return (char)0xC0;//0b11000000;
 1227              		.loc 1 87 34 view .LVU455
 1228 05b2 E520     		movs	r0, #229
 1229              	.LVL153:
  87:Src/LCD/CharacterConverter_LCD.c ****     if (letter == *L"ч") return (char)0xC0;//0b11000000;
 1230              		.loc 1 87 34 view .LVU456
 1231 05b4 7047     		bx	lr
 1232              	.LVL154:
 1233              	.L79:
  88:Src/LCD/CharacterConverter_LCD.c ****     if (letter == *L"ш") return (char)0xC1;//0b11000001;
 1234              		.loc 1 88 34 view .LVU457
 1235 05b6 C020     		movs	r0, #192
 1236              	.LVL155:
  88:Src/LCD/CharacterConverter_LCD.c ****     if (letter == *L"ш") return (char)0xC1;//0b11000001;
 1237              		.loc 1 88 34 view .LVU458
 1238 05b8 7047     		bx	lr
 1239              	.LVL156:
 1240              	.L80:
  89:Src/LCD/CharacterConverter_LCD.c ****     if (letter == *L"щ") return (char)0xE6;//0b11100110;
 1241              		.loc 1 89 34 view .LVU459
 1242 05ba C120     		movs	r0, #193
 1243              	.LVL157:
  89:Src/LCD/CharacterConverter_LCD.c ****     if (letter == *L"щ") return (char)0xE6;//0b11100110;
 1244              		.loc 1 89 34 view .LVU460
 1245 05bc 7047     		bx	lr
 1246              	.LVL158:
 1247              	.L81:
  90:Src/LCD/CharacterConverter_LCD.c ****     if (letter == *L"ъ") return (char)0xC2;//0b11000010;
 1248              		.loc 1 90 34 view .LVU461
 1249 05be E620     		movs	r0, #230
 1250              	.LVL159:
  90:Src/LCD/CharacterConverter_LCD.c ****     if (letter == *L"ъ") return (char)0xC2;//0b11000010;
 1251              		.loc 1 90 34 view .LVU462
 1252 05c0 7047     		bx	lr
 1253              	.LVL160:
 1254              	.L82:
  91:Src/LCD/CharacterConverter_LCD.c ****     if (letter == *L"ы") return (char)0xC3;//0b11000011;
 1255              		.loc 1 91 34 view .LVU463
 1256 05c2 C220     		movs	r0, #194
 1257              	.LVL161:
  91:Src/LCD/CharacterConverter_LCD.c ****     if (letter == *L"ы") return (char)0xC3;//0b11000011;
 1258              		.loc 1 91 34 view .LVU464
 1259 05c4 7047     		bx	lr
 1260              	.LVL162:
 1261              	.L83:
  92:Src/LCD/CharacterConverter_LCD.c ****     if (letter == *L"ь") return (char)0xC4;//0b11000100;
 1262              		.loc 1 92 34 view .LVU465
 1263 05c6 C320     		movs	r0, #195
 1264              	.LVL163:
  92:Src/LCD/CharacterConverter_LCD.c ****     if (letter == *L"ь") return (char)0xC4;//0b11000100;
 1265              		.loc 1 92 34 view .LVU466
 1266 05c8 7047     		bx	lr
 1267              	.LVL164:
 1268              	.L84:
  93:Src/LCD/CharacterConverter_LCD.c ****     if (letter == *L"э") return (char)0xC5;//0b11000101;
ARM GAS  /tmp/ccbr5Fnn.s 			page 29


 1269              		.loc 1 93 34 view .LVU467
 1270 05ca C420     		movs	r0, #196
 1271              	.LVL165:
  93:Src/LCD/CharacterConverter_LCD.c ****     if (letter == *L"э") return (char)0xC5;//0b11000101;
 1272              		.loc 1 93 34 view .LVU468
 1273 05cc 7047     		bx	lr
 1274              	.LVL166:
 1275              	.L85:
  94:Src/LCD/CharacterConverter_LCD.c ****     if (letter == *L"ю") return (char)0xC6;//0b11000110;
 1276              		.loc 1 94 34 view .LVU469
 1277 05ce C520     		movs	r0, #197
 1278              	.LVL167:
  94:Src/LCD/CharacterConverter_LCD.c ****     if (letter == *L"ю") return (char)0xC6;//0b11000110;
 1279              		.loc 1 94 34 view .LVU470
 1280 05d0 7047     		bx	lr
 1281              	.LVL168:
 1282              	.L86:
  95:Src/LCD/CharacterConverter_LCD.c ****     if (letter == *L"я") return (char)0xC7;//0b11000111;
 1283              		.loc 1 95 34 view .LVU471
 1284 05d2 C620     		movs	r0, #198
 1285              	.LVL169:
  95:Src/LCD/CharacterConverter_LCD.c ****     if (letter == *L"я") return (char)0xC7;//0b11000111;
 1286              		.loc 1 95 34 view .LVU472
 1287 05d4 7047     		bx	lr
 1288              	.LVL170:
 1289              	.L87:
  96:Src/LCD/CharacterConverter_LCD.c ****     if (letter == *L"А") return (char)0x41;//0b01000001;
 1290              		.loc 1 96 34 view .LVU473
 1291 05d6 C720     		movs	r0, #199
 1292              	.LVL171:
  96:Src/LCD/CharacterConverter_LCD.c ****     if (letter == *L"А") return (char)0x41;//0b01000001;
 1293              		.loc 1 96 34 view .LVU474
 1294 05d8 7047     		bx	lr
 1295              	.LVL172:
 1296              	.L88:
  97:Src/LCD/CharacterConverter_LCD.c ****     if (letter == *L"Б") return (char)0xA0;//0b10100000;
 1297              		.loc 1 97 34 view .LVU475
 1298 05da 4120     		movs	r0, #65
 1299              	.LVL173:
  97:Src/LCD/CharacterConverter_LCD.c ****     if (letter == *L"Б") return (char)0xA0;//0b10100000;
 1300              		.loc 1 97 34 view .LVU476
 1301 05dc 7047     		bx	lr
 1302              	.LVL174:
 1303              	.L89:
  98:Src/LCD/CharacterConverter_LCD.c ****     if (letter == *L"В") return (char)0x42;//0b01000010;
 1304              		.loc 1 98 34 view .LVU477
 1305 05de A020     		movs	r0, #160
 1306              	.LVL175:
  98:Src/LCD/CharacterConverter_LCD.c ****     if (letter == *L"В") return (char)0x42;//0b01000010;
 1307              		.loc 1 98 34 view .LVU478
 1308 05e0 7047     		bx	lr
 1309              	.LVL176:
 1310              	.L90:
  99:Src/LCD/CharacterConverter_LCD.c ****     if (letter == *L"Г") return (char)0xA1;//0b10100001;
 1311              		.loc 1 99 34 view .LVU479
 1312 05e2 4220     		movs	r0, #66
 1313              	.LVL177:
ARM GAS  /tmp/ccbr5Fnn.s 			page 30


  99:Src/LCD/CharacterConverter_LCD.c ****     if (letter == *L"Г") return (char)0xA1;//0b10100001;
 1314              		.loc 1 99 34 view .LVU480
 1315 05e4 7047     		bx	lr
 1316              	.LVL178:
 1317              	.L91:
 100:Src/LCD/CharacterConverter_LCD.c ****     if (letter == *L"Д") return (char)0xE0;//0b11100000;
 1318              		.loc 1 100 34 view .LVU481
 1319 05e6 A120     		movs	r0, #161
 1320              	.LVL179:
 100:Src/LCD/CharacterConverter_LCD.c ****     if (letter == *L"Д") return (char)0xE0;//0b11100000;
 1321              		.loc 1 100 34 view .LVU482
 1322 05e8 7047     		bx	lr
 1323              	.LVL180:
 1324              	.L92:
 101:Src/LCD/CharacterConverter_LCD.c ****     if (letter == *L"Е") return (char)0x45;//0b01000101;
 1325              		.loc 1 101 34 view .LVU483
 1326 05ea E020     		movs	r0, #224
 1327              	.LVL181:
 101:Src/LCD/CharacterConverter_LCD.c ****     if (letter == *L"Е") return (char)0x45;//0b01000101;
 1328              		.loc 1 101 34 view .LVU484
 1329 05ec 7047     		bx	lr
 1330              	.LVL182:
 1331              	.L93:
 102:Src/LCD/CharacterConverter_LCD.c ****     if (letter == *L"Ё") return (char)0x45;//0b01000101;
 1332              		.loc 1 102 34 view .LVU485
 1333 05ee 4520     		movs	r0, #69
 1334              	.LVL183:
 102:Src/LCD/CharacterConverter_LCD.c ****     if (letter == *L"Ё") return (char)0x45;//0b01000101;
 1335              		.loc 1 102 34 view .LVU486
 1336 05f0 7047     		bx	lr
 1337              	.LVL184:
 1338              	.L94:
 103:Src/LCD/CharacterConverter_LCD.c ****     if (letter == *L"Ж") return (char)0xA3;//0b10100011;
 1339              		.loc 1 103 34 view .LVU487
 1340 05f2 4520     		movs	r0, #69
 1341              	.LVL185:
 103:Src/LCD/CharacterConverter_LCD.c ****     if (letter == *L"Ж") return (char)0xA3;//0b10100011;
 1342              		.loc 1 103 34 view .LVU488
 1343 05f4 7047     		bx	lr
 1344              	.LVL186:
 1345              	.L95:
 104:Src/LCD/CharacterConverter_LCD.c ****     if (letter == *L"З") return (char)0xA4;//0b10100100;
 1346              		.loc 1 104 34 view .LVU489
 1347 05f6 A320     		movs	r0, #163
 1348              	.LVL187:
 104:Src/LCD/CharacterConverter_LCD.c ****     if (letter == *L"З") return (char)0xA4;//0b10100100;
 1349              		.loc 1 104 34 view .LVU490
 1350 05f8 7047     		bx	lr
 1351              	.LVL188:
 1352              	.L96:
 105:Src/LCD/CharacterConverter_LCD.c ****     if (letter == *L"И") return (char)0xA5;//0b10100101;
 1353              		.loc 1 105 34 view .LVU491
 1354 05fa A420     		movs	r0, #164
 1355              	.LVL189:
 105:Src/LCD/CharacterConverter_LCD.c ****     if (letter == *L"И") return (char)0xA5;//0b10100101;
 1356              		.loc 1 105 34 view .LVU492
 1357 05fc 7047     		bx	lr
ARM GAS  /tmp/ccbr5Fnn.s 			page 31


 1358              	.LVL190:
 1359              	.L97:
 106:Src/LCD/CharacterConverter_LCD.c ****     if (letter == *L"Й") return (char)0xA6;//0b10100110;
 1360              		.loc 1 106 34 view .LVU493
 1361 05fe A520     		movs	r0, #165
 1362              	.LVL191:
 106:Src/LCD/CharacterConverter_LCD.c ****     if (letter == *L"Й") return (char)0xA6;//0b10100110;
 1363              		.loc 1 106 34 view .LVU494
 1364 0600 7047     		bx	lr
 1365              	.LVL192:
 1366              	.L98:
 107:Src/LCD/CharacterConverter_LCD.c ****     if (letter == *L"К") return (char)0x4B;//0b01001011;
 1367              		.loc 1 107 34 view .LVU495
 1368 0602 A620     		movs	r0, #166
 1369              	.LVL193:
 107:Src/LCD/CharacterConverter_LCD.c ****     if (letter == *L"К") return (char)0x4B;//0b01001011;
 1370              		.loc 1 107 34 view .LVU496
 1371 0604 7047     		bx	lr
 1372              	.LVL194:
 1373              	.L99:
 108:Src/LCD/CharacterConverter_LCD.c ****     if (letter == *L"Л") return (char)0xA7;//0b10100111;
 1374              		.loc 1 108 34 view .LVU497
 1375 0606 4B20     		movs	r0, #75
 1376              	.LVL195:
 108:Src/LCD/CharacterConverter_LCD.c ****     if (letter == *L"Л") return (char)0xA7;//0b10100111;
 1377              		.loc 1 108 34 view .LVU498
 1378 0608 7047     		bx	lr
 1379              	.LVL196:
 1380              	.L100:
 109:Src/LCD/CharacterConverter_LCD.c ****     if (letter == *L"М") return (char)0x4D;//0b01001101;
 1381              		.loc 1 109 34 view .LVU499
 1382 060a A720     		movs	r0, #167
 1383              	.LVL197:
 109:Src/LCD/CharacterConverter_LCD.c ****     if (letter == *L"М") return (char)0x4D;//0b01001101;
 1384              		.loc 1 109 34 view .LVU500
 1385 060c 7047     		bx	lr
 1386              	.LVL198:
 1387              	.L101:
 110:Src/LCD/CharacterConverter_LCD.c ****     if (letter == *L"Н") return (char)0x48;//0b01001000;
 1388              		.loc 1 110 34 view .LVU501
 1389 060e 4D20     		movs	r0, #77
 1390              	.LVL199:
 110:Src/LCD/CharacterConverter_LCD.c ****     if (letter == *L"Н") return (char)0x48;//0b01001000;
 1391              		.loc 1 110 34 view .LVU502
 1392 0610 7047     		bx	lr
 1393              	.LVL200:
 1394              	.L102:
 111:Src/LCD/CharacterConverter_LCD.c ****     if (letter == *L"О") return (char)0x4F;//0b01001111;
 1395              		.loc 1 111 34 view .LVU503
 1396 0612 4820     		movs	r0, #72
 1397              	.LVL201:
 111:Src/LCD/CharacterConverter_LCD.c ****     if (letter == *L"О") return (char)0x4F;//0b01001111;
 1398              		.loc 1 111 34 view .LVU504
 1399 0614 7047     		bx	lr
 1400              	.LVL202:
 1401              	.L103:
 112:Src/LCD/CharacterConverter_LCD.c ****     if (letter == *L"П") return (char)0xA8;//0b10101000;
ARM GAS  /tmp/ccbr5Fnn.s 			page 32


 1402              		.loc 1 112 34 view .LVU505
 1403 0616 4F20     		movs	r0, #79
 1404              	.LVL203:
 112:Src/LCD/CharacterConverter_LCD.c ****     if (letter == *L"П") return (char)0xA8;//0b10101000;
 1405              		.loc 1 112 34 view .LVU506
 1406 0618 7047     		bx	lr
 1407              	.LVL204:
 1408              	.L104:
 113:Src/LCD/CharacterConverter_LCD.c ****     if (letter == *L"Р") return (char)0x50;//0b01010000;
 1409              		.loc 1 113 34 view .LVU507
 1410 061a A820     		movs	r0, #168
 1411              	.LVL205:
 113:Src/LCD/CharacterConverter_LCD.c ****     if (letter == *L"Р") return (char)0x50;//0b01010000;
 1412              		.loc 1 113 34 view .LVU508
 1413 061c 7047     		bx	lr
 1414              	.LVL206:
 1415              	.L105:
 114:Src/LCD/CharacterConverter_LCD.c ****     if (letter == *L"С") return (char)0x43;//0b01000011;
 1416              		.loc 1 114 34 view .LVU509
 1417 061e 5020     		movs	r0, #80
 1418              	.LVL207:
 114:Src/LCD/CharacterConverter_LCD.c ****     if (letter == *L"С") return (char)0x43;//0b01000011;
 1419              		.loc 1 114 34 view .LVU510
 1420 0620 7047     		bx	lr
 1421              	.LVL208:
 1422              	.L106:
 115:Src/LCD/CharacterConverter_LCD.c ****     if (letter == *L"Т") return (char)0x54;//0b01010100;
 1423              		.loc 1 115 34 view .LVU511
 1424 0622 4320     		movs	r0, #67
 1425              	.LVL209:
 115:Src/LCD/CharacterConverter_LCD.c ****     if (letter == *L"Т") return (char)0x54;//0b01010100;
 1426              		.loc 1 115 34 view .LVU512
 1427 0624 7047     		bx	lr
 1428              	.LVL210:
 1429              	.L107:
 116:Src/LCD/CharacterConverter_LCD.c ****     if (letter == *L"У") return (char)0xA9;//0b10101001;
 1430              		.loc 1 116 34 view .LVU513
 1431 0626 5420     		movs	r0, #84
 1432              	.LVL211:
 116:Src/LCD/CharacterConverter_LCD.c ****     if (letter == *L"У") return (char)0xA9;//0b10101001;
 1433              		.loc 1 116 34 view .LVU514
 1434 0628 7047     		bx	lr
 1435              	.LVL212:
 1436              	.L108:
 117:Src/LCD/CharacterConverter_LCD.c ****     if (letter == *L"Ф") return (char)0xAA;//0b10101010;
 1437              		.loc 1 117 34 view .LVU515
 1438 062a A920     		movs	r0, #169
 1439              	.LVL213:
 117:Src/LCD/CharacterConverter_LCD.c ****     if (letter == *L"Ф") return (char)0xAA;//0b10101010;
 1440              		.loc 1 117 34 view .LVU516
 1441 062c 7047     		bx	lr
 1442              	.LVL214:
 1443              	.L109:
 118:Src/LCD/CharacterConverter_LCD.c ****     if (letter == *L"Х") return (char)0x58;//0b01011000;
 1444              		.loc 1 118 34 view .LVU517
 1445 062e AA20     		movs	r0, #170
 1446              	.LVL215:
ARM GAS  /tmp/ccbr5Fnn.s 			page 33


 118:Src/LCD/CharacterConverter_LCD.c ****     if (letter == *L"Х") return (char)0x58;//0b01011000;
 1447              		.loc 1 118 34 view .LVU518
 1448 0630 7047     		bx	lr
 1449              	.LVL216:
 1450              	.L110:
 119:Src/LCD/CharacterConverter_LCD.c ****     if (letter == *L"Ц") return (char)0xE1;//0b11100001;
 1451              		.loc 1 119 34 view .LVU519
 1452 0632 5820     		movs	r0, #88
 1453              	.LVL217:
 119:Src/LCD/CharacterConverter_LCD.c ****     if (letter == *L"Ц") return (char)0xE1;//0b11100001;
 1454              		.loc 1 119 34 view .LVU520
 1455 0634 7047     		bx	lr
 1456              	.LVL218:
 1457              	.L111:
 120:Src/LCD/CharacterConverter_LCD.c ****     if (letter == *L"Ч") return (char)0xAB;//0b10101011;
 1458              		.loc 1 120 34 view .LVU521
 1459 0636 E120     		movs	r0, #225
 1460              	.LVL219:
 120:Src/LCD/CharacterConverter_LCD.c ****     if (letter == *L"Ч") return (char)0xAB;//0b10101011;
 1461              		.loc 1 120 34 view .LVU522
 1462 0638 7047     		bx	lr
 1463              	.LVL220:
 1464              	.L112:
 121:Src/LCD/CharacterConverter_LCD.c ****     if (letter == *L"Ш") return (char)0xAC;//0b10101100;
 1465              		.loc 1 121 34 view .LVU523
 1466 063a AB20     		movs	r0, #171
 1467              	.LVL221:
 121:Src/LCD/CharacterConverter_LCD.c ****     if (letter == *L"Ш") return (char)0xAC;//0b10101100;
 1468              		.loc 1 121 34 view .LVU524
 1469 063c 7047     		bx	lr
 1470              	.LVL222:
 1471              	.L113:
 122:Src/LCD/CharacterConverter_LCD.c ****     if (letter == *L"Щ") return (char)0xE2;//0b11100010;
 1472              		.loc 1 122 34 view .LVU525
 1473 063e AC20     		movs	r0, #172
 1474              	.LVL223:
 122:Src/LCD/CharacterConverter_LCD.c ****     if (letter == *L"Щ") return (char)0xE2;//0b11100010;
 1475              		.loc 1 122 34 view .LVU526
 1476 0640 7047     		bx	lr
 1477              	.LVL224:
 1478              	.L114:
 123:Src/LCD/CharacterConverter_LCD.c ****     if (letter == *L"Ъ") return (char)0xAD;//0b10101101;
 1479              		.loc 1 123 34 view .LVU527
 1480 0642 E220     		movs	r0, #226
 1481              	.LVL225:
 123:Src/LCD/CharacterConverter_LCD.c ****     if (letter == *L"Ъ") return (char)0xAD;//0b10101101;
 1482              		.loc 1 123 34 view .LVU528
 1483 0644 7047     		bx	lr
 1484              	.LVL226:
 1485              	.L115:
 124:Src/LCD/CharacterConverter_LCD.c ****     if (letter == *L"Ы") return (char)0xAE;//0b10101110;
 1486              		.loc 1 124 34 view .LVU529
 1487 0646 AD20     		movs	r0, #173
 1488              	.LVL227:
 124:Src/LCD/CharacterConverter_LCD.c ****     if (letter == *L"Ы") return (char)0xAE;//0b10101110;
 1489              		.loc 1 124 34 view .LVU530
 1490 0648 7047     		bx	lr
ARM GAS  /tmp/ccbr5Fnn.s 			page 34


 1491              	.LVL228:
 1492              	.L116:
 125:Src/LCD/CharacterConverter_LCD.c ****     if (letter == *L"Ь") return (char)0x62;//0b01100010;
 1493              		.loc 1 125 34 view .LVU531
 1494 064a AE20     		movs	r0, #174
 1495              	.LVL229:
 125:Src/LCD/CharacterConverter_LCD.c ****     if (letter == *L"Ь") return (char)0x62;//0b01100010;
 1496              		.loc 1 125 34 view .LVU532
 1497 064c 7047     		bx	lr
 1498              	.LVL230:
 1499              	.L117:
 126:Src/LCD/CharacterConverter_LCD.c ****     if (letter == *L"Э") return (char)0xAF;//0b10101111;
 1500              		.loc 1 126 34 view .LVU533
 1501 064e 6220     		movs	r0, #98
 1502              	.LVL231:
 126:Src/LCD/CharacterConverter_LCD.c ****     if (letter == *L"Э") return (char)0xAF;//0b10101111;
 1503              		.loc 1 126 34 view .LVU534
 1504 0650 7047     		bx	lr
 1505              	.LVL232:
 1506              	.L118:
 127:Src/LCD/CharacterConverter_LCD.c ****     if (letter == *L"Ю") return (char)0xB0;//0b10110000;
 1507              		.loc 1 127 34 view .LVU535
 1508 0652 AF20     		movs	r0, #175
 1509              	.LVL233:
 127:Src/LCD/CharacterConverter_LCD.c ****     if (letter == *L"Ю") return (char)0xB0;//0b10110000;
 1510              		.loc 1 127 34 view .LVU536
 1511 0654 7047     		bx	lr
 1512              	.LVL234:
 1513              	.L119:
 128:Src/LCD/CharacterConverter_LCD.c ****     if (letter == *L"Я") return (char)0xB1;//0b10110001;
 1514              		.loc 1 128 34 view .LVU537
 1515 0656 B020     		movs	r0, #176
 1516              	.LVL235:
 128:Src/LCD/CharacterConverter_LCD.c ****     if (letter == *L"Я") return (char)0xB1;//0b10110001;
 1517              		.loc 1 128 34 view .LVU538
 1518 0658 7047     		bx	lr
 1519              	.LVL236:
 1520              	.L120:
 129:Src/LCD/CharacterConverter_LCD.c ****     //Special characters
 1521              		.loc 1 129 34 view .LVU539
 1522 065a B120     		movs	r0, #177
 1523              	.LVL237:
 129:Src/LCD/CharacterConverter_LCD.c ****     //Special characters
 1524              		.loc 1 129 34 view .LVU540
 1525 065c 7047     		bx	lr
 1526              	.LVL238:
 1527              	.L121:
 131:Src/LCD/CharacterConverter_LCD.c ****     if (letter == *L"<") return '<';
 1528              		.loc 1 131 33 view .LVU541
 1529 065e 3E20     		movs	r0, #62
 1530              	.LVL239:
 131:Src/LCD/CharacterConverter_LCD.c ****     if (letter == *L"<") return '<';
 1531              		.loc 1 131 33 view .LVU542
 1532 0660 7047     		bx	lr
 1533              	.LVL240:
 1534              	.L122:
 132:Src/LCD/CharacterConverter_LCD.c ****     if (letter == *L")") return ')';
ARM GAS  /tmp/ccbr5Fnn.s 			page 35


 1535              		.loc 1 132 33 view .LVU543
 1536 0662 3C20     		movs	r0, #60
 1537              	.LVL241:
 132:Src/LCD/CharacterConverter_LCD.c ****     if (letter == *L")") return ')';
 1538              		.loc 1 132 33 view .LVU544
 1539 0664 7047     		bx	lr
 1540              	.LVL242:
 1541              	.L123:
 133:Src/LCD/CharacterConverter_LCD.c ****     if (letter == *L"(") return '(';
 1542              		.loc 1 133 33 view .LVU545
 1543 0666 2920     		movs	r0, #41
 1544              	.LVL243:
 133:Src/LCD/CharacterConverter_LCD.c ****     if (letter == *L"(") return '(';
 1545              		.loc 1 133 33 view .LVU546
 1546 0668 7047     		bx	lr
 1547              	.LVL244:
 1548              	.L124:
 134:Src/LCD/CharacterConverter_LCD.c ****     if (letter == *L"\"") return '\"';
 1549              		.loc 1 134 33 view .LVU547
 1550 066a 2820     		movs	r0, #40
 1551              	.LVL245:
 134:Src/LCD/CharacterConverter_LCD.c ****     if (letter == *L"\"") return '\"';
 1552              		.loc 1 134 33 view .LVU548
 1553 066c 7047     		bx	lr
 1554              	.LVL246:
 1555              	.L125:
 135:Src/LCD/CharacterConverter_LCD.c ****     if (letter == *L"!") return '!';
 1556              		.loc 1 135 34 view .LVU549
 1557 066e 2220     		movs	r0, #34
 1558              	.LVL247:
 135:Src/LCD/CharacterConverter_LCD.c ****     if (letter == *L"!") return '!';
 1559              		.loc 1 135 34 view .LVU550
 1560 0670 7047     		bx	lr
 1561              	.LVL248:
 1562              	.L126:
 136:Src/LCD/CharacterConverter_LCD.c ****     if (letter == *L"?") return '?';
 1563              		.loc 1 136 33 view .LVU551
 1564 0672 2120     		movs	r0, #33
 1565              	.LVL249:
 136:Src/LCD/CharacterConverter_LCD.c ****     if (letter == *L"?") return '?';
 1566              		.loc 1 136 33 view .LVU552
 1567 0674 7047     		bx	lr
 1568              	.LVL250:
 1569              	.L127:
 137:Src/LCD/CharacterConverter_LCD.c ****     if (letter == *L"#") return '#';
 1570              		.loc 1 137 33 view .LVU553
 1571 0676 3F20     		movs	r0, #63
 1572              	.LVL251:
 137:Src/LCD/CharacterConverter_LCD.c ****     if (letter == *L"#") return '#';
 1573              		.loc 1 137 33 view .LVU554
 1574 0678 7047     		bx	lr
 1575              	.LVL252:
 1576              	.L128:
 138:Src/LCD/CharacterConverter_LCD.c ****     if (letter == *L"$") return '$';
 1577              		.loc 1 138 33 view .LVU555
 1578 067a 2320     		movs	r0, #35
 1579              	.LVL253:
ARM GAS  /tmp/ccbr5Fnn.s 			page 36


 138:Src/LCD/CharacterConverter_LCD.c ****     if (letter == *L"$") return '$';
 1580              		.loc 1 138 33 view .LVU556
 1581 067c 7047     		bx	lr
 1582              	.LVL254:
 1583              	.L129:
 139:Src/LCD/CharacterConverter_LCD.c ****     if (letter == *L"%") return '%';
 1584              		.loc 1 139 33 view .LVU557
 1585 067e 2420     		movs	r0, #36
 1586              	.LVL255:
 139:Src/LCD/CharacterConverter_LCD.c ****     if (letter == *L"%") return '%';
 1587              		.loc 1 139 33 view .LVU558
 1588 0680 7047     		bx	lr
 1589              	.LVL256:
 1590              	.L130:
 140:Src/LCD/CharacterConverter_LCD.c ****     if (letter == *L"\'") return '\'';
 1591              		.loc 1 140 33 view .LVU559
 1592 0682 2520     		movs	r0, #37
 1593              	.LVL257:
 140:Src/LCD/CharacterConverter_LCD.c ****     if (letter == *L"\'") return '\'';
 1594              		.loc 1 140 33 view .LVU560
 1595 0684 7047     		bx	lr
 1596              	.LVL258:
 1597              	.L131:
 141:Src/LCD/CharacterConverter_LCD.c ****     if (letter == *L"*") return '*';
 1598              		.loc 1 141 34 view .LVU561
 1599 0686 2720     		movs	r0, #39
 1600              	.LVL259:
 141:Src/LCD/CharacterConverter_LCD.c ****     if (letter == *L"*") return '*';
 1601              		.loc 1 141 34 view .LVU562
 1602 0688 7047     		bx	lr
 1603              	.LVL260:
 1604              	.L132:
 142:Src/LCD/CharacterConverter_LCD.c ****     if (letter == *L"-") return '-';
 1605              		.loc 1 142 33 view .LVU563
 1606 068a 2A20     		movs	r0, #42
 1607              	.LVL261:
 142:Src/LCD/CharacterConverter_LCD.c ****     if (letter == *L"-") return '-';
 1608              		.loc 1 142 33 view .LVU564
 1609 068c 7047     		bx	lr
 1610              	.LVL262:
 1611              	.L133:
 143:Src/LCD/CharacterConverter_LCD.c ****     if (letter == *L"+") return '+';
 1612              		.loc 1 143 33 view .LVU565
 1613 068e 2D20     		movs	r0, #45
 1614              	.LVL263:
 143:Src/LCD/CharacterConverter_LCD.c ****     if (letter == *L"+") return '+';
 1615              		.loc 1 143 33 view .LVU566
 1616 0690 7047     		bx	lr
 1617              	.LVL264:
 1618              	.L134:
 144:Src/LCD/CharacterConverter_LCD.c ****     if (letter == *L".") return '.';
 1619              		.loc 1 144 33 view .LVU567
 1620 0692 2B20     		movs	r0, #43
 1621              	.LVL265:
 144:Src/LCD/CharacterConverter_LCD.c ****     if (letter == *L".") return '.';
 1622              		.loc 1 144 33 view .LVU568
 1623 0694 7047     		bx	lr
ARM GAS  /tmp/ccbr5Fnn.s 			page 37


 1624              	.LVL266:
 1625              	.L135:
 145:Src/LCD/CharacterConverter_LCD.c ****     if (letter == *L",") return ',';
 1626              		.loc 1 145 33 view .LVU569
 1627 0696 2E20     		movs	r0, #46
 1628              	.LVL267:
 145:Src/LCD/CharacterConverter_LCD.c ****     if (letter == *L",") return ',';
 1629              		.loc 1 145 33 view .LVU570
 1630 0698 7047     		bx	lr
 1631              	.LVL268:
 1632              	.L136:
 146:Src/LCD/CharacterConverter_LCD.c ****     if (letter == *L"_") return '_';
 1633              		.loc 1 146 33 view .LVU571
 1634 069a 2C20     		movs	r0, #44
 1635              	.LVL269:
 146:Src/LCD/CharacterConverter_LCD.c ****     if (letter == *L"_") return '_';
 1636              		.loc 1 146 33 view .LVU572
 1637 069c 7047     		bx	lr
 1638              	.LVL270:
 1639              	.L137:
 147:Src/LCD/CharacterConverter_LCD.c ****     if (letter == *L"=") return '=';
 1640              		.loc 1 147 33 view .LVU573
 1641 069e 5F20     		movs	r0, #95
 1642              	.LVL271:
 147:Src/LCD/CharacterConverter_LCD.c ****     if (letter == *L"=") return '=';
 1643              		.loc 1 147 33 view .LVU574
 1644 06a0 7047     		bx	lr
 1645              	.LVL272:
 1646              	.L138:
 148:Src/LCD/CharacterConverter_LCD.c ****     if (letter == *L"^") return '^';
 1647              		.loc 1 148 33 view .LVU575
 1648 06a2 3D20     		movs	r0, #61
 1649              	.LVL273:
 148:Src/LCD/CharacterConverter_LCD.c ****     if (letter == *L"^") return '^';
 1650              		.loc 1 148 33 view .LVU576
 1651 06a4 7047     		bx	lr
 1652              	.LVL274:
 1653              	.L139:
 149:Src/LCD/CharacterConverter_LCD.c ****     if (letter == *L"/") return '/';
 1654              		.loc 1 149 33 view .LVU577
 1655 06a6 5E20     		movs	r0, #94
 1656              	.LVL275:
 149:Src/LCD/CharacterConverter_LCD.c ****     if (letter == *L"/") return '/';
 1657              		.loc 1 149 33 view .LVU578
 1658 06a8 7047     		bx	lr
 1659              	.LVL276:
 1660              	.L140:
 150:Src/LCD/CharacterConverter_LCD.c ****     if (letter == *L":") return ':';
 1661              		.loc 1 150 33 view .LVU579
 1662 06aa 2F20     		movs	r0, #47
 1663              	.LVL277:
 150:Src/LCD/CharacterConverter_LCD.c ****     if (letter == *L":") return ':';
 1664              		.loc 1 150 33 view .LVU580
 1665 06ac 7047     		bx	lr
 1666              	.LVL278:
 1667              	.L141:
 151:Src/LCD/CharacterConverter_LCD.c ****     if (letter == *L";") return ';';
ARM GAS  /tmp/ccbr5Fnn.s 			page 38


 1668              		.loc 1 151 33 view .LVU581
 1669 06ae 3A20     		movs	r0, #58
 1670              	.LVL279:
 151:Src/LCD/CharacterConverter_LCD.c ****     if (letter == *L";") return ';';
 1671              		.loc 1 151 33 view .LVU582
 1672 06b0 7047     		bx	lr
 1673              	.LVL280:
 1674              	.L142:
 152:Src/LCD/CharacterConverter_LCD.c ****     if (letter == *L" ") return ' ';
 1675              		.loc 1 152 33 view .LVU583
 1676 06b2 3B20     		movs	r0, #59
 1677              	.LVL281:
 152:Src/LCD/CharacterConverter_LCD.c ****     if (letter == *L" ") return ' ';
 1678              		.loc 1 152 33 view .LVU584
 1679 06b4 7047     		bx	lr
 1680              	.LVL282:
 1681              	.L143:
 153:Src/LCD/CharacterConverter_LCD.c ****     //Numbers
 1682              		.loc 1 153 33 view .LVU585
 1683 06b6 2020     		movs	r0, #32
 1684              	.LVL283:
 153:Src/LCD/CharacterConverter_LCD.c ****     //Numbers
 1685              		.loc 1 153 33 view .LVU586
 1686 06b8 7047     		bx	lr
 1687              	.LVL284:
 1688              	.L144:
 155:Src/LCD/CharacterConverter_LCD.c ****     if (letter == *L"1") return '1';
 1689              		.loc 1 155 33 view .LVU587
 1690 06ba 3020     		movs	r0, #48
 1691              	.LVL285:
 155:Src/LCD/CharacterConverter_LCD.c ****     if (letter == *L"1") return '1';
 1692              		.loc 1 155 33 view .LVU588
 1693 06bc 7047     		bx	lr
 1694              	.LVL286:
 1695              	.L145:
 156:Src/LCD/CharacterConverter_LCD.c ****     if (letter == *L"2") return '2';
 1696              		.loc 1 156 33 view .LVU589
 1697 06be 3120     		movs	r0, #49
 1698              	.LVL287:
 156:Src/LCD/CharacterConverter_LCD.c ****     if (letter == *L"2") return '2';
 1699              		.loc 1 156 33 view .LVU590
 1700 06c0 7047     		bx	lr
 1701              	.LVL288:
 1702              	.L146:
 157:Src/LCD/CharacterConverter_LCD.c ****     if (letter == *L"3") return '3';
 1703              		.loc 1 157 33 view .LVU591
 1704 06c2 3220     		movs	r0, #50
 1705              	.LVL289:
 157:Src/LCD/CharacterConverter_LCD.c ****     if (letter == *L"3") return '3';
 1706              		.loc 1 157 33 view .LVU592
 1707 06c4 7047     		bx	lr
 1708              	.LVL290:
 1709              	.L147:
 158:Src/LCD/CharacterConverter_LCD.c ****     if (letter == *L"4") return '4';
 1710              		.loc 1 158 33 view .LVU593
 1711 06c6 3320     		movs	r0, #51
 1712              	.LVL291:
ARM GAS  /tmp/ccbr5Fnn.s 			page 39


 158:Src/LCD/CharacterConverter_LCD.c ****     if (letter == *L"4") return '4';
 1713              		.loc 1 158 33 view .LVU594
 1714 06c8 7047     		bx	lr
 1715              	.LVL292:
 1716              	.L148:
 159:Src/LCD/CharacterConverter_LCD.c ****     if (letter == *L"5") return '5';
 1717              		.loc 1 159 33 view .LVU595
 1718 06ca 3420     		movs	r0, #52
 1719              	.LVL293:
 159:Src/LCD/CharacterConverter_LCD.c ****     if (letter == *L"5") return '5';
 1720              		.loc 1 159 33 view .LVU596
 1721 06cc 7047     		bx	lr
 1722              	.LVL294:
 1723              	.L149:
 160:Src/LCD/CharacterConverter_LCD.c ****     if (letter == *L"6") return '6';
 1724              		.loc 1 160 33 view .LVU597
 1725 06ce 3520     		movs	r0, #53
 1726              	.LVL295:
 160:Src/LCD/CharacterConverter_LCD.c ****     if (letter == *L"6") return '6';
 1727              		.loc 1 160 33 view .LVU598
 1728 06d0 7047     		bx	lr
 1729              	.LVL296:
 1730              	.L150:
 161:Src/LCD/CharacterConverter_LCD.c ****     if (letter == *L"7") return '7';
 1731              		.loc 1 161 33 view .LVU599
 1732 06d2 3620     		movs	r0, #54
 1733              	.LVL297:
 161:Src/LCD/CharacterConverter_LCD.c ****     if (letter == *L"7") return '7';
 1734              		.loc 1 161 33 view .LVU600
 1735 06d4 7047     		bx	lr
 1736              	.LVL298:
 1737              	.L151:
 162:Src/LCD/CharacterConverter_LCD.c ****     if (letter == *L"8") return '8';
 1738              		.loc 1 162 33 view .LVU601
 1739 06d6 3720     		movs	r0, #55
 1740              	.LVL299:
 162:Src/LCD/CharacterConverter_LCD.c ****     if (letter == *L"8") return '8';
 1741              		.loc 1 162 33 view .LVU602
 1742 06d8 7047     		bx	lr
 1743              	.LVL300:
 1744              	.L152:
 163:Src/LCD/CharacterConverter_LCD.c ****     if (letter == *L"9") return '9';
 1745              		.loc 1 163 33 view .LVU603
 1746 06da 3820     		movs	r0, #56
 1747              	.LVL301:
 163:Src/LCD/CharacterConverter_LCD.c ****     if (letter == *L"9") return '9';
 1748              		.loc 1 163 33 view .LVU604
 1749 06dc 7047     		bx	lr
 1750              	.LVL302:
 1751              	.L153:
 164:Src/LCD/CharacterConverter_LCD.c ****     //Default character
 1752              		.loc 1 164 33 view .LVU605
 1753 06de 3920     		movs	r0, #57
 1754              	.LVL303:
 167:Src/LCD/CharacterConverter_LCD.c **** }
 1755              		.loc 1 167 1 view .LVU606
 1756 06e0 7047     		bx	lr
ARM GAS  /tmp/ccbr5Fnn.s 			page 40


 1757              		.cfi_endproc
 1758              	.LFE0:
 1760              		.text
 1761              	.Letext0:
 1762              		.file 2 "/usr/lib/gcc/arm-none-eabi/9.2.1/include/stddef.h"
 1763              		.file 3 "/usr/include/newlib/sys/_types.h"
 1764              		.file 4 "/usr/include/newlib/sys/reent.h"
 1765              		.file 5 "/usr/include/newlib/sys/lock.h"
 1766              		.file 6 "/usr/include/newlib/sys/unistd.h"
ARM GAS  /tmp/ccbr5Fnn.s 			page 41


DEFINED SYMBOLS
                            *ABS*:0000000000000000 CharacterConverter_LCD.c
     /tmp/ccbr5Fnn.s:16     .text.convertCharacter_LCD:0000000000000000 $t
     /tmp/ccbr5Fnn.s:24     .text.convertCharacter_LCD:0000000000000000 convertCharacter_LCD

NO UNDEFINED SYMBOLS
