ARM GAS  /tmp/ccSiL4BS.s 			page 1


   1              		.cpu cortex-m3
   2              		.eabi_attribute 20, 1
   3              		.eabi_attribute 21, 1
   4              		.eabi_attribute 23, 3
   5              		.eabi_attribute 24, 1
   6              		.eabi_attribute 25, 1
   7              		.eabi_attribute 26, 1
   8              		.eabi_attribute 30, 1
   9              		.eabi_attribute 34, 1
  10              		.eabi_attribute 18, 4
  11              		.file	"Constructor_Menu.c"
  12              		.text
  13              	.Ltext0:
  14              		.cfi_sections	.debug_frame
  15              		.section	.text.onlyFirstNodeRemains,"ax",%progbits
  16              		.align	1
  17              		.syntax unified
  18              		.thumb
  19              		.thumb_func
  20              		.fpu softvfp
  22              	onlyFirstNodeRemains:
  23              	.LFB3:
  24              		.file 1 "Src/Menu/Constructor_Menu.c"
   1:Src/Menu/Constructor_Menu.c **** #include "Constructor_Menu.h"
   2:Src/Menu/Constructor_Menu.c **** 
   3:Src/Menu/Constructor_Menu.c **** #include "stdint.h"
   4:Src/Menu/Constructor_Menu.c **** #include <wchar.h>
   5:Src/Menu/Constructor_Menu.c **** #include "stdbool.h"
   6:Src/Menu/Constructor_Menu.c **** #include <stdlib.h>
   7:Src/Menu/Constructor_Menu.c **** 
   8:Src/Menu/Constructor_Menu.c **** static menuNode* pMenuNode = NULL;
   9:Src/Menu/Constructor_Menu.c **** 
  10:Src/Menu/Constructor_Menu.c **** void createFirstNode_Menu(const wchar_t* titleNewNode, const wchar_t* nameNewNode)
  11:Src/Menu/Constructor_Menu.c **** {
  12:Src/Menu/Constructor_Menu.c ****     pMenuNode = malloc(sizeof(menuNode));
  13:Src/Menu/Constructor_Menu.c ****     wmemcpy(pMenuNode->title, titleNewNode, MENU_TITLE_LENGTH);
  14:Src/Menu/Constructor_Menu.c ****     wmemcpy(pMenuNode->name, nameNewNode, MENU_NAME_LENGTH);
  15:Src/Menu/Constructor_Menu.c ****     pMenuNode->pUpNode = NULL;
  16:Src/Menu/Constructor_Menu.c ****     pMenuNode->pDownNode = NULL;
  17:Src/Menu/Constructor_Menu.c ****     pMenuNode->pRightNode = NULL;
  18:Src/Menu/Constructor_Menu.c ****     pMenuNode->pLeftNode = NULL;
  19:Src/Menu/Constructor_Menu.c ****     pMenuNode->pfnOk = NULL;
  20:Src/Menu/Constructor_Menu.c ****     pMenuNode->pfnBack = NULL;
  21:Src/Menu/Constructor_Menu.c ****     pMenuNode->pfnUp = NULL;
  22:Src/Menu/Constructor_Menu.c ****     pMenuNode->pfnDown = NULL;
  23:Src/Menu/Constructor_Menu.c **** }
  24:Src/Menu/Constructor_Menu.c **** 
  25:Src/Menu/Constructor_Menu.c **** void createRightNode_Menu(const wchar_t* titleNewNode, const wchar_t* nameNewNode)
  26:Src/Menu/Constructor_Menu.c **** {
  27:Src/Menu/Constructor_Menu.c ****     pMenuNode->pRightNode = malloc(sizeof(menuNode));
  28:Src/Menu/Constructor_Menu.c ****     pMenuNode->pRightNode->pLeftNode = pMenuNode;
  29:Src/Menu/Constructor_Menu.c ****     wmemcpy(pMenuNode->pRightNode->title, titleNewNode, MENU_TITLE_LENGTH);
  30:Src/Menu/Constructor_Menu.c ****     wmemcpy(pMenuNode->pRightNode->name, nameNewNode, MENU_NAME_LENGTH);
  31:Src/Menu/Constructor_Menu.c ****     pMenuNode->pRightNode->pDownNode = NULL;
  32:Src/Menu/Constructor_Menu.c ****     pMenuNode->pRightNode->pUpNode = NULL;
  33:Src/Menu/Constructor_Menu.c ****     pMenuNode->pRightNode->pRightNode = NULL;
  34:Src/Menu/Constructor_Menu.c ****     pMenuNode->pRightNode->pfnOk = NULL;
ARM GAS  /tmp/ccSiL4BS.s 			page 2


  35:Src/Menu/Constructor_Menu.c ****     pMenuNode->pRightNode->pfnBack = NULL;
  36:Src/Menu/Constructor_Menu.c ****     pMenuNode->pRightNode->pfnUp = NULL;
  37:Src/Menu/Constructor_Menu.c ****     pMenuNode->pRightNode->pfnDown = NULL;
  38:Src/Menu/Constructor_Menu.c **** }
  39:Src/Menu/Constructor_Menu.c **** 
  40:Src/Menu/Constructor_Menu.c **** void createDownNode_Menu(const wchar_t* nameNewNode)
  41:Src/Menu/Constructor_Menu.c **** {
  42:Src/Menu/Constructor_Menu.c ****     pMenuNode->pDownNode = malloc(sizeof(menuNode));
  43:Src/Menu/Constructor_Menu.c ****     pMenuNode->pDownNode->pUpNode = pMenuNode;
  44:Src/Menu/Constructor_Menu.c ****     wmemcpy(pMenuNode->pDownNode->title, pMenuNode->title, MENU_TITLE_LENGTH);
  45:Src/Menu/Constructor_Menu.c ****     wmemcpy(pMenuNode->pDownNode->name, nameNewNode, MENU_NAME_LENGTH);
  46:Src/Menu/Constructor_Menu.c ****     pMenuNode->pDownNode->pDownNode = NULL;
  47:Src/Menu/Constructor_Menu.c ****     pMenuNode->pDownNode->pRightNode = NULL;
  48:Src/Menu/Constructor_Menu.c ****     pMenuNode->pDownNode->pLeftNode = pMenuNode->pLeftNode;
  49:Src/Menu/Constructor_Menu.c ****     pMenuNode->pDownNode->pfnOk = NULL;
  50:Src/Menu/Constructor_Menu.c ****     pMenuNode->pDownNode->pfnBack = NULL;
  51:Src/Menu/Constructor_Menu.c ****     pMenuNode->pDownNode->pfnUp = NULL;
  52:Src/Menu/Constructor_Menu.c ****     pMenuNode->pDownNode->pfnDown = NULL;
  53:Src/Menu/Constructor_Menu.c **** }
  54:Src/Menu/Constructor_Menu.c **** 
  55:Src/Menu/Constructor_Menu.c **** 
  56:Src/Menu/Constructor_Menu.c **** 
  57:Src/Menu/Constructor_Menu.c **** 
  58:Src/Menu/Constructor_Menu.c **** static _Bool onlyFirstNodeRemains(void)
  59:Src/Menu/Constructor_Menu.c **** {
  25              		.loc 1 59 0
  26              		.cfi_startproc
  27              		@ args = 0, pretend = 0, frame = 0
  28              		@ frame_needed = 0, uses_anonymous_args = 0
  29              		@ link register save eliminated.
  60:Src/Menu/Constructor_Menu.c ****     if (pMenuNode->pUpNode != NULL)
  30              		.loc 1 60 0
  31 0000 0B4B     		ldr	r3, .L10
  32 0002 1B68     		ldr	r3, [r3]
  33 0004 D3F8F020 		ldr	r2, [r3, #240]
  34 0008 0AB1     		cbz	r2, .L7
  61:Src/Menu/Constructor_Menu.c ****         return false;
  35              		.loc 1 61 0
  36 000a 0020     		movs	r0, #0
  37 000c 7047     		bx	lr
  38              	.L7:
  62:Src/Menu/Constructor_Menu.c ****     if (pMenuNode->pDownNode != NULL)
  39              		.loc 1 62 0
  40 000e D3F8F420 		ldr	r2, [r3, #244]
  41 0012 0AB1     		cbz	r2, .L8
  63:Src/Menu/Constructor_Menu.c ****         return false;
  42              		.loc 1 63 0
  43 0014 0020     		movs	r0, #0
  44 0016 7047     		bx	lr
  45              	.L8:
  64:Src/Menu/Constructor_Menu.c ****     if (pMenuNode->pRightNode != NULL)
  46              		.loc 1 64 0
  47 0018 D3F8FC20 		ldr	r2, [r3, #252]
  48 001c 0AB1     		cbz	r2, .L9
  65:Src/Menu/Constructor_Menu.c ****         return false;
  49              		.loc 1 65 0
  50 001e 0020     		movs	r0, #0
ARM GAS  /tmp/ccSiL4BS.s 			page 3


  51 0020 7047     		bx	lr
  52              	.L9:
  66:Src/Menu/Constructor_Menu.c ****     if (pMenuNode->pLeftNode != NULL)
  53              		.loc 1 66 0
  54 0022 D3F8F830 		ldr	r3, [r3, #248]
  55 0026 0BB1     		cbz	r3, .L6
  67:Src/Menu/Constructor_Menu.c ****         return false;
  56              		.loc 1 67 0
  57 0028 0020     		movs	r0, #0
  58 002a 7047     		bx	lr
  59              	.L6:
  68:Src/Menu/Constructor_Menu.c ****     return true;
  60              		.loc 1 68 0
  61 002c 0120     		movs	r0, #1
  69:Src/Menu/Constructor_Menu.c **** }
  62              		.loc 1 69 0
  63 002e 7047     		bx	lr
  64              	.L11:
  65              		.align	2
  66              	.L10:
  67 0030 00000000 		.word	.LANCHOR0
  68              		.cfi_endproc
  69              	.LFE3:
  71              		.section	.text.createFirstNode_Menu,"ax",%progbits
  72              		.align	1
  73              		.global	createFirstNode_Menu
  74              		.syntax unified
  75              		.thumb
  76              		.thumb_func
  77              		.fpu softvfp
  79              	createFirstNode_Menu:
  80              	.LFB0:
  11:Src/Menu/Constructor_Menu.c ****     pMenuNode = malloc(sizeof(menuNode));
  81              		.loc 1 11 0
  82              		.cfi_startproc
  83              		@ args = 0, pretend = 0, frame = 0
  84              		@ frame_needed = 0, uses_anonymous_args = 0
  85              	.LVL0:
  86 0000 70B5     		push	{r4, r5, r6, lr}
  87              	.LCFI0:
  88              		.cfi_def_cfa_offset 16
  89              		.cfi_offset 4, -16
  90              		.cfi_offset 5, -12
  91              		.cfi_offset 6, -8
  92              		.cfi_offset 14, -4
  93 0002 0646     		mov	r6, r0
  94 0004 0D46     		mov	r5, r1
  12:Src/Menu/Constructor_Menu.c ****     wmemcpy(pMenuNode->title, titleNewNode, MENU_TITLE_LENGTH);
  95              		.loc 1 12 0
  96 0006 4FF48870 		mov	r0, #272
  97              	.LVL1:
  98 000a FFF7FEFF 		bl	malloc
  99              	.LVL2:
 100 000e 0F4C     		ldr	r4, .L14
 101 0010 2060     		str	r0, [r4]
  13:Src/Menu/Constructor_Menu.c ****     wmemcpy(pMenuNode->name, nameNewNode, MENU_NAME_LENGTH);
 102              		.loc 1 13 0
ARM GAS  /tmp/ccSiL4BS.s 			page 4


 103 0012 1422     		movs	r2, #20
 104 0014 3146     		mov	r1, r6
 105 0016 FFF7FEFF 		bl	wmemcpy
 106              	.LVL3:
  14:Src/Menu/Constructor_Menu.c ****     pMenuNode->pUpNode = NULL;
 107              		.loc 1 14 0
 108 001a 2068     		ldr	r0, [r4]
 109 001c 2822     		movs	r2, #40
 110 001e 2946     		mov	r1, r5
 111 0020 5030     		adds	r0, r0, #80
 112 0022 FFF7FEFF 		bl	wmemcpy
 113              	.LVL4:
  15:Src/Menu/Constructor_Menu.c ****     pMenuNode->pDownNode = NULL;
 114              		.loc 1 15 0
 115 0026 2368     		ldr	r3, [r4]
 116 0028 0022     		movs	r2, #0
 117 002a C3F8F020 		str	r2, [r3, #240]
  16:Src/Menu/Constructor_Menu.c ****     pMenuNode->pRightNode = NULL;
 118              		.loc 1 16 0
 119 002e C3F8F420 		str	r2, [r3, #244]
  17:Src/Menu/Constructor_Menu.c ****     pMenuNode->pLeftNode = NULL;
 120              		.loc 1 17 0
 121 0032 C3F8FC20 		str	r2, [r3, #252]
  18:Src/Menu/Constructor_Menu.c ****     pMenuNode->pfnOk = NULL;
 122              		.loc 1 18 0
 123 0036 C3F8F820 		str	r2, [r3, #248]
  19:Src/Menu/Constructor_Menu.c ****     pMenuNode->pfnBack = NULL;
 124              		.loc 1 19 0
 125 003a C3F80021 		str	r2, [r3, #256]
  20:Src/Menu/Constructor_Menu.c ****     pMenuNode->pfnUp = NULL;
 126              		.loc 1 20 0
 127 003e C3F80421 		str	r2, [r3, #260]
  21:Src/Menu/Constructor_Menu.c ****     pMenuNode->pfnDown = NULL;
 128              		.loc 1 21 0
 129 0042 C3F80821 		str	r2, [r3, #264]
  22:Src/Menu/Constructor_Menu.c **** }
 130              		.loc 1 22 0
 131 0046 C3F80C21 		str	r2, [r3, #268]
  23:Src/Menu/Constructor_Menu.c **** 
 132              		.loc 1 23 0
 133 004a 70BD     		pop	{r4, r5, r6, pc}
 134              	.LVL5:
 135              	.L15:
 136              		.align	2
 137              	.L14:
 138 004c 00000000 		.word	.LANCHOR0
 139              		.cfi_endproc
 140              	.LFE0:
 142              		.section	.text.createRightNode_Menu,"ax",%progbits
 143              		.align	1
 144              		.global	createRightNode_Menu
 145              		.syntax unified
 146              		.thumb
 147              		.thumb_func
 148              		.fpu softvfp
 150              	createRightNode_Menu:
 151              	.LFB1:
ARM GAS  /tmp/ccSiL4BS.s 			page 5


  26:Src/Menu/Constructor_Menu.c ****     pMenuNode->pRightNode = malloc(sizeof(menuNode));
 152              		.loc 1 26 0
 153              		.cfi_startproc
 154              		@ args = 0, pretend = 0, frame = 0
 155              		@ frame_needed = 0, uses_anonymous_args = 0
 156              	.LVL6:
 157 0000 F8B5     		push	{r3, r4, r5, r6, r7, lr}
 158              	.LCFI1:
 159              		.cfi_def_cfa_offset 24
 160              		.cfi_offset 3, -24
 161              		.cfi_offset 4, -20
 162              		.cfi_offset 5, -16
 163              		.cfi_offset 6, -12
 164              		.cfi_offset 7, -8
 165              		.cfi_offset 14, -4
 166 0002 0746     		mov	r7, r0
 167 0004 0E46     		mov	r6, r1
  27:Src/Menu/Constructor_Menu.c ****     pMenuNode->pRightNode->pLeftNode = pMenuNode;
 168              		.loc 1 27 0
 169 0006 1B4C     		ldr	r4, .L18
 170 0008 2568     		ldr	r5, [r4]
 171 000a 4FF48870 		mov	r0, #272
 172              	.LVL7:
 173 000e FFF7FEFF 		bl	malloc
 174              	.LVL8:
 175 0012 C5F8FC00 		str	r0, [r5, #252]
  28:Src/Menu/Constructor_Menu.c ****     wmemcpy(pMenuNode->pRightNode->title, titleNewNode, MENU_TITLE_LENGTH);
 176              		.loc 1 28 0
 177 0016 C0F8F850 		str	r5, [r0, #248]
  29:Src/Menu/Constructor_Menu.c ****     wmemcpy(pMenuNode->pRightNode->name, nameNewNode, MENU_NAME_LENGTH);
 178              		.loc 1 29 0
 179 001a 1422     		movs	r2, #20
 180 001c 3946     		mov	r1, r7
 181 001e D5F8FC00 		ldr	r0, [r5, #252]
 182 0022 FFF7FEFF 		bl	wmemcpy
 183              	.LVL9:
  30:Src/Menu/Constructor_Menu.c ****     pMenuNode->pRightNode->pDownNode = NULL;
 184              		.loc 1 30 0
 185 0026 2368     		ldr	r3, [r4]
 186 0028 D3F8FC00 		ldr	r0, [r3, #252]
 187 002c 2822     		movs	r2, #40
 188 002e 3146     		mov	r1, r6
 189 0030 5030     		adds	r0, r0, #80
 190 0032 FFF7FEFF 		bl	wmemcpy
 191              	.LVL10:
  31:Src/Menu/Constructor_Menu.c ****     pMenuNode->pRightNode->pUpNode = NULL;
 192              		.loc 1 31 0
 193 0036 2268     		ldr	r2, [r4]
 194 0038 D2F8FC10 		ldr	r1, [r2, #252]
 195 003c 0023     		movs	r3, #0
 196 003e C1F8F430 		str	r3, [r1, #244]
  32:Src/Menu/Constructor_Menu.c ****     pMenuNode->pRightNode->pRightNode = NULL;
 197              		.loc 1 32 0
 198 0042 D2F8FC10 		ldr	r1, [r2, #252]
 199 0046 C1F8F030 		str	r3, [r1, #240]
  33:Src/Menu/Constructor_Menu.c ****     pMenuNode->pRightNode->pfnOk = NULL;
 200              		.loc 1 33 0
ARM GAS  /tmp/ccSiL4BS.s 			page 6


 201 004a D2F8FC10 		ldr	r1, [r2, #252]
 202 004e C1F8FC30 		str	r3, [r1, #252]
  34:Src/Menu/Constructor_Menu.c ****     pMenuNode->pRightNode->pfnBack = NULL;
 203              		.loc 1 34 0
 204 0052 D2F8FC10 		ldr	r1, [r2, #252]
 205 0056 C1F80031 		str	r3, [r1, #256]
  35:Src/Menu/Constructor_Menu.c ****     pMenuNode->pRightNode->pfnUp = NULL;
 206              		.loc 1 35 0
 207 005a D2F8FC10 		ldr	r1, [r2, #252]
 208 005e C1F80431 		str	r3, [r1, #260]
  36:Src/Menu/Constructor_Menu.c ****     pMenuNode->pRightNode->pfnDown = NULL;
 209              		.loc 1 36 0
 210 0062 D2F8FC10 		ldr	r1, [r2, #252]
 211 0066 C1F80831 		str	r3, [r1, #264]
  37:Src/Menu/Constructor_Menu.c **** }
 212              		.loc 1 37 0
 213 006a D2F8FC20 		ldr	r2, [r2, #252]
 214 006e C2F80C31 		str	r3, [r2, #268]
  38:Src/Menu/Constructor_Menu.c **** 
 215              		.loc 1 38 0
 216 0072 F8BD     		pop	{r3, r4, r5, r6, r7, pc}
 217              	.LVL11:
 218              	.L19:
 219              		.align	2
 220              	.L18:
 221 0074 00000000 		.word	.LANCHOR0
 222              		.cfi_endproc
 223              	.LFE1:
 225              		.section	.text.createDownNode_Menu,"ax",%progbits
 226              		.align	1
 227              		.global	createDownNode_Menu
 228              		.syntax unified
 229              		.thumb
 230              		.thumb_func
 231              		.fpu softvfp
 233              	createDownNode_Menu:
 234              	.LFB2:
  41:Src/Menu/Constructor_Menu.c ****     pMenuNode->pDownNode = malloc(sizeof(menuNode));
 235              		.loc 1 41 0
 236              		.cfi_startproc
 237              		@ args = 0, pretend = 0, frame = 0
 238              		@ frame_needed = 0, uses_anonymous_args = 0
 239              	.LVL12:
 240 0000 70B5     		push	{r4, r5, r6, lr}
 241              	.LCFI2:
 242              		.cfi_def_cfa_offset 16
 243              		.cfi_offset 4, -16
 244              		.cfi_offset 5, -12
 245              		.cfi_offset 6, -8
 246              		.cfi_offset 14, -4
 247 0002 0646     		mov	r6, r0
  42:Src/Menu/Constructor_Menu.c ****     pMenuNode->pDownNode->pUpNode = pMenuNode;
 248              		.loc 1 42 0
 249 0004 1C4D     		ldr	r5, .L22
 250 0006 2C68     		ldr	r4, [r5]
 251 0008 4FF48870 		mov	r0, #272
 252              	.LVL13:
ARM GAS  /tmp/ccSiL4BS.s 			page 7


 253 000c FFF7FEFF 		bl	malloc
 254              	.LVL14:
 255 0010 C4F8F400 		str	r0, [r4, #244]
  43:Src/Menu/Constructor_Menu.c ****     wmemcpy(pMenuNode->pDownNode->title, pMenuNode->title, MENU_TITLE_LENGTH);
 256              		.loc 1 43 0
 257 0014 C0F8F040 		str	r4, [r0, #240]
  44:Src/Menu/Constructor_Menu.c ****     wmemcpy(pMenuNode->pDownNode->name, nameNewNode, MENU_NAME_LENGTH);
 258              		.loc 1 44 0
 259 0018 1422     		movs	r2, #20
 260 001a 2146     		mov	r1, r4
 261 001c D4F8F400 		ldr	r0, [r4, #244]
 262 0020 FFF7FEFF 		bl	wmemcpy
 263              	.LVL15:
  45:Src/Menu/Constructor_Menu.c ****     pMenuNode->pDownNode->pDownNode = NULL;
 264              		.loc 1 45 0
 265 0024 2B68     		ldr	r3, [r5]
 266 0026 D3F8F400 		ldr	r0, [r3, #244]
 267 002a 2822     		movs	r2, #40
 268 002c 3146     		mov	r1, r6
 269 002e 5030     		adds	r0, r0, #80
 270 0030 FFF7FEFF 		bl	wmemcpy
 271              	.LVL16:
  46:Src/Menu/Constructor_Menu.c ****     pMenuNode->pDownNode->pRightNode = NULL;
 272              		.loc 1 46 0
 273 0034 2B68     		ldr	r3, [r5]
 274 0036 D3F8F410 		ldr	r1, [r3, #244]
 275 003a 0022     		movs	r2, #0
 276 003c C1F8F420 		str	r2, [r1, #244]
  47:Src/Menu/Constructor_Menu.c ****     pMenuNode->pDownNode->pLeftNode = pMenuNode->pLeftNode;
 277              		.loc 1 47 0
 278 0040 D3F8F410 		ldr	r1, [r3, #244]
 279 0044 C1F8FC20 		str	r2, [r1, #252]
  48:Src/Menu/Constructor_Menu.c ****     pMenuNode->pDownNode->pfnOk = NULL;
 280              		.loc 1 48 0
 281 0048 D3F8F410 		ldr	r1, [r3, #244]
 282 004c D3F8F800 		ldr	r0, [r3, #248]
 283 0050 C1F8F800 		str	r0, [r1, #248]
  49:Src/Menu/Constructor_Menu.c ****     pMenuNode->pDownNode->pfnBack = NULL;
 284              		.loc 1 49 0
 285 0054 D3F8F410 		ldr	r1, [r3, #244]
 286 0058 C1F80021 		str	r2, [r1, #256]
  50:Src/Menu/Constructor_Menu.c ****     pMenuNode->pDownNode->pfnUp = NULL;
 287              		.loc 1 50 0
 288 005c D3F8F410 		ldr	r1, [r3, #244]
 289 0060 C1F80421 		str	r2, [r1, #260]
  51:Src/Menu/Constructor_Menu.c ****     pMenuNode->pDownNode->pfnDown = NULL;
 290              		.loc 1 51 0
 291 0064 D3F8F410 		ldr	r1, [r3, #244]
 292 0068 C1F80821 		str	r2, [r1, #264]
  52:Src/Menu/Constructor_Menu.c **** }
 293              		.loc 1 52 0
 294 006c D3F8F430 		ldr	r3, [r3, #244]
 295 0070 C3F80C21 		str	r2, [r3, #268]
  53:Src/Menu/Constructor_Menu.c **** 
 296              		.loc 1 53 0
 297 0074 70BD     		pop	{r4, r5, r6, pc}
 298              	.LVL17:
ARM GAS  /tmp/ccSiL4BS.s 			page 8


 299              	.L23:
 300 0076 00BF     		.align	2
 301              	.L22:
 302 0078 00000000 		.word	.LANCHOR0
 303              		.cfi_endproc
 304              	.LFE2:
 306              		.section	.text.destroyFirstNode_Menu,"ax",%progbits
 307              		.align	1
 308              		.global	destroyFirstNode_Menu
 309              		.syntax unified
 310              		.thumb
 311              		.thumb_func
 312              		.fpu softvfp
 314              	destroyFirstNode_Menu:
 315              	.LFB4:
  70:Src/Menu/Constructor_Menu.c **** 
  71:Src/Menu/Constructor_Menu.c **** void destroyFirstNode_Menu()
  72:Src/Menu/Constructor_Menu.c **** {
 316              		.loc 1 72 0
 317              		.cfi_startproc
 318              		@ args = 0, pretend = 0, frame = 0
 319              		@ frame_needed = 0, uses_anonymous_args = 0
 320 0000 10B5     		push	{r4, lr}
 321              	.LCFI3:
 322              		.cfi_def_cfa_offset 8
 323              		.cfi_offset 4, -8
 324              		.cfi_offset 14, -4
  73:Src/Menu/Constructor_Menu.c ****     free(pMenuNode);
 325              		.loc 1 73 0
 326 0002 034C     		ldr	r4, .L26
 327 0004 2068     		ldr	r0, [r4]
 328 0006 FFF7FEFF 		bl	free
 329              	.LVL18:
  74:Src/Menu/Constructor_Menu.c ****     pMenuNode = NULL;
 330              		.loc 1 74 0
 331 000a 0023     		movs	r3, #0
 332 000c 2360     		str	r3, [r4]
  75:Src/Menu/Constructor_Menu.c **** }
 333              		.loc 1 75 0
 334 000e 10BD     		pop	{r4, pc}
 335              	.L27:
 336              		.align	2
 337              	.L26:
 338 0010 00000000 		.word	.LANCHOR0
 339              		.cfi_endproc
 340              	.LFE4:
 342              		.section	.text.destroyDownNode_Menu,"ax",%progbits
 343              		.align	1
 344              		.global	destroyDownNode_Menu
 345              		.syntax unified
 346              		.thumb
 347              		.thumb_func
 348              		.fpu softvfp
 350              	destroyDownNode_Menu:
 351              	.LFB5:
  76:Src/Menu/Constructor_Menu.c **** 
  77:Src/Menu/Constructor_Menu.c **** void destroyDownNode_Menu()
ARM GAS  /tmp/ccSiL4BS.s 			page 9


  78:Src/Menu/Constructor_Menu.c **** {
 352              		.loc 1 78 0
 353              		.cfi_startproc
 354              		@ args = 0, pretend = 0, frame = 0
 355              		@ frame_needed = 0, uses_anonymous_args = 0
 356 0000 10B5     		push	{r4, lr}
 357              	.LCFI4:
 358              		.cfi_def_cfa_offset 8
 359              		.cfi_offset 4, -8
 360              		.cfi_offset 14, -4
  79:Src/Menu/Constructor_Menu.c ****     free(pMenuNode->pDownNode);
 361              		.loc 1 79 0
 362 0002 054B     		ldr	r3, .L30
 363 0004 1C68     		ldr	r4, [r3]
 364 0006 D4F8F400 		ldr	r0, [r4, #244]
 365 000a FFF7FEFF 		bl	free
 366              	.LVL19:
  80:Src/Menu/Constructor_Menu.c ****     pMenuNode->pDownNode = NULL;
 367              		.loc 1 80 0
 368 000e 0023     		movs	r3, #0
 369 0010 C4F8F430 		str	r3, [r4, #244]
  81:Src/Menu/Constructor_Menu.c **** }
 370              		.loc 1 81 0
 371 0014 10BD     		pop	{r4, pc}
 372              	.L31:
 373 0016 00BF     		.align	2
 374              	.L30:
 375 0018 00000000 		.word	.LANCHOR0
 376              		.cfi_endproc
 377              	.LFE5:
 379              		.section	.text.destroyRightNode_Menu,"ax",%progbits
 380              		.align	1
 381              		.global	destroyRightNode_Menu
 382              		.syntax unified
 383              		.thumb
 384              		.thumb_func
 385              		.fpu softvfp
 387              	destroyRightNode_Menu:
 388              	.LFB6:
  82:Src/Menu/Constructor_Menu.c **** 
  83:Src/Menu/Constructor_Menu.c **** void destroyRightNode_Menu(void)
  84:Src/Menu/Constructor_Menu.c **** {
 389              		.loc 1 84 0
 390              		.cfi_startproc
 391              		@ args = 0, pretend = 0, frame = 0
 392              		@ frame_needed = 0, uses_anonymous_args = 0
 393 0000 10B5     		push	{r4, lr}
 394              	.LCFI5:
 395              		.cfi_def_cfa_offset 8
 396              		.cfi_offset 4, -8
 397              		.cfi_offset 14, -4
  85:Src/Menu/Constructor_Menu.c ****     free(pMenuNode->pRightNode);
 398              		.loc 1 85 0
 399 0002 054B     		ldr	r3, .L34
 400 0004 1C68     		ldr	r4, [r3]
 401 0006 D4F8FC00 		ldr	r0, [r4, #252]
 402 000a FFF7FEFF 		bl	free
ARM GAS  /tmp/ccSiL4BS.s 			page 10


 403              	.LVL20:
  86:Src/Menu/Constructor_Menu.c ****     pMenuNode->pRightNode = NULL;
 404              		.loc 1 86 0
 405 000e 0023     		movs	r3, #0
 406 0010 C4F8FC30 		str	r3, [r4, #252]
  87:Src/Menu/Constructor_Menu.c **** }
 407              		.loc 1 87 0
 408 0014 10BD     		pop	{r4, pc}
 409              	.L35:
 410 0016 00BF     		.align	2
 411              	.L34:
 412 0018 00000000 		.word	.LANCHOR0
 413              		.cfi_endproc
 414              	.LFE6:
 416              		.section	.text.destroyRightColomn_Menu,"ax",%progbits
 417              		.align	1
 418              		.global	destroyRightColomn_Menu
 419              		.syntax unified
 420              		.thumb
 421              		.thumb_func
 422              		.fpu softvfp
 424              	destroyRightColomn_Menu:
 425              	.LFB7:
  88:Src/Menu/Constructor_Menu.c **** 
  89:Src/Menu/Constructor_Menu.c **** void destroyRightColomn_Menu()
  90:Src/Menu/Constructor_Menu.c **** {
 426              		.loc 1 90 0
 427              		.cfi_startproc
 428              		@ args = 0, pretend = 0, frame = 0
 429              		@ frame_needed = 0, uses_anonymous_args = 0
 430 0000 38B5     		push	{r3, r4, r5, lr}
 431              	.LCFI6:
 432              		.cfi_def_cfa_offset 16
 433              		.cfi_offset 3, -16
 434              		.cfi_offset 4, -12
 435              		.cfi_offset 5, -8
 436              		.cfi_offset 14, -4
  91:Src/Menu/Constructor_Menu.c ****     menuNode* pMenuNodeBuf = pMenuNode;
 437              		.loc 1 91 0
 438 0002 0E4B     		ldr	r3, .L43
 439 0004 1D68     		ldr	r5, [r3]
 440              	.LVL21:
  92:Src/Menu/Constructor_Menu.c ****     if (pMenuNodeBuf->pRightNode == NULL)
 441              		.loc 1 92 0
 442 0006 D5F8FC40 		ldr	r4, [r5, #252]
 443 000a 0CB9     		cbnz	r4, .L38
 444 000c 14E0     		b	.L36
 445              	.LVL22:
 446              	.L41:
  93:Src/Menu/Constructor_Menu.c ****         return;
  94:Src/Menu/Constructor_Menu.c ****     pMenuNodeBuf = pMenuNodeBuf->pRightNode;
  95:Src/Menu/Constructor_Menu.c ****     while(pMenuNodeBuf->pDownNode != NULL)
  96:Src/Menu/Constructor_Menu.c ****     {
  97:Src/Menu/Constructor_Menu.c ****         pMenuNodeBuf = pMenuNodeBuf->pDownNode;
 447              		.loc 1 97 0
 448 000e 1C46     		mov	r4, r3
 449              	.LVL23:
ARM GAS  /tmp/ccSiL4BS.s 			page 11


 450              	.L38:
  95:Src/Menu/Constructor_Menu.c ****     {
 451              		.loc 1 95 0
 452 0010 D4F8F430 		ldr	r3, [r4, #244]
 453 0014 002B     		cmp	r3, #0
 454 0016 FAD1     		bne	.L41
 455 0018 03E0     		b	.L39
 456              	.LVL24:
 457              	.L40:
  98:Src/Menu/Constructor_Menu.c ****     }
  99:Src/Menu/Constructor_Menu.c ****     while (pMenuNodeBuf->pUpNode != NULL)
 100:Src/Menu/Constructor_Menu.c ****     {
 101:Src/Menu/Constructor_Menu.c ****         pMenuNodeBuf = pMenuNodeBuf->pUpNode;
 102:Src/Menu/Constructor_Menu.c ****         free(pMenuNodeBuf->pDownNode);
 458              		.loc 1 102 0
 459 001a D4F8F400 		ldr	r0, [r4, #244]
 460 001e FFF7FEFF 		bl	free
 461              	.LVL25:
 462              	.L39:
  99:Src/Menu/Constructor_Menu.c ****     {
 463              		.loc 1 99 0
 464 0022 D4F8F040 		ldr	r4, [r4, #240]
 465              	.LVL26:
 466 0026 002C     		cmp	r4, #0
 467 0028 F7D1     		bne	.L40
 103:Src/Menu/Constructor_Menu.c ****     }
 104:Src/Menu/Constructor_Menu.c ****     free(pMenuNode->pRightNode);
 468              		.loc 1 104 0
 469 002a D5F8FC00 		ldr	r0, [r5, #252]
 470 002e FFF7FEFF 		bl	free
 471              	.LVL27:
 105:Src/Menu/Constructor_Menu.c ****     pMenuNode->pRightNode = NULL;
 472              		.loc 1 105 0
 473 0032 0023     		movs	r3, #0
 474 0034 C5F8FC30 		str	r3, [r5, #252]
 475              	.L36:
 106:Src/Menu/Constructor_Menu.c **** }
 476              		.loc 1 106 0
 477 0038 38BD     		pop	{r3, r4, r5, pc}
 478              	.L44:
 479 003a 00BF     		.align	2
 480              	.L43:
 481 003c 00000000 		.word	.LANCHOR0
 482              		.cfi_endproc
 483              	.LFE7:
 485              		.section	.text.getCurrentNode_Menu,"ax",%progbits
 486              		.align	1
 487              		.global	getCurrentNode_Menu
 488              		.syntax unified
 489              		.thumb
 490              		.thumb_func
 491              		.fpu softvfp
 493              	getCurrentNode_Menu:
 494              	.LFB9:
 107:Src/Menu/Constructor_Menu.c **** 
 108:Src/Menu/Constructor_Menu.c **** void destroyAllNodes_Menu()
 109:Src/Menu/Constructor_Menu.c **** {
ARM GAS  /tmp/ccSiL4BS.s 			page 12


 110:Src/Menu/Constructor_Menu.c ****     while(!onlyFirstNodeRemains())
 111:Src/Menu/Constructor_Menu.c ****     {
 112:Src/Menu/Constructor_Menu.c ****         if(pMenuNode->pDownNode != NULL) { moveDown_Menu(); continue; }
 113:Src/Menu/Constructor_Menu.c ****         if(pMenuNode->pRightNode != NULL) { moveRight_Menu(); continue; }
 114:Src/Menu/Constructor_Menu.c ****         if(pMenuNode->pUpNode != NULL) { moveUp_Menu(); destroyDownNode_Menu(); continue; }
 115:Src/Menu/Constructor_Menu.c ****         if(pMenuNode->pLeftNode != NULL) { moveLeft_Menu(); destroyRightNode_Menu(); continue; }
 116:Src/Menu/Constructor_Menu.c ****         break;
 117:Src/Menu/Constructor_Menu.c ****     }
 118:Src/Menu/Constructor_Menu.c **** }
 119:Src/Menu/Constructor_Menu.c **** 
 120:Src/Menu/Constructor_Menu.c **** 
 121:Src/Menu/Constructor_Menu.c **** 
 122:Src/Menu/Constructor_Menu.c **** const menuNode* getCurrentNode_Menu() { return pMenuNode; }
 495              		.loc 1 122 0
 496              		.cfi_startproc
 497              		@ args = 0, pretend = 0, frame = 0
 498              		@ frame_needed = 0, uses_anonymous_args = 0
 499              		@ link register save eliminated.
 500              		.loc 1 122 0
 501 0000 014B     		ldr	r3, .L46
 502 0002 1868     		ldr	r0, [r3]
 503 0004 7047     		bx	lr
 504              	.L47:
 505 0006 00BF     		.align	2
 506              	.L46:
 507 0008 00000000 		.word	.LANCHOR0
 508              		.cfi_endproc
 509              	.LFE9:
 511              		.section	.text.getTitle_Menu,"ax",%progbits
 512              		.align	1
 513              		.global	getTitle_Menu
 514              		.syntax unified
 515              		.thumb
 516              		.thumb_func
 517              		.fpu softvfp
 519              	getTitle_Menu:
 520              	.LFB10:
 123:Src/Menu/Constructor_Menu.c **** 
 124:Src/Menu/Constructor_Menu.c **** const wchar_t* getTitle_Menu() { return pMenuNode->title; }
 521              		.loc 1 124 0
 522              		.cfi_startproc
 523              		@ args = 0, pretend = 0, frame = 0
 524              		@ frame_needed = 0, uses_anonymous_args = 0
 525              		@ link register save eliminated.
 526              		.loc 1 124 0
 527 0000 014B     		ldr	r3, .L49
 528 0002 1868     		ldr	r0, [r3]
 529 0004 7047     		bx	lr
 530              	.L50:
 531 0006 00BF     		.align	2
 532              	.L49:
 533 0008 00000000 		.word	.LANCHOR0
 534              		.cfi_endproc
 535              	.LFE10:
 537              		.section	.text.getName_Menu,"ax",%progbits
 538              		.align	1
 539              		.global	getName_Menu
ARM GAS  /tmp/ccSiL4BS.s 			page 13


 540              		.syntax unified
 541              		.thumb
 542              		.thumb_func
 543              		.fpu softvfp
 545              	getName_Menu:
 546              	.LFB11:
 125:Src/Menu/Constructor_Menu.c **** 
 126:Src/Menu/Constructor_Menu.c **** const wchar_t* getName_Menu() { return pMenuNode->name; }
 547              		.loc 1 126 0
 548              		.cfi_startproc
 549              		@ args = 0, pretend = 0, frame = 0
 550              		@ frame_needed = 0, uses_anonymous_args = 0
 551              		@ link register save eliminated.
 552              		.loc 1 126 0
 553 0000 014B     		ldr	r3, .L52
 554 0002 1868     		ldr	r0, [r3]
 555 0004 5030     		adds	r0, r0, #80
 556 0006 7047     		bx	lr
 557              	.L53:
 558              		.align	2
 559              	.L52:
 560 0008 00000000 		.word	.LANCHOR0
 561              		.cfi_endproc
 562              	.LFE11:
 564              		.section	.text.ThereIsNodeBelow_Menu,"ax",%progbits
 565              		.align	1
 566              		.global	ThereIsNodeBelow_Menu
 567              		.syntax unified
 568              		.thumb
 569              		.thumb_func
 570              		.fpu softvfp
 572              	ThereIsNodeBelow_Menu:
 573              	.LFB12:
 127:Src/Menu/Constructor_Menu.c **** 
 128:Src/Menu/Constructor_Menu.c **** 
 129:Src/Menu/Constructor_Menu.c **** 
 130:Src/Menu/Constructor_Menu.c **** 
 131:Src/Menu/Constructor_Menu.c **** _Bool ThereIsNodeBelow_Menu() { return pMenuNode->pDownNode != NULL; }
 574              		.loc 1 131 0
 575              		.cfi_startproc
 576              		@ args = 0, pretend = 0, frame = 0
 577              		@ frame_needed = 0, uses_anonymous_args = 0
 578              		@ link register save eliminated.
 579              		.loc 1 131 0
 580 0000 034B     		ldr	r3, .L55
 581 0002 1B68     		ldr	r3, [r3]
 582 0004 D3F8F400 		ldr	r0, [r3, #244]
 583 0008 0030     		adds	r0, r0, #0
 584 000a 18BF     		it	ne
 585 000c 0120     		movne	r0, #1
 586 000e 7047     		bx	lr
 587              	.L56:
 588              		.align	2
 589              	.L55:
 590 0010 00000000 		.word	.LANCHOR0
 591              		.cfi_endproc
 592              	.LFE12:
ARM GAS  /tmp/ccSiL4BS.s 			page 14


 594              		.section	.text.ThereIsNodeAbove_Menu,"ax",%progbits
 595              		.align	1
 596              		.global	ThereIsNodeAbove_Menu
 597              		.syntax unified
 598              		.thumb
 599              		.thumb_func
 600              		.fpu softvfp
 602              	ThereIsNodeAbove_Menu:
 603              	.LFB13:
 132:Src/Menu/Constructor_Menu.c **** 
 133:Src/Menu/Constructor_Menu.c **** 
 134:Src/Menu/Constructor_Menu.c **** _Bool ThereIsNodeAbove_Menu() {return pMenuNode->pUpNode != NULL;}
 604              		.loc 1 134 0
 605              		.cfi_startproc
 606              		@ args = 0, pretend = 0, frame = 0
 607              		@ frame_needed = 0, uses_anonymous_args = 0
 608              		@ link register save eliminated.
 609              		.loc 1 134 0
 610 0000 034B     		ldr	r3, .L58
 611 0002 1B68     		ldr	r3, [r3]
 612 0004 D3F8F000 		ldr	r0, [r3, #240]
 613 0008 0030     		adds	r0, r0, #0
 614 000a 18BF     		it	ne
 615 000c 0120     		movne	r0, #1
 616 000e 7047     		bx	lr
 617              	.L59:
 618              		.align	2
 619              	.L58:
 620 0010 00000000 		.word	.LANCHOR0
 621              		.cfi_endproc
 622              	.LFE13:
 624              		.section	.text.moveDown_Menu,"ax",%progbits
 625              		.align	1
 626              		.global	moveDown_Menu
 627              		.syntax unified
 628              		.thumb
 629              		.thumb_func
 630              		.fpu softvfp
 632              	moveDown_Menu:
 633              	.LFB14:
 135:Src/Menu/Constructor_Menu.c **** 
 136:Src/Menu/Constructor_Menu.c **** 
 137:Src/Menu/Constructor_Menu.c **** 
 138:Src/Menu/Constructor_Menu.c **** void moveDown_Menu()
 139:Src/Menu/Constructor_Menu.c **** {
 634              		.loc 1 139 0
 635              		.cfi_startproc
 636              		@ args = 0, pretend = 0, frame = 0
 637              		@ frame_needed = 0, uses_anonymous_args = 0
 638              		@ link register save eliminated.
 140:Src/Menu/Constructor_Menu.c ****     if (pMenuNode->pDownNode == NULL)
 639              		.loc 1 140 0
 640 0000 034B     		ldr	r3, .L62
 641 0002 1B68     		ldr	r3, [r3]
 642 0004 D3F8F430 		ldr	r3, [r3, #244]
 643 0008 0BB1     		cbz	r3, .L60
 141:Src/Menu/Constructor_Menu.c ****         return;
ARM GAS  /tmp/ccSiL4BS.s 			page 15


 142:Src/Menu/Constructor_Menu.c ****     pMenuNode = pMenuNode->pDownNode;
 644              		.loc 1 142 0
 645 000a 014A     		ldr	r2, .L62
 646 000c 1360     		str	r3, [r2]
 647              	.L60:
 143:Src/Menu/Constructor_Menu.c **** }
 648              		.loc 1 143 0
 649 000e 7047     		bx	lr
 650              	.L63:
 651              		.align	2
 652              	.L62:
 653 0010 00000000 		.word	.LANCHOR0
 654              		.cfi_endproc
 655              	.LFE14:
 657              		.section	.text.moveUp_Menu,"ax",%progbits
 658              		.align	1
 659              		.global	moveUp_Menu
 660              		.syntax unified
 661              		.thumb
 662              		.thumb_func
 663              		.fpu softvfp
 665              	moveUp_Menu:
 666              	.LFB15:
 144:Src/Menu/Constructor_Menu.c **** 
 145:Src/Menu/Constructor_Menu.c **** void moveUp_Menu()
 146:Src/Menu/Constructor_Menu.c **** {
 667              		.loc 1 146 0
 668              		.cfi_startproc
 669              		@ args = 0, pretend = 0, frame = 0
 670              		@ frame_needed = 0, uses_anonymous_args = 0
 671              		@ link register save eliminated.
 147:Src/Menu/Constructor_Menu.c ****     if (pMenuNode->pUpNode == NULL)
 672              		.loc 1 147 0
 673 0000 034B     		ldr	r3, .L66
 674 0002 1B68     		ldr	r3, [r3]
 675 0004 D3F8F030 		ldr	r3, [r3, #240]
 676 0008 0BB1     		cbz	r3, .L64
 148:Src/Menu/Constructor_Menu.c ****         return;
 149:Src/Menu/Constructor_Menu.c ****     pMenuNode = pMenuNode->pUpNode;
 677              		.loc 1 149 0
 678 000a 014A     		ldr	r2, .L66
 679 000c 1360     		str	r3, [r2]
 680              	.L64:
 150:Src/Menu/Constructor_Menu.c **** }
 681              		.loc 1 150 0
 682 000e 7047     		bx	lr
 683              	.L67:
 684              		.align	2
 685              	.L66:
 686 0010 00000000 		.word	.LANCHOR0
 687              		.cfi_endproc
 688              	.LFE15:
 690              		.section	.text.moveRight_Menu,"ax",%progbits
 691              		.align	1
 692              		.global	moveRight_Menu
 693              		.syntax unified
 694              		.thumb
ARM GAS  /tmp/ccSiL4BS.s 			page 16


 695              		.thumb_func
 696              		.fpu softvfp
 698              	moveRight_Menu:
 699              	.LFB16:
 151:Src/Menu/Constructor_Menu.c **** 
 152:Src/Menu/Constructor_Menu.c **** void moveRight_Menu(void)
 153:Src/Menu/Constructor_Menu.c **** {
 700              		.loc 1 153 0
 701              		.cfi_startproc
 702              		@ args = 0, pretend = 0, frame = 0
 703              		@ frame_needed = 0, uses_anonymous_args = 0
 704              		@ link register save eliminated.
 154:Src/Menu/Constructor_Menu.c ****     if (pMenuNode->pRightNode == NULL)
 705              		.loc 1 154 0
 706 0000 034B     		ldr	r3, .L70
 707 0002 1B68     		ldr	r3, [r3]
 708 0004 D3F8FC30 		ldr	r3, [r3, #252]
 709 0008 0BB1     		cbz	r3, .L68
 155:Src/Menu/Constructor_Menu.c ****         return;
 156:Src/Menu/Constructor_Menu.c ****     pMenuNode = pMenuNode->pRightNode;
 710              		.loc 1 156 0
 711 000a 014A     		ldr	r2, .L70
 712 000c 1360     		str	r3, [r2]
 713              	.L68:
 157:Src/Menu/Constructor_Menu.c **** }
 714              		.loc 1 157 0
 715 000e 7047     		bx	lr
 716              	.L71:
 717              		.align	2
 718              	.L70:
 719 0010 00000000 		.word	.LANCHOR0
 720              		.cfi_endproc
 721              	.LFE16:
 723              		.section	.text.moveLeft_Menu,"ax",%progbits
 724              		.align	1
 725              		.global	moveLeft_Menu
 726              		.syntax unified
 727              		.thumb
 728              		.thumb_func
 729              		.fpu softvfp
 731              	moveLeft_Menu:
 732              	.LFB17:
 158:Src/Menu/Constructor_Menu.c **** 
 159:Src/Menu/Constructor_Menu.c **** void moveLeft_Menu(void)
 160:Src/Menu/Constructor_Menu.c **** {
 733              		.loc 1 160 0
 734              		.cfi_startproc
 735              		@ args = 0, pretend = 0, frame = 0
 736              		@ frame_needed = 0, uses_anonymous_args = 0
 737              		@ link register save eliminated.
 161:Src/Menu/Constructor_Menu.c ****     if (pMenuNode->pLeftNode == NULL)
 738              		.loc 1 161 0
 739 0000 034B     		ldr	r3, .L74
 740 0002 1B68     		ldr	r3, [r3]
 741 0004 D3F8F830 		ldr	r3, [r3, #248]
 742 0008 0BB1     		cbz	r3, .L72
 162:Src/Menu/Constructor_Menu.c ****         return;
ARM GAS  /tmp/ccSiL4BS.s 			page 17


 163:Src/Menu/Constructor_Menu.c ****     pMenuNode = pMenuNode->pLeftNode;
 743              		.loc 1 163 0
 744 000a 014A     		ldr	r2, .L74
 745 000c 1360     		str	r3, [r2]
 746              	.L72:
 164:Src/Menu/Constructor_Menu.c **** }
 747              		.loc 1 164 0
 748 000e 7047     		bx	lr
 749              	.L75:
 750              		.align	2
 751              	.L74:
 752 0010 00000000 		.word	.LANCHOR0
 753              		.cfi_endproc
 754              	.LFE17:
 756              		.section	.text.destroyAllNodes_Menu,"ax",%progbits
 757              		.align	1
 758              		.global	destroyAllNodes_Menu
 759              		.syntax unified
 760              		.thumb
 761              		.thumb_func
 762              		.fpu softvfp
 764              	destroyAllNodes_Menu:
 765              	.LFB8:
 109:Src/Menu/Constructor_Menu.c ****     while(!onlyFirstNodeRemains())
 766              		.loc 1 109 0
 767              		.cfi_startproc
 768              		@ args = 0, pretend = 0, frame = 0
 769              		@ frame_needed = 0, uses_anonymous_args = 0
 770 0000 08B5     		push	{r3, lr}
 771              	.LCFI7:
 772              		.cfi_def_cfa_offset 8
 773              		.cfi_offset 3, -8
 774              		.cfi_offset 14, -4
 110:Src/Menu/Constructor_Menu.c ****     {
 775              		.loc 1 110 0
 776 0002 01E0     		b	.L77
 777              	.L85:
 112:Src/Menu/Constructor_Menu.c ****         if(pMenuNode->pRightNode != NULL) { moveRight_Menu(); continue; }
 778              		.loc 1 112 0 discriminator 1
 779 0004 FFF7FEFF 		bl	moveDown_Menu
 780              	.LVL28:
 781              	.L77:
 110:Src/Menu/Constructor_Menu.c ****     {
 782              		.loc 1 110 0
 783 0008 FFF7FEFF 		bl	onlyFirstNodeRemains
 784              	.LVL29:
 785 000c 70B9     		cbnz	r0, .L76
 112:Src/Menu/Constructor_Menu.c ****         if(pMenuNode->pRightNode != NULL) { moveRight_Menu(); continue; }
 786              		.loc 1 112 0
 787 000e 0E4B     		ldr	r3, .L89
 788 0010 1B68     		ldr	r3, [r3]
 789 0012 D3F8F420 		ldr	r2, [r3, #244]
 790 0016 002A     		cmp	r2, #0
 791 0018 F4D1     		bne	.L85
 113:Src/Menu/Constructor_Menu.c ****         if(pMenuNode->pUpNode != NULL) { moveUp_Menu(); destroyDownNode_Menu(); continue; }
 792              		.loc 1 113 0
 793 001a D3F8FC20 		ldr	r2, [r3, #252]
ARM GAS  /tmp/ccSiL4BS.s 			page 18


 794 001e 32B9     		cbnz	r2, .L86
 114:Src/Menu/Constructor_Menu.c ****         if(pMenuNode->pLeftNode != NULL) { moveLeft_Menu(); destroyRightNode_Menu(); continue; }
 795              		.loc 1 114 0
 796 0020 D3F8F020 		ldr	r2, [r3, #240]
 797 0024 32B9     		cbnz	r2, .L87
 115:Src/Menu/Constructor_Menu.c ****         break;
 798              		.loc 1 115 0
 799 0026 D3F8F830 		ldr	r3, [r3, #248]
 800 002a 43B9     		cbnz	r3, .L88
 801              	.L76:
 118:Src/Menu/Constructor_Menu.c **** 
 802              		.loc 1 118 0
 803 002c 08BD     		pop	{r3, pc}
 804              	.L86:
 113:Src/Menu/Constructor_Menu.c ****         if(pMenuNode->pUpNode != NULL) { moveUp_Menu(); destroyDownNode_Menu(); continue; }
 805              		.loc 1 113 0 discriminator 1
 806 002e FFF7FEFF 		bl	moveRight_Menu
 807              	.LVL30:
 808 0032 E9E7     		b	.L77
 809              	.L87:
 114:Src/Menu/Constructor_Menu.c ****         if(pMenuNode->pLeftNode != NULL) { moveLeft_Menu(); destroyRightNode_Menu(); continue; }
 810              		.loc 1 114 0 discriminator 1
 811 0034 FFF7FEFF 		bl	moveUp_Menu
 812              	.LVL31:
 813 0038 FFF7FEFF 		bl	destroyDownNode_Menu
 814              	.LVL32:
 815 003c E4E7     		b	.L77
 816              	.L88:
 115:Src/Menu/Constructor_Menu.c ****         break;
 817              		.loc 1 115 0 discriminator 1
 818 003e FFF7FEFF 		bl	moveLeft_Menu
 819              	.LVL33:
 820 0042 FFF7FEFF 		bl	destroyRightNode_Menu
 821              	.LVL34:
 822 0046 DFE7     		b	.L77
 823              	.L90:
 824              		.align	2
 825              	.L89:
 826 0048 00000000 		.word	.LANCHOR0
 827              		.cfi_endproc
 828              	.LFE8:
 830              		.section	.text.moveToTheFirstNode_Menu,"ax",%progbits
 831              		.align	1
 832              		.global	moveToTheFirstNode_Menu
 833              		.syntax unified
 834              		.thumb
 835              		.thumb_func
 836              		.fpu softvfp
 838              	moveToTheFirstNode_Menu:
 839              	.LFB18:
 165:Src/Menu/Constructor_Menu.c **** 
 166:Src/Menu/Constructor_Menu.c **** void moveToTheFirstNode_Menu()
 167:Src/Menu/Constructor_Menu.c **** {
 840              		.loc 1 167 0
 841              		.cfi_startproc
 842              		@ args = 0, pretend = 0, frame = 0
 843              		@ frame_needed = 0, uses_anonymous_args = 0
ARM GAS  /tmp/ccSiL4BS.s 			page 19


 844 0000 08B5     		push	{r3, lr}
 845              	.LCFI8:
 846              		.cfi_def_cfa_offset 8
 847              		.cfi_offset 3, -8
 848              		.cfi_offset 14, -4
 168:Src/Menu/Constructor_Menu.c **** 
 169:Src/Menu/Constructor_Menu.c ****     while(pMenuNode->pLeftNode != NULL)
 849              		.loc 1 169 0
 850 0002 01E0     		b	.L92
 851              	.L93:
 170:Src/Menu/Constructor_Menu.c ****     {
 171:Src/Menu/Constructor_Menu.c ****         moveLeft_Menu();
 852              		.loc 1 171 0
 853 0004 FFF7FEFF 		bl	moveLeft_Menu
 854              	.LVL35:
 855              	.L92:
 169:Src/Menu/Constructor_Menu.c ****     {
 856              		.loc 1 169 0
 857 0008 074B     		ldr	r3, .L97
 858 000a 1B68     		ldr	r3, [r3]
 859 000c D3F8F830 		ldr	r3, [r3, #248]
 860 0010 002B     		cmp	r3, #0
 861 0012 F7D1     		bne	.L93
 862 0014 01E0     		b	.L94
 863              	.L95:
 172:Src/Menu/Constructor_Menu.c ****     }
 173:Src/Menu/Constructor_Menu.c **** 
 174:Src/Menu/Constructor_Menu.c ****     while(pMenuNode->pUpNode != NULL)
 175:Src/Menu/Constructor_Menu.c ****     {
 176:Src/Menu/Constructor_Menu.c ****         moveUp_Menu();
 864              		.loc 1 176 0
 865 0016 FFF7FEFF 		bl	moveUp_Menu
 866              	.LVL36:
 867              	.L94:
 174:Src/Menu/Constructor_Menu.c ****     {
 868              		.loc 1 174 0
 869 001a 034B     		ldr	r3, .L97
 870 001c 1B68     		ldr	r3, [r3]
 871 001e D3F8F030 		ldr	r3, [r3, #240]
 872 0022 002B     		cmp	r3, #0
 873 0024 F7D1     		bne	.L95
 177:Src/Menu/Constructor_Menu.c ****     }
 178:Src/Menu/Constructor_Menu.c **** }
 874              		.loc 1 178 0
 875 0026 08BD     		pop	{r3, pc}
 876              	.L98:
 877              		.align	2
 878              	.L97:
 879 0028 00000000 		.word	.LANCHOR0
 880              		.cfi_endproc
 881              	.LFE18:
 883              		.section	.text.setFunctionOk,"ax",%progbits
 884              		.align	1
 885              		.global	setFunctionOk
 886              		.syntax unified
 887              		.thumb
 888              		.thumb_func
ARM GAS  /tmp/ccSiL4BS.s 			page 20


 889              		.fpu softvfp
 891              	setFunctionOk:
 892              	.LFB19:
 179:Src/Menu/Constructor_Menu.c **** 
 180:Src/Menu/Constructor_Menu.c **** 
 181:Src/Menu/Constructor_Menu.c **** 
 182:Src/Menu/Constructor_Menu.c **** void setFunctionOk(void (*function)(void))
 183:Src/Menu/Constructor_Menu.c **** {
 893              		.loc 1 183 0
 894              		.cfi_startproc
 895              		@ args = 0, pretend = 0, frame = 0
 896              		@ frame_needed = 0, uses_anonymous_args = 0
 897              		@ link register save eliminated.
 898              	.LVL37:
 184:Src/Menu/Constructor_Menu.c ****     pMenuNode->pfnOk = function;
 899              		.loc 1 184 0
 900 0000 024B     		ldr	r3, .L100
 901 0002 1B68     		ldr	r3, [r3]
 902 0004 C3F80001 		str	r0, [r3, #256]
 185:Src/Menu/Constructor_Menu.c **** }
 903              		.loc 1 185 0
 904 0008 7047     		bx	lr
 905              	.L101:
 906 000a 00BF     		.align	2
 907              	.L100:
 908 000c 00000000 		.word	.LANCHOR0
 909              		.cfi_endproc
 910              	.LFE19:
 912              		.section	.text.setFunctionBack,"ax",%progbits
 913              		.align	1
 914              		.global	setFunctionBack
 915              		.syntax unified
 916              		.thumb
 917              		.thumb_func
 918              		.fpu softvfp
 920              	setFunctionBack:
 921              	.LFB20:
 186:Src/Menu/Constructor_Menu.c **** 
 187:Src/Menu/Constructor_Menu.c **** void setFunctionBack(void (*function)(void))
 188:Src/Menu/Constructor_Menu.c **** {
 922              		.loc 1 188 0
 923              		.cfi_startproc
 924              		@ args = 0, pretend = 0, frame = 0
 925              		@ frame_needed = 0, uses_anonymous_args = 0
 926              		@ link register save eliminated.
 927              	.LVL38:
 189:Src/Menu/Constructor_Menu.c ****     pMenuNode->pfnBack = function;
 928              		.loc 1 189 0
 929 0000 024B     		ldr	r3, .L103
 930 0002 1B68     		ldr	r3, [r3]
 931 0004 C3F80401 		str	r0, [r3, #260]
 190:Src/Menu/Constructor_Menu.c **** }
 932              		.loc 1 190 0
 933 0008 7047     		bx	lr
 934              	.L104:
 935 000a 00BF     		.align	2
 936              	.L103:
ARM GAS  /tmp/ccSiL4BS.s 			page 21


 937 000c 00000000 		.word	.LANCHOR0
 938              		.cfi_endproc
 939              	.LFE20:
 941              		.section	.text.setFunctionUp,"ax",%progbits
 942              		.align	1
 943              		.global	setFunctionUp
 944              		.syntax unified
 945              		.thumb
 946              		.thumb_func
 947              		.fpu softvfp
 949              	setFunctionUp:
 950              	.LFB21:
 191:Src/Menu/Constructor_Menu.c **** 
 192:Src/Menu/Constructor_Menu.c **** void setFunctionUp(void (*function)(void))
 193:Src/Menu/Constructor_Menu.c **** {
 951              		.loc 1 193 0
 952              		.cfi_startproc
 953              		@ args = 0, pretend = 0, frame = 0
 954              		@ frame_needed = 0, uses_anonymous_args = 0
 955              		@ link register save eliminated.
 956              	.LVL39:
 194:Src/Menu/Constructor_Menu.c ****     pMenuNode->pfnUp = function;
 957              		.loc 1 194 0
 958 0000 024B     		ldr	r3, .L106
 959 0002 1B68     		ldr	r3, [r3]
 960 0004 C3F80801 		str	r0, [r3, #264]
 195:Src/Menu/Constructor_Menu.c **** }
 961              		.loc 1 195 0
 962 0008 7047     		bx	lr
 963              	.L107:
 964 000a 00BF     		.align	2
 965              	.L106:
 966 000c 00000000 		.word	.LANCHOR0
 967              		.cfi_endproc
 968              	.LFE21:
 970              		.section	.text.setFunctionDown,"ax",%progbits
 971              		.align	1
 972              		.global	setFunctionDown
 973              		.syntax unified
 974              		.thumb
 975              		.thumb_func
 976              		.fpu softvfp
 978              	setFunctionDown:
 979              	.LFB22:
 196:Src/Menu/Constructor_Menu.c **** 
 197:Src/Menu/Constructor_Menu.c **** void setFunctionDown(void (*function)(void))
 198:Src/Menu/Constructor_Menu.c **** {
 980              		.loc 1 198 0
 981              		.cfi_startproc
 982              		@ args = 0, pretend = 0, frame = 0
 983              		@ frame_needed = 0, uses_anonymous_args = 0
 984              		@ link register save eliminated.
 985              	.LVL40:
 199:Src/Menu/Constructor_Menu.c ****     pMenuNode->pfnDown = function;
 986              		.loc 1 199 0
 987 0000 024B     		ldr	r3, .L109
 988 0002 1B68     		ldr	r3, [r3]
ARM GAS  /tmp/ccSiL4BS.s 			page 22


 989 0004 C3F80C01 		str	r0, [r3, #268]
 200:Src/Menu/Constructor_Menu.c **** }
 990              		.loc 1 200 0
 991 0008 7047     		bx	lr
 992              	.L110:
 993 000a 00BF     		.align	2
 994              	.L109:
 995 000c 00000000 		.word	.LANCHOR0
 996              		.cfi_endproc
 997              	.LFE22:
 999              		.section	.bss.pMenuNode,"aw",%nobits
 1000              		.align	2
 1001              		.set	.LANCHOR0,. + 0
 1004              	pMenuNode:
 1005 0000 00000000 		.space	4
 1006              		.text
 1007              	.Letext0:
 1008              		.file 2 "/usr/lib/gcc/arm-none-eabi/7.3.1/include/stddef.h"
 1009              		.file 3 "/usr/arm-none-eabi/include/sys/lock.h"
 1010              		.file 4 "/usr/arm-none-eabi/include/sys/_types.h"
 1011              		.file 5 "/usr/arm-none-eabi/include/sys/reent.h"
 1012              		.file 6 "Inc/Menu/Constructor_Menu.h"
 1013              		.file 7 "/usr/arm-none-eabi/include/stdlib.h"
 1014              		.file 8 "/usr/arm-none-eabi/include/wchar.h"
ARM GAS  /tmp/ccSiL4BS.s 			page 23

