ARM GAS  /tmp/ccKQhP1M.s 			page 1


   1              		.cpu cortex-m3
   2              		.eabi_attribute 20, 1
   3              		.eabi_attribute 21, 1
   4              		.eabi_attribute 23, 3
   5              		.eabi_attribute 24, 1
   6              		.eabi_attribute 25, 1
   7              		.eabi_attribute 26, 1
   8              		.eabi_attribute 30, 1
   9              		.eabi_attribute 34, 1
  10              		.eabi_attribute 18, 4
  11              		.file	"Constructor_Menu.c"
  12              		.text
  13              	.Ltext0:
  14              		.cfi_sections	.debug_frame
  15              		.section	.text.onlyFirstNodeRemains,"ax",%progbits
  16              		.align	1
  17              		.arch armv7-m
  18              		.syntax unified
  19              		.thumb
  20              		.thumb_func
  21              		.fpu softvfp
  23              	onlyFirstNodeRemains:
  24              	.LFB3:
  25              		.file 1 "Src/Menu/Constructor_Menu.c"
   1:Src/Menu/Constructor_Menu.c **** #include "Constructor_Menu.h"
   2:Src/Menu/Constructor_Menu.c **** 
   3:Src/Menu/Constructor_Menu.c **** #include "stdint.h"
   4:Src/Menu/Constructor_Menu.c **** #include <wchar.h>
   5:Src/Menu/Constructor_Menu.c **** #include "stdbool.h"
   6:Src/Menu/Constructor_Menu.c **** #include <stdlib.h>
   7:Src/Menu/Constructor_Menu.c **** 
   8:Src/Menu/Constructor_Menu.c **** static menuNode* pMenuNode = NULL;
   9:Src/Menu/Constructor_Menu.c **** 
  10:Src/Menu/Constructor_Menu.c **** void createFirstNode_Menu(const wchar_t* titleNewNode, const wchar_t* nameNewNode)
  11:Src/Menu/Constructor_Menu.c **** {
  12:Src/Menu/Constructor_Menu.c ****     pMenuNode = malloc(sizeof(menuNode));
  13:Src/Menu/Constructor_Menu.c ****     wmemcpy(pMenuNode->title, titleNewNode, MENU_TITLE_LENGTH);
  14:Src/Menu/Constructor_Menu.c ****     wmemcpy(pMenuNode->name, nameNewNode, MENU_NAME_LENGTH);
  15:Src/Menu/Constructor_Menu.c ****     pMenuNode->pUpNode = NULL;
  16:Src/Menu/Constructor_Menu.c ****     pMenuNode->pDownNode = NULL;
  17:Src/Menu/Constructor_Menu.c ****     pMenuNode->pRightNode = NULL;
  18:Src/Menu/Constructor_Menu.c ****     pMenuNode->pLeftNode = NULL;
  19:Src/Menu/Constructor_Menu.c ****     pMenuNode->pfnOk = NULL;
  20:Src/Menu/Constructor_Menu.c ****     pMenuNode->pfnBack = NULL;
  21:Src/Menu/Constructor_Menu.c ****     pMenuNode->pfnUp = NULL;
  22:Src/Menu/Constructor_Menu.c ****     pMenuNode->pfnDown = NULL;
  23:Src/Menu/Constructor_Menu.c **** }
  24:Src/Menu/Constructor_Menu.c **** 
  25:Src/Menu/Constructor_Menu.c **** void createRightNode_Menu(const wchar_t* titleNewNode, const wchar_t* nameNewNode)
  26:Src/Menu/Constructor_Menu.c **** {
  27:Src/Menu/Constructor_Menu.c ****     pMenuNode->pRightNode = malloc(sizeof(menuNode));
  28:Src/Menu/Constructor_Menu.c ****     pMenuNode->pRightNode->pLeftNode = pMenuNode;
  29:Src/Menu/Constructor_Menu.c ****     wmemcpy(pMenuNode->pRightNode->title, titleNewNode, MENU_TITLE_LENGTH);
  30:Src/Menu/Constructor_Menu.c ****     wmemcpy(pMenuNode->pRightNode->name, nameNewNode, MENU_NAME_LENGTH);
  31:Src/Menu/Constructor_Menu.c ****     pMenuNode->pRightNode->pDownNode = NULL;
  32:Src/Menu/Constructor_Menu.c ****     pMenuNode->pRightNode->pUpNode = NULL;
  33:Src/Menu/Constructor_Menu.c ****     pMenuNode->pRightNode->pRightNode = NULL;
ARM GAS  /tmp/ccKQhP1M.s 			page 2


  34:Src/Menu/Constructor_Menu.c ****     pMenuNode->pRightNode->pfnOk = NULL;
  35:Src/Menu/Constructor_Menu.c ****     pMenuNode->pRightNode->pfnBack = NULL;
  36:Src/Menu/Constructor_Menu.c ****     pMenuNode->pRightNode->pfnUp = NULL;
  37:Src/Menu/Constructor_Menu.c ****     pMenuNode->pRightNode->pfnDown = NULL;
  38:Src/Menu/Constructor_Menu.c **** }
  39:Src/Menu/Constructor_Menu.c **** 
  40:Src/Menu/Constructor_Menu.c **** void createDownNode_Menu(const wchar_t* nameNewNode)
  41:Src/Menu/Constructor_Menu.c **** {
  42:Src/Menu/Constructor_Menu.c ****     pMenuNode->pDownNode = malloc(sizeof(menuNode));
  43:Src/Menu/Constructor_Menu.c ****     pMenuNode->pDownNode->pUpNode = pMenuNode;
  44:Src/Menu/Constructor_Menu.c ****     wmemcpy(pMenuNode->pDownNode->title, pMenuNode->title, MENU_TITLE_LENGTH);
  45:Src/Menu/Constructor_Menu.c ****     wmemcpy(pMenuNode->pDownNode->name, nameNewNode, MENU_NAME_LENGTH);
  46:Src/Menu/Constructor_Menu.c ****     pMenuNode->pDownNode->pDownNode = NULL;
  47:Src/Menu/Constructor_Menu.c ****     pMenuNode->pDownNode->pRightNode = NULL;
  48:Src/Menu/Constructor_Menu.c ****     pMenuNode->pDownNode->pLeftNode = pMenuNode->pLeftNode;
  49:Src/Menu/Constructor_Menu.c ****     pMenuNode->pDownNode->pfnOk = NULL;
  50:Src/Menu/Constructor_Menu.c ****     pMenuNode->pDownNode->pfnBack = NULL;
  51:Src/Menu/Constructor_Menu.c ****     pMenuNode->pDownNode->pfnUp = NULL;
  52:Src/Menu/Constructor_Menu.c ****     pMenuNode->pDownNode->pfnDown = NULL;
  53:Src/Menu/Constructor_Menu.c **** }
  54:Src/Menu/Constructor_Menu.c **** 
  55:Src/Menu/Constructor_Menu.c **** 
  56:Src/Menu/Constructor_Menu.c **** 
  57:Src/Menu/Constructor_Menu.c **** 
  58:Src/Menu/Constructor_Menu.c **** static _Bool onlyFirstNodeRemains(void)
  59:Src/Menu/Constructor_Menu.c **** {
  26              		.loc 1 59 1 view -0
  27              		.cfi_startproc
  28              		@ args = 0, pretend = 0, frame = 0
  29              		@ frame_needed = 0, uses_anonymous_args = 0
  30              		@ link register save eliminated.
  60:Src/Menu/Constructor_Menu.c ****     if (pMenuNode->pUpNode != NULL)
  31              		.loc 1 60 5 view .LVU1
  32              		.loc 1 60 18 is_stmt 0 view .LVU2
  33 0000 0B4B     		ldr	r3, .L11
  34 0002 1B68     		ldr	r3, [r3]
  35 0004 D3F8F020 		ldr	r2, [r3, #240]
  36              		.loc 1 60 8 view .LVU3
  37 0008 0AB1     		cbz	r2, .L7
  61:Src/Menu/Constructor_Menu.c ****         return false;
  38              		.loc 1 61 16 view .LVU4
  39 000a 0020     		movs	r0, #0
  40 000c 7047     		bx	lr
  41              	.L7:
  62:Src/Menu/Constructor_Menu.c ****     if (pMenuNode->pDownNode != NULL)
  42              		.loc 1 62 5 is_stmt 1 view .LVU5
  43              		.loc 1 62 18 is_stmt 0 view .LVU6
  44 000e D3F8F420 		ldr	r2, [r3, #244]
  45              		.loc 1 62 8 view .LVU7
  46 0012 0AB1     		cbz	r2, .L8
  63:Src/Menu/Constructor_Menu.c ****         return false;
  47              		.loc 1 63 16 view .LVU8
  48 0014 0020     		movs	r0, #0
  49 0016 7047     		bx	lr
  50              	.L8:
  64:Src/Menu/Constructor_Menu.c ****     if (pMenuNode->pRightNode != NULL)
  51              		.loc 1 64 5 is_stmt 1 view .LVU9
ARM GAS  /tmp/ccKQhP1M.s 			page 3


  52              		.loc 1 64 18 is_stmt 0 view .LVU10
  53 0018 D3F8FC20 		ldr	r2, [r3, #252]
  54              		.loc 1 64 8 view .LVU11
  55 001c 0AB1     		cbz	r2, .L9
  65:Src/Menu/Constructor_Menu.c ****         return false;
  56              		.loc 1 65 16 view .LVU12
  57 001e 0020     		movs	r0, #0
  58 0020 7047     		bx	lr
  59              	.L9:
  66:Src/Menu/Constructor_Menu.c ****     if (pMenuNode->pLeftNode != NULL)
  60              		.loc 1 66 5 is_stmt 1 view .LVU13
  61              		.loc 1 66 18 is_stmt 0 view .LVU14
  62 0022 D3F8F830 		ldr	r3, [r3, #248]
  63              		.loc 1 66 8 view .LVU15
  64 0026 0BB1     		cbz	r3, .L10
  67:Src/Menu/Constructor_Menu.c ****         return false;
  65              		.loc 1 67 16 view .LVU16
  66 0028 0020     		movs	r0, #0
  68:Src/Menu/Constructor_Menu.c ****     return true;
  69:Src/Menu/Constructor_Menu.c **** }
  67              		.loc 1 69 1 view .LVU17
  68 002a 7047     		bx	lr
  69              	.L10:
  68:Src/Menu/Constructor_Menu.c ****     return true;
  70              		.loc 1 68 12 view .LVU18
  71 002c 0120     		movs	r0, #1
  72 002e 7047     		bx	lr
  73              	.L12:
  74              		.align	2
  75              	.L11:
  76 0030 00000000 		.word	.LANCHOR0
  77              		.cfi_endproc
  78              	.LFE3:
  80              		.section	.text.createFirstNode_Menu,"ax",%progbits
  81              		.align	1
  82              		.global	createFirstNode_Menu
  83              		.syntax unified
  84              		.thumb
  85              		.thumb_func
  86              		.fpu softvfp
  88              	createFirstNode_Menu:
  89              	.LVL0:
  90              	.LFB0:
  11:Src/Menu/Constructor_Menu.c ****     pMenuNode = malloc(sizeof(menuNode));
  91              		.loc 1 11 1 is_stmt 1 view -0
  92              		.cfi_startproc
  93              		@ args = 0, pretend = 0, frame = 0
  94              		@ frame_needed = 0, uses_anonymous_args = 0
  11:Src/Menu/Constructor_Menu.c ****     pMenuNode = malloc(sizeof(menuNode));
  95              		.loc 1 11 1 is_stmt 0 view .LVU20
  96 0000 70B5     		push	{r4, r5, r6, lr}
  97              	.LCFI0:
  98              		.cfi_def_cfa_offset 16
  99              		.cfi_offset 4, -16
 100              		.cfi_offset 5, -12
 101              		.cfi_offset 6, -8
 102              		.cfi_offset 14, -4
ARM GAS  /tmp/ccKQhP1M.s 			page 4


 103 0002 0646     		mov	r6, r0
 104 0004 0D46     		mov	r5, r1
  12:Src/Menu/Constructor_Menu.c ****     wmemcpy(pMenuNode->title, titleNewNode, MENU_TITLE_LENGTH);
 105              		.loc 1 12 5 is_stmt 1 view .LVU21
  12:Src/Menu/Constructor_Menu.c ****     wmemcpy(pMenuNode->title, titleNewNode, MENU_TITLE_LENGTH);
 106              		.loc 1 12 17 is_stmt 0 view .LVU22
 107 0006 4FF48870 		mov	r0, #272
 108              	.LVL1:
  12:Src/Menu/Constructor_Menu.c ****     wmemcpy(pMenuNode->title, titleNewNode, MENU_TITLE_LENGTH);
 109              		.loc 1 12 17 view .LVU23
 110 000a FFF7FEFF 		bl	malloc
 111              	.LVL2:
  12:Src/Menu/Constructor_Menu.c ****     wmemcpy(pMenuNode->title, titleNewNode, MENU_TITLE_LENGTH);
 112              		.loc 1 12 15 view .LVU24
 113 000e 0F4C     		ldr	r4, .L15
 114 0010 2060     		str	r0, [r4]
  13:Src/Menu/Constructor_Menu.c ****     wmemcpy(pMenuNode->name, nameNewNode, MENU_NAME_LENGTH);
 115              		.loc 1 13 5 is_stmt 1 view .LVU25
 116 0012 1422     		movs	r2, #20
 117 0014 3146     		mov	r1, r6
 118 0016 FFF7FEFF 		bl	wmemcpy
 119              	.LVL3:
  14:Src/Menu/Constructor_Menu.c ****     pMenuNode->pUpNode = NULL;
 120              		.loc 1 14 5 view .LVU26
  14:Src/Menu/Constructor_Menu.c ****     pMenuNode->pUpNode = NULL;
 121              		.loc 1 14 22 is_stmt 0 view .LVU27
 122 001a 2068     		ldr	r0, [r4]
  14:Src/Menu/Constructor_Menu.c ****     pMenuNode->pUpNode = NULL;
 123              		.loc 1 14 5 view .LVU28
 124 001c 2822     		movs	r2, #40
 125 001e 2946     		mov	r1, r5
 126 0020 5030     		adds	r0, r0, #80
 127 0022 FFF7FEFF 		bl	wmemcpy
 128              	.LVL4:
  15:Src/Menu/Constructor_Menu.c ****     pMenuNode->pDownNode = NULL;
 129              		.loc 1 15 5 is_stmt 1 view .LVU29
  15:Src/Menu/Constructor_Menu.c ****     pMenuNode->pDownNode = NULL;
 130              		.loc 1 15 14 is_stmt 0 view .LVU30
 131 0026 2368     		ldr	r3, [r4]
  15:Src/Menu/Constructor_Menu.c ****     pMenuNode->pDownNode = NULL;
 132              		.loc 1 15 24 view .LVU31
 133 0028 0022     		movs	r2, #0
 134 002a C3F8F020 		str	r2, [r3, #240]
  16:Src/Menu/Constructor_Menu.c ****     pMenuNode->pRightNode = NULL;
 135              		.loc 1 16 5 is_stmt 1 view .LVU32
  16:Src/Menu/Constructor_Menu.c ****     pMenuNode->pRightNode = NULL;
 136              		.loc 1 16 26 is_stmt 0 view .LVU33
 137 002e C3F8F420 		str	r2, [r3, #244]
  17:Src/Menu/Constructor_Menu.c ****     pMenuNode->pLeftNode = NULL;
 138              		.loc 1 17 5 is_stmt 1 view .LVU34
  17:Src/Menu/Constructor_Menu.c ****     pMenuNode->pLeftNode = NULL;
 139              		.loc 1 17 27 is_stmt 0 view .LVU35
 140 0032 C3F8FC20 		str	r2, [r3, #252]
  18:Src/Menu/Constructor_Menu.c ****     pMenuNode->pfnOk = NULL;
 141              		.loc 1 18 5 is_stmt 1 view .LVU36
  18:Src/Menu/Constructor_Menu.c ****     pMenuNode->pfnOk = NULL;
 142              		.loc 1 18 26 is_stmt 0 view .LVU37
ARM GAS  /tmp/ccKQhP1M.s 			page 5


 143 0036 C3F8F820 		str	r2, [r3, #248]
  19:Src/Menu/Constructor_Menu.c ****     pMenuNode->pfnBack = NULL;
 144              		.loc 1 19 5 is_stmt 1 view .LVU38
  19:Src/Menu/Constructor_Menu.c ****     pMenuNode->pfnBack = NULL;
 145              		.loc 1 19 22 is_stmt 0 view .LVU39
 146 003a C3F80021 		str	r2, [r3, #256]
  20:Src/Menu/Constructor_Menu.c ****     pMenuNode->pfnUp = NULL;
 147              		.loc 1 20 5 is_stmt 1 view .LVU40
  20:Src/Menu/Constructor_Menu.c ****     pMenuNode->pfnUp = NULL;
 148              		.loc 1 20 24 is_stmt 0 view .LVU41
 149 003e C3F80421 		str	r2, [r3, #260]
  21:Src/Menu/Constructor_Menu.c ****     pMenuNode->pfnDown = NULL;
 150              		.loc 1 21 5 is_stmt 1 view .LVU42
  21:Src/Menu/Constructor_Menu.c ****     pMenuNode->pfnDown = NULL;
 151              		.loc 1 21 22 is_stmt 0 view .LVU43
 152 0042 C3F80821 		str	r2, [r3, #264]
  22:Src/Menu/Constructor_Menu.c **** }
 153              		.loc 1 22 5 is_stmt 1 view .LVU44
  22:Src/Menu/Constructor_Menu.c **** }
 154              		.loc 1 22 24 is_stmt 0 view .LVU45
 155 0046 C3F80C21 		str	r2, [r3, #268]
  23:Src/Menu/Constructor_Menu.c **** 
 156              		.loc 1 23 1 view .LVU46
 157 004a 70BD     		pop	{r4, r5, r6, pc}
 158              	.LVL5:
 159              	.L16:
  23:Src/Menu/Constructor_Menu.c **** 
 160              		.loc 1 23 1 view .LVU47
 161              		.align	2
 162              	.L15:
 163 004c 00000000 		.word	.LANCHOR0
 164              		.cfi_endproc
 165              	.LFE0:
 167              		.section	.text.createRightNode_Menu,"ax",%progbits
 168              		.align	1
 169              		.global	createRightNode_Menu
 170              		.syntax unified
 171              		.thumb
 172              		.thumb_func
 173              		.fpu softvfp
 175              	createRightNode_Menu:
 176              	.LVL6:
 177              	.LFB1:
  26:Src/Menu/Constructor_Menu.c ****     pMenuNode->pRightNode = malloc(sizeof(menuNode));
 178              		.loc 1 26 1 is_stmt 1 view -0
 179              		.cfi_startproc
 180              		@ args = 0, pretend = 0, frame = 0
 181              		@ frame_needed = 0, uses_anonymous_args = 0
  26:Src/Menu/Constructor_Menu.c ****     pMenuNode->pRightNode = malloc(sizeof(menuNode));
 182              		.loc 1 26 1 is_stmt 0 view .LVU49
 183 0000 F8B5     		push	{r3, r4, r5, r6, r7, lr}
 184              	.LCFI1:
 185              		.cfi_def_cfa_offset 24
 186              		.cfi_offset 3, -24
 187              		.cfi_offset 4, -20
 188              		.cfi_offset 5, -16
 189              		.cfi_offset 6, -12
ARM GAS  /tmp/ccKQhP1M.s 			page 6


 190              		.cfi_offset 7, -8
 191              		.cfi_offset 14, -4
 192 0002 0746     		mov	r7, r0
 193 0004 0D46     		mov	r5, r1
  27:Src/Menu/Constructor_Menu.c ****     pMenuNode->pRightNode->pLeftNode = pMenuNode;
 194              		.loc 1 27 5 is_stmt 1 view .LVU50
  27:Src/Menu/Constructor_Menu.c ****     pMenuNode->pRightNode->pLeftNode = pMenuNode;
 195              		.loc 1 27 14 is_stmt 0 view .LVU51
 196 0006 1B4C     		ldr	r4, .L19
 197 0008 2668     		ldr	r6, [r4]
  27:Src/Menu/Constructor_Menu.c ****     pMenuNode->pRightNode->pLeftNode = pMenuNode;
 198              		.loc 1 27 29 view .LVU52
 199 000a 4FF48870 		mov	r0, #272
 200              	.LVL7:
  27:Src/Menu/Constructor_Menu.c ****     pMenuNode->pRightNode->pLeftNode = pMenuNode;
 201              		.loc 1 27 29 view .LVU53
 202 000e FFF7FEFF 		bl	malloc
 203              	.LVL8:
  27:Src/Menu/Constructor_Menu.c ****     pMenuNode->pRightNode->pLeftNode = pMenuNode;
 204              		.loc 1 27 27 view .LVU54
 205 0012 C6F8FC00 		str	r0, [r6, #252]
  28:Src/Menu/Constructor_Menu.c ****     wmemcpy(pMenuNode->pRightNode->title, titleNewNode, MENU_TITLE_LENGTH);
 206              		.loc 1 28 5 is_stmt 1 view .LVU55
  28:Src/Menu/Constructor_Menu.c ****     wmemcpy(pMenuNode->pRightNode->title, titleNewNode, MENU_TITLE_LENGTH);
 207              		.loc 1 28 38 is_stmt 0 view .LVU56
 208 0016 C0F8F860 		str	r6, [r0, #248]
  29:Src/Menu/Constructor_Menu.c ****     wmemcpy(pMenuNode->pRightNode->name, nameNewNode, MENU_NAME_LENGTH);
 209              		.loc 1 29 5 is_stmt 1 view .LVU57
 210 001a 1422     		movs	r2, #20
 211 001c 3946     		mov	r1, r7
 212 001e D6F8FC00 		ldr	r0, [r6, #252]
 213 0022 FFF7FEFF 		bl	wmemcpy
 214              	.LVL9:
  30:Src/Menu/Constructor_Menu.c ****     pMenuNode->pRightNode->pDownNode = NULL;
 215              		.loc 1 30 5 view .LVU58
  30:Src/Menu/Constructor_Menu.c ****     pMenuNode->pRightNode->pDownNode = NULL;
 216              		.loc 1 30 22 is_stmt 0 view .LVU59
 217 0026 2368     		ldr	r3, [r4]
 218 0028 D3F8FC00 		ldr	r0, [r3, #252]
  30:Src/Menu/Constructor_Menu.c ****     pMenuNode->pRightNode->pDownNode = NULL;
 219              		.loc 1 30 5 view .LVU60
 220 002c 2822     		movs	r2, #40
 221 002e 2946     		mov	r1, r5
 222 0030 5030     		adds	r0, r0, #80
 223 0032 FFF7FEFF 		bl	wmemcpy
 224              	.LVL10:
  31:Src/Menu/Constructor_Menu.c ****     pMenuNode->pRightNode->pUpNode = NULL;
 225              		.loc 1 31 5 is_stmt 1 view .LVU61
  31:Src/Menu/Constructor_Menu.c ****     pMenuNode->pRightNode->pUpNode = NULL;
 226              		.loc 1 31 14 is_stmt 0 view .LVU62
 227 0036 2268     		ldr	r2, [r4]
 228 0038 D2F8FC10 		ldr	r1, [r2, #252]
  31:Src/Menu/Constructor_Menu.c ****     pMenuNode->pRightNode->pUpNode = NULL;
 229              		.loc 1 31 38 view .LVU63
 230 003c 0023     		movs	r3, #0
 231 003e C1F8F430 		str	r3, [r1, #244]
  32:Src/Menu/Constructor_Menu.c ****     pMenuNode->pRightNode->pRightNode = NULL;
ARM GAS  /tmp/ccKQhP1M.s 			page 7


 232              		.loc 1 32 5 is_stmt 1 view .LVU64
  32:Src/Menu/Constructor_Menu.c ****     pMenuNode->pRightNode->pRightNode = NULL;
 233              		.loc 1 32 14 is_stmt 0 view .LVU65
 234 0042 D2F8FC10 		ldr	r1, [r2, #252]
  32:Src/Menu/Constructor_Menu.c ****     pMenuNode->pRightNode->pRightNode = NULL;
 235              		.loc 1 32 36 view .LVU66
 236 0046 C1F8F030 		str	r3, [r1, #240]
  33:Src/Menu/Constructor_Menu.c ****     pMenuNode->pRightNode->pfnOk = NULL;
 237              		.loc 1 33 5 is_stmt 1 view .LVU67
  33:Src/Menu/Constructor_Menu.c ****     pMenuNode->pRightNode->pfnOk = NULL;
 238              		.loc 1 33 14 is_stmt 0 view .LVU68
 239 004a D2F8FC10 		ldr	r1, [r2, #252]
  33:Src/Menu/Constructor_Menu.c ****     pMenuNode->pRightNode->pfnOk = NULL;
 240              		.loc 1 33 39 view .LVU69
 241 004e C1F8FC30 		str	r3, [r1, #252]
  34:Src/Menu/Constructor_Menu.c ****     pMenuNode->pRightNode->pfnBack = NULL;
 242              		.loc 1 34 5 is_stmt 1 view .LVU70
  34:Src/Menu/Constructor_Menu.c ****     pMenuNode->pRightNode->pfnBack = NULL;
 243              		.loc 1 34 14 is_stmt 0 view .LVU71
 244 0052 D2F8FC10 		ldr	r1, [r2, #252]
  34:Src/Menu/Constructor_Menu.c ****     pMenuNode->pRightNode->pfnBack = NULL;
 245              		.loc 1 34 34 view .LVU72
 246 0056 C1F80031 		str	r3, [r1, #256]
  35:Src/Menu/Constructor_Menu.c ****     pMenuNode->pRightNode->pfnUp = NULL;
 247              		.loc 1 35 5 is_stmt 1 view .LVU73
  35:Src/Menu/Constructor_Menu.c ****     pMenuNode->pRightNode->pfnUp = NULL;
 248              		.loc 1 35 14 is_stmt 0 view .LVU74
 249 005a D2F8FC10 		ldr	r1, [r2, #252]
  35:Src/Menu/Constructor_Menu.c ****     pMenuNode->pRightNode->pfnUp = NULL;
 250              		.loc 1 35 36 view .LVU75
 251 005e C1F80431 		str	r3, [r1, #260]
  36:Src/Menu/Constructor_Menu.c ****     pMenuNode->pRightNode->pfnDown = NULL;
 252              		.loc 1 36 5 is_stmt 1 view .LVU76
  36:Src/Menu/Constructor_Menu.c ****     pMenuNode->pRightNode->pfnDown = NULL;
 253              		.loc 1 36 14 is_stmt 0 view .LVU77
 254 0062 D2F8FC10 		ldr	r1, [r2, #252]
  36:Src/Menu/Constructor_Menu.c ****     pMenuNode->pRightNode->pfnDown = NULL;
 255              		.loc 1 36 34 view .LVU78
 256 0066 C1F80831 		str	r3, [r1, #264]
  37:Src/Menu/Constructor_Menu.c **** }
 257              		.loc 1 37 5 is_stmt 1 view .LVU79
  37:Src/Menu/Constructor_Menu.c **** }
 258              		.loc 1 37 14 is_stmt 0 view .LVU80
 259 006a D2F8FC20 		ldr	r2, [r2, #252]
  37:Src/Menu/Constructor_Menu.c **** }
 260              		.loc 1 37 36 view .LVU81
 261 006e C2F80C31 		str	r3, [r2, #268]
  38:Src/Menu/Constructor_Menu.c **** 
 262              		.loc 1 38 1 view .LVU82
 263 0072 F8BD     		pop	{r3, r4, r5, r6, r7, pc}
 264              	.LVL11:
 265              	.L20:
  38:Src/Menu/Constructor_Menu.c **** 
 266              		.loc 1 38 1 view .LVU83
 267              		.align	2
 268              	.L19:
 269 0074 00000000 		.word	.LANCHOR0
ARM GAS  /tmp/ccKQhP1M.s 			page 8


 270              		.cfi_endproc
 271              	.LFE1:
 273              		.section	.text.createDownNode_Menu,"ax",%progbits
 274              		.align	1
 275              		.global	createDownNode_Menu
 276              		.syntax unified
 277              		.thumb
 278              		.thumb_func
 279              		.fpu softvfp
 281              	createDownNode_Menu:
 282              	.LVL12:
 283              	.LFB2:
  41:Src/Menu/Constructor_Menu.c ****     pMenuNode->pDownNode = malloc(sizeof(menuNode));
 284              		.loc 1 41 1 is_stmt 1 view -0
 285              		.cfi_startproc
 286              		@ args = 0, pretend = 0, frame = 0
 287              		@ frame_needed = 0, uses_anonymous_args = 0
  41:Src/Menu/Constructor_Menu.c ****     pMenuNode->pDownNode = malloc(sizeof(menuNode));
 288              		.loc 1 41 1 is_stmt 0 view .LVU85
 289 0000 70B5     		push	{r4, r5, r6, lr}
 290              	.LCFI2:
 291              		.cfi_def_cfa_offset 16
 292              		.cfi_offset 4, -16
 293              		.cfi_offset 5, -12
 294              		.cfi_offset 6, -8
 295              		.cfi_offset 14, -4
 296 0002 0646     		mov	r6, r0
  42:Src/Menu/Constructor_Menu.c ****     pMenuNode->pDownNode->pUpNode = pMenuNode;
 297              		.loc 1 42 5 is_stmt 1 view .LVU86
  42:Src/Menu/Constructor_Menu.c ****     pMenuNode->pDownNode->pUpNode = pMenuNode;
 298              		.loc 1 42 14 is_stmt 0 view .LVU87
 299 0004 1C4D     		ldr	r5, .L23
 300 0006 2C68     		ldr	r4, [r5]
  42:Src/Menu/Constructor_Menu.c ****     pMenuNode->pDownNode->pUpNode = pMenuNode;
 301              		.loc 1 42 28 view .LVU88
 302 0008 4FF48870 		mov	r0, #272
 303              	.LVL13:
  42:Src/Menu/Constructor_Menu.c ****     pMenuNode->pDownNode->pUpNode = pMenuNode;
 304              		.loc 1 42 28 view .LVU89
 305 000c FFF7FEFF 		bl	malloc
 306              	.LVL14:
  42:Src/Menu/Constructor_Menu.c ****     pMenuNode->pDownNode->pUpNode = pMenuNode;
 307              		.loc 1 42 26 view .LVU90
 308 0010 C4F8F400 		str	r0, [r4, #244]
  43:Src/Menu/Constructor_Menu.c ****     wmemcpy(pMenuNode->pDownNode->title, pMenuNode->title, MENU_TITLE_LENGTH);
 309              		.loc 1 43 5 is_stmt 1 view .LVU91
  43:Src/Menu/Constructor_Menu.c ****     wmemcpy(pMenuNode->pDownNode->title, pMenuNode->title, MENU_TITLE_LENGTH);
 310              		.loc 1 43 35 is_stmt 0 view .LVU92
 311 0014 C0F8F040 		str	r4, [r0, #240]
  44:Src/Menu/Constructor_Menu.c ****     wmemcpy(pMenuNode->pDownNode->name, nameNewNode, MENU_NAME_LENGTH);
 312              		.loc 1 44 5 is_stmt 1 view .LVU93
 313 0018 1422     		movs	r2, #20
 314 001a 2146     		mov	r1, r4
 315 001c D4F8F400 		ldr	r0, [r4, #244]
 316 0020 FFF7FEFF 		bl	wmemcpy
 317              	.LVL15:
  45:Src/Menu/Constructor_Menu.c ****     pMenuNode->pDownNode->pDownNode = NULL;
ARM GAS  /tmp/ccKQhP1M.s 			page 9


 318              		.loc 1 45 5 view .LVU94
  45:Src/Menu/Constructor_Menu.c ****     pMenuNode->pDownNode->pDownNode = NULL;
 319              		.loc 1 45 22 is_stmt 0 view .LVU95
 320 0024 2B68     		ldr	r3, [r5]
 321 0026 D3F8F400 		ldr	r0, [r3, #244]
  45:Src/Menu/Constructor_Menu.c ****     pMenuNode->pDownNode->pDownNode = NULL;
 322              		.loc 1 45 5 view .LVU96
 323 002a 2822     		movs	r2, #40
 324 002c 3146     		mov	r1, r6
 325 002e 5030     		adds	r0, r0, #80
 326 0030 FFF7FEFF 		bl	wmemcpy
 327              	.LVL16:
  46:Src/Menu/Constructor_Menu.c ****     pMenuNode->pDownNode->pRightNode = NULL;
 328              		.loc 1 46 5 is_stmt 1 view .LVU97
  46:Src/Menu/Constructor_Menu.c ****     pMenuNode->pDownNode->pRightNode = NULL;
 329              		.loc 1 46 14 is_stmt 0 view .LVU98
 330 0034 2B68     		ldr	r3, [r5]
 331 0036 D3F8F410 		ldr	r1, [r3, #244]
  46:Src/Menu/Constructor_Menu.c ****     pMenuNode->pDownNode->pRightNode = NULL;
 332              		.loc 1 46 37 view .LVU99
 333 003a 0022     		movs	r2, #0
 334 003c C1F8F420 		str	r2, [r1, #244]
  47:Src/Menu/Constructor_Menu.c ****     pMenuNode->pDownNode->pLeftNode = pMenuNode->pLeftNode;
 335              		.loc 1 47 5 is_stmt 1 view .LVU100
  47:Src/Menu/Constructor_Menu.c ****     pMenuNode->pDownNode->pLeftNode = pMenuNode->pLeftNode;
 336              		.loc 1 47 14 is_stmt 0 view .LVU101
 337 0040 D3F8F410 		ldr	r1, [r3, #244]
  47:Src/Menu/Constructor_Menu.c ****     pMenuNode->pDownNode->pLeftNode = pMenuNode->pLeftNode;
 338              		.loc 1 47 38 view .LVU102
 339 0044 C1F8FC20 		str	r2, [r1, #252]
  48:Src/Menu/Constructor_Menu.c ****     pMenuNode->pDownNode->pfnOk = NULL;
 340              		.loc 1 48 5 is_stmt 1 view .LVU103
  48:Src/Menu/Constructor_Menu.c ****     pMenuNode->pDownNode->pfnOk = NULL;
 341              		.loc 1 48 14 is_stmt 0 view .LVU104
 342 0048 D3F8F410 		ldr	r1, [r3, #244]
  48:Src/Menu/Constructor_Menu.c ****     pMenuNode->pDownNode->pfnOk = NULL;
 343              		.loc 1 48 48 view .LVU105
 344 004c D3F8F800 		ldr	r0, [r3, #248]
  48:Src/Menu/Constructor_Menu.c ****     pMenuNode->pDownNode->pfnOk = NULL;
 345              		.loc 1 48 37 view .LVU106
 346 0050 C1F8F800 		str	r0, [r1, #248]
  49:Src/Menu/Constructor_Menu.c ****     pMenuNode->pDownNode->pfnBack = NULL;
 347              		.loc 1 49 5 is_stmt 1 view .LVU107
  49:Src/Menu/Constructor_Menu.c ****     pMenuNode->pDownNode->pfnBack = NULL;
 348              		.loc 1 49 14 is_stmt 0 view .LVU108
 349 0054 D3F8F410 		ldr	r1, [r3, #244]
  49:Src/Menu/Constructor_Menu.c ****     pMenuNode->pDownNode->pfnBack = NULL;
 350              		.loc 1 49 33 view .LVU109
 351 0058 C1F80021 		str	r2, [r1, #256]
  50:Src/Menu/Constructor_Menu.c ****     pMenuNode->pDownNode->pfnUp = NULL;
 352              		.loc 1 50 5 is_stmt 1 view .LVU110
  50:Src/Menu/Constructor_Menu.c ****     pMenuNode->pDownNode->pfnUp = NULL;
 353              		.loc 1 50 14 is_stmt 0 view .LVU111
 354 005c D3F8F410 		ldr	r1, [r3, #244]
  50:Src/Menu/Constructor_Menu.c ****     pMenuNode->pDownNode->pfnUp = NULL;
 355              		.loc 1 50 35 view .LVU112
 356 0060 C1F80421 		str	r2, [r1, #260]
ARM GAS  /tmp/ccKQhP1M.s 			page 10


  51:Src/Menu/Constructor_Menu.c ****     pMenuNode->pDownNode->pfnDown = NULL;
 357              		.loc 1 51 5 is_stmt 1 view .LVU113
  51:Src/Menu/Constructor_Menu.c ****     pMenuNode->pDownNode->pfnDown = NULL;
 358              		.loc 1 51 14 is_stmt 0 view .LVU114
 359 0064 D3F8F410 		ldr	r1, [r3, #244]
  51:Src/Menu/Constructor_Menu.c ****     pMenuNode->pDownNode->pfnDown = NULL;
 360              		.loc 1 51 33 view .LVU115
 361 0068 C1F80821 		str	r2, [r1, #264]
  52:Src/Menu/Constructor_Menu.c **** }
 362              		.loc 1 52 5 is_stmt 1 view .LVU116
  52:Src/Menu/Constructor_Menu.c **** }
 363              		.loc 1 52 14 is_stmt 0 view .LVU117
 364 006c D3F8F430 		ldr	r3, [r3, #244]
  52:Src/Menu/Constructor_Menu.c **** }
 365              		.loc 1 52 35 view .LVU118
 366 0070 C3F80C21 		str	r2, [r3, #268]
  53:Src/Menu/Constructor_Menu.c **** 
 367              		.loc 1 53 1 view .LVU119
 368 0074 70BD     		pop	{r4, r5, r6, pc}
 369              	.LVL17:
 370              	.L24:
  53:Src/Menu/Constructor_Menu.c **** 
 371              		.loc 1 53 1 view .LVU120
 372 0076 00BF     		.align	2
 373              	.L23:
 374 0078 00000000 		.word	.LANCHOR0
 375              		.cfi_endproc
 376              	.LFE2:
 378              		.section	.text.destroyFirstNode_Menu,"ax",%progbits
 379              		.align	1
 380              		.global	destroyFirstNode_Menu
 381              		.syntax unified
 382              		.thumb
 383              		.thumb_func
 384              		.fpu softvfp
 386              	destroyFirstNode_Menu:
 387              	.LFB4:
  70:Src/Menu/Constructor_Menu.c **** 
  71:Src/Menu/Constructor_Menu.c **** void destroyFirstNode_Menu()
  72:Src/Menu/Constructor_Menu.c **** {
 388              		.loc 1 72 1 is_stmt 1 view -0
 389              		.cfi_startproc
 390              		@ args = 0, pretend = 0, frame = 0
 391              		@ frame_needed = 0, uses_anonymous_args = 0
 392 0000 10B5     		push	{r4, lr}
 393              	.LCFI3:
 394              		.cfi_def_cfa_offset 8
 395              		.cfi_offset 4, -8
 396              		.cfi_offset 14, -4
  73:Src/Menu/Constructor_Menu.c ****     free(pMenuNode);
 397              		.loc 1 73 5 view .LVU122
 398 0002 034C     		ldr	r4, .L27
 399 0004 2068     		ldr	r0, [r4]
 400 0006 FFF7FEFF 		bl	free
 401              	.LVL18:
  74:Src/Menu/Constructor_Menu.c ****     pMenuNode = NULL;
 402              		.loc 1 74 5 view .LVU123
ARM GAS  /tmp/ccKQhP1M.s 			page 11


 403              		.loc 1 74 15 is_stmt 0 view .LVU124
 404 000a 0023     		movs	r3, #0
 405 000c 2360     		str	r3, [r4]
  75:Src/Menu/Constructor_Menu.c **** }
 406              		.loc 1 75 1 view .LVU125
 407 000e 10BD     		pop	{r4, pc}
 408              	.L28:
 409              		.align	2
 410              	.L27:
 411 0010 00000000 		.word	.LANCHOR0
 412              		.cfi_endproc
 413              	.LFE4:
 415              		.section	.text.destroyDownNode_Menu,"ax",%progbits
 416              		.align	1
 417              		.global	destroyDownNode_Menu
 418              		.syntax unified
 419              		.thumb
 420              		.thumb_func
 421              		.fpu softvfp
 423              	destroyDownNode_Menu:
 424              	.LFB5:
  76:Src/Menu/Constructor_Menu.c **** 
  77:Src/Menu/Constructor_Menu.c **** void destroyDownNode_Menu()
  78:Src/Menu/Constructor_Menu.c **** {
 425              		.loc 1 78 1 is_stmt 1 view -0
 426              		.cfi_startproc
 427              		@ args = 0, pretend = 0, frame = 0
 428              		@ frame_needed = 0, uses_anonymous_args = 0
 429 0000 10B5     		push	{r4, lr}
 430              	.LCFI4:
 431              		.cfi_def_cfa_offset 8
 432              		.cfi_offset 4, -8
 433              		.cfi_offset 14, -4
  79:Src/Menu/Constructor_Menu.c ****     free(pMenuNode->pDownNode);
 434              		.loc 1 79 5 view .LVU127
 435              		.loc 1 79 19 is_stmt 0 view .LVU128
 436 0002 054B     		ldr	r3, .L31
 437 0004 1C68     		ldr	r4, [r3]
 438              		.loc 1 79 5 view .LVU129
 439 0006 D4F8F400 		ldr	r0, [r4, #244]
 440 000a FFF7FEFF 		bl	free
 441              	.LVL19:
  80:Src/Menu/Constructor_Menu.c ****     pMenuNode->pDownNode = NULL;
 442              		.loc 1 80 5 is_stmt 1 view .LVU130
 443              		.loc 1 80 26 is_stmt 0 view .LVU131
 444 000e 0023     		movs	r3, #0
 445 0010 C4F8F430 		str	r3, [r4, #244]
  81:Src/Menu/Constructor_Menu.c **** }
 446              		.loc 1 81 1 view .LVU132
 447 0014 10BD     		pop	{r4, pc}
 448              	.L32:
 449 0016 00BF     		.align	2
 450              	.L31:
 451 0018 00000000 		.word	.LANCHOR0
 452              		.cfi_endproc
 453              	.LFE5:
 455              		.section	.text.destroyRightNode_Menu,"ax",%progbits
ARM GAS  /tmp/ccKQhP1M.s 			page 12


 456              		.align	1
 457              		.global	destroyRightNode_Menu
 458              		.syntax unified
 459              		.thumb
 460              		.thumb_func
 461              		.fpu softvfp
 463              	destroyRightNode_Menu:
 464              	.LFB6:
  82:Src/Menu/Constructor_Menu.c **** 
  83:Src/Menu/Constructor_Menu.c **** void destroyRightNode_Menu(void)
  84:Src/Menu/Constructor_Menu.c **** {
 465              		.loc 1 84 1 is_stmt 1 view -0
 466              		.cfi_startproc
 467              		@ args = 0, pretend = 0, frame = 0
 468              		@ frame_needed = 0, uses_anonymous_args = 0
 469 0000 10B5     		push	{r4, lr}
 470              	.LCFI5:
 471              		.cfi_def_cfa_offset 8
 472              		.cfi_offset 4, -8
 473              		.cfi_offset 14, -4
  85:Src/Menu/Constructor_Menu.c ****     free(pMenuNode->pRightNode);
 474              		.loc 1 85 5 view .LVU134
 475              		.loc 1 85 19 is_stmt 0 view .LVU135
 476 0002 054B     		ldr	r3, .L35
 477 0004 1C68     		ldr	r4, [r3]
 478              		.loc 1 85 5 view .LVU136
 479 0006 D4F8FC00 		ldr	r0, [r4, #252]
 480 000a FFF7FEFF 		bl	free
 481              	.LVL20:
  86:Src/Menu/Constructor_Menu.c ****     pMenuNode->pRightNode = NULL;
 482              		.loc 1 86 5 is_stmt 1 view .LVU137
 483              		.loc 1 86 27 is_stmt 0 view .LVU138
 484 000e 0023     		movs	r3, #0
 485 0010 C4F8FC30 		str	r3, [r4, #252]
  87:Src/Menu/Constructor_Menu.c **** }
 486              		.loc 1 87 1 view .LVU139
 487 0014 10BD     		pop	{r4, pc}
 488              	.L36:
 489 0016 00BF     		.align	2
 490              	.L35:
 491 0018 00000000 		.word	.LANCHOR0
 492              		.cfi_endproc
 493              	.LFE6:
 495              		.section	.text.destroyRightColomn_Menu,"ax",%progbits
 496              		.align	1
 497              		.global	destroyRightColomn_Menu
 498              		.syntax unified
 499              		.thumb
 500              		.thumb_func
 501              		.fpu softvfp
 503              	destroyRightColomn_Menu:
 504              	.LFB7:
  88:Src/Menu/Constructor_Menu.c **** 
  89:Src/Menu/Constructor_Menu.c **** void destroyRightColomn_Menu()
  90:Src/Menu/Constructor_Menu.c **** {
 505              		.loc 1 90 1 is_stmt 1 view -0
 506              		.cfi_startproc
ARM GAS  /tmp/ccKQhP1M.s 			page 13


 507              		@ args = 0, pretend = 0, frame = 0
 508              		@ frame_needed = 0, uses_anonymous_args = 0
 509 0000 38B5     		push	{r3, r4, r5, lr}
 510              	.LCFI6:
 511              		.cfi_def_cfa_offset 16
 512              		.cfi_offset 3, -16
 513              		.cfi_offset 4, -12
 514              		.cfi_offset 5, -8
 515              		.cfi_offset 14, -4
  91:Src/Menu/Constructor_Menu.c ****     menuNode* pMenuNodeBuf = pMenuNode;
 516              		.loc 1 91 5 view .LVU141
 517              		.loc 1 91 15 is_stmt 0 view .LVU142
 518 0002 0D4B     		ldr	r3, .L43
 519 0004 1D68     		ldr	r5, [r3]
 520              	.LVL21:
  92:Src/Menu/Constructor_Menu.c ****     if (pMenuNodeBuf->pRightNode == NULL)
 521              		.loc 1 92 5 is_stmt 1 view .LVU143
 522              		.loc 1 92 21 is_stmt 0 view .LVU144
 523 0006 D5F8FC30 		ldr	r3, [r5, #252]
 524              		.loc 1 92 8 view .LVU145
 525 000a A3B1     		cbz	r3, .L37
 526              	.LVL22:
 527              	.L39:
  93:Src/Menu/Constructor_Menu.c ****         return;
  94:Src/Menu/Constructor_Menu.c ****     pMenuNodeBuf = pMenuNodeBuf->pRightNode;
  95:Src/Menu/Constructor_Menu.c ****     while(pMenuNodeBuf->pDownNode != NULL)
 528              		.loc 1 95 10 is_stmt 1 view .LVU146
 529 000c 1C46     		mov	r4, r3
 530              		.loc 1 95 23 is_stmt 0 view .LVU147
 531 000e D3F8F430 		ldr	r3, [r3, #244]
 532              	.LVL23:
 533              		.loc 1 95 10 view .LVU148
 534 0012 002B     		cmp	r3, #0
 535 0014 FAD1     		bne	.L39
 536 0016 03E0     		b	.L40
 537              	.LVL24:
 538              	.L41:
  96:Src/Menu/Constructor_Menu.c ****     {
  97:Src/Menu/Constructor_Menu.c ****         pMenuNodeBuf = pMenuNodeBuf->pDownNode;
  98:Src/Menu/Constructor_Menu.c ****     }
  99:Src/Menu/Constructor_Menu.c ****     while (pMenuNodeBuf->pUpNode != NULL)
 100:Src/Menu/Constructor_Menu.c ****     {
 101:Src/Menu/Constructor_Menu.c ****         pMenuNodeBuf = pMenuNodeBuf->pUpNode;
 539              		.loc 1 101 9 is_stmt 1 view .LVU149
 102:Src/Menu/Constructor_Menu.c ****         free(pMenuNodeBuf->pDownNode);
 540              		.loc 1 102 9 view .LVU150
 541 0018 D4F8F400 		ldr	r0, [r4, #244]
 542 001c FFF7FEFF 		bl	free
 543              	.LVL25:
 544              	.L40:
  99:Src/Menu/Constructor_Menu.c ****     {
 545              		.loc 1 99 11 view .LVU151
  99:Src/Menu/Constructor_Menu.c ****     {
 546              		.loc 1 99 24 is_stmt 0 view .LVU152
 547 0020 D4F8F040 		ldr	r4, [r4, #240]
 548              	.LVL26:
  99:Src/Menu/Constructor_Menu.c ****     {
ARM GAS  /tmp/ccKQhP1M.s 			page 14


 549              		.loc 1 99 11 view .LVU153
 550 0024 002C     		cmp	r4, #0
 551 0026 F7D1     		bne	.L41
 103:Src/Menu/Constructor_Menu.c ****     }
 104:Src/Menu/Constructor_Menu.c ****     free(pMenuNode->pRightNode);
 552              		.loc 1 104 5 is_stmt 1 view .LVU154
 553 0028 D5F8FC00 		ldr	r0, [r5, #252]
 554 002c FFF7FEFF 		bl	free
 555              	.LVL27:
 105:Src/Menu/Constructor_Menu.c ****     pMenuNode->pRightNode = NULL;
 556              		.loc 1 105 5 view .LVU155
 557              		.loc 1 105 27 is_stmt 0 view .LVU156
 558 0030 0023     		movs	r3, #0
 559 0032 C5F8FC30 		str	r3, [r5, #252]
 560              	.L37:
 106:Src/Menu/Constructor_Menu.c **** }
 561              		.loc 1 106 1 view .LVU157
 562 0036 38BD     		pop	{r3, r4, r5, pc}
 563              	.L44:
 564              		.align	2
 565              	.L43:
 566 0038 00000000 		.word	.LANCHOR0
 567              		.cfi_endproc
 568              	.LFE7:
 570              		.section	.text.getCurrentNode_Menu,"ax",%progbits
 571              		.align	1
 572              		.global	getCurrentNode_Menu
 573              		.syntax unified
 574              		.thumb
 575              		.thumb_func
 576              		.fpu softvfp
 578              	getCurrentNode_Menu:
 579              	.LFB9:
 107:Src/Menu/Constructor_Menu.c **** 
 108:Src/Menu/Constructor_Menu.c **** void destroyAllNodes_Menu()
 109:Src/Menu/Constructor_Menu.c **** {
 110:Src/Menu/Constructor_Menu.c ****     while(!onlyFirstNodeRemains())
 111:Src/Menu/Constructor_Menu.c ****     {
 112:Src/Menu/Constructor_Menu.c ****         if(pMenuNode->pDownNode != NULL) { moveDown_Menu(); continue; }
 113:Src/Menu/Constructor_Menu.c ****         if(pMenuNode->pRightNode != NULL) { moveRight_Menu(); continue; }
 114:Src/Menu/Constructor_Menu.c ****         if(pMenuNode->pUpNode != NULL) { moveUp_Menu(); destroyDownNode_Menu(); continue; }
 115:Src/Menu/Constructor_Menu.c ****         if(pMenuNode->pLeftNode != NULL) { moveLeft_Menu(); destroyRightNode_Menu(); continue; }
 116:Src/Menu/Constructor_Menu.c ****         break;
 117:Src/Menu/Constructor_Menu.c ****     }
 118:Src/Menu/Constructor_Menu.c **** }
 119:Src/Menu/Constructor_Menu.c **** 
 120:Src/Menu/Constructor_Menu.c **** 
 121:Src/Menu/Constructor_Menu.c **** 
 122:Src/Menu/Constructor_Menu.c **** const menuNode* getCurrentNode_Menu() { return pMenuNode; }
 580              		.loc 1 122 39 is_stmt 1 view -0
 581              		.cfi_startproc
 582              		@ args = 0, pretend = 0, frame = 0
 583              		@ frame_needed = 0, uses_anonymous_args = 0
 584              		@ link register save eliminated.
 585              		.loc 1 122 41 view .LVU159
 586              		.loc 1 122 1 is_stmt 0 view .LVU160
 587 0000 014B     		ldr	r3, .L46
ARM GAS  /tmp/ccKQhP1M.s 			page 15


 588 0002 1868     		ldr	r0, [r3]
 589 0004 7047     		bx	lr
 590              	.L47:
 591 0006 00BF     		.align	2
 592              	.L46:
 593 0008 00000000 		.word	.LANCHOR0
 594              		.cfi_endproc
 595              	.LFE9:
 597              		.section	.text.getTitle_Menu,"ax",%progbits
 598              		.align	1
 599              		.global	getTitle_Menu
 600              		.syntax unified
 601              		.thumb
 602              		.thumb_func
 603              		.fpu softvfp
 605              	getTitle_Menu:
 606              	.LFB10:
 123:Src/Menu/Constructor_Menu.c **** 
 124:Src/Menu/Constructor_Menu.c **** const wchar_t* getTitle_Menu() { return pMenuNode->title; }
 607              		.loc 1 124 32 is_stmt 1 view -0
 608              		.cfi_startproc
 609              		@ args = 0, pretend = 0, frame = 0
 610              		@ frame_needed = 0, uses_anonymous_args = 0
 611              		@ link register save eliminated.
 612              		.loc 1 124 34 view .LVU162
 613              		.loc 1 124 1 is_stmt 0 view .LVU163
 614 0000 014B     		ldr	r3, .L49
 615 0002 1868     		ldr	r0, [r3]
 616 0004 7047     		bx	lr
 617              	.L50:
 618 0006 00BF     		.align	2
 619              	.L49:
 620 0008 00000000 		.word	.LANCHOR0
 621              		.cfi_endproc
 622              	.LFE10:
 624              		.section	.text.getName_Menu,"ax",%progbits
 625              		.align	1
 626              		.global	getName_Menu
 627              		.syntax unified
 628              		.thumb
 629              		.thumb_func
 630              		.fpu softvfp
 632              	getName_Menu:
 633              	.LFB11:
 125:Src/Menu/Constructor_Menu.c **** 
 126:Src/Menu/Constructor_Menu.c **** const wchar_t* getName_Menu() { return pMenuNode->name; }
 634              		.loc 1 126 31 is_stmt 1 view -0
 635              		.cfi_startproc
 636              		@ args = 0, pretend = 0, frame = 0
 637              		@ frame_needed = 0, uses_anonymous_args = 0
 638              		@ link register save eliminated.
 639              		.loc 1 126 33 view .LVU165
 640              		.loc 1 126 49 is_stmt 0 view .LVU166
 641 0000 014B     		ldr	r3, .L52
 642 0002 1868     		ldr	r0, [r3]
 643              		.loc 1 126 1 view .LVU167
 644 0004 5030     		adds	r0, r0, #80
ARM GAS  /tmp/ccKQhP1M.s 			page 16


 645 0006 7047     		bx	lr
 646              	.L53:
 647              		.align	2
 648              	.L52:
 649 0008 00000000 		.word	.LANCHOR0
 650              		.cfi_endproc
 651              	.LFE11:
 653              		.section	.text.ThereIsNodeBelow_Menu,"ax",%progbits
 654              		.align	1
 655              		.global	ThereIsNodeBelow_Menu
 656              		.syntax unified
 657              		.thumb
 658              		.thumb_func
 659              		.fpu softvfp
 661              	ThereIsNodeBelow_Menu:
 662              	.LFB12:
 127:Src/Menu/Constructor_Menu.c **** 
 128:Src/Menu/Constructor_Menu.c **** 
 129:Src/Menu/Constructor_Menu.c **** 
 130:Src/Menu/Constructor_Menu.c **** 
 131:Src/Menu/Constructor_Menu.c **** _Bool ThereIsNodeBelow_Menu() { return pMenuNode->pDownNode != NULL; }
 663              		.loc 1 131 31 is_stmt 1 view -0
 664              		.cfi_startproc
 665              		@ args = 0, pretend = 0, frame = 0
 666              		@ frame_needed = 0, uses_anonymous_args = 0
 667              		@ link register save eliminated.
 668              		.loc 1 131 33 view .LVU169
 669              		.loc 1 131 49 is_stmt 0 view .LVU170
 670 0000 034B     		ldr	r3, .L55
 671 0002 1B68     		ldr	r3, [r3]
 672 0004 D3F8F400 		ldr	r0, [r3, #244]
 673              		.loc 1 131 1 view .LVU171
 674 0008 0038     		subs	r0, r0, #0
 675 000a 18BF     		it	ne
 676 000c 0120     		movne	r0, #1
 677 000e 7047     		bx	lr
 678              	.L56:
 679              		.align	2
 680              	.L55:
 681 0010 00000000 		.word	.LANCHOR0
 682              		.cfi_endproc
 683              	.LFE12:
 685              		.section	.text.ThereIsNodeAbove_Menu,"ax",%progbits
 686              		.align	1
 687              		.global	ThereIsNodeAbove_Menu
 688              		.syntax unified
 689              		.thumb
 690              		.thumb_func
 691              		.fpu softvfp
 693              	ThereIsNodeAbove_Menu:
 694              	.LFB13:
 132:Src/Menu/Constructor_Menu.c **** 
 133:Src/Menu/Constructor_Menu.c **** 
 134:Src/Menu/Constructor_Menu.c **** _Bool ThereIsNodeAbove_Menu() {return pMenuNode->pUpNode != NULL;}
 695              		.loc 1 134 31 is_stmt 1 view -0
 696              		.cfi_startproc
 697              		@ args = 0, pretend = 0, frame = 0
ARM GAS  /tmp/ccKQhP1M.s 			page 17


 698              		@ frame_needed = 0, uses_anonymous_args = 0
 699              		@ link register save eliminated.
 700              		.loc 1 134 32 view .LVU173
 701              		.loc 1 134 48 is_stmt 0 view .LVU174
 702 0000 034B     		ldr	r3, .L58
 703 0002 1B68     		ldr	r3, [r3]
 704 0004 D3F8F000 		ldr	r0, [r3, #240]
 705              		.loc 1 134 1 view .LVU175
 706 0008 0038     		subs	r0, r0, #0
 707 000a 18BF     		it	ne
 708 000c 0120     		movne	r0, #1
 709 000e 7047     		bx	lr
 710              	.L59:
 711              		.align	2
 712              	.L58:
 713 0010 00000000 		.word	.LANCHOR0
 714              		.cfi_endproc
 715              	.LFE13:
 717              		.section	.text.moveDown_Menu,"ax",%progbits
 718              		.align	1
 719              		.global	moveDown_Menu
 720              		.syntax unified
 721              		.thumb
 722              		.thumb_func
 723              		.fpu softvfp
 725              	moveDown_Menu:
 726              	.LFB14:
 135:Src/Menu/Constructor_Menu.c **** 
 136:Src/Menu/Constructor_Menu.c **** 
 137:Src/Menu/Constructor_Menu.c **** 
 138:Src/Menu/Constructor_Menu.c **** void moveDown_Menu()
 139:Src/Menu/Constructor_Menu.c **** {
 727              		.loc 1 139 1 is_stmt 1 view -0
 728              		.cfi_startproc
 729              		@ args = 0, pretend = 0, frame = 0
 730              		@ frame_needed = 0, uses_anonymous_args = 0
 731              		@ link register save eliminated.
 140:Src/Menu/Constructor_Menu.c ****     if (pMenuNode->pDownNode == NULL)
 732              		.loc 1 140 5 view .LVU177
 733              		.loc 1 140 18 is_stmt 0 view .LVU178
 734 0000 034B     		ldr	r3, .L62
 735 0002 1B68     		ldr	r3, [r3]
 736 0004 D3F8F430 		ldr	r3, [r3, #244]
 737              		.loc 1 140 8 view .LVU179
 738 0008 0BB1     		cbz	r3, .L60
 141:Src/Menu/Constructor_Menu.c ****         return;
 142:Src/Menu/Constructor_Menu.c ****     pMenuNode = pMenuNode->pDownNode;
 739              		.loc 1 142 5 is_stmt 1 view .LVU180
 740              		.loc 1 142 15 is_stmt 0 view .LVU181
 741 000a 014A     		ldr	r2, .L62
 742 000c 1360     		str	r3, [r2]
 743              	.L60:
 143:Src/Menu/Constructor_Menu.c **** }
 744              		.loc 1 143 1 view .LVU182
 745 000e 7047     		bx	lr
 746              	.L63:
 747              		.align	2
ARM GAS  /tmp/ccKQhP1M.s 			page 18


 748              	.L62:
 749 0010 00000000 		.word	.LANCHOR0
 750              		.cfi_endproc
 751              	.LFE14:
 753              		.section	.text.moveUp_Menu,"ax",%progbits
 754              		.align	1
 755              		.global	moveUp_Menu
 756              		.syntax unified
 757              		.thumb
 758              		.thumb_func
 759              		.fpu softvfp
 761              	moveUp_Menu:
 762              	.LFB15:
 144:Src/Menu/Constructor_Menu.c **** 
 145:Src/Menu/Constructor_Menu.c **** void moveUp_Menu()
 146:Src/Menu/Constructor_Menu.c **** {
 763              		.loc 1 146 1 is_stmt 1 view -0
 764              		.cfi_startproc
 765              		@ args = 0, pretend = 0, frame = 0
 766              		@ frame_needed = 0, uses_anonymous_args = 0
 767              		@ link register save eliminated.
 147:Src/Menu/Constructor_Menu.c ****     if (pMenuNode->pUpNode == NULL)
 768              		.loc 1 147 5 view .LVU184
 769              		.loc 1 147 18 is_stmt 0 view .LVU185
 770 0000 034B     		ldr	r3, .L66
 771 0002 1B68     		ldr	r3, [r3]
 772 0004 D3F8F030 		ldr	r3, [r3, #240]
 773              		.loc 1 147 8 view .LVU186
 774 0008 0BB1     		cbz	r3, .L64
 148:Src/Menu/Constructor_Menu.c ****         return;
 149:Src/Menu/Constructor_Menu.c ****     pMenuNode = pMenuNode->pUpNode;
 775              		.loc 1 149 5 is_stmt 1 view .LVU187
 776              		.loc 1 149 15 is_stmt 0 view .LVU188
 777 000a 014A     		ldr	r2, .L66
 778 000c 1360     		str	r3, [r2]
 779              	.L64:
 150:Src/Menu/Constructor_Menu.c **** }
 780              		.loc 1 150 1 view .LVU189
 781 000e 7047     		bx	lr
 782              	.L67:
 783              		.align	2
 784              	.L66:
 785 0010 00000000 		.word	.LANCHOR0
 786              		.cfi_endproc
 787              	.LFE15:
 789              		.section	.text.moveRight_Menu,"ax",%progbits
 790              		.align	1
 791              		.global	moveRight_Menu
 792              		.syntax unified
 793              		.thumb
 794              		.thumb_func
 795              		.fpu softvfp
 797              	moveRight_Menu:
 798              	.LFB16:
 151:Src/Menu/Constructor_Menu.c **** 
 152:Src/Menu/Constructor_Menu.c **** void moveRight_Menu(void)
 153:Src/Menu/Constructor_Menu.c **** {
ARM GAS  /tmp/ccKQhP1M.s 			page 19


 799              		.loc 1 153 1 is_stmt 1 view -0
 800              		.cfi_startproc
 801              		@ args = 0, pretend = 0, frame = 0
 802              		@ frame_needed = 0, uses_anonymous_args = 0
 803              		@ link register save eliminated.
 154:Src/Menu/Constructor_Menu.c ****     if (pMenuNode->pRightNode == NULL)
 804              		.loc 1 154 5 view .LVU191
 805              		.loc 1 154 18 is_stmt 0 view .LVU192
 806 0000 034B     		ldr	r3, .L70
 807 0002 1B68     		ldr	r3, [r3]
 808 0004 D3F8FC30 		ldr	r3, [r3, #252]
 809              		.loc 1 154 8 view .LVU193
 810 0008 0BB1     		cbz	r3, .L68
 155:Src/Menu/Constructor_Menu.c ****         return;
 156:Src/Menu/Constructor_Menu.c ****     pMenuNode = pMenuNode->pRightNode;
 811              		.loc 1 156 5 is_stmt 1 view .LVU194
 812              		.loc 1 156 15 is_stmt 0 view .LVU195
 813 000a 014A     		ldr	r2, .L70
 814 000c 1360     		str	r3, [r2]
 815              	.L68:
 157:Src/Menu/Constructor_Menu.c **** }
 816              		.loc 1 157 1 view .LVU196
 817 000e 7047     		bx	lr
 818              	.L71:
 819              		.align	2
 820              	.L70:
 821 0010 00000000 		.word	.LANCHOR0
 822              		.cfi_endproc
 823              	.LFE16:
 825              		.section	.text.moveLeft_Menu,"ax",%progbits
 826              		.align	1
 827              		.global	moveLeft_Menu
 828              		.syntax unified
 829              		.thumb
 830              		.thumb_func
 831              		.fpu softvfp
 833              	moveLeft_Menu:
 834              	.LFB17:
 158:Src/Menu/Constructor_Menu.c **** 
 159:Src/Menu/Constructor_Menu.c **** void moveLeft_Menu(void)
 160:Src/Menu/Constructor_Menu.c **** {
 835              		.loc 1 160 1 is_stmt 1 view -0
 836              		.cfi_startproc
 837              		@ args = 0, pretend = 0, frame = 0
 838              		@ frame_needed = 0, uses_anonymous_args = 0
 839              		@ link register save eliminated.
 161:Src/Menu/Constructor_Menu.c ****     if (pMenuNode->pLeftNode == NULL)
 840              		.loc 1 161 5 view .LVU198
 841              		.loc 1 161 18 is_stmt 0 view .LVU199
 842 0000 034B     		ldr	r3, .L74
 843 0002 1B68     		ldr	r3, [r3]
 844 0004 D3F8F830 		ldr	r3, [r3, #248]
 845              		.loc 1 161 8 view .LVU200
 846 0008 0BB1     		cbz	r3, .L72
 162:Src/Menu/Constructor_Menu.c ****         return;
 163:Src/Menu/Constructor_Menu.c ****     pMenuNode = pMenuNode->pLeftNode;
 847              		.loc 1 163 5 is_stmt 1 view .LVU201
ARM GAS  /tmp/ccKQhP1M.s 			page 20


 848              		.loc 1 163 15 is_stmt 0 view .LVU202
 849 000a 014A     		ldr	r2, .L74
 850 000c 1360     		str	r3, [r2]
 851              	.L72:
 164:Src/Menu/Constructor_Menu.c **** }
 852              		.loc 1 164 1 view .LVU203
 853 000e 7047     		bx	lr
 854              	.L75:
 855              		.align	2
 856              	.L74:
 857 0010 00000000 		.word	.LANCHOR0
 858              		.cfi_endproc
 859              	.LFE17:
 861              		.section	.text.destroyAllNodes_Menu,"ax",%progbits
 862              		.align	1
 863              		.global	destroyAllNodes_Menu
 864              		.syntax unified
 865              		.thumb
 866              		.thumb_func
 867              		.fpu softvfp
 869              	destroyAllNodes_Menu:
 870              	.LFB8:
 109:Src/Menu/Constructor_Menu.c ****     while(!onlyFirstNodeRemains())
 871              		.loc 1 109 1 is_stmt 1 view -0
 872              		.cfi_startproc
 873              		@ args = 0, pretend = 0, frame = 0
 874              		@ frame_needed = 0, uses_anonymous_args = 0
 875 0000 08B5     		push	{r3, lr}
 876              	.LCFI7:
 877              		.cfi_def_cfa_offset 8
 878              		.cfi_offset 3, -8
 879              		.cfi_offset 14, -4
 110:Src/Menu/Constructor_Menu.c ****     {
 880              		.loc 1 110 5 view .LVU205
 110:Src/Menu/Constructor_Menu.c ****     {
 881              		.loc 1 110 10 is_stmt 0 view .LVU206
 882 0002 01E0     		b	.L77
 883              	.L85:
 112:Src/Menu/Constructor_Menu.c ****         if(pMenuNode->pRightNode != NULL) { moveRight_Menu(); continue; }
 884              		.loc 1 112 44 is_stmt 1 discriminator 1 view .LVU207
 885 0004 FFF7FEFF 		bl	moveDown_Menu
 886              	.LVL28:
 112:Src/Menu/Constructor_Menu.c ****         if(pMenuNode->pRightNode != NULL) { moveRight_Menu(); continue; }
 887              		.loc 1 112 61 discriminator 1 view .LVU208
 888              	.L77:
 110:Src/Menu/Constructor_Menu.c ****     {
 889              		.loc 1 110 10 view .LVU209
 110:Src/Menu/Constructor_Menu.c ****     {
 890              		.loc 1 110 12 is_stmt 0 view .LVU210
 891 0008 FFF7FEFF 		bl	onlyFirstNodeRemains
 892              	.LVL29:
 110:Src/Menu/Constructor_Menu.c ****     {
 893              		.loc 1 110 10 view .LVU211
 894 000c 70B9     		cbnz	r0, .L76
 112:Src/Menu/Constructor_Menu.c ****         if(pMenuNode->pRightNode != NULL) { moveRight_Menu(); continue; }
 895              		.loc 1 112 9 is_stmt 1 view .LVU212
 112:Src/Menu/Constructor_Menu.c ****         if(pMenuNode->pRightNode != NULL) { moveRight_Menu(); continue; }
ARM GAS  /tmp/ccKQhP1M.s 			page 21


 896              		.loc 1 112 21 is_stmt 0 view .LVU213
 897 000e 0E4B     		ldr	r3, .L89
 898 0010 1B68     		ldr	r3, [r3]
 899 0012 D3F8F420 		ldr	r2, [r3, #244]
 112:Src/Menu/Constructor_Menu.c ****         if(pMenuNode->pRightNode != NULL) { moveRight_Menu(); continue; }
 900              		.loc 1 112 11 view .LVU214
 901 0016 002A     		cmp	r2, #0
 902 0018 F4D1     		bne	.L85
 113:Src/Menu/Constructor_Menu.c ****         if(pMenuNode->pUpNode != NULL) { moveUp_Menu(); destroyDownNode_Menu(); continue; }
 903              		.loc 1 113 9 is_stmt 1 view .LVU215
 113:Src/Menu/Constructor_Menu.c ****         if(pMenuNode->pUpNode != NULL) { moveUp_Menu(); destroyDownNode_Menu(); continue; }
 904              		.loc 1 113 21 is_stmt 0 view .LVU216
 905 001a D3F8FC20 		ldr	r2, [r3, #252]
 113:Src/Menu/Constructor_Menu.c ****         if(pMenuNode->pUpNode != NULL) { moveUp_Menu(); destroyDownNode_Menu(); continue; }
 906              		.loc 1 113 11 view .LVU217
 907 001e 32B9     		cbnz	r2, .L86
 114:Src/Menu/Constructor_Menu.c ****         if(pMenuNode->pLeftNode != NULL) { moveLeft_Menu(); destroyRightNode_Menu(); continue; }
 908              		.loc 1 114 9 is_stmt 1 view .LVU218
 114:Src/Menu/Constructor_Menu.c ****         if(pMenuNode->pLeftNode != NULL) { moveLeft_Menu(); destroyRightNode_Menu(); continue; }
 909              		.loc 1 114 21 is_stmt 0 view .LVU219
 910 0020 D3F8F020 		ldr	r2, [r3, #240]
 114:Src/Menu/Constructor_Menu.c ****         if(pMenuNode->pLeftNode != NULL) { moveLeft_Menu(); destroyRightNode_Menu(); continue; }
 911              		.loc 1 114 11 view .LVU220
 912 0024 32B9     		cbnz	r2, .L87
 115:Src/Menu/Constructor_Menu.c ****         break;
 913              		.loc 1 115 9 is_stmt 1 view .LVU221
 115:Src/Menu/Constructor_Menu.c ****         break;
 914              		.loc 1 115 21 is_stmt 0 view .LVU222
 915 0026 D3F8F830 		ldr	r3, [r3, #248]
 115:Src/Menu/Constructor_Menu.c ****         break;
 916              		.loc 1 115 11 view .LVU223
 917 002a 43B9     		cbnz	r3, .L88
 918              	.L76:
 118:Src/Menu/Constructor_Menu.c **** 
 919              		.loc 1 118 1 view .LVU224
 920 002c 08BD     		pop	{r3, pc}
 921              	.L86:
 113:Src/Menu/Constructor_Menu.c ****         if(pMenuNode->pUpNode != NULL) { moveUp_Menu(); destroyDownNode_Menu(); continue; }
 922              		.loc 1 113 45 is_stmt 1 discriminator 1 view .LVU225
 923 002e FFF7FEFF 		bl	moveRight_Menu
 924              	.LVL30:
 113:Src/Menu/Constructor_Menu.c ****         if(pMenuNode->pUpNode != NULL) { moveUp_Menu(); destroyDownNode_Menu(); continue; }
 925              		.loc 1 113 63 discriminator 1 view .LVU226
 113:Src/Menu/Constructor_Menu.c ****         if(pMenuNode->pUpNode != NULL) { moveUp_Menu(); destroyDownNode_Menu(); continue; }
 926              		.loc 1 113 9 is_stmt 0 discriminator 1 view .LVU227
 927 0032 E9E7     		b	.L77
 928              	.L87:
 114:Src/Menu/Constructor_Menu.c ****         if(pMenuNode->pLeftNode != NULL) { moveLeft_Menu(); destroyRightNode_Menu(); continue; }
 929              		.loc 1 114 42 is_stmt 1 discriminator 1 view .LVU228
 930 0034 FFF7FEFF 		bl	moveUp_Menu
 931              	.LVL31:
 114:Src/Menu/Constructor_Menu.c ****         if(pMenuNode->pLeftNode != NULL) { moveLeft_Menu(); destroyRightNode_Menu(); continue; }
 932              		.loc 1 114 57 discriminator 1 view .LVU229
 933 0038 FFF7FEFF 		bl	destroyDownNode_Menu
 934              	.LVL32:
 114:Src/Menu/Constructor_Menu.c ****         if(pMenuNode->pLeftNode != NULL) { moveLeft_Menu(); destroyRightNode_Menu(); continue; }
 935              		.loc 1 114 81 discriminator 1 view .LVU230
ARM GAS  /tmp/ccKQhP1M.s 			page 22


 114:Src/Menu/Constructor_Menu.c ****         if(pMenuNode->pLeftNode != NULL) { moveLeft_Menu(); destroyRightNode_Menu(); continue; }
 936              		.loc 1 114 9 is_stmt 0 discriminator 1 view .LVU231
 937 003c E4E7     		b	.L77
 938              	.L88:
 115:Src/Menu/Constructor_Menu.c ****         break;
 939              		.loc 1 115 44 is_stmt 1 discriminator 1 view .LVU232
 940 003e FFF7FEFF 		bl	moveLeft_Menu
 941              	.LVL33:
 115:Src/Menu/Constructor_Menu.c ****         break;
 942              		.loc 1 115 61 discriminator 1 view .LVU233
 943 0042 FFF7FEFF 		bl	destroyRightNode_Menu
 944              	.LVL34:
 115:Src/Menu/Constructor_Menu.c ****         break;
 945              		.loc 1 115 86 discriminator 1 view .LVU234
 115:Src/Menu/Constructor_Menu.c ****         break;
 946              		.loc 1 115 9 is_stmt 0 discriminator 1 view .LVU235
 947 0046 DFE7     		b	.L77
 948              	.L90:
 949              		.align	2
 950              	.L89:
 951 0048 00000000 		.word	.LANCHOR0
 952              		.cfi_endproc
 953              	.LFE8:
 955              		.section	.text.moveToTheFirstNode_Menu,"ax",%progbits
 956              		.align	1
 957              		.global	moveToTheFirstNode_Menu
 958              		.syntax unified
 959              		.thumb
 960              		.thumb_func
 961              		.fpu softvfp
 963              	moveToTheFirstNode_Menu:
 964              	.LFB18:
 165:Src/Menu/Constructor_Menu.c **** 
 166:Src/Menu/Constructor_Menu.c **** void moveToTheFirstNode_Menu()
 167:Src/Menu/Constructor_Menu.c **** {
 965              		.loc 1 167 1 is_stmt 1 view -0
 966              		.cfi_startproc
 967              		@ args = 0, pretend = 0, frame = 0
 968              		@ frame_needed = 0, uses_anonymous_args = 0
 969 0000 08B5     		push	{r3, lr}
 970              	.LCFI8:
 971              		.cfi_def_cfa_offset 8
 972              		.cfi_offset 3, -8
 973              		.cfi_offset 14, -4
 168:Src/Menu/Constructor_Menu.c **** 
 169:Src/Menu/Constructor_Menu.c ****     while(pMenuNode->pLeftNode != NULL)
 974              		.loc 1 169 5 view .LVU237
 975              	.L92:
 976              		.loc 1 169 10 view .LVU238
 977              		.loc 1 169 20 is_stmt 0 view .LVU239
 978 0002 084B     		ldr	r3, .L97
 979 0004 1B68     		ldr	r3, [r3]
 980 0006 D3F8F830 		ldr	r3, [r3, #248]
 981              		.loc 1 169 10 view .LVU240
 982 000a 23B1     		cbz	r3, .L94
 170:Src/Menu/Constructor_Menu.c ****     {
 171:Src/Menu/Constructor_Menu.c ****         moveLeft_Menu();
ARM GAS  /tmp/ccKQhP1M.s 			page 23


 983              		.loc 1 171 9 is_stmt 1 view .LVU241
 984 000c FFF7FEFF 		bl	moveLeft_Menu
 985              	.LVL35:
 986 0010 F7E7     		b	.L92
 987              	.L95:
 172:Src/Menu/Constructor_Menu.c ****     }
 173:Src/Menu/Constructor_Menu.c **** 
 174:Src/Menu/Constructor_Menu.c ****     while(pMenuNode->pUpNode != NULL)
 175:Src/Menu/Constructor_Menu.c ****     {
 176:Src/Menu/Constructor_Menu.c ****         moveUp_Menu();
 988              		.loc 1 176 9 view .LVU242
 989 0012 FFF7FEFF 		bl	moveUp_Menu
 990              	.LVL36:
 991              	.L94:
 174:Src/Menu/Constructor_Menu.c ****     {
 992              		.loc 1 174 10 view .LVU243
 174:Src/Menu/Constructor_Menu.c ****     {
 993              		.loc 1 174 20 is_stmt 0 view .LVU244
 994 0016 034B     		ldr	r3, .L97
 995 0018 1B68     		ldr	r3, [r3]
 996 001a D3F8F030 		ldr	r3, [r3, #240]
 174:Src/Menu/Constructor_Menu.c ****     {
 997              		.loc 1 174 10 view .LVU245
 998 001e 002B     		cmp	r3, #0
 999 0020 F7D1     		bne	.L95
 177:Src/Menu/Constructor_Menu.c ****     }
 178:Src/Menu/Constructor_Menu.c **** }
 1000              		.loc 1 178 1 view .LVU246
 1001 0022 08BD     		pop	{r3, pc}
 1002              	.L98:
 1003              		.align	2
 1004              	.L97:
 1005 0024 00000000 		.word	.LANCHOR0
 1006              		.cfi_endproc
 1007              	.LFE18:
 1009              		.section	.text.setFunctionOk,"ax",%progbits
 1010              		.align	1
 1011              		.global	setFunctionOk
 1012              		.syntax unified
 1013              		.thumb
 1014              		.thumb_func
 1015              		.fpu softvfp
 1017              	setFunctionOk:
 1018              	.LVL37:
 1019              	.LFB19:
 179:Src/Menu/Constructor_Menu.c **** 
 180:Src/Menu/Constructor_Menu.c **** 
 181:Src/Menu/Constructor_Menu.c **** 
 182:Src/Menu/Constructor_Menu.c **** void setFunctionOk(void (*function)(void))
 183:Src/Menu/Constructor_Menu.c **** {
 1020              		.loc 1 183 1 is_stmt 1 view -0
 1021              		.cfi_startproc
 1022              		@ args = 0, pretend = 0, frame = 0
 1023              		@ frame_needed = 0, uses_anonymous_args = 0
 1024              		@ link register save eliminated.
 184:Src/Menu/Constructor_Menu.c ****     pMenuNode->pfnOk = function;
 1025              		.loc 1 184 5 view .LVU248
ARM GAS  /tmp/ccKQhP1M.s 			page 24


 1026              		.loc 1 184 14 is_stmt 0 view .LVU249
 1027 0000 024B     		ldr	r3, .L100
 1028 0002 1B68     		ldr	r3, [r3]
 1029              		.loc 1 184 22 view .LVU250
 1030 0004 C3F80001 		str	r0, [r3, #256]
 185:Src/Menu/Constructor_Menu.c **** }
 1031              		.loc 1 185 1 view .LVU251
 1032 0008 7047     		bx	lr
 1033              	.L101:
 1034 000a 00BF     		.align	2
 1035              	.L100:
 1036 000c 00000000 		.word	.LANCHOR0
 1037              		.cfi_endproc
 1038              	.LFE19:
 1040              		.section	.text.setFunctionBack,"ax",%progbits
 1041              		.align	1
 1042              		.global	setFunctionBack
 1043              		.syntax unified
 1044              		.thumb
 1045              		.thumb_func
 1046              		.fpu softvfp
 1048              	setFunctionBack:
 1049              	.LVL38:
 1050              	.LFB20:
 186:Src/Menu/Constructor_Menu.c **** 
 187:Src/Menu/Constructor_Menu.c **** void setFunctionBack(void (*function)(void))
 188:Src/Menu/Constructor_Menu.c **** {
 1051              		.loc 1 188 1 is_stmt 1 view -0
 1052              		.cfi_startproc
 1053              		@ args = 0, pretend = 0, frame = 0
 1054              		@ frame_needed = 0, uses_anonymous_args = 0
 1055              		@ link register save eliminated.
 189:Src/Menu/Constructor_Menu.c ****     pMenuNode->pfnBack = function;
 1056              		.loc 1 189 5 view .LVU253
 1057              		.loc 1 189 14 is_stmt 0 view .LVU254
 1058 0000 024B     		ldr	r3, .L103
 1059 0002 1B68     		ldr	r3, [r3]
 1060              		.loc 1 189 24 view .LVU255
 1061 0004 C3F80401 		str	r0, [r3, #260]
 190:Src/Menu/Constructor_Menu.c **** }
 1062              		.loc 1 190 1 view .LVU256
 1063 0008 7047     		bx	lr
 1064              	.L104:
 1065 000a 00BF     		.align	2
 1066              	.L103:
 1067 000c 00000000 		.word	.LANCHOR0
 1068              		.cfi_endproc
 1069              	.LFE20:
 1071              		.section	.text.setFunctionUp,"ax",%progbits
 1072              		.align	1
 1073              		.global	setFunctionUp
 1074              		.syntax unified
 1075              		.thumb
 1076              		.thumb_func
 1077              		.fpu softvfp
 1079              	setFunctionUp:
 1080              	.LVL39:
ARM GAS  /tmp/ccKQhP1M.s 			page 25


 1081              	.LFB21:
 191:Src/Menu/Constructor_Menu.c **** 
 192:Src/Menu/Constructor_Menu.c **** void setFunctionUp(void (*function)(void))
 193:Src/Menu/Constructor_Menu.c **** {
 1082              		.loc 1 193 1 is_stmt 1 view -0
 1083              		.cfi_startproc
 1084              		@ args = 0, pretend = 0, frame = 0
 1085              		@ frame_needed = 0, uses_anonymous_args = 0
 1086              		@ link register save eliminated.
 194:Src/Menu/Constructor_Menu.c ****     pMenuNode->pfnUp = function;
 1087              		.loc 1 194 5 view .LVU258
 1088              		.loc 1 194 14 is_stmt 0 view .LVU259
 1089 0000 024B     		ldr	r3, .L106
 1090 0002 1B68     		ldr	r3, [r3]
 1091              		.loc 1 194 22 view .LVU260
 1092 0004 C3F80801 		str	r0, [r3, #264]
 195:Src/Menu/Constructor_Menu.c **** }
 1093              		.loc 1 195 1 view .LVU261
 1094 0008 7047     		bx	lr
 1095              	.L107:
 1096 000a 00BF     		.align	2
 1097              	.L106:
 1098 000c 00000000 		.word	.LANCHOR0
 1099              		.cfi_endproc
 1100              	.LFE21:
 1102              		.section	.text.setFunctionDown,"ax",%progbits
 1103              		.align	1
 1104              		.global	setFunctionDown
 1105              		.syntax unified
 1106              		.thumb
 1107              		.thumb_func
 1108              		.fpu softvfp
 1110              	setFunctionDown:
 1111              	.LVL40:
 1112              	.LFB22:
 196:Src/Menu/Constructor_Menu.c **** 
 197:Src/Menu/Constructor_Menu.c **** void setFunctionDown(void (*function)(void))
 198:Src/Menu/Constructor_Menu.c **** {
 1113              		.loc 1 198 1 is_stmt 1 view -0
 1114              		.cfi_startproc
 1115              		@ args = 0, pretend = 0, frame = 0
 1116              		@ frame_needed = 0, uses_anonymous_args = 0
 1117              		@ link register save eliminated.
 199:Src/Menu/Constructor_Menu.c ****     pMenuNode->pfnDown = function;
 1118              		.loc 1 199 5 view .LVU263
 1119              		.loc 1 199 14 is_stmt 0 view .LVU264
 1120 0000 024B     		ldr	r3, .L109
 1121 0002 1B68     		ldr	r3, [r3]
 1122              		.loc 1 199 24 view .LVU265
 1123 0004 C3F80C01 		str	r0, [r3, #268]
 200:Src/Menu/Constructor_Menu.c **** }
 1124              		.loc 1 200 1 view .LVU266
 1125 0008 7047     		bx	lr
 1126              	.L110:
 1127 000a 00BF     		.align	2
 1128              	.L109:
 1129 000c 00000000 		.word	.LANCHOR0
ARM GAS  /tmp/ccKQhP1M.s 			page 26


 1130              		.cfi_endproc
 1131              	.LFE22:
 1133              		.section	.bss.pMenuNode,"aw",%nobits
 1134              		.align	2
 1135              		.set	.LANCHOR0,. + 0
 1138              	pMenuNode:
 1139 0000 00000000 		.space	4
 1140              		.text
 1141              	.Letext0:
 1142              		.file 2 "/usr/lib/gcc/arm-none-eabi/9.2.1/include/stddef.h"
 1143              		.file 3 "/usr/include/newlib/sys/_types.h"
 1144              		.file 4 "/usr/include/newlib/sys/reent.h"
 1145              		.file 5 "/usr/include/newlib/sys/lock.h"
 1146              		.file 6 "Inc/Menu/Constructor_Menu.h"
 1147              		.file 7 "/usr/include/newlib/stdlib.h"
 1148              		.file 8 "/usr/include/newlib/wchar.h"
ARM GAS  /tmp/ccKQhP1M.s 			page 27


DEFINED SYMBOLS
                            *ABS*:0000000000000000 Constructor_Menu.c
     /tmp/ccKQhP1M.s:16     .text.onlyFirstNodeRemains:0000000000000000 $t
     /tmp/ccKQhP1M.s:23     .text.onlyFirstNodeRemains:0000000000000000 onlyFirstNodeRemains
     /tmp/ccKQhP1M.s:76     .text.onlyFirstNodeRemains:0000000000000030 $d
     /tmp/ccKQhP1M.s:81     .text.createFirstNode_Menu:0000000000000000 $t
     /tmp/ccKQhP1M.s:88     .text.createFirstNode_Menu:0000000000000000 createFirstNode_Menu
     /tmp/ccKQhP1M.s:163    .text.createFirstNode_Menu:000000000000004c $d
     /tmp/ccKQhP1M.s:168    .text.createRightNode_Menu:0000000000000000 $t
     /tmp/ccKQhP1M.s:175    .text.createRightNode_Menu:0000000000000000 createRightNode_Menu
     /tmp/ccKQhP1M.s:269    .text.createRightNode_Menu:0000000000000074 $d
     /tmp/ccKQhP1M.s:274    .text.createDownNode_Menu:0000000000000000 $t
     /tmp/ccKQhP1M.s:281    .text.createDownNode_Menu:0000000000000000 createDownNode_Menu
     /tmp/ccKQhP1M.s:374    .text.createDownNode_Menu:0000000000000078 $d
     /tmp/ccKQhP1M.s:379    .text.destroyFirstNode_Menu:0000000000000000 $t
     /tmp/ccKQhP1M.s:386    .text.destroyFirstNode_Menu:0000000000000000 destroyFirstNode_Menu
     /tmp/ccKQhP1M.s:411    .text.destroyFirstNode_Menu:0000000000000010 $d
     /tmp/ccKQhP1M.s:416    .text.destroyDownNode_Menu:0000000000000000 $t
     /tmp/ccKQhP1M.s:423    .text.destroyDownNode_Menu:0000000000000000 destroyDownNode_Menu
     /tmp/ccKQhP1M.s:451    .text.destroyDownNode_Menu:0000000000000018 $d
     /tmp/ccKQhP1M.s:456    .text.destroyRightNode_Menu:0000000000000000 $t
     /tmp/ccKQhP1M.s:463    .text.destroyRightNode_Menu:0000000000000000 destroyRightNode_Menu
     /tmp/ccKQhP1M.s:491    .text.destroyRightNode_Menu:0000000000000018 $d
     /tmp/ccKQhP1M.s:496    .text.destroyRightColomn_Menu:0000000000000000 $t
     /tmp/ccKQhP1M.s:503    .text.destroyRightColomn_Menu:0000000000000000 destroyRightColomn_Menu
     /tmp/ccKQhP1M.s:566    .text.destroyRightColomn_Menu:0000000000000038 $d
     /tmp/ccKQhP1M.s:571    .text.getCurrentNode_Menu:0000000000000000 $t
     /tmp/ccKQhP1M.s:578    .text.getCurrentNode_Menu:0000000000000000 getCurrentNode_Menu
     /tmp/ccKQhP1M.s:593    .text.getCurrentNode_Menu:0000000000000008 $d
     /tmp/ccKQhP1M.s:598    .text.getTitle_Menu:0000000000000000 $t
     /tmp/ccKQhP1M.s:605    .text.getTitle_Menu:0000000000000000 getTitle_Menu
     /tmp/ccKQhP1M.s:620    .text.getTitle_Menu:0000000000000008 $d
     /tmp/ccKQhP1M.s:625    .text.getName_Menu:0000000000000000 $t
     /tmp/ccKQhP1M.s:632    .text.getName_Menu:0000000000000000 getName_Menu
     /tmp/ccKQhP1M.s:649    .text.getName_Menu:0000000000000008 $d
     /tmp/ccKQhP1M.s:654    .text.ThereIsNodeBelow_Menu:0000000000000000 $t
     /tmp/ccKQhP1M.s:661    .text.ThereIsNodeBelow_Menu:0000000000000000 ThereIsNodeBelow_Menu
     /tmp/ccKQhP1M.s:681    .text.ThereIsNodeBelow_Menu:0000000000000010 $d
     /tmp/ccKQhP1M.s:686    .text.ThereIsNodeAbove_Menu:0000000000000000 $t
     /tmp/ccKQhP1M.s:693    .text.ThereIsNodeAbove_Menu:0000000000000000 ThereIsNodeAbove_Menu
     /tmp/ccKQhP1M.s:713    .text.ThereIsNodeAbove_Menu:0000000000000010 $d
     /tmp/ccKQhP1M.s:718    .text.moveDown_Menu:0000000000000000 $t
     /tmp/ccKQhP1M.s:725    .text.moveDown_Menu:0000000000000000 moveDown_Menu
     /tmp/ccKQhP1M.s:749    .text.moveDown_Menu:0000000000000010 $d
     /tmp/ccKQhP1M.s:754    .text.moveUp_Menu:0000000000000000 $t
     /tmp/ccKQhP1M.s:761    .text.moveUp_Menu:0000000000000000 moveUp_Menu
     /tmp/ccKQhP1M.s:785    .text.moveUp_Menu:0000000000000010 $d
     /tmp/ccKQhP1M.s:790    .text.moveRight_Menu:0000000000000000 $t
     /tmp/ccKQhP1M.s:797    .text.moveRight_Menu:0000000000000000 moveRight_Menu
     /tmp/ccKQhP1M.s:821    .text.moveRight_Menu:0000000000000010 $d
     /tmp/ccKQhP1M.s:826    .text.moveLeft_Menu:0000000000000000 $t
     /tmp/ccKQhP1M.s:833    .text.moveLeft_Menu:0000000000000000 moveLeft_Menu
     /tmp/ccKQhP1M.s:857    .text.moveLeft_Menu:0000000000000010 $d
     /tmp/ccKQhP1M.s:862    .text.destroyAllNodes_Menu:0000000000000000 $t
     /tmp/ccKQhP1M.s:869    .text.destroyAllNodes_Menu:0000000000000000 destroyAllNodes_Menu
     /tmp/ccKQhP1M.s:951    .text.destroyAllNodes_Menu:0000000000000048 $d
     /tmp/ccKQhP1M.s:956    .text.moveToTheFirstNode_Menu:0000000000000000 $t
ARM GAS  /tmp/ccKQhP1M.s 			page 28


     /tmp/ccKQhP1M.s:963    .text.moveToTheFirstNode_Menu:0000000000000000 moveToTheFirstNode_Menu
     /tmp/ccKQhP1M.s:1005   .text.moveToTheFirstNode_Menu:0000000000000024 $d
     /tmp/ccKQhP1M.s:1010   .text.setFunctionOk:0000000000000000 $t
     /tmp/ccKQhP1M.s:1017   .text.setFunctionOk:0000000000000000 setFunctionOk
     /tmp/ccKQhP1M.s:1036   .text.setFunctionOk:000000000000000c $d
     /tmp/ccKQhP1M.s:1041   .text.setFunctionBack:0000000000000000 $t
     /tmp/ccKQhP1M.s:1048   .text.setFunctionBack:0000000000000000 setFunctionBack
     /tmp/ccKQhP1M.s:1067   .text.setFunctionBack:000000000000000c $d
     /tmp/ccKQhP1M.s:1072   .text.setFunctionUp:0000000000000000 $t
     /tmp/ccKQhP1M.s:1079   .text.setFunctionUp:0000000000000000 setFunctionUp
     /tmp/ccKQhP1M.s:1098   .text.setFunctionUp:000000000000000c $d
     /tmp/ccKQhP1M.s:1103   .text.setFunctionDown:0000000000000000 $t
     /tmp/ccKQhP1M.s:1110   .text.setFunctionDown:0000000000000000 setFunctionDown
     /tmp/ccKQhP1M.s:1129   .text.setFunctionDown:000000000000000c $d
     /tmp/ccKQhP1M.s:1134   .bss.pMenuNode:0000000000000000 $d
     /tmp/ccKQhP1M.s:1138   .bss.pMenuNode:0000000000000000 pMenuNode

UNDEFINED SYMBOLS
malloc
wmemcpy
free
