ARM GAS  /tmp/ccKTf5y6.s 			page 1


   1              		.cpu cortex-m3
   2              		.eabi_attribute 20, 1
   3              		.eabi_attribute 21, 1
   4              		.eabi_attribute 23, 3
   5              		.eabi_attribute 24, 1
   6              		.eabi_attribute 25, 1
   7              		.eabi_attribute 26, 1
   8              		.eabi_attribute 30, 1
   9              		.eabi_attribute 34, 1
  10              		.eabi_attribute 18, 4
  11              		.file	"coordinates.c"
  12              		.text
  13              	.Ltext0:
  14              		.cfi_sections	.debug_frame
  15              		.section	.text.create_coordinates,"ax",%progbits
  16              		.align	1
  17              		.global	create_coordinates
  18              		.arch armv7-m
  19              		.syntax unified
  20              		.thumb
  21              		.thumb_func
  22              		.fpu softvfp
  24              	create_coordinates:
  25              	.LFB0:
  26              		.file 1 "Src/coordinates.c"
   1:Src/coordinates.c **** #include "coordinates.h"
   2:Src/coordinates.c **** 
   3:Src/coordinates.c **** static long x, y, z, e;
   4:Src/coordinates.c **** 
   5:Src/coordinates.c **** 
   6:Src/coordinates.c **** void create_coordinates(void) { x=0; y=0; z=0; e=0; }
  27              		.loc 1 6 31 view -0
  28              		.cfi_startproc
  29              		@ args = 0, pretend = 0, frame = 0
  30              		@ frame_needed = 0, uses_anonymous_args = 0
  31              		@ link register save eliminated.
  32              		.loc 1 6 33 view .LVU1
  33              		.loc 1 6 34 is_stmt 0 view .LVU2
  34 0000 0023     		movs	r3, #0
  35 0002 044A     		ldr	r2, .L2
  36 0004 1360     		str	r3, [r2]
  37              		.loc 1 6 38 is_stmt 1 view .LVU3
  38              		.loc 1 6 39 is_stmt 0 view .LVU4
  39 0006 044A     		ldr	r2, .L2+4
  40 0008 1360     		str	r3, [r2]
  41              		.loc 1 6 43 is_stmt 1 view .LVU5
  42              		.loc 1 6 44 is_stmt 0 view .LVU6
  43 000a 044A     		ldr	r2, .L2+8
  44 000c 1360     		str	r3, [r2]
  45              		.loc 1 6 48 is_stmt 1 view .LVU7
  46              		.loc 1 6 49 is_stmt 0 view .LVU8
  47 000e 044A     		ldr	r2, .L2+12
  48 0010 1360     		str	r3, [r2]
  49              		.loc 1 6 1 view .LVU9
  50 0012 7047     		bx	lr
  51              	.L3:
  52              		.align	2
ARM GAS  /tmp/ccKTf5y6.s 			page 2


  53              	.L2:
  54 0014 00000000 		.word	.LANCHOR0
  55 0018 00000000 		.word	.LANCHOR1
  56 001c 00000000 		.word	.LANCHOR2
  57 0020 00000000 		.word	.LANCHOR3
  58              		.cfi_endproc
  59              	.LFE0:
  61              		.section	.text.getX_coordinates,"ax",%progbits
  62              		.align	1
  63              		.global	getX_coordinates
  64              		.syntax unified
  65              		.thumb
  66              		.thumb_func
  67              		.fpu softvfp
  69              	getX_coordinates:
  70              	.LFB1:
   7:Src/coordinates.c **** 
   8:Src/coordinates.c **** long getX_coordinates(void) { return x; }
  71              		.loc 1 8 29 is_stmt 1 view -0
  72              		.cfi_startproc
  73              		@ args = 0, pretend = 0, frame = 0
  74              		@ frame_needed = 0, uses_anonymous_args = 0
  75              		@ link register save eliminated.
  76              		.loc 1 8 31 view .LVU11
  77              		.loc 1 8 1 is_stmt 0 view .LVU12
  78 0000 014B     		ldr	r3, .L5
  79 0002 1868     		ldr	r0, [r3]
  80 0004 7047     		bx	lr
  81              	.L6:
  82 0006 00BF     		.align	2
  83              	.L5:
  84 0008 00000000 		.word	.LANCHOR0
  85              		.cfi_endproc
  86              	.LFE1:
  88              		.section	.text.getY_coordinates,"ax",%progbits
  89              		.align	1
  90              		.global	getY_coordinates
  91              		.syntax unified
  92              		.thumb
  93              		.thumb_func
  94              		.fpu softvfp
  96              	getY_coordinates:
  97              	.LFB2:
   9:Src/coordinates.c **** long getY_coordinates(void) { return y; }
  98              		.loc 1 9 29 is_stmt 1 view -0
  99              		.cfi_startproc
 100              		@ args = 0, pretend = 0, frame = 0
 101              		@ frame_needed = 0, uses_anonymous_args = 0
 102              		@ link register save eliminated.
 103              		.loc 1 9 31 view .LVU14
 104              		.loc 1 9 1 is_stmt 0 view .LVU15
 105 0000 014B     		ldr	r3, .L8
 106 0002 1868     		ldr	r0, [r3]
 107 0004 7047     		bx	lr
 108              	.L9:
 109 0006 00BF     		.align	2
 110              	.L8:
ARM GAS  /tmp/ccKTf5y6.s 			page 3


 111 0008 00000000 		.word	.LANCHOR1
 112              		.cfi_endproc
 113              	.LFE2:
 115              		.section	.text.getZ_coordinates,"ax",%progbits
 116              		.align	1
 117              		.global	getZ_coordinates
 118              		.syntax unified
 119              		.thumb
 120              		.thumb_func
 121              		.fpu softvfp
 123              	getZ_coordinates:
 124              	.LFB3:
  10:Src/coordinates.c **** long getZ_coordinates(void) { return z; }
 125              		.loc 1 10 29 is_stmt 1 view -0
 126              		.cfi_startproc
 127              		@ args = 0, pretend = 0, frame = 0
 128              		@ frame_needed = 0, uses_anonymous_args = 0
 129              		@ link register save eliminated.
 130              		.loc 1 10 31 view .LVU17
 131              		.loc 1 10 1 is_stmt 0 view .LVU18
 132 0000 014B     		ldr	r3, .L11
 133 0002 1868     		ldr	r0, [r3]
 134 0004 7047     		bx	lr
 135              	.L12:
 136 0006 00BF     		.align	2
 137              	.L11:
 138 0008 00000000 		.word	.LANCHOR2
 139              		.cfi_endproc
 140              	.LFE3:
 142              		.section	.text.getE_coordinates,"ax",%progbits
 143              		.align	1
 144              		.global	getE_coordinates
 145              		.syntax unified
 146              		.thumb
 147              		.thumb_func
 148              		.fpu softvfp
 150              	getE_coordinates:
 151              	.LFB4:
  11:Src/coordinates.c **** long getE_coordinates(void) { return e; }
 152              		.loc 1 11 29 is_stmt 1 view -0
 153              		.cfi_startproc
 154              		@ args = 0, pretend = 0, frame = 0
 155              		@ frame_needed = 0, uses_anonymous_args = 0
 156              		@ link register save eliminated.
 157              		.loc 1 11 31 view .LVU20
 158              		.loc 1 11 1 is_stmt 0 view .LVU21
 159 0000 014B     		ldr	r3, .L14
 160 0002 1868     		ldr	r0, [r3]
 161 0004 7047     		bx	lr
 162              	.L15:
 163 0006 00BF     		.align	2
 164              	.L14:
 165 0008 00000000 		.word	.LANCHOR3
 166              		.cfi_endproc
 167              	.LFE4:
 169              		.section	.text.incX_coordinates,"ax",%progbits
 170              		.align	1
ARM GAS  /tmp/ccKTf5y6.s 			page 4


 171              		.global	incX_coordinates
 172              		.syntax unified
 173              		.thumb
 174              		.thumb_func
 175              		.fpu softvfp
 177              	incX_coordinates:
 178              	.LFB5:
  12:Src/coordinates.c **** 
  13:Src/coordinates.c **** void incX_coordinates(void) { x++; }
 179              		.loc 1 13 29 is_stmt 1 view -0
 180              		.cfi_startproc
 181              		@ args = 0, pretend = 0, frame = 0
 182              		@ frame_needed = 0, uses_anonymous_args = 0
 183              		@ link register save eliminated.
 184              		.loc 1 13 31 view .LVU23
 185              		.loc 1 13 32 is_stmt 0 view .LVU24
 186 0000 024A     		ldr	r2, .L17
 187 0002 1368     		ldr	r3, [r2]
 188 0004 0133     		adds	r3, r3, #1
 189 0006 1360     		str	r3, [r2]
 190              		.loc 1 13 1 view .LVU25
 191 0008 7047     		bx	lr
 192              	.L18:
 193 000a 00BF     		.align	2
 194              	.L17:
 195 000c 00000000 		.word	.LANCHOR0
 196              		.cfi_endproc
 197              	.LFE5:
 199              		.section	.text.incY_coordinates,"ax",%progbits
 200              		.align	1
 201              		.global	incY_coordinates
 202              		.syntax unified
 203              		.thumb
 204              		.thumb_func
 205              		.fpu softvfp
 207              	incY_coordinates:
 208              	.LFB6:
  14:Src/coordinates.c **** void incY_coordinates(void) { y++; }
 209              		.loc 1 14 29 is_stmt 1 view -0
 210              		.cfi_startproc
 211              		@ args = 0, pretend = 0, frame = 0
 212              		@ frame_needed = 0, uses_anonymous_args = 0
 213              		@ link register save eliminated.
 214              		.loc 1 14 31 view .LVU27
 215              		.loc 1 14 32 is_stmt 0 view .LVU28
 216 0000 024A     		ldr	r2, .L20
 217 0002 1368     		ldr	r3, [r2]
 218 0004 0133     		adds	r3, r3, #1
 219 0006 1360     		str	r3, [r2]
 220              		.loc 1 14 1 view .LVU29
 221 0008 7047     		bx	lr
 222              	.L21:
 223 000a 00BF     		.align	2
 224              	.L20:
 225 000c 00000000 		.word	.LANCHOR1
 226              		.cfi_endproc
 227              	.LFE6:
ARM GAS  /tmp/ccKTf5y6.s 			page 5


 229              		.section	.text.incZ_coordinates,"ax",%progbits
 230              		.align	1
 231              		.global	incZ_coordinates
 232              		.syntax unified
 233              		.thumb
 234              		.thumb_func
 235              		.fpu softvfp
 237              	incZ_coordinates:
 238              	.LFB7:
  15:Src/coordinates.c **** void incZ_coordinates(void) { z++; }
 239              		.loc 1 15 29 is_stmt 1 view -0
 240              		.cfi_startproc
 241              		@ args = 0, pretend = 0, frame = 0
 242              		@ frame_needed = 0, uses_anonymous_args = 0
 243              		@ link register save eliminated.
 244              		.loc 1 15 31 view .LVU31
 245              		.loc 1 15 32 is_stmt 0 view .LVU32
 246 0000 024A     		ldr	r2, .L23
 247 0002 1368     		ldr	r3, [r2]
 248 0004 0133     		adds	r3, r3, #1
 249 0006 1360     		str	r3, [r2]
 250              		.loc 1 15 1 view .LVU33
 251 0008 7047     		bx	lr
 252              	.L24:
 253 000a 00BF     		.align	2
 254              	.L23:
 255 000c 00000000 		.word	.LANCHOR2
 256              		.cfi_endproc
 257              	.LFE7:
 259              		.section	.text.incE_coordinates,"ax",%progbits
 260              		.align	1
 261              		.global	incE_coordinates
 262              		.syntax unified
 263              		.thumb
 264              		.thumb_func
 265              		.fpu softvfp
 267              	incE_coordinates:
 268              	.LFB8:
  16:Src/coordinates.c **** void incE_coordinates(void) { e++; }
 269              		.loc 1 16 29 is_stmt 1 view -0
 270              		.cfi_startproc
 271              		@ args = 0, pretend = 0, frame = 0
 272              		@ frame_needed = 0, uses_anonymous_args = 0
 273              		@ link register save eliminated.
 274              		.loc 1 16 31 view .LVU35
 275              		.loc 1 16 32 is_stmt 0 view .LVU36
 276 0000 024A     		ldr	r2, .L26
 277 0002 1368     		ldr	r3, [r2]
 278 0004 0133     		adds	r3, r3, #1
 279 0006 1360     		str	r3, [r2]
 280              		.loc 1 16 1 view .LVU37
 281 0008 7047     		bx	lr
 282              	.L27:
 283 000a 00BF     		.align	2
 284              	.L26:
 285 000c 00000000 		.word	.LANCHOR3
 286              		.cfi_endproc
ARM GAS  /tmp/ccKTf5y6.s 			page 6


 287              	.LFE8:
 289              		.section	.text.decX_coordinates,"ax",%progbits
 290              		.align	1
 291              		.global	decX_coordinates
 292              		.syntax unified
 293              		.thumb
 294              		.thumb_func
 295              		.fpu softvfp
 297              	decX_coordinates:
 298              	.LFB9:
  17:Src/coordinates.c **** 
  18:Src/coordinates.c **** void decX_coordinates(void) { x--; }
 299              		.loc 1 18 29 is_stmt 1 view -0
 300              		.cfi_startproc
 301              		@ args = 0, pretend = 0, frame = 0
 302              		@ frame_needed = 0, uses_anonymous_args = 0
 303              		@ link register save eliminated.
 304              		.loc 1 18 31 view .LVU39
 305              		.loc 1 18 32 is_stmt 0 view .LVU40
 306 0000 024A     		ldr	r2, .L29
 307 0002 1368     		ldr	r3, [r2]
 308 0004 013B     		subs	r3, r3, #1
 309 0006 1360     		str	r3, [r2]
 310              		.loc 1 18 1 view .LVU41
 311 0008 7047     		bx	lr
 312              	.L30:
 313 000a 00BF     		.align	2
 314              	.L29:
 315 000c 00000000 		.word	.LANCHOR0
 316              		.cfi_endproc
 317              	.LFE9:
 319              		.section	.text.decY_coordinates,"ax",%progbits
 320              		.align	1
 321              		.global	decY_coordinates
 322              		.syntax unified
 323              		.thumb
 324              		.thumb_func
 325              		.fpu softvfp
 327              	decY_coordinates:
 328              	.LFB10:
  19:Src/coordinates.c **** void decY_coordinates(void) { y--; }
 329              		.loc 1 19 29 is_stmt 1 view -0
 330              		.cfi_startproc
 331              		@ args = 0, pretend = 0, frame = 0
 332              		@ frame_needed = 0, uses_anonymous_args = 0
 333              		@ link register save eliminated.
 334              		.loc 1 19 31 view .LVU43
 335              		.loc 1 19 32 is_stmt 0 view .LVU44
 336 0000 024A     		ldr	r2, .L32
 337 0002 1368     		ldr	r3, [r2]
 338 0004 013B     		subs	r3, r3, #1
 339 0006 1360     		str	r3, [r2]
 340              		.loc 1 19 1 view .LVU45
 341 0008 7047     		bx	lr
 342              	.L33:
 343 000a 00BF     		.align	2
 344              	.L32:
ARM GAS  /tmp/ccKTf5y6.s 			page 7


 345 000c 00000000 		.word	.LANCHOR1
 346              		.cfi_endproc
 347              	.LFE10:
 349              		.section	.text.decZ_coordinates,"ax",%progbits
 350              		.align	1
 351              		.global	decZ_coordinates
 352              		.syntax unified
 353              		.thumb
 354              		.thumb_func
 355              		.fpu softvfp
 357              	decZ_coordinates:
 358              	.LFB11:
  20:Src/coordinates.c **** void decZ_coordinates(void) { z--; }
 359              		.loc 1 20 29 is_stmt 1 view -0
 360              		.cfi_startproc
 361              		@ args = 0, pretend = 0, frame = 0
 362              		@ frame_needed = 0, uses_anonymous_args = 0
 363              		@ link register save eliminated.
 364              		.loc 1 20 31 view .LVU47
 365              		.loc 1 20 32 is_stmt 0 view .LVU48
 366 0000 024A     		ldr	r2, .L35
 367 0002 1368     		ldr	r3, [r2]
 368 0004 013B     		subs	r3, r3, #1
 369 0006 1360     		str	r3, [r2]
 370              		.loc 1 20 1 view .LVU49
 371 0008 7047     		bx	lr
 372              	.L36:
 373 000a 00BF     		.align	2
 374              	.L35:
 375 000c 00000000 		.word	.LANCHOR2
 376              		.cfi_endproc
 377              	.LFE11:
 379              		.section	.text.decE_coordinates,"ax",%progbits
 380              		.align	1
 381              		.global	decE_coordinates
 382              		.syntax unified
 383              		.thumb
 384              		.thumb_func
 385              		.fpu softvfp
 387              	decE_coordinates:
 388              	.LFB12:
  21:Src/coordinates.c **** void decE_coordinates(void) { e--; }
 389              		.loc 1 21 29 is_stmt 1 view -0
 390              		.cfi_startproc
 391              		@ args = 0, pretend = 0, frame = 0
 392              		@ frame_needed = 0, uses_anonymous_args = 0
 393              		@ link register save eliminated.
 394              		.loc 1 21 31 view .LVU51
 395              		.loc 1 21 32 is_stmt 0 view .LVU52
 396 0000 024A     		ldr	r2, .L38
 397 0002 1368     		ldr	r3, [r2]
 398 0004 013B     		subs	r3, r3, #1
 399 0006 1360     		str	r3, [r2]
 400              		.loc 1 21 1 view .LVU53
 401 0008 7047     		bx	lr
 402              	.L39:
 403 000a 00BF     		.align	2
ARM GAS  /tmp/ccKTf5y6.s 			page 8


 404              	.L38:
 405 000c 00000000 		.word	.LANCHOR3
 406              		.cfi_endproc
 407              	.LFE12:
 409              		.section	.bss.e,"aw",%nobits
 410              		.align	2
 411              		.set	.LANCHOR3,. + 0
 414              	e:
 415 0000 00000000 		.space	4
 416              		.section	.bss.x,"aw",%nobits
 417              		.align	2
 418              		.set	.LANCHOR0,. + 0
 421              	x:
 422 0000 00000000 		.space	4
 423              		.section	.bss.y,"aw",%nobits
 424              		.align	2
 425              		.set	.LANCHOR1,. + 0
 428              	y:
 429 0000 00000000 		.space	4
 430              		.section	.bss.z,"aw",%nobits
 431              		.align	2
 432              		.set	.LANCHOR2,. + 0
 435              	z:
 436 0000 00000000 		.space	4
 437              		.text
 438              	.Letext0:
ARM GAS  /tmp/ccKTf5y6.s 			page 9


DEFINED SYMBOLS
                            *ABS*:0000000000000000 coordinates.c
     /tmp/ccKTf5y6.s:16     .text.create_coordinates:0000000000000000 $t
     /tmp/ccKTf5y6.s:24     .text.create_coordinates:0000000000000000 create_coordinates
     /tmp/ccKTf5y6.s:54     .text.create_coordinates:0000000000000014 $d
     /tmp/ccKTf5y6.s:62     .text.getX_coordinates:0000000000000000 $t
     /tmp/ccKTf5y6.s:69     .text.getX_coordinates:0000000000000000 getX_coordinates
     /tmp/ccKTf5y6.s:84     .text.getX_coordinates:0000000000000008 $d
     /tmp/ccKTf5y6.s:89     .text.getY_coordinates:0000000000000000 $t
     /tmp/ccKTf5y6.s:96     .text.getY_coordinates:0000000000000000 getY_coordinates
     /tmp/ccKTf5y6.s:111    .text.getY_coordinates:0000000000000008 $d
     /tmp/ccKTf5y6.s:116    .text.getZ_coordinates:0000000000000000 $t
     /tmp/ccKTf5y6.s:123    .text.getZ_coordinates:0000000000000000 getZ_coordinates
     /tmp/ccKTf5y6.s:138    .text.getZ_coordinates:0000000000000008 $d
     /tmp/ccKTf5y6.s:143    .text.getE_coordinates:0000000000000000 $t
     /tmp/ccKTf5y6.s:150    .text.getE_coordinates:0000000000000000 getE_coordinates
     /tmp/ccKTf5y6.s:165    .text.getE_coordinates:0000000000000008 $d
     /tmp/ccKTf5y6.s:170    .text.incX_coordinates:0000000000000000 $t
     /tmp/ccKTf5y6.s:177    .text.incX_coordinates:0000000000000000 incX_coordinates
     /tmp/ccKTf5y6.s:195    .text.incX_coordinates:000000000000000c $d
     /tmp/ccKTf5y6.s:200    .text.incY_coordinates:0000000000000000 $t
     /tmp/ccKTf5y6.s:207    .text.incY_coordinates:0000000000000000 incY_coordinates
     /tmp/ccKTf5y6.s:225    .text.incY_coordinates:000000000000000c $d
     /tmp/ccKTf5y6.s:230    .text.incZ_coordinates:0000000000000000 $t
     /tmp/ccKTf5y6.s:237    .text.incZ_coordinates:0000000000000000 incZ_coordinates
     /tmp/ccKTf5y6.s:255    .text.incZ_coordinates:000000000000000c $d
     /tmp/ccKTf5y6.s:260    .text.incE_coordinates:0000000000000000 $t
     /tmp/ccKTf5y6.s:267    .text.incE_coordinates:0000000000000000 incE_coordinates
     /tmp/ccKTf5y6.s:285    .text.incE_coordinates:000000000000000c $d
     /tmp/ccKTf5y6.s:290    .text.decX_coordinates:0000000000000000 $t
     /tmp/ccKTf5y6.s:297    .text.decX_coordinates:0000000000000000 decX_coordinates
     /tmp/ccKTf5y6.s:315    .text.decX_coordinates:000000000000000c $d
     /tmp/ccKTf5y6.s:320    .text.decY_coordinates:0000000000000000 $t
     /tmp/ccKTf5y6.s:327    .text.decY_coordinates:0000000000000000 decY_coordinates
     /tmp/ccKTf5y6.s:345    .text.decY_coordinates:000000000000000c $d
     /tmp/ccKTf5y6.s:350    .text.decZ_coordinates:0000000000000000 $t
     /tmp/ccKTf5y6.s:357    .text.decZ_coordinates:0000000000000000 decZ_coordinates
     /tmp/ccKTf5y6.s:375    .text.decZ_coordinates:000000000000000c $d
     /tmp/ccKTf5y6.s:380    .text.decE_coordinates:0000000000000000 $t
     /tmp/ccKTf5y6.s:387    .text.decE_coordinates:0000000000000000 decE_coordinates
     /tmp/ccKTf5y6.s:405    .text.decE_coordinates:000000000000000c $d
     /tmp/ccKTf5y6.s:410    .bss.e:0000000000000000 $d
     /tmp/ccKTf5y6.s:414    .bss.e:0000000000000000 e
     /tmp/ccKTf5y6.s:417    .bss.x:0000000000000000 $d
     /tmp/ccKTf5y6.s:421    .bss.x:0000000000000000 x
     /tmp/ccKTf5y6.s:424    .bss.y:0000000000000000 $d
     /tmp/ccKTf5y6.s:428    .bss.y:0000000000000000 y
     /tmp/ccKTf5y6.s:431    .bss.z:0000000000000000 $d
     /tmp/ccKTf5y6.s:435    .bss.z:0000000000000000 z

NO UNDEFINED SYMBOLS
