ARM GAS  /tmp/ccqvX0TZ.s 			page 1


   1              		.cpu cortex-m3
   2              		.eabi_attribute 20, 1
   3              		.eabi_attribute 21, 1
   4              		.eabi_attribute 23, 3
   5              		.eabi_attribute 24, 1
   6              		.eabi_attribute 25, 1
   7              		.eabi_attribute 26, 1
   8              		.eabi_attribute 30, 1
   9              		.eabi_attribute 34, 1
  10              		.eabi_attribute 18, 4
  11              		.file	"Descritization_Gcode.c"
  12              		.text
  13              	.Ltext0:
  14              		.cfi_sections	.debug_frame
  15              		.section	.text.setCommand,"ax",%progbits
  16              		.align	1
  17              		.syntax unified
  18              		.thumb
  19              		.thumb_func
  20              		.fpu softvfp
  22              	setCommand:
  23              	.LFB0:
  24              		.file 1 "Src/Gcode/Descritization_Gcode.c"
   1:Src/Gcode/Descritization_Gcode.c **** #include "Descritization_Gcode.h"
   2:Src/Gcode/Descritization_Gcode.c **** 
   3:Src/Gcode/Descritization_Gcode.c **** #include <math.h>
   4:Src/Gcode/Descritization_Gcode.c **** 
   5:Src/Gcode/Descritization_Gcode.c **** static descreteCommand_Gcode descreteCommand;
   6:Src/Gcode/Descritization_Gcode.c **** 
   7:Src/Gcode/Descritization_Gcode.c **** static void setCommand (long xn, long yn, long zn, long en, float fnxy, float fnz, float fne, float
   8:Src/Gcode/Descritization_Gcode.c **** {
  25              		.loc 1 8 0
  26              		.cfi_startproc
  27              		@ args = 20, pretend = 0, frame = 0
  28              		@ frame_needed = 0, uses_anonymous_args = 0
  29              		@ link register save eliminated.
  30              	.LVL0:
  31 0000 10B4     		push	{r4}
  32              	.LCFI0:
  33              		.cfi_def_cfa_offset 4
  34              		.cfi_offset 4, -4
   9:Src/Gcode/Descritization_Gcode.c ****     descreteCommand.Xn = xn;
  35              		.loc 1 9 0
  36 0002 084C     		ldr	r4, .L3
  37 0004 6060     		str	r0, [r4, #4]
  10:Src/Gcode/Descritization_Gcode.c ****     descreteCommand.Yn = yn;
  38              		.loc 1 10 0
  39 0006 A160     		str	r1, [r4, #8]
  11:Src/Gcode/Descritization_Gcode.c ****     descreteCommand.Zn = zn;
  40              		.loc 1 11 0
  41 0008 E260     		str	r2, [r4, #12]
  12:Src/Gcode/Descritization_Gcode.c ****     descreteCommand.En = en;
  42              		.loc 1 12 0
  43 000a 2361     		str	r3, [r4, #16]
  13:Src/Gcode/Descritization_Gcode.c ****     descreteCommand.FnXY = fnxy;
  44              		.loc 1 13 0
  45 000c 019B     		ldr	r3, [sp, #4]	@ float
ARM GAS  /tmp/ccqvX0TZ.s 			page 2


  46              	.LVL1:
  47 000e 6361     		str	r3, [r4, #20]	@ float
  14:Src/Gcode/Descritization_Gcode.c ****     descreteCommand.FnZ = fnz;
  48              		.loc 1 14 0
  49 0010 029B     		ldr	r3, [sp, #8]	@ float
  50 0012 A361     		str	r3, [r4, #24]	@ float
  15:Src/Gcode/Descritization_Gcode.c ****     descreteCommand.FnE = fne;
  51              		.loc 1 15 0
  52 0014 039B     		ldr	r3, [sp, #12]	@ float
  53 0016 E361     		str	r3, [r4, #28]	@ float
  16:Src/Gcode/Descritization_Gcode.c ****     descreteCommand.bedT = bt;
  54              		.loc 1 16 0
  55 0018 049B     		ldr	r3, [sp, #16]	@ float
  56 001a 6362     		str	r3, [r4, #36]	@ float
  17:Src/Gcode/Descritization_Gcode.c ****     descreteCommand.extrT = et;
  57              		.loc 1 17 0
  58 001c 059B     		ldr	r3, [sp, #20]	@ float
  59 001e 2362     		str	r3, [r4, #32]	@ float
  18:Src/Gcode/Descritization_Gcode.c **** }
  60              		.loc 1 18 0
  61 0020 10BC     		pop	{r4}
  62              	.LCFI1:
  63              		.cfi_restore 4
  64              		.cfi_def_cfa_offset 0
  65              	.LVL2:
  66 0022 7047     		bx	lr
  67              	.L4:
  68              		.align	2
  69              	.L3:
  70 0024 00000000 		.word	.LANCHOR0
  71              		.cfi_endproc
  72              	.LFE0:
  74              		.global	__aeabi_fmul
  75              		.global	__aeabi_fdiv
  76              		.section	.text.descreteSpeedXY,"ax",%progbits
  77              		.align	1
  78              		.syntax unified
  79              		.thumb
  80              		.thumb_func
  81              		.fpu softvfp
  83              	descreteSpeedXY:
  84              	.LFB1:
  19:Src/Gcode/Descritization_Gcode.c **** 
  20:Src/Gcode/Descritization_Gcode.c **** static float descreteSpeedXY(float f) { return f*(float)STEPS_PER_MM_XY/(float)SECONDS_IN_MINUTE; }
  85              		.loc 1 20 0
  86              		.cfi_startproc
  87              		@ args = 0, pretend = 0, frame = 0
  88              		@ frame_needed = 0, uses_anonymous_args = 0
  89              	.LVL3:
  90 0000 08B5     		push	{r3, lr}
  91              	.LCFI2:
  92              		.cfi_def_cfa_offset 8
  93              		.cfi_offset 3, -8
  94              		.cfi_offset 14, -4
  95              		.loc 1 20 0
  96 0002 0349     		ldr	r1, .L7
  97 0004 FFF7FEFF 		bl	__aeabi_fmul
ARM GAS  /tmp/ccqvX0TZ.s 			page 3


  98              	.LVL4:
  99 0008 0249     		ldr	r1, .L7+4
 100 000a FFF7FEFF 		bl	__aeabi_fdiv
 101              	.LVL5:
 102 000e 08BD     		pop	{r3, pc}
 103              	.L8:
 104              		.align	2
 105              	.L7:
 106 0010 0000A042 		.word	1117782016
 107 0014 00007042 		.word	1114636288
 108              		.cfi_endproc
 109              	.LFE1:
 111              		.section	.text.descreteSpeedZ,"ax",%progbits
 112              		.align	1
 113              		.syntax unified
 114              		.thumb
 115              		.thumb_func
 116              		.fpu softvfp
 118              	descreteSpeedZ:
 119              	.LFB2:
  21:Src/Gcode/Descritization_Gcode.c **** static float descreteSpeedZ (float f) { return f*(float)STEPS_PER_MM_Z/(float)SECONDS_IN_MINUTE;  }
 120              		.loc 1 21 0
 121              		.cfi_startproc
 122              		@ args = 0, pretend = 0, frame = 0
 123              		@ frame_needed = 0, uses_anonymous_args = 0
 124              	.LVL6:
 125 0000 08B5     		push	{r3, lr}
 126              	.LCFI3:
 127              		.cfi_def_cfa_offset 8
 128              		.cfi_offset 3, -8
 129              		.cfi_offset 14, -4
 130              		.loc 1 21 0
 131 0002 0349     		ldr	r1, .L11
 132 0004 FFF7FEFF 		bl	__aeabi_fmul
 133              	.LVL7:
 134 0008 0249     		ldr	r1, .L11+4
 135 000a FFF7FEFF 		bl	__aeabi_fdiv
 136              	.LVL8:
 137 000e 08BD     		pop	{r3, pc}
 138              	.L12:
 139              		.align	2
 140              	.L11:
 141 0010 0000C843 		.word	1137180672
 142 0014 00007042 		.word	1114636288
 143              		.cfi_endproc
 144              	.LFE2:
 146              		.section	.text.descreteSpeedE,"ax",%progbits
 147              		.align	1
 148              		.syntax unified
 149              		.thumb
 150              		.thumb_func
 151              		.fpu softvfp
 153              	descreteSpeedE:
 154              	.LFB3:
  22:Src/Gcode/Descritization_Gcode.c **** static float descreteSpeedE (float f) { return f*(float)STEPS_PER_MM_E/(float)SECONDS_IN_MINUTE;  }
 155              		.loc 1 22 0
 156              		.cfi_startproc
ARM GAS  /tmp/ccqvX0TZ.s 			page 4


 157              		@ args = 0, pretend = 0, frame = 0
 158              		@ frame_needed = 0, uses_anonymous_args = 0
 159              	.LVL9:
 160 0000 08B5     		push	{r3, lr}
 161              	.LCFI4:
 162              		.cfi_def_cfa_offset 8
 163              		.cfi_offset 3, -8
 164              		.cfi_offset 14, -4
 165              		.loc 1 22 0
 166 0002 0349     		ldr	r1, .L15
 167 0004 FFF7FEFF 		bl	__aeabi_fmul
 168              	.LVL10:
 169 0008 0249     		ldr	r1, .L15+4
 170 000a FFF7FEFF 		bl	__aeabi_fdiv
 171              	.LVL11:
 172 000e 08BD     		pop	{r3, pc}
 173              	.L16:
 174              		.align	2
 175              	.L15:
 176 0010 00002043 		.word	1126170624
 177 0014 00007042 		.word	1114636288
 178              		.cfi_endproc
 179              	.LFE3:
 181              		.section	.text.descreteXY,"ax",%progbits
 182              		.align	1
 183              		.syntax unified
 184              		.thumb
 185              		.thumb_func
 186              		.fpu softvfp
 188              	descreteXY:
 189              	.LFB4:
  23:Src/Gcode/Descritization_Gcode.c **** static long descreteXY(float xy) { return lroundf(xy*STEPS_PER_MM_XY); }
 190              		.loc 1 23 0
 191              		.cfi_startproc
 192              		@ args = 0, pretend = 0, frame = 0
 193              		@ frame_needed = 0, uses_anonymous_args = 0
 194              	.LVL12:
 195 0000 08B5     		push	{r3, lr}
 196              	.LCFI5:
 197              		.cfi_def_cfa_offset 8
 198              		.cfi_offset 3, -8
 199              		.cfi_offset 14, -4
 200              		.loc 1 23 0
 201 0002 0349     		ldr	r1, .L19
 202 0004 FFF7FEFF 		bl	__aeabi_fmul
 203              	.LVL13:
 204 0008 FFF7FEFF 		bl	lroundf
 205              	.LVL14:
 206 000c 08BD     		pop	{r3, pc}
 207              	.L20:
 208 000e 00BF     		.align	2
 209              	.L19:
 210 0010 0000A042 		.word	1117782016
 211              		.cfi_endproc
 212              	.LFE4:
 214              		.section	.text.descreteZ,"ax",%progbits
 215              		.align	1
ARM GAS  /tmp/ccqvX0TZ.s 			page 5


 216              		.syntax unified
 217              		.thumb
 218              		.thumb_func
 219              		.fpu softvfp
 221              	descreteZ:
 222              	.LFB5:
  24:Src/Gcode/Descritization_Gcode.c **** static long descreteZ (float z)  { return lroundf(z*STEPS_PER_MM_Z);   }
 223              		.loc 1 24 0
 224              		.cfi_startproc
 225              		@ args = 0, pretend = 0, frame = 0
 226              		@ frame_needed = 0, uses_anonymous_args = 0
 227              	.LVL15:
 228 0000 08B5     		push	{r3, lr}
 229              	.LCFI6:
 230              		.cfi_def_cfa_offset 8
 231              		.cfi_offset 3, -8
 232              		.cfi_offset 14, -4
 233              		.loc 1 24 0
 234 0002 0349     		ldr	r1, .L23
 235 0004 FFF7FEFF 		bl	__aeabi_fmul
 236              	.LVL16:
 237 0008 FFF7FEFF 		bl	lroundf
 238              	.LVL17:
 239 000c 08BD     		pop	{r3, pc}
 240              	.L24:
 241 000e 00BF     		.align	2
 242              	.L23:
 243 0010 0000C843 		.word	1137180672
 244              		.cfi_endproc
 245              	.LFE5:
 247              		.section	.text.descreteE,"ax",%progbits
 248              		.align	1
 249              		.syntax unified
 250              		.thumb
 251              		.thumb_func
 252              		.fpu softvfp
 254              	descreteE:
 255              	.LFB6:
  25:Src/Gcode/Descritization_Gcode.c **** static long descreteE (float e)  { return lroundf(e*STEPS_PER_MM_E);   }
 256              		.loc 1 25 0
 257              		.cfi_startproc
 258              		@ args = 0, pretend = 0, frame = 0
 259              		@ frame_needed = 0, uses_anonymous_args = 0
 260              	.LVL18:
 261 0000 08B5     		push	{r3, lr}
 262              	.LCFI7:
 263              		.cfi_def_cfa_offset 8
 264              		.cfi_offset 3, -8
 265              		.cfi_offset 14, -4
 266              		.loc 1 25 0
 267 0002 0349     		ldr	r1, .L27
 268 0004 FFF7FEFF 		bl	__aeabi_fmul
 269              	.LVL19:
 270 0008 FFF7FEFF 		bl	lroundf
 271              	.LVL20:
 272 000c 08BD     		pop	{r3, pc}
 273              	.L28:
ARM GAS  /tmp/ccqvX0TZ.s 			page 6


 274 000e 00BF     		.align	2
 275              	.L27:
 276 0010 00002043 		.word	1126170624
 277              		.cfi_endproc
 278              	.LFE6:
 280              		.section	.text.createDescretization_Gcode,"ax",%progbits
 281              		.align	1
 282              		.global	createDescretization_Gcode
 283              		.syntax unified
 284              		.thumb
 285              		.thumb_func
 286              		.fpu softvfp
 288              	createDescretization_Gcode:
 289              	.LFB7:
  26:Src/Gcode/Descritization_Gcode.c **** 
  27:Src/Gcode/Descritization_Gcode.c **** 
  28:Src/Gcode/Descritization_Gcode.c **** void createDescretization_Gcode(void)
  29:Src/Gcode/Descritization_Gcode.c **** {
 290              		.loc 1 29 0
 291              		.cfi_startproc
 292              		@ args = 0, pretend = 0, frame = 0
 293              		@ frame_needed = 0, uses_anonymous_args = 0
 294 0000 F0B5     		push	{r4, r5, r6, r7, lr}
 295              	.LCFI8:
 296              		.cfi_def_cfa_offset 20
 297              		.cfi_offset 4, -20
 298              		.cfi_offset 5, -16
 299              		.cfi_offset 6, -12
 300              		.cfi_offset 7, -8
 301              		.cfi_offset 14, -4
 302 0002 87B0     		sub	sp, sp, #28
 303              	.LCFI9:
 304              		.cfi_def_cfa_offset 48
  30:Src/Gcode/Descritization_Gcode.c ****     descreteCommand.type = EMPTY_COMMAND;
 305              		.loc 1 30 0
 306 0004 0024     		movs	r4, #0
 307 0006 0E4B     		ldr	r3, .L31
 308 0008 1C70     		strb	r4, [r3]
  31:Src/Gcode/Descritization_Gcode.c ****     setCommand(0, 0, 0, 0,
 309              		.loc 1 31 0
 310 000a 0E4D     		ldr	r5, .L31+4
 311 000c 2846     		mov	r0, r5
 312 000e FFF7FEFF 		bl	descreteSpeedXY
 313              	.LVL21:
 314 0012 0646     		mov	r6, r0
 315 0014 2846     		mov	r0, r5
 316 0016 FFF7FEFF 		bl	descreteSpeedZ
 317              	.LVL22:
 318 001a 0746     		mov	r7, r0
 319 001c 2846     		mov	r0, r5
 320 001e FFF7FEFF 		bl	descreteSpeedE
 321              	.LVL23:
 322 0022 0023     		movs	r3, #0
 323 0024 0493     		str	r3, [sp, #16]	@ float
 324 0026 0393     		str	r3, [sp, #12]	@ float
 325 0028 0290     		str	r0, [sp, #8]	@ float
 326 002a 0197     		str	r7, [sp, #4]	@ float
ARM GAS  /tmp/ccqvX0TZ.s 			page 7


 327 002c 0096     		str	r6, [sp]	@ float
 328 002e 2346     		mov	r3, r4
 329 0030 2246     		mov	r2, r4
 330 0032 2146     		mov	r1, r4
 331 0034 2046     		mov	r0, r4
 332 0036 FFF7FEFF 		bl	setCommand
 333              	.LVL24:
  32:Src/Gcode/Descritization_Gcode.c ****                 descreteSpeedXY(F_DEFAULT), descreteSpeedZ(F_DEFAULT), descreteSpeedE(F_DEFAULT),
  33:Src/Gcode/Descritization_Gcode.c ****                     0, 0);
  34:Src/Gcode/Descritization_Gcode.c **** }
 334              		.loc 1 34 0
 335 003a 07B0     		add	sp, sp, #28
 336              	.LCFI10:
 337              		.cfi_def_cfa_offset 20
 338              		@ sp needed
 339 003c F0BD     		pop	{r4, r5, r6, r7, pc}
 340              	.L32:
 341 003e 00BF     		.align	2
 342              	.L31:
 343 0040 00000000 		.word	.LANCHOR0
 344 0044 00007A44 		.word	1148846080
 345              		.cfi_endproc
 346              	.LFE7:
 348              		.section	.text.getDescreteCommand_Gcode,"ax",%progbits
 349              		.align	1
 350              		.global	getDescreteCommand_Gcode
 351              		.syntax unified
 352              		.thumb
 353              		.thumb_func
 354              		.fpu softvfp
 356              	getDescreteCommand_Gcode:
 357              	.LFB8:
  35:Src/Gcode/Descritization_Gcode.c **** 
  36:Src/Gcode/Descritization_Gcode.c **** const descreteCommand_Gcode getDescreteCommand_Gcode() {return descreteCommand;}
 358              		.loc 1 36 0
 359              		.cfi_startproc
 360              		@ args = 0, pretend = 0, frame = 0
 361              		@ frame_needed = 0, uses_anonymous_args = 0
 362              		@ link register save eliminated.
 363              	.LVL25:
 364 0000 70B4     		push	{r4, r5, r6}
 365              	.LCFI11:
 366              		.cfi_def_cfa_offset 12
 367              		.cfi_offset 4, -12
 368              		.cfi_offset 5, -8
 369              		.cfi_offset 6, -4
 370 0002 0646     		mov	r6, r0
 371              		.loc 1 36 0
 372 0004 0446     		mov	r4, r0
 373 0006 064D     		ldr	r5, .L35
 374 0008 0FCD     		ldmia	r5!, {r0, r1, r2, r3}
 375              	.LVL26:
 376 000a 0FC4     		stmia	r4!, {r0, r1, r2, r3}
 377              	.LVL27:
 378 000c 0FCD     		ldmia	r5!, {r0, r1, r2, r3}
 379 000e 0FC4     		stmia	r4!, {r0, r1, r2, r3}
 380 0010 95E80300 		ldm	r5, {r0, r1}
ARM GAS  /tmp/ccqvX0TZ.s 			page 8


 381 0014 84E80300 		stm	r4, {r0, r1}
 382 0018 3046     		mov	r0, r6
 383 001a 70BC     		pop	{r4, r5, r6}
 384              	.LCFI12:
 385              		.cfi_restore 6
 386              		.cfi_restore 5
 387              		.cfi_restore 4
 388              		.cfi_def_cfa_offset 0
 389              	.LVL28:
 390 001c 7047     		bx	lr
 391              	.L36:
 392 001e 00BF     		.align	2
 393              	.L35:
 394 0020 00000000 		.word	.LANCHOR0
 395              		.cfi_endproc
 396              	.LFE8:
 398              		.section	.text.setDescreteCommand_Gcode,"ax",%progbits
 399              		.align	1
 400              		.global	setDescreteCommand_Gcode
 401              		.syntax unified
 402              		.thumb
 403              		.thumb_func
 404              		.fpu softvfp
 406              	setDescreteCommand_Gcode:
 407              	.LFB9:
  37:Src/Gcode/Descritization_Gcode.c **** 
  38:Src/Gcode/Descritization_Gcode.c **** void setDescreteCommand_Gcode(convertedCommand_Gcode convertedCommand)
  39:Src/Gcode/Descritization_Gcode.c **** {
 408              		.loc 1 39 0
 409              		.cfi_startproc
 410              		@ args = 32, pretend = 16, frame = 0
 411              		@ frame_needed = 0, uses_anonymous_args = 0
 412 0000 84B0     		sub	sp, sp, #16
 413              	.LCFI13:
 414              		.cfi_def_cfa_offset 16
 415 0002 2DE9F047 		push	{r4, r5, r6, r7, r8, r9, r10, lr}
 416              	.LCFI14:
 417              		.cfi_def_cfa_offset 48
 418              		.cfi_offset 4, -48
 419              		.cfi_offset 5, -44
 420              		.cfi_offset 6, -40
 421              		.cfi_offset 7, -36
 422              		.cfi_offset 8, -32
 423              		.cfi_offset 9, -28
 424              		.cfi_offset 10, -24
 425              		.cfi_offset 14, -20
 426 0006 86B0     		sub	sp, sp, #24
 427              	.LCFI15:
 428              		.cfi_def_cfa_offset 72
 429 0008 0EAC     		add	r4, sp, #56
 430 000a 84E80F00 		stm	r4, {r0, r1, r2, r3}
  40:Src/Gcode/Descritization_Gcode.c ****     descreteCommand.type = convertedCommand.type;
 431              		.loc 1 40 0
 432 000e 9DF83820 		ldrb	r2, [sp, #56]	@ zero_extendqisi2
 433 0012 194B     		ldr	r3, .L39
 434 0014 1A70     		strb	r2, [r3]
  41:Src/Gcode/Descritization_Gcode.c **** 
ARM GAS  /tmp/ccqvX0TZ.s 			page 9


  42:Src/Gcode/Descritization_Gcode.c ****     setCommand(descreteXY(convertedCommand.X), descreteXY(convertedCommand.Y), descreteZ(convertedC
 435              		.loc 1 42 0
 436 0016 0F98     		ldr	r0, [sp, #60]	@ float
 437 0018 FFF7FEFF 		bl	descreteXY
 438              	.LVL29:
 439 001c 0546     		mov	r5, r0
 440 001e 1098     		ldr	r0, [sp, #64]	@ float
 441 0020 FFF7FEFF 		bl	descreteXY
 442              	.LVL30:
 443 0024 0646     		mov	r6, r0
 444 0026 1198     		ldr	r0, [sp, #68]	@ float
 445 0028 FFF7FEFF 		bl	descreteZ
 446              	.LVL31:
 447 002c 0746     		mov	r7, r0
 448 002e 1298     		ldr	r0, [sp, #72]	@ float
 449 0030 FFF7FEFF 		bl	descreteE
 450              	.LVL32:
 451 0034 8046     		mov	r8, r0
 452 0036 139C     		ldr	r4, [sp, #76]	@ float
 453 0038 2046     		mov	r0, r4
 454 003a FFF7FEFF 		bl	descreteSpeedXY
 455              	.LVL33:
 456 003e 8146     		mov	r9, r0
 457 0040 2046     		mov	r0, r4
 458 0042 FFF7FEFF 		bl	descreteSpeedZ
 459              	.LVL34:
 460 0046 8246     		mov	r10, r0
 461 0048 2046     		mov	r0, r4
 462 004a FFF7FEFF 		bl	descreteSpeedE
 463              	.LVL35:
 464 004e 149B     		ldr	r3, [sp, #80]	@ float
 465 0050 0493     		str	r3, [sp, #16]	@ float
 466 0052 159B     		ldr	r3, [sp, #84]	@ float
 467 0054 0393     		str	r3, [sp, #12]	@ float
 468 0056 0290     		str	r0, [sp, #8]	@ float
 469 0058 CDF804A0 		str	r10, [sp, #4]	@ float
 470 005c CDF80090 		str	r9, [sp]	@ float
 471 0060 4346     		mov	r3, r8
 472 0062 3A46     		mov	r2, r7
 473 0064 3146     		mov	r1, r6
 474 0066 2846     		mov	r0, r5
 475 0068 FFF7FEFF 		bl	setCommand
 476              	.LVL36:
  43:Src/Gcode/Descritization_Gcode.c ****                 descreteSpeedXY(convertedCommand.F), descreteSpeedZ(convertedCommand.F), descreteSp
  44:Src/Gcode/Descritization_Gcode.c ****                     convertedCommand.bedT, convertedCommand.extrT);
  45:Src/Gcode/Descritization_Gcode.c **** }
 477              		.loc 1 45 0
 478 006c 06B0     		add	sp, sp, #24
 479              	.LCFI16:
 480              		.cfi_def_cfa_offset 48
 481              		@ sp needed
 482 006e BDE8F047 		pop	{r4, r5, r6, r7, r8, r9, r10, lr}
 483              	.LCFI17:
 484              		.cfi_restore 14
 485              		.cfi_restore 10
 486              		.cfi_restore 9
 487              		.cfi_restore 8
ARM GAS  /tmp/ccqvX0TZ.s 			page 10


 488              		.cfi_restore 7
 489              		.cfi_restore 6
 490              		.cfi_restore 5
 491              		.cfi_restore 4
 492              		.cfi_def_cfa_offset 16
 493 0072 04B0     		add	sp, sp, #16
 494              	.LCFI18:
 495              		.cfi_def_cfa_offset 0
 496 0074 7047     		bx	lr
 497              	.L40:
 498 0076 00BF     		.align	2
 499              	.L39:
 500 0078 00000000 		.word	.LANCHOR0
 501              		.cfi_endproc
 502              	.LFE9:
 504              		.section	.bss.descreteCommand,"aw",%nobits
 505              		.align	2
 506              		.set	.LANCHOR0,. + 0
 509              	descreteCommand:
 510 0000 00000000 		.space	40
 510      00000000 
 510      00000000 
 510      00000000 
 510      00000000 
 511              		.text
 512              	.Letext0:
 513              		.file 2 "Inc/Gcode/Config_Gcode.h"
 514              		.file 3 "Inc/Gcode/GcodeConverter_Gcode.h"
 515              		.file 4 "Inc/Gcode/Descritization_Gcode.h"
 516              		.file 5 "/usr/arm-none-eabi/include/sys/lock.h"
 517              		.file 6 "/usr/arm-none-eabi/include/sys/_types.h"
 518              		.file 7 "/usr/lib/gcc/arm-none-eabi/7.3.1/include/stddef.h"
 519              		.file 8 "/usr/arm-none-eabi/include/sys/reent.h"
 520              		.file 9 "/usr/arm-none-eabi/include/math.h"
ARM GAS  /tmp/ccqvX0TZ.s 			page 11

