ARM GAS  /tmp/ccjBfJPm.s 			page 1


   1              		.cpu cortex-m3
   2              		.eabi_attribute 20, 1
   3              		.eabi_attribute 21, 1
   4              		.eabi_attribute 23, 3
   5              		.eabi_attribute 24, 1
   6              		.eabi_attribute 25, 1
   7              		.eabi_attribute 26, 1
   8              		.eabi_attribute 30, 1
   9              		.eabi_attribute 34, 1
  10              		.eabi_attribute 18, 4
  11              		.file	"Descritization_Gcode.c"
  12              		.text
  13              	.Ltext0:
  14              		.cfi_sections	.debug_frame
  15              		.section	.text.setCommand,"ax",%progbits
  16              		.align	1
  17              		.arch armv7-m
  18              		.syntax unified
  19              		.thumb
  20              		.thumb_func
  21              		.fpu softvfp
  23              	setCommand:
  24              	.LVL0:
  25              	.LFB0:
  26              		.file 1 "Src/Gcode/Descritization_Gcode.c"
   1:Src/Gcode/Descritization_Gcode.c **** #include "Descritization_Gcode.h"
   2:Src/Gcode/Descritization_Gcode.c **** 
   3:Src/Gcode/Descritization_Gcode.c **** #include <math.h>
   4:Src/Gcode/Descritization_Gcode.c **** 
   5:Src/Gcode/Descritization_Gcode.c **** static descreteCommand_Gcode descreteCommand;
   6:Src/Gcode/Descritization_Gcode.c **** 
   7:Src/Gcode/Descritization_Gcode.c **** static void setCommand (long xn, long yn, long zn, long en, float fnxy, float fnz, float fne, float
   8:Src/Gcode/Descritization_Gcode.c **** {
  27              		.loc 1 8 1 view -0
  28              		.cfi_startproc
  29              		@ args = 20, pretend = 0, frame = 0
  30              		@ frame_needed = 0, uses_anonymous_args = 0
  31              		@ link register save eliminated.
  32              		.loc 1 8 1 is_stmt 0 view .LVU1
  33 0000 10B4     		push	{r4}
  34              	.LCFI0:
  35              		.cfi_def_cfa_offset 4
  36              		.cfi_offset 4, -4
   9:Src/Gcode/Descritization_Gcode.c ****     descreteCommand.Xn = xn;
  37              		.loc 1 9 5 is_stmt 1 view .LVU2
  38              		.loc 1 9 24 is_stmt 0 view .LVU3
  39 0002 084C     		ldr	r4, .L3
  40 0004 6060     		str	r0, [r4, #4]
  10:Src/Gcode/Descritization_Gcode.c ****     descreteCommand.Yn = yn;
  41              		.loc 1 10 5 is_stmt 1 view .LVU4
  42              		.loc 1 10 24 is_stmt 0 view .LVU5
  43 0006 A160     		str	r1, [r4, #8]
  11:Src/Gcode/Descritization_Gcode.c ****     descreteCommand.Zn = zn;
  44              		.loc 1 11 5 is_stmt 1 view .LVU6
  45              		.loc 1 11 24 is_stmt 0 view .LVU7
  46 0008 E260     		str	r2, [r4, #12]
  12:Src/Gcode/Descritization_Gcode.c ****     descreteCommand.En = en;
ARM GAS  /tmp/ccjBfJPm.s 			page 2


  47              		.loc 1 12 5 is_stmt 1 view .LVU8
  48              		.loc 1 12 24 is_stmt 0 view .LVU9
  49 000a 2361     		str	r3, [r4, #16]
  13:Src/Gcode/Descritization_Gcode.c ****     descreteCommand.FnXY = fnxy;
  50              		.loc 1 13 5 is_stmt 1 view .LVU10
  51              		.loc 1 13 26 is_stmt 0 view .LVU11
  52 000c 019B     		ldr	r3, [sp, #4]	@ float
  53              	.LVL1:
  54              		.loc 1 13 26 view .LVU12
  55 000e 6361     		str	r3, [r4, #20]	@ float
  14:Src/Gcode/Descritization_Gcode.c ****     descreteCommand.FnZ = fnz;
  56              		.loc 1 14 5 is_stmt 1 view .LVU13
  57              		.loc 1 14 25 is_stmt 0 view .LVU14
  58 0010 029B     		ldr	r3, [sp, #8]	@ float
  59 0012 A361     		str	r3, [r4, #24]	@ float
  15:Src/Gcode/Descritization_Gcode.c ****     descreteCommand.FnE = fne;
  60              		.loc 1 15 5 is_stmt 1 view .LVU15
  61              		.loc 1 15 25 is_stmt 0 view .LVU16
  62 0014 039B     		ldr	r3, [sp, #12]	@ float
  63 0016 E361     		str	r3, [r4, #28]	@ float
  16:Src/Gcode/Descritization_Gcode.c ****     descreteCommand.bedT = bt;
  64              		.loc 1 16 5 is_stmt 1 view .LVU17
  65              		.loc 1 16 26 is_stmt 0 view .LVU18
  66 0018 049B     		ldr	r3, [sp, #16]	@ float
  67 001a 6362     		str	r3, [r4, #36]	@ float
  17:Src/Gcode/Descritization_Gcode.c ****     descreteCommand.extrT = et;
  68              		.loc 1 17 5 is_stmt 1 view .LVU19
  69              		.loc 1 17 27 is_stmt 0 view .LVU20
  70 001c 059B     		ldr	r3, [sp, #20]	@ float
  71 001e 2362     		str	r3, [r4, #32]	@ float
  18:Src/Gcode/Descritization_Gcode.c **** }
  72              		.loc 1 18 1 view .LVU21
  73 0020 10BC     		pop	{r4}
  74              	.LCFI1:
  75              		.cfi_restore 4
  76              		.cfi_def_cfa_offset 0
  77              	.LVL2:
  78              		.loc 1 18 1 view .LVU22
  79 0022 7047     		bx	lr
  80              	.L4:
  81              		.align	2
  82              	.L3:
  83 0024 00000000 		.word	.LANCHOR0
  84              		.cfi_endproc
  85              	.LFE0:
  87              		.global	__aeabi_fmul
  88              		.global	__aeabi_fdiv
  89              		.section	.text.descreteSpeedXY,"ax",%progbits
  90              		.align	1
  91              		.syntax unified
  92              		.thumb
  93              		.thumb_func
  94              		.fpu softvfp
  96              	descreteSpeedXY:
  97              	.LVL3:
  98              	.LFB1:
  19:Src/Gcode/Descritization_Gcode.c **** 
ARM GAS  /tmp/ccjBfJPm.s 			page 3


  20:Src/Gcode/Descritization_Gcode.c **** static float descreteSpeedXY(float f) { return f*(float)STEPS_PER_MM_XY/(float)SECONDS_IN_MINUTE; }
  99              		.loc 1 20 39 is_stmt 1 view -0
 100              		.cfi_startproc
 101              		@ args = 0, pretend = 0, frame = 0
 102              		@ frame_needed = 0, uses_anonymous_args = 0
 103              		.loc 1 20 39 is_stmt 0 view .LVU24
 104 0000 08B5     		push	{r3, lr}
 105              	.LCFI2:
 106              		.cfi_def_cfa_offset 8
 107              		.cfi_offset 3, -8
 108              		.cfi_offset 14, -4
 109              		.loc 1 20 41 is_stmt 1 view .LVU25
 110              		.loc 1 20 49 is_stmt 0 view .LVU26
 111 0002 0349     		ldr	r1, .L7
 112 0004 FFF7FEFF 		bl	__aeabi_fmul
 113              	.LVL4:
 114              		.loc 1 20 72 view .LVU27
 115 0008 0249     		ldr	r1, .L7+4
 116 000a FFF7FEFF 		bl	__aeabi_fdiv
 117              	.LVL5:
 118              		.loc 1 20 1 view .LVU28
 119 000e 08BD     		pop	{r3, pc}
 120              	.L8:
 121              		.align	2
 122              	.L7:
 123 0010 0000A042 		.word	1117782016
 124 0014 00007042 		.word	1114636288
 125              		.cfi_endproc
 126              	.LFE1:
 128              		.section	.text.descreteSpeedZ,"ax",%progbits
 129              		.align	1
 130              		.syntax unified
 131              		.thumb
 132              		.thumb_func
 133              		.fpu softvfp
 135              	descreteSpeedZ:
 136              	.LVL6:
 137              	.LFB2:
  21:Src/Gcode/Descritization_Gcode.c **** static float descreteSpeedZ (float f) { return f*(float)STEPS_PER_MM_Z/(float)SECONDS_IN_MINUTE;  }
 138              		.loc 1 21 39 is_stmt 1 view -0
 139              		.cfi_startproc
 140              		@ args = 0, pretend = 0, frame = 0
 141              		@ frame_needed = 0, uses_anonymous_args = 0
 142              		.loc 1 21 39 is_stmt 0 view .LVU30
 143 0000 08B5     		push	{r3, lr}
 144              	.LCFI3:
 145              		.cfi_def_cfa_offset 8
 146              		.cfi_offset 3, -8
 147              		.cfi_offset 14, -4
 148              		.loc 1 21 41 is_stmt 1 view .LVU31
 149              		.loc 1 21 49 is_stmt 0 view .LVU32
 150 0002 0349     		ldr	r1, .L11
 151 0004 FFF7FEFF 		bl	__aeabi_fmul
 152              	.LVL7:
 153              		.loc 1 21 71 view .LVU33
 154 0008 0249     		ldr	r1, .L11+4
 155 000a FFF7FEFF 		bl	__aeabi_fdiv
ARM GAS  /tmp/ccjBfJPm.s 			page 4


 156              	.LVL8:
 157              		.loc 1 21 1 view .LVU34
 158 000e 08BD     		pop	{r3, pc}
 159              	.L12:
 160              		.align	2
 161              	.L11:
 162 0010 0000C843 		.word	1137180672
 163 0014 00007042 		.word	1114636288
 164              		.cfi_endproc
 165              	.LFE2:
 167              		.section	.text.descreteSpeedE,"ax",%progbits
 168              		.align	1
 169              		.syntax unified
 170              		.thumb
 171              		.thumb_func
 172              		.fpu softvfp
 174              	descreteSpeedE:
 175              	.LVL9:
 176              	.LFB3:
  22:Src/Gcode/Descritization_Gcode.c **** static float descreteSpeedE (float f) { return f*(float)STEPS_PER_MM_E/(float)SECONDS_IN_MINUTE;  }
 177              		.loc 1 22 39 is_stmt 1 view -0
 178              		.cfi_startproc
 179              		@ args = 0, pretend = 0, frame = 0
 180              		@ frame_needed = 0, uses_anonymous_args = 0
 181              		.loc 1 22 39 is_stmt 0 view .LVU36
 182 0000 08B5     		push	{r3, lr}
 183              	.LCFI4:
 184              		.cfi_def_cfa_offset 8
 185              		.cfi_offset 3, -8
 186              		.cfi_offset 14, -4
 187              		.loc 1 22 41 is_stmt 1 view .LVU37
 188              		.loc 1 22 49 is_stmt 0 view .LVU38
 189 0002 0349     		ldr	r1, .L15
 190 0004 FFF7FEFF 		bl	__aeabi_fmul
 191              	.LVL10:
 192              		.loc 1 22 71 view .LVU39
 193 0008 0249     		ldr	r1, .L15+4
 194 000a FFF7FEFF 		bl	__aeabi_fdiv
 195              	.LVL11:
 196              		.loc 1 22 1 view .LVU40
 197 000e 08BD     		pop	{r3, pc}
 198              	.L16:
 199              		.align	2
 200              	.L15:
 201 0010 00002043 		.word	1126170624
 202 0014 00007042 		.word	1114636288
 203              		.cfi_endproc
 204              	.LFE3:
 206              		.section	.text.descreteXY,"ax",%progbits
 207              		.align	1
 208              		.syntax unified
 209              		.thumb
 210              		.thumb_func
 211              		.fpu softvfp
 213              	descreteXY:
 214              	.LVL12:
 215              	.LFB4:
ARM GAS  /tmp/ccjBfJPm.s 			page 5


  23:Src/Gcode/Descritization_Gcode.c **** static long descreteXY(float xy) { return lroundf(xy*STEPS_PER_MM_XY); }
 216              		.loc 1 23 34 is_stmt 1 view -0
 217              		.cfi_startproc
 218              		@ args = 0, pretend = 0, frame = 0
 219              		@ frame_needed = 0, uses_anonymous_args = 0
 220              		.loc 1 23 34 is_stmt 0 view .LVU42
 221 0000 08B5     		push	{r3, lr}
 222              	.LCFI5:
 223              		.cfi_def_cfa_offset 8
 224              		.cfi_offset 3, -8
 225              		.cfi_offset 14, -4
 226              		.loc 1 23 36 is_stmt 1 view .LVU43
 227              		.loc 1 23 43 is_stmt 0 view .LVU44
 228 0002 0349     		ldr	r1, .L19
 229 0004 FFF7FEFF 		bl	__aeabi_fmul
 230              	.LVL13:
 231              		.loc 1 23 43 view .LVU45
 232 0008 FFF7FEFF 		bl	lroundf
 233              	.LVL14:
 234              		.loc 1 23 1 view .LVU46
 235 000c 08BD     		pop	{r3, pc}
 236              	.L20:
 237 000e 00BF     		.align	2
 238              	.L19:
 239 0010 0000A042 		.word	1117782016
 240              		.cfi_endproc
 241              	.LFE4:
 243              		.section	.text.descreteZ,"ax",%progbits
 244              		.align	1
 245              		.syntax unified
 246              		.thumb
 247              		.thumb_func
 248              		.fpu softvfp
 250              	descreteZ:
 251              	.LVL15:
 252              	.LFB5:
  24:Src/Gcode/Descritization_Gcode.c **** static long descreteZ (float z)  { return lroundf(z*STEPS_PER_MM_Z);   }
 253              		.loc 1 24 34 is_stmt 1 view -0
 254              		.cfi_startproc
 255              		@ args = 0, pretend = 0, frame = 0
 256              		@ frame_needed = 0, uses_anonymous_args = 0
 257              		.loc 1 24 34 is_stmt 0 view .LVU48
 258 0000 08B5     		push	{r3, lr}
 259              	.LCFI6:
 260              		.cfi_def_cfa_offset 8
 261              		.cfi_offset 3, -8
 262              		.cfi_offset 14, -4
 263              		.loc 1 24 36 is_stmt 1 view .LVU49
 264              		.loc 1 24 43 is_stmt 0 view .LVU50
 265 0002 0349     		ldr	r1, .L23
 266 0004 FFF7FEFF 		bl	__aeabi_fmul
 267              	.LVL16:
 268              		.loc 1 24 43 view .LVU51
 269 0008 FFF7FEFF 		bl	lroundf
 270              	.LVL17:
 271              		.loc 1 24 1 view .LVU52
 272 000c 08BD     		pop	{r3, pc}
ARM GAS  /tmp/ccjBfJPm.s 			page 6


 273              	.L24:
 274 000e 00BF     		.align	2
 275              	.L23:
 276 0010 0000C843 		.word	1137180672
 277              		.cfi_endproc
 278              	.LFE5:
 280              		.section	.text.descreteE,"ax",%progbits
 281              		.align	1
 282              		.syntax unified
 283              		.thumb
 284              		.thumb_func
 285              		.fpu softvfp
 287              	descreteE:
 288              	.LVL18:
 289              	.LFB6:
  25:Src/Gcode/Descritization_Gcode.c **** static long descreteE (float e)  { return lroundf(e*STEPS_PER_MM_E);   }
 290              		.loc 1 25 34 is_stmt 1 view -0
 291              		.cfi_startproc
 292              		@ args = 0, pretend = 0, frame = 0
 293              		@ frame_needed = 0, uses_anonymous_args = 0
 294              		.loc 1 25 34 is_stmt 0 view .LVU54
 295 0000 08B5     		push	{r3, lr}
 296              	.LCFI7:
 297              		.cfi_def_cfa_offset 8
 298              		.cfi_offset 3, -8
 299              		.cfi_offset 14, -4
 300              		.loc 1 25 36 is_stmt 1 view .LVU55
 301              		.loc 1 25 43 is_stmt 0 view .LVU56
 302 0002 0349     		ldr	r1, .L27
 303 0004 FFF7FEFF 		bl	__aeabi_fmul
 304              	.LVL19:
 305              		.loc 1 25 43 view .LVU57
 306 0008 FFF7FEFF 		bl	lroundf
 307              	.LVL20:
 308              		.loc 1 25 1 view .LVU58
 309 000c 08BD     		pop	{r3, pc}
 310              	.L28:
 311 000e 00BF     		.align	2
 312              	.L27:
 313 0010 00002043 		.word	1126170624
 314              		.cfi_endproc
 315              	.LFE6:
 317              		.section	.text.createDescretization_Gcode,"ax",%progbits
 318              		.align	1
 319              		.global	createDescretization_Gcode
 320              		.syntax unified
 321              		.thumb
 322              		.thumb_func
 323              		.fpu softvfp
 325              	createDescretization_Gcode:
 326              	.LFB7:
  26:Src/Gcode/Descritization_Gcode.c **** 
  27:Src/Gcode/Descritization_Gcode.c **** 
  28:Src/Gcode/Descritization_Gcode.c **** void createDescretization_Gcode(void)
  29:Src/Gcode/Descritization_Gcode.c **** {
 327              		.loc 1 29 1 is_stmt 1 view -0
 328              		.cfi_startproc
ARM GAS  /tmp/ccjBfJPm.s 			page 7


 329              		@ args = 0, pretend = 0, frame = 0
 330              		@ frame_needed = 0, uses_anonymous_args = 0
 331 0000 F0B5     		push	{r4, r5, r6, r7, lr}
 332              	.LCFI8:
 333              		.cfi_def_cfa_offset 20
 334              		.cfi_offset 4, -20
 335              		.cfi_offset 5, -16
 336              		.cfi_offset 6, -12
 337              		.cfi_offset 7, -8
 338              		.cfi_offset 14, -4
 339 0002 87B0     		sub	sp, sp, #28
 340              	.LCFI9:
 341              		.cfi_def_cfa_offset 48
  30:Src/Gcode/Descritization_Gcode.c ****     descreteCommand.type = EMPTY_COMMAND;
 342              		.loc 1 30 5 view .LVU60
 343              		.loc 1 30 26 is_stmt 0 view .LVU61
 344 0004 0024     		movs	r4, #0
 345 0006 0E4B     		ldr	r3, .L31
 346 0008 1C70     		strb	r4, [r3]
  31:Src/Gcode/Descritization_Gcode.c ****     setCommand(0, 0, 0, 0,
 347              		.loc 1 31 5 is_stmt 1 view .LVU62
 348 000a 0E4F     		ldr	r7, .L31+4
 349 000c 3846     		mov	r0, r7
 350 000e FFF7FEFF 		bl	descreteSpeedXY
 351              	.LVL21:
 352 0012 0546     		mov	r5, r0
 353 0014 3846     		mov	r0, r7
 354 0016 FFF7FEFF 		bl	descreteSpeedZ
 355              	.LVL22:
 356 001a 0646     		mov	r6, r0
 357 001c 3846     		mov	r0, r7
 358 001e FFF7FEFF 		bl	descreteSpeedE
 359              	.LVL23:
 360 0022 0023     		movs	r3, #0
 361 0024 0493     		str	r3, [sp, #16]	@ float
 362 0026 0393     		str	r3, [sp, #12]	@ float
 363 0028 0290     		str	r0, [sp, #8]	@ float
 364 002a 0196     		str	r6, [sp, #4]	@ float
 365 002c 0095     		str	r5, [sp]	@ float
 366 002e 2346     		mov	r3, r4
 367 0030 2246     		mov	r2, r4
 368 0032 2146     		mov	r1, r4
 369 0034 2046     		mov	r0, r4
 370 0036 FFF7FEFF 		bl	setCommand
 371              	.LVL24:
  32:Src/Gcode/Descritization_Gcode.c ****                 descreteSpeedXY(F_DEFAULT), descreteSpeedZ(F_DEFAULT), descreteSpeedE(F_DEFAULT),
  33:Src/Gcode/Descritization_Gcode.c ****                     0, 0);
  34:Src/Gcode/Descritization_Gcode.c **** }
 372              		.loc 1 34 1 is_stmt 0 view .LVU63
 373 003a 07B0     		add	sp, sp, #28
 374              	.LCFI10:
 375              		.cfi_def_cfa_offset 20
 376              		@ sp needed
 377 003c F0BD     		pop	{r4, r5, r6, r7, pc}
 378              	.L32:
 379 003e 00BF     		.align	2
 380              	.L31:
ARM GAS  /tmp/ccjBfJPm.s 			page 8


 381 0040 00000000 		.word	.LANCHOR0
 382 0044 00007A44 		.word	1148846080
 383              		.cfi_endproc
 384              	.LFE7:
 386              		.section	.text.getDescreteCommand_Gcode,"ax",%progbits
 387              		.align	1
 388              		.global	getDescreteCommand_Gcode
 389              		.syntax unified
 390              		.thumb
 391              		.thumb_func
 392              		.fpu softvfp
 394              	getDescreteCommand_Gcode:
 395              	.LVL25:
 396              	.LFB8:
  35:Src/Gcode/Descritization_Gcode.c **** 
  36:Src/Gcode/Descritization_Gcode.c **** const descreteCommand_Gcode getDescreteCommand_Gcode() {return descreteCommand;}
 397              		.loc 1 36 56 is_stmt 1 view -0
 398              		.cfi_startproc
 399              		@ args = 0, pretend = 0, frame = 0
 400              		@ frame_needed = 0, uses_anonymous_args = 0
 401              		@ link register save eliminated.
 402              		.loc 1 36 56 is_stmt 0 view .LVU65
 403 0000 70B4     		push	{r4, r5, r6}
 404              	.LCFI11:
 405              		.cfi_def_cfa_offset 12
 406              		.cfi_offset 4, -12
 407              		.cfi_offset 5, -8
 408              		.cfi_offset 6, -4
 409 0002 0646     		mov	r6, r0
 410              		.loc 1 36 57 is_stmt 1 view .LVU66
 411              		.loc 1 36 64 is_stmt 0 view .LVU67
 412 0004 0446     		mov	r4, r0
 413 0006 064D     		ldr	r5, .L35
 414 0008 0FCD     		ldmia	r5!, {r0, r1, r2, r3}
 415              	.LVL26:
 416              		.loc 1 36 64 view .LVU68
 417 000a 0FC4     		stmia	r4!, {r0, r1, r2, r3}
 418              	.LVL27:
 419              		.loc 1 36 64 view .LVU69
 420 000c 0FCD     		ldmia	r5!, {r0, r1, r2, r3}
 421 000e 0FC4     		stmia	r4!, {r0, r1, r2, r3}
 422 0010 95E80300 		ldm	r5, {r0, r1}
 423 0014 84E80300 		stm	r4, {r0, r1}
 424              		.loc 1 36 1 view .LVU70
 425 0018 3046     		mov	r0, r6
 426 001a 70BC     		pop	{r4, r5, r6}
 427              	.LCFI12:
 428              		.cfi_restore 6
 429              		.cfi_restore 5
 430              		.cfi_restore 4
 431              		.cfi_def_cfa_offset 0
 432              	.LVL28:
 433              		.loc 1 36 1 view .LVU71
 434 001c 7047     		bx	lr
 435              	.L36:
 436 001e 00BF     		.align	2
 437              	.L35:
ARM GAS  /tmp/ccjBfJPm.s 			page 9


 438 0020 00000000 		.word	.LANCHOR0
 439              		.cfi_endproc
 440              	.LFE8:
 442              		.section	.text.setDescreteCommand_Gcode,"ax",%progbits
 443              		.align	1
 444              		.global	setDescreteCommand_Gcode
 445              		.syntax unified
 446              		.thumb
 447              		.thumb_func
 448              		.fpu softvfp
 450              	setDescreteCommand_Gcode:
 451              	.LFB9:
  37:Src/Gcode/Descritization_Gcode.c **** 
  38:Src/Gcode/Descritization_Gcode.c **** void setDescreteCommand_Gcode(convertedCommand_Gcode convertedCommand)
  39:Src/Gcode/Descritization_Gcode.c **** {
 452              		.loc 1 39 1 is_stmt 1 view -0
 453              		.cfi_startproc
 454              		@ args = 32, pretend = 16, frame = 0
 455              		@ frame_needed = 0, uses_anonymous_args = 0
 456 0000 84B0     		sub	sp, sp, #16
 457              	.LCFI13:
 458              		.cfi_def_cfa_offset 16
 459 0002 2DE9F047 		push	{r4, r5, r6, r7, r8, r9, r10, lr}
 460              	.LCFI14:
 461              		.cfi_def_cfa_offset 48
 462              		.cfi_offset 4, -48
 463              		.cfi_offset 5, -44
 464              		.cfi_offset 6, -40
 465              		.cfi_offset 7, -36
 466              		.cfi_offset 8, -32
 467              		.cfi_offset 9, -28
 468              		.cfi_offset 10, -24
 469              		.cfi_offset 14, -20
 470 0006 86B0     		sub	sp, sp, #24
 471              	.LCFI15:
 472              		.cfi_def_cfa_offset 72
 473 0008 0EAC     		add	r4, sp, #56
 474 000a 84E80F00 		stm	r4, {r0, r1, r2, r3}
  40:Src/Gcode/Descritization_Gcode.c ****     descreteCommand.type = convertedCommand.type;
 475              		.loc 1 40 5 view .LVU73
 476              		.loc 1 40 44 is_stmt 0 view .LVU74
 477 000e 9DF83820 		ldrb	r2, [sp, #56]	@ zero_extendqisi2
 478              		.loc 1 40 26 view .LVU75
 479 0012 194B     		ldr	r3, .L39
 480 0014 1A70     		strb	r2, [r3]
  41:Src/Gcode/Descritization_Gcode.c **** 
  42:Src/Gcode/Descritization_Gcode.c ****     setCommand(descreteXY(convertedCommand.X), descreteXY(convertedCommand.Y), descreteZ(convertedC
 481              		.loc 1 42 5 is_stmt 1 view .LVU76
 482 0016 0F98     		ldr	r0, [sp, #60]	@ float
 483 0018 FFF7FEFF 		bl	descreteXY
 484              	.LVL29:
 485 001c 0446     		mov	r4, r0
 486 001e 1098     		ldr	r0, [sp, #64]	@ float
 487 0020 FFF7FEFF 		bl	descreteXY
 488              	.LVL30:
 489 0024 0546     		mov	r5, r0
 490 0026 1198     		ldr	r0, [sp, #68]	@ float
ARM GAS  /tmp/ccjBfJPm.s 			page 10


 491 0028 FFF7FEFF 		bl	descreteZ
 492              	.LVL31:
 493 002c 0646     		mov	r6, r0
 494 002e 1298     		ldr	r0, [sp, #72]	@ float
 495 0030 FFF7FEFF 		bl	descreteE
 496              	.LVL32:
 497 0034 0746     		mov	r7, r0
 498 0036 DDF84CA0 		ldr	r10, [sp, #76]	@ float
 499 003a 5046     		mov	r0, r10
 500 003c FFF7FEFF 		bl	descreteSpeedXY
 501              	.LVL33:
 502 0040 8046     		mov	r8, r0
 503 0042 5046     		mov	r0, r10
 504 0044 FFF7FEFF 		bl	descreteSpeedZ
 505              	.LVL34:
 506 0048 8146     		mov	r9, r0
 507 004a 5046     		mov	r0, r10
 508 004c FFF7FEFF 		bl	descreteSpeedE
 509              	.LVL35:
 510 0050 149B     		ldr	r3, [sp, #80]	@ float
 511 0052 0493     		str	r3, [sp, #16]	@ float
 512 0054 159B     		ldr	r3, [sp, #84]	@ float
 513 0056 0393     		str	r3, [sp, #12]	@ float
 514 0058 0290     		str	r0, [sp, #8]	@ float
 515 005a CDF80490 		str	r9, [sp, #4]	@ float
 516 005e CDF80080 		str	r8, [sp]	@ float
 517 0062 3B46     		mov	r3, r7
 518 0064 3246     		mov	r2, r6
 519 0066 2946     		mov	r1, r5
 520 0068 2046     		mov	r0, r4
 521 006a FFF7FEFF 		bl	setCommand
 522              	.LVL36:
  43:Src/Gcode/Descritization_Gcode.c ****                 descreteSpeedXY(convertedCommand.F), descreteSpeedZ(convertedCommand.F), descreteSp
  44:Src/Gcode/Descritization_Gcode.c ****                     convertedCommand.bedT, convertedCommand.extrT);
  45:Src/Gcode/Descritization_Gcode.c **** }
 523              		.loc 1 45 1 is_stmt 0 view .LVU77
 524 006e 06B0     		add	sp, sp, #24
 525              	.LCFI16:
 526              		.cfi_def_cfa_offset 48
 527              		@ sp needed
 528 0070 BDE8F047 		pop	{r4, r5, r6, r7, r8, r9, r10, lr}
 529              	.LCFI17:
 530              		.cfi_restore 14
 531              		.cfi_restore 10
 532              		.cfi_restore 9
 533              		.cfi_restore 8
 534              		.cfi_restore 7
 535              		.cfi_restore 6
 536              		.cfi_restore 5
 537              		.cfi_restore 4
 538              		.cfi_def_cfa_offset 16
 539 0074 04B0     		add	sp, sp, #16
 540              	.LCFI18:
 541              		.cfi_def_cfa_offset 0
 542 0076 7047     		bx	lr
 543              	.L40:
 544              		.align	2
ARM GAS  /tmp/ccjBfJPm.s 			page 11


 545              	.L39:
 546 0078 00000000 		.word	.LANCHOR0
 547              		.cfi_endproc
 548              	.LFE9:
 550              		.section	.bss.descreteCommand,"aw",%nobits
 551              		.align	2
 552              		.set	.LANCHOR0,. + 0
 555              	descreteCommand:
 556 0000 00000000 		.space	40
 556      00000000 
 556      00000000 
 556      00000000 
 556      00000000 
 557              		.text
 558              	.Letext0:
 559              		.file 2 "Inc/Gcode/Config_Gcode.h"
 560              		.file 3 "Inc/Gcode/GcodeConverter_Gcode.h"
 561              		.file 4 "Inc/Gcode/Descritization_Gcode.h"
 562              		.file 5 "/usr/lib/gcc/arm-none-eabi/9.2.1/include/stddef.h"
 563              		.file 6 "/usr/include/newlib/sys/_types.h"
 564              		.file 7 "/usr/include/newlib/sys/reent.h"
 565              		.file 8 "/usr/include/newlib/sys/lock.h"
 566              		.file 9 "/usr/include/newlib/math.h"
ARM GAS  /tmp/ccjBfJPm.s 			page 12


DEFINED SYMBOLS
                            *ABS*:0000000000000000 Descritization_Gcode.c
     /tmp/ccjBfJPm.s:16     .text.setCommand:0000000000000000 $t
     /tmp/ccjBfJPm.s:23     .text.setCommand:0000000000000000 setCommand
     /tmp/ccjBfJPm.s:83     .text.setCommand:0000000000000024 $d
     /tmp/ccjBfJPm.s:90     .text.descreteSpeedXY:0000000000000000 $t
     /tmp/ccjBfJPm.s:96     .text.descreteSpeedXY:0000000000000000 descreteSpeedXY
     /tmp/ccjBfJPm.s:123    .text.descreteSpeedXY:0000000000000010 $d
     /tmp/ccjBfJPm.s:129    .text.descreteSpeedZ:0000000000000000 $t
     /tmp/ccjBfJPm.s:135    .text.descreteSpeedZ:0000000000000000 descreteSpeedZ
     /tmp/ccjBfJPm.s:162    .text.descreteSpeedZ:0000000000000010 $d
     /tmp/ccjBfJPm.s:168    .text.descreteSpeedE:0000000000000000 $t
     /tmp/ccjBfJPm.s:174    .text.descreteSpeedE:0000000000000000 descreteSpeedE
     /tmp/ccjBfJPm.s:201    .text.descreteSpeedE:0000000000000010 $d
     /tmp/ccjBfJPm.s:207    .text.descreteXY:0000000000000000 $t
     /tmp/ccjBfJPm.s:213    .text.descreteXY:0000000000000000 descreteXY
     /tmp/ccjBfJPm.s:239    .text.descreteXY:0000000000000010 $d
     /tmp/ccjBfJPm.s:244    .text.descreteZ:0000000000000000 $t
     /tmp/ccjBfJPm.s:250    .text.descreteZ:0000000000000000 descreteZ
     /tmp/ccjBfJPm.s:276    .text.descreteZ:0000000000000010 $d
     /tmp/ccjBfJPm.s:281    .text.descreteE:0000000000000000 $t
     /tmp/ccjBfJPm.s:287    .text.descreteE:0000000000000000 descreteE
     /tmp/ccjBfJPm.s:313    .text.descreteE:0000000000000010 $d
     /tmp/ccjBfJPm.s:318    .text.createDescretization_Gcode:0000000000000000 $t
     /tmp/ccjBfJPm.s:325    .text.createDescretization_Gcode:0000000000000000 createDescretization_Gcode
     /tmp/ccjBfJPm.s:381    .text.createDescretization_Gcode:0000000000000040 $d
     /tmp/ccjBfJPm.s:387    .text.getDescreteCommand_Gcode:0000000000000000 $t
     /tmp/ccjBfJPm.s:394    .text.getDescreteCommand_Gcode:0000000000000000 getDescreteCommand_Gcode
     /tmp/ccjBfJPm.s:438    .text.getDescreteCommand_Gcode:0000000000000020 $d
     /tmp/ccjBfJPm.s:443    .text.setDescreteCommand_Gcode:0000000000000000 $t
     /tmp/ccjBfJPm.s:450    .text.setDescreteCommand_Gcode:0000000000000000 setDescreteCommand_Gcode
     /tmp/ccjBfJPm.s:546    .text.setDescreteCommand_Gcode:0000000000000078 $d
     /tmp/ccjBfJPm.s:551    .bss.descreteCommand:0000000000000000 $d
     /tmp/ccjBfJPm.s:555    .bss.descreteCommand:0000000000000000 descreteCommand

UNDEFINED SYMBOLS
__aeabi_fmul
__aeabi_fdiv
lroundf
