ARM GAS  /tmp/ccR5Y2I8.s 			page 1


   1              		.cpu cortex-m3
   2              		.eabi_attribute 20, 1
   3              		.eabi_attribute 21, 1
   4              		.eabi_attribute 23, 3
   5              		.eabi_attribute 24, 1
   6              		.eabi_attribute 25, 1
   7              		.eabi_attribute 26, 1
   8              		.eabi_attribute 30, 1
   9              		.eabi_attribute 34, 1
  10              		.eabi_attribute 18, 4
  11              		.file	"Driver_USBdrive.c"
  12              		.text
  13              	.Ltext0:
  14              		.cfi_sections	.debug_frame
  15              		.section	.text.TCHAR2wchar_t,"ax",%progbits
  16              		.align	1
  17              		.arch armv7-m
  18              		.syntax unified
  19              		.thumb
  20              		.thumb_func
  21              		.fpu softvfp
  23              	TCHAR2wchar_t:
  24              	.LVL0:
  25              	.LFB72:
  26              		.file 1 "Src/USB/Driver_USBdrive.c"
   1:Src/USB/Driver_USBdrive.c **** #include "Driver_USBdrive.h"
   2:Src/USB/Driver_USBdrive.c **** #include "string.h"
   3:Src/USB/Driver_USBdrive.c **** #include "stdio.h"
   4:Src/USB/Driver_USBdrive.c **** #include "stdbool.h"
   5:Src/USB/Driver_USBdrive.c **** 
   6:Src/USB/Driver_USBdrive.c **** #include "fatfs.h"
   7:Src/USB/Driver_USBdrive.c **** #include "ff.h"
   8:Src/USB/Driver_USBdrive.c **** 
   9:Src/USB/Driver_USBdrive.c **** static const TCHAR zeroPath_USBdriver[PATH_LENGTH] = "";
  10:Src/USB/Driver_USBdrive.c **** 
  11:Src/USB/Driver_USBdrive.c **** static mountedStatus_USBdrive currentMountedStatus_USBdrive;
  12:Src/USB/Driver_USBdrive.c **** static TCHAR path[PATH_LENGTH];
  13:Src/USB/Driver_USBdrive.c **** static FATFS USBDISKFatFs;
  14:Src/USB/Driver_USBdrive.c **** static DIR directory;
  15:Src/USB/Driver_USBdrive.c **** static FILINFO fileInformation;
  16:Src/USB/Driver_USBdrive.c **** static FIL file;
  17:Src/USB/Driver_USBdrive.c **** static TCHAR fname_arr[_MAX_LFN];
  18:Src/USB/Driver_USBdrive.c **** 
  19:Src/USB/Driver_USBdrive.c **** void createDriver_USBdrive(void)
  20:Src/USB/Driver_USBdrive.c **** {
  21:Src/USB/Driver_USBdrive.c ****     currentMountedStatus_USBdrive = UNMOUNTED_USBDRIVE;
  22:Src/USB/Driver_USBdrive.c ****     memcpy(path, zeroPath_USBdriver, PATH_LENGTH);
  23:Src/USB/Driver_USBdrive.c ****     sprintf(fileInformation.fname, "%s", "");
  24:Src/USB/Driver_USBdrive.c ****     fileInformation.lfsize = _MAX_LFN;
  25:Src/USB/Driver_USBdrive.c ****     fileInformation.lfname = fname_arr;
  26:Src/USB/Driver_USBdrive.c ****     sprintf(fileInformation.lfname, "%s", "");
  27:Src/USB/Driver_USBdrive.c **** }
  28:Src/USB/Driver_USBdrive.c **** 
  29:Src/USB/Driver_USBdrive.c **** void mount_USBdrive(void)
  30:Src/USB/Driver_USBdrive.c **** {
  31:Src/USB/Driver_USBdrive.c ****     if(currentMountedStatus_USBdrive == MOUNTED_USBDRIVE)
  32:Src/USB/Driver_USBdrive.c ****         return;
ARM GAS  /tmp/ccR5Y2I8.s 			page 2


  33:Src/USB/Driver_USBdrive.c **** 
  34:Src/USB/Driver_USBdrive.c ****     if(f_mount(&USBDISKFatFs, USBHPath, 0) == FR_OK)
  35:Src/USB/Driver_USBdrive.c ****     {
  36:Src/USB/Driver_USBdrive.c ****         currentMountedStatus_USBdrive = MOUNTED_USBDRIVE;
  37:Src/USB/Driver_USBdrive.c ****         sprintf(path, "%s", USBHPath);
  38:Src/USB/Driver_USBdrive.c ****         return;
  39:Src/USB/Driver_USBdrive.c ****     }
  40:Src/USB/Driver_USBdrive.c **** 
  41:Src/USB/Driver_USBdrive.c ****     currentMountedStatus_USBdrive = UNMOUNTED_USBDRIVE;
  42:Src/USB/Driver_USBdrive.c **** }
  43:Src/USB/Driver_USBdrive.c **** 
  44:Src/USB/Driver_USBdrive.c **** void unmount_USBdrive(void)
  45:Src/USB/Driver_USBdrive.c **** {
  46:Src/USB/Driver_USBdrive.c ****     if (currentMountedStatus_USBdrive == UNMOUNTED_USBDRIVE)
  47:Src/USB/Driver_USBdrive.c ****         return;
  48:Src/USB/Driver_USBdrive.c **** 
  49:Src/USB/Driver_USBdrive.c ****     sprintf(USBHPath, "%c",'\0');
  50:Src/USB/Driver_USBdrive.c ****     memcpy(path, zeroPath_USBdriver, PATH_LENGTH);
  51:Src/USB/Driver_USBdrive.c **** 
  52:Src/USB/Driver_USBdrive.c ****     while (f_mount(NULL, USBHPath, 0) != FR_OK) {};
  53:Src/USB/Driver_USBdrive.c **** 
  54:Src/USB/Driver_USBdrive.c ****     currentMountedStatus_USBdrive = UNMOUNTED_USBDRIVE;
  55:Src/USB/Driver_USBdrive.c **** }
  56:Src/USB/Driver_USBdrive.c **** 
  57:Src/USB/Driver_USBdrive.c **** mountedStatus_USBdrive getMountedStatus(void) { return currentMountedStatus_USBdrive;}
  58:Src/USB/Driver_USBdrive.c **** 
  59:Src/USB/Driver_USBdrive.c **** 
  60:Src/USB/Driver_USBdrive.c **** static wchar_t TCHAR2wchar_t(TCHAR character)
  61:Src/USB/Driver_USBdrive.c **** {
  27              		.loc 1 61 1 view -0
  28              		.cfi_startproc
  29              		@ args = 0, pretend = 0, frame = 0
  30              		@ frame_needed = 0, uses_anonymous_args = 0
  31              		@ link register save eliminated.
  62:Src/USB/Driver_USBdrive.c ****     if(character == (TCHAR) 0xA0) return *L"а";
  32              		.loc 1 62 5 view .LVU1
  33              		.loc 1 62 7 is_stmt 0 view .LVU2
  34 0000 A028     		cmp	r0, #160
  35 0002 00F0C480 		beq	.L3
  63:Src/USB/Driver_USBdrive.c ****     if(character == (TCHAR) 0xA1) return *L"б";
  36              		.loc 1 63 5 is_stmt 1 view .LVU3
  37              		.loc 1 63 7 is_stmt 0 view .LVU4
  38 0006 A128     		cmp	r0, #161
  39 0008 00F0C480 		beq	.L4
  64:Src/USB/Driver_USBdrive.c ****     if(character == (TCHAR) 0xA2) return *L"в";
  40              		.loc 1 64 5 is_stmt 1 view .LVU5
  41              		.loc 1 64 7 is_stmt 0 view .LVU6
  42 000c A228     		cmp	r0, #162
  43 000e 00F0C480 		beq	.L5
  65:Src/USB/Driver_USBdrive.c ****     if(character == (TCHAR) 0xA3) return *L"г";
  44              		.loc 1 65 5 is_stmt 1 view .LVU7
  45              		.loc 1 65 7 is_stmt 0 view .LVU8
  46 0012 A328     		cmp	r0, #163
  47 0014 00F0C480 		beq	.L6
  66:Src/USB/Driver_USBdrive.c ****     if(character == (TCHAR) 0xA4) return *L"д";
  48              		.loc 1 66 5 is_stmt 1 view .LVU9
  49              		.loc 1 66 7 is_stmt 0 view .LVU10
ARM GAS  /tmp/ccR5Y2I8.s 			page 3


  50 0018 A428     		cmp	r0, #164
  51 001a 00F0C480 		beq	.L7
  67:Src/USB/Driver_USBdrive.c ****     if(character == (TCHAR) 0xA5) return *L"е";
  52              		.loc 1 67 5 is_stmt 1 view .LVU11
  53              		.loc 1 67 7 is_stmt 0 view .LVU12
  54 001e A528     		cmp	r0, #165
  55 0020 00F0C480 		beq	.L8
  68:Src/USB/Driver_USBdrive.c ****     if(character == (TCHAR) 0xF1) return *L"ё";
  56              		.loc 1 68 5 is_stmt 1 view .LVU13
  57              		.loc 1 68 7 is_stmt 0 view .LVU14
  58 0024 F128     		cmp	r0, #241
  59 0026 00F0C480 		beq	.L9
  69:Src/USB/Driver_USBdrive.c ****     if(character == (TCHAR) 0xA6) return *L"ж";
  60              		.loc 1 69 5 is_stmt 1 view .LVU15
  61              		.loc 1 69 7 is_stmt 0 view .LVU16
  62 002a A628     		cmp	r0, #166
  63 002c 00F0C480 		beq	.L10
  70:Src/USB/Driver_USBdrive.c ****     if(character == (TCHAR) 0xA7) return *L"з";
  64              		.loc 1 70 5 is_stmt 1 view .LVU17
  65              		.loc 1 70 7 is_stmt 0 view .LVU18
  66 0030 A728     		cmp	r0, #167
  67 0032 00F0C480 		beq	.L11
  71:Src/USB/Driver_USBdrive.c ****     if(character == (TCHAR) 0xA8) return *L"и";
  68              		.loc 1 71 5 is_stmt 1 view .LVU19
  69              		.loc 1 71 7 is_stmt 0 view .LVU20
  70 0036 A828     		cmp	r0, #168
  71 0038 00F0C480 		beq	.L12
  72:Src/USB/Driver_USBdrive.c ****     if(character == (TCHAR) 0xA9) return *L"й";
  72              		.loc 1 72 5 is_stmt 1 view .LVU21
  73              		.loc 1 72 7 is_stmt 0 view .LVU22
  74 003c A928     		cmp	r0, #169
  75 003e 00F0C480 		beq	.L13
  73:Src/USB/Driver_USBdrive.c ****     if(character == (TCHAR) 0xAA) return *L"к";
  76              		.loc 1 73 5 is_stmt 1 view .LVU23
  77              		.loc 1 73 7 is_stmt 0 view .LVU24
  78 0042 AA28     		cmp	r0, #170
  79 0044 00F0C480 		beq	.L14
  74:Src/USB/Driver_USBdrive.c ****     if(character == (TCHAR) 0xAB) return *L"л";
  80              		.loc 1 74 5 is_stmt 1 view .LVU25
  81              		.loc 1 74 7 is_stmt 0 view .LVU26
  82 0048 AB28     		cmp	r0, #171
  83 004a 00F0C480 		beq	.L15
  75:Src/USB/Driver_USBdrive.c ****     if(character == (TCHAR) 0xAC) return *L"м";
  84              		.loc 1 75 5 is_stmt 1 view .LVU27
  85              		.loc 1 75 7 is_stmt 0 view .LVU28
  86 004e AC28     		cmp	r0, #172
  87 0050 00F0C480 		beq	.L16
  76:Src/USB/Driver_USBdrive.c ****     if(character == (TCHAR) 0xAD) return *L"н";
  88              		.loc 1 76 5 is_stmt 1 view .LVU29
  89              		.loc 1 76 7 is_stmt 0 view .LVU30
  90 0054 AD28     		cmp	r0, #173
  91 0056 00F0C480 		beq	.L17
  77:Src/USB/Driver_USBdrive.c ****     if(character == (TCHAR) 0xAE) return *L"о";
  92              		.loc 1 77 5 is_stmt 1 view .LVU31
  93              		.loc 1 77 7 is_stmt 0 view .LVU32
  94 005a AE28     		cmp	r0, #174
  95 005c 00F0C480 		beq	.L18
ARM GAS  /tmp/ccR5Y2I8.s 			page 4


  78:Src/USB/Driver_USBdrive.c ****     if(character == (TCHAR) 0xAF) return *L"п";
  96              		.loc 1 78 5 is_stmt 1 view .LVU33
  97              		.loc 1 78 7 is_stmt 0 view .LVU34
  98 0060 AF28     		cmp	r0, #175
  99 0062 00F0C480 		beq	.L19
  79:Src/USB/Driver_USBdrive.c ****     if(character == (TCHAR) 0xE0) return *L"р";
 100              		.loc 1 79 5 is_stmt 1 view .LVU35
 101              		.loc 1 79 7 is_stmt 0 view .LVU36
 102 0066 E028     		cmp	r0, #224
 103 0068 00F0C480 		beq	.L20
  80:Src/USB/Driver_USBdrive.c ****     if(character == (TCHAR) 0xE1) return *L"с";
 104              		.loc 1 80 5 is_stmt 1 view .LVU37
 105              		.loc 1 80 7 is_stmt 0 view .LVU38
 106 006c E128     		cmp	r0, #225
 107 006e 00F0C480 		beq	.L21
  81:Src/USB/Driver_USBdrive.c ****     if(character == (TCHAR) 0xE2) return *L"т";
 108              		.loc 1 81 5 is_stmt 1 view .LVU39
 109              		.loc 1 81 7 is_stmt 0 view .LVU40
 110 0072 E228     		cmp	r0, #226
 111 0074 00F0C480 		beq	.L22
  82:Src/USB/Driver_USBdrive.c ****     if(character == (TCHAR) 0xE3) return *L"у";
 112              		.loc 1 82 5 is_stmt 1 view .LVU41
 113              		.loc 1 82 7 is_stmt 0 view .LVU42
 114 0078 E328     		cmp	r0, #227
 115 007a 00F0C480 		beq	.L23
  83:Src/USB/Driver_USBdrive.c ****     if(character == (TCHAR) 0xE4) return *L"ф";
 116              		.loc 1 83 5 is_stmt 1 view .LVU43
 117              		.loc 1 83 7 is_stmt 0 view .LVU44
 118 007e E428     		cmp	r0, #228
 119 0080 00F0C480 		beq	.L24
  84:Src/USB/Driver_USBdrive.c ****     if(character == (TCHAR) 0xE5) return *L"х";
 120              		.loc 1 84 5 is_stmt 1 view .LVU45
 121              		.loc 1 84 7 is_stmt 0 view .LVU46
 122 0084 E528     		cmp	r0, #229
 123 0086 00F0C480 		beq	.L25
  85:Src/USB/Driver_USBdrive.c ****     if(character == (TCHAR) 0xE6) return *L"ц";
 124              		.loc 1 85 5 is_stmt 1 view .LVU47
 125              		.loc 1 85 7 is_stmt 0 view .LVU48
 126 008a E628     		cmp	r0, #230
 127 008c 00F0C480 		beq	.L26
  86:Src/USB/Driver_USBdrive.c ****     if(character == (TCHAR) 0xE7) return *L"ч";
 128              		.loc 1 86 5 is_stmt 1 view .LVU49
 129              		.loc 1 86 7 is_stmt 0 view .LVU50
 130 0090 E728     		cmp	r0, #231
 131 0092 00F0C480 		beq	.L27
  87:Src/USB/Driver_USBdrive.c ****     if(character == (TCHAR) 0xE8) return *L"ш";
 132              		.loc 1 87 5 is_stmt 1 view .LVU51
 133              		.loc 1 87 7 is_stmt 0 view .LVU52
 134 0096 E828     		cmp	r0, #232
 135 0098 00F0C480 		beq	.L28
  88:Src/USB/Driver_USBdrive.c ****     if(character == (TCHAR) 0xE9) return *L"щ";
 136              		.loc 1 88 5 is_stmt 1 view .LVU53
 137              		.loc 1 88 7 is_stmt 0 view .LVU54
 138 009c E928     		cmp	r0, #233
 139 009e 00F0C480 		beq	.L29
  89:Src/USB/Driver_USBdrive.c ****     if(character == (TCHAR) 0xEA) return *L"ъ";
 140              		.loc 1 89 5 is_stmt 1 view .LVU55
ARM GAS  /tmp/ccR5Y2I8.s 			page 5


 141              		.loc 1 89 7 is_stmt 0 view .LVU56
 142 00a2 EA28     		cmp	r0, #234
 143 00a4 00F0C480 		beq	.L30
  90:Src/USB/Driver_USBdrive.c ****     if(character == (TCHAR) 0xEB) return *L"ы";
 144              		.loc 1 90 5 is_stmt 1 view .LVU57
 145              		.loc 1 90 7 is_stmt 0 view .LVU58
 146 00a8 EB28     		cmp	r0, #235
 147 00aa 00F0C480 		beq	.L31
  91:Src/USB/Driver_USBdrive.c ****     if(character == (TCHAR) 0xEC) return *L"ь";
 148              		.loc 1 91 5 is_stmt 1 view .LVU59
 149              		.loc 1 91 7 is_stmt 0 view .LVU60
 150 00ae EC28     		cmp	r0, #236
 151 00b0 00F0C480 		beq	.L32
  92:Src/USB/Driver_USBdrive.c ****     if(character == (TCHAR) 0xED) return *L"э";
 152              		.loc 1 92 5 is_stmt 1 view .LVU61
 153              		.loc 1 92 7 is_stmt 0 view .LVU62
 154 00b4 ED28     		cmp	r0, #237
 155 00b6 00F0C480 		beq	.L33
  93:Src/USB/Driver_USBdrive.c ****     if(character == (TCHAR) 0xEE) return *L"ю";
 156              		.loc 1 93 5 is_stmt 1 view .LVU63
 157              		.loc 1 93 7 is_stmt 0 view .LVU64
 158 00ba EE28     		cmp	r0, #238
 159 00bc 00F0C480 		beq	.L34
  94:Src/USB/Driver_USBdrive.c ****     if(character == (TCHAR) 0xEF) return *L"я";
 160              		.loc 1 94 5 is_stmt 1 view .LVU65
 161              		.loc 1 94 7 is_stmt 0 view .LVU66
 162 00c0 EF28     		cmp	r0, #239
 163 00c2 00F0C480 		beq	.L35
  95:Src/USB/Driver_USBdrive.c ****     if(character == (TCHAR) 0x80) return *L"А";
 164              		.loc 1 95 5 is_stmt 1 view .LVU67
 165              		.loc 1 95 7 is_stmt 0 view .LVU68
 166 00c6 8028     		cmp	r0, #128
 167 00c8 00F0C480 		beq	.L36
  96:Src/USB/Driver_USBdrive.c ****     if(character == (TCHAR) 0x81) return *L"Б";
 168              		.loc 1 96 5 is_stmt 1 view .LVU69
 169              		.loc 1 96 7 is_stmt 0 view .LVU70
 170 00cc 8128     		cmp	r0, #129
 171 00ce 00F0C480 		beq	.L37
  97:Src/USB/Driver_USBdrive.c ****     if(character == (TCHAR) 0x82) return *L"В";
 172              		.loc 1 97 5 is_stmt 1 view .LVU71
 173              		.loc 1 97 7 is_stmt 0 view .LVU72
 174 00d2 8228     		cmp	r0, #130
 175 00d4 00F0C480 		beq	.L38
  98:Src/USB/Driver_USBdrive.c ****     if(character == (TCHAR) 0x83) return *L"Г";
 176              		.loc 1 98 5 is_stmt 1 view .LVU73
 177              		.loc 1 98 7 is_stmt 0 view .LVU74
 178 00d8 8328     		cmp	r0, #131
 179 00da 00F0C480 		beq	.L39
  99:Src/USB/Driver_USBdrive.c ****     if(character == (TCHAR) 0x84) return *L"Д";
 180              		.loc 1 99 5 is_stmt 1 view .LVU75
 181              		.loc 1 99 7 is_stmt 0 view .LVU76
 182 00de 8428     		cmp	r0, #132
 183 00e0 00F0C480 		beq	.L40
 100:Src/USB/Driver_USBdrive.c ****     if(character == (TCHAR) 0x85) return *L"Е";
 184              		.loc 1 100 5 is_stmt 1 view .LVU77
 185              		.loc 1 100 7 is_stmt 0 view .LVU78
 186 00e4 8528     		cmp	r0, #133
ARM GAS  /tmp/ccR5Y2I8.s 			page 6


 187 00e6 00F0C480 		beq	.L41
 101:Src/USB/Driver_USBdrive.c ****     if(character == (TCHAR) 0xF0) return *L"Ё";
 188              		.loc 1 101 5 is_stmt 1 view .LVU79
 189              		.loc 1 101 7 is_stmt 0 view .LVU80
 190 00ea F028     		cmp	r0, #240
 191 00ec 00F0C480 		beq	.L42
 102:Src/USB/Driver_USBdrive.c ****     if(character == (TCHAR) 0x86) return *L"Ж";
 192              		.loc 1 102 5 is_stmt 1 view .LVU81
 193              		.loc 1 102 7 is_stmt 0 view .LVU82
 194 00f0 8628     		cmp	r0, #134
 195 00f2 00F0C480 		beq	.L43
 103:Src/USB/Driver_USBdrive.c ****     if(character == (TCHAR) 0x87) return *L"З";
 196              		.loc 1 103 5 is_stmt 1 view .LVU83
 197              		.loc 1 103 7 is_stmt 0 view .LVU84
 198 00f6 8728     		cmp	r0, #135
 199 00f8 00F0C480 		beq	.L44
 104:Src/USB/Driver_USBdrive.c ****     if(character == (TCHAR) 0x88) return *L"И";
 200              		.loc 1 104 5 is_stmt 1 view .LVU85
 201              		.loc 1 104 7 is_stmt 0 view .LVU86
 202 00fc 8828     		cmp	r0, #136
 203 00fe 00F0C480 		beq	.L45
 105:Src/USB/Driver_USBdrive.c ****     if(character == (TCHAR) 0x89) return *L"Й";
 204              		.loc 1 105 5 is_stmt 1 view .LVU87
 205              		.loc 1 105 7 is_stmt 0 view .LVU88
 206 0102 8928     		cmp	r0, #137
 207 0104 00F0C480 		beq	.L46
 106:Src/USB/Driver_USBdrive.c ****     if(character == (TCHAR) 0x8A) return *L"К";
 208              		.loc 1 106 5 is_stmt 1 view .LVU89
 209              		.loc 1 106 7 is_stmt 0 view .LVU90
 210 0108 8A28     		cmp	r0, #138
 211 010a 00F0C480 		beq	.L47
 107:Src/USB/Driver_USBdrive.c ****     if(character == (TCHAR) 0x8B) return *L"Л";
 212              		.loc 1 107 5 is_stmt 1 view .LVU91
 213              		.loc 1 107 7 is_stmt 0 view .LVU92
 214 010e 8B28     		cmp	r0, #139
 215 0110 00F0C480 		beq	.L48
 108:Src/USB/Driver_USBdrive.c ****     if(character == (TCHAR) 0x8C) return *L"М";
 216              		.loc 1 108 5 is_stmt 1 view .LVU93
 217              		.loc 1 108 7 is_stmt 0 view .LVU94
 218 0114 8C28     		cmp	r0, #140
 219 0116 00F0C480 		beq	.L49
 109:Src/USB/Driver_USBdrive.c ****     if(character == (TCHAR) 0x8D) return *L"Н";
 220              		.loc 1 109 5 is_stmt 1 view .LVU95
 221              		.loc 1 109 7 is_stmt 0 view .LVU96
 222 011a 8D28     		cmp	r0, #141
 223 011c 00F0C480 		beq	.L50
 110:Src/USB/Driver_USBdrive.c ****     if(character == (TCHAR) 0x8E) return *L"О";
 224              		.loc 1 110 5 is_stmt 1 view .LVU97
 225              		.loc 1 110 7 is_stmt 0 view .LVU98
 226 0120 8E28     		cmp	r0, #142
 227 0122 00F0C480 		beq	.L51
 111:Src/USB/Driver_USBdrive.c ****     if(character == (TCHAR) 0x8F) return *L"П";
 228              		.loc 1 111 5 is_stmt 1 view .LVU99
 229              		.loc 1 111 7 is_stmt 0 view .LVU100
 230 0126 8F28     		cmp	r0, #143
 231 0128 00F0C480 		beq	.L52
 112:Src/USB/Driver_USBdrive.c ****     if(character == (TCHAR) 0x90) return *L"Р";
ARM GAS  /tmp/ccR5Y2I8.s 			page 7


 232              		.loc 1 112 5 is_stmt 1 view .LVU101
 233              		.loc 1 112 7 is_stmt 0 view .LVU102
 234 012c 9028     		cmp	r0, #144
 235 012e 00F0C480 		beq	.L53
 113:Src/USB/Driver_USBdrive.c ****     if(character == (TCHAR) 0x91) return *L"С";
 236              		.loc 1 113 5 is_stmt 1 view .LVU103
 237              		.loc 1 113 7 is_stmt 0 view .LVU104
 238 0132 9128     		cmp	r0, #145
 239 0134 00F0C480 		beq	.L54
 114:Src/USB/Driver_USBdrive.c ****     if(character == (TCHAR) 0x92) return *L"Т";
 240              		.loc 1 114 5 is_stmt 1 view .LVU105
 241              		.loc 1 114 7 is_stmt 0 view .LVU106
 242 0138 9228     		cmp	r0, #146
 243 013a 00F0C480 		beq	.L55
 115:Src/USB/Driver_USBdrive.c ****     if(character == (TCHAR) 0x93) return *L"У";
 244              		.loc 1 115 5 is_stmt 1 view .LVU107
 245              		.loc 1 115 7 is_stmt 0 view .LVU108
 246 013e 9328     		cmp	r0, #147
 247 0140 00F0C480 		beq	.L56
 116:Src/USB/Driver_USBdrive.c ****     if(character == (TCHAR) 0x94) return *L"Ф";
 248              		.loc 1 116 5 is_stmt 1 view .LVU109
 249              		.loc 1 116 7 is_stmt 0 view .LVU110
 250 0144 9428     		cmp	r0, #148
 251 0146 00F0C480 		beq	.L57
 117:Src/USB/Driver_USBdrive.c ****     if(character == (TCHAR) 0x95) return *L"Х";
 252              		.loc 1 117 5 is_stmt 1 view .LVU111
 253              		.loc 1 117 7 is_stmt 0 view .LVU112
 254 014a 9528     		cmp	r0, #149
 255 014c 00F0C480 		beq	.L58
 118:Src/USB/Driver_USBdrive.c ****     if(character == (TCHAR) 0x96) return *L"Ц";
 256              		.loc 1 118 5 is_stmt 1 view .LVU113
 257              		.loc 1 118 7 is_stmt 0 view .LVU114
 258 0150 9628     		cmp	r0, #150
 259 0152 00F0C480 		beq	.L59
 119:Src/USB/Driver_USBdrive.c ****     if(character == (TCHAR) 0x97) return *L"Ч";
 260              		.loc 1 119 5 is_stmt 1 view .LVU115
 261              		.loc 1 119 7 is_stmt 0 view .LVU116
 262 0156 9728     		cmp	r0, #151
 263 0158 00F0C480 		beq	.L60
 120:Src/USB/Driver_USBdrive.c ****     if(character == (TCHAR) 0x98) return *L"Ш";
 264              		.loc 1 120 5 is_stmt 1 view .LVU117
 265              		.loc 1 120 7 is_stmt 0 view .LVU118
 266 015c 9828     		cmp	r0, #152
 267 015e 00F0C480 		beq	.L61
 121:Src/USB/Driver_USBdrive.c ****     if(character == (TCHAR) 0x99) return *L"Щ";
 268              		.loc 1 121 5 is_stmt 1 view .LVU119
 269              		.loc 1 121 7 is_stmt 0 view .LVU120
 270 0162 9928     		cmp	r0, #153
 271 0164 00F0C480 		beq	.L62
 122:Src/USB/Driver_USBdrive.c ****     if(character == (TCHAR) 0x9A) return *L"Ъ";
 272              		.loc 1 122 5 is_stmt 1 view .LVU121
 273              		.loc 1 122 7 is_stmt 0 view .LVU122
 274 0168 9A28     		cmp	r0, #154
 275 016a 00F0C480 		beq	.L63
 123:Src/USB/Driver_USBdrive.c ****     if(character == (TCHAR) 0x9B) return *L"Ы";
 276              		.loc 1 123 5 is_stmt 1 view .LVU123
 277              		.loc 1 123 7 is_stmt 0 view .LVU124
ARM GAS  /tmp/ccR5Y2I8.s 			page 8


 278 016e 9B28     		cmp	r0, #155
 279 0170 00F0C480 		beq	.L64
 124:Src/USB/Driver_USBdrive.c ****     if(character == (TCHAR) 0x9C) return *L"Ь";
 280              		.loc 1 124 5 is_stmt 1 view .LVU125
 281              		.loc 1 124 7 is_stmt 0 view .LVU126
 282 0174 9C28     		cmp	r0, #156
 283 0176 00F0C480 		beq	.L65
 125:Src/USB/Driver_USBdrive.c ****     if(character == (TCHAR) 0x9D) return *L"Э";
 284              		.loc 1 125 5 is_stmt 1 view .LVU127
 285              		.loc 1 125 7 is_stmt 0 view .LVU128
 286 017a 9D28     		cmp	r0, #157
 287 017c 00F0C480 		beq	.L66
 126:Src/USB/Driver_USBdrive.c ****     if(character == (TCHAR) 0x9E) return *L"Ю";
 288              		.loc 1 126 5 is_stmt 1 view .LVU129
 289              		.loc 1 126 7 is_stmt 0 view .LVU130
 290 0180 9E28     		cmp	r0, #158
 291 0182 00F0C480 		beq	.L67
 127:Src/USB/Driver_USBdrive.c ****     if(character == (TCHAR) 0x9F) return *L"Я";
 292              		.loc 1 127 5 is_stmt 1 view .LVU131
 293              		.loc 1 127 7 is_stmt 0 view .LVU132
 294 0186 9F28     		cmp	r0, #159
 295 0188 00F0C480 		beq	.L68
 128:Src/USB/Driver_USBdrive.c ****     return (wchar_t) character;
 296              		.loc 1 128 5 is_stmt 1 view .LVU133
 297              		.loc 1 128 12 is_stmt 0 view .LVU134
 298 018c 7047     		bx	lr
 299              	.L3:
  62:Src/USB/Driver_USBdrive.c ****     if(character == (TCHAR) 0xA1) return *L"б";
 300              		.loc 1 62 42 view .LVU135
 301 018e 4FF48660 		mov	r0, #1072
 302              	.LVL1:
  62:Src/USB/Driver_USBdrive.c ****     if(character == (TCHAR) 0xA1) return *L"б";
 303              		.loc 1 62 42 view .LVU136
 304 0192 7047     		bx	lr
 305              	.LVL2:
 306              	.L4:
  63:Src/USB/Driver_USBdrive.c ****     if(character == (TCHAR) 0xA2) return *L"в";
 307              		.loc 1 63 42 view .LVU137
 308 0194 40F23140 		movw	r0, #1073
 309              	.LVL3:
  63:Src/USB/Driver_USBdrive.c ****     if(character == (TCHAR) 0xA2) return *L"в";
 310              		.loc 1 63 42 view .LVU138
 311 0198 7047     		bx	lr
 312              	.LVL4:
 313              	.L5:
  64:Src/USB/Driver_USBdrive.c ****     if(character == (TCHAR) 0xA3) return *L"г";
 314              		.loc 1 64 42 view .LVU139
 315 019a 40F23240 		movw	r0, #1074
 316              	.LVL5:
  64:Src/USB/Driver_USBdrive.c ****     if(character == (TCHAR) 0xA3) return *L"г";
 317              		.loc 1 64 42 view .LVU140
 318 019e 7047     		bx	lr
 319              	.LVL6:
 320              	.L6:
  65:Src/USB/Driver_USBdrive.c ****     if(character == (TCHAR) 0xA4) return *L"д";
 321              		.loc 1 65 42 view .LVU141
 322 01a0 40F23340 		movw	r0, #1075
ARM GAS  /tmp/ccR5Y2I8.s 			page 9


 323              	.LVL7:
  65:Src/USB/Driver_USBdrive.c ****     if(character == (TCHAR) 0xA4) return *L"д";
 324              		.loc 1 65 42 view .LVU142
 325 01a4 7047     		bx	lr
 326              	.LVL8:
 327              	.L7:
  66:Src/USB/Driver_USBdrive.c ****     if(character == (TCHAR) 0xA5) return *L"е";
 328              		.loc 1 66 42 view .LVU143
 329 01a6 40F23440 		movw	r0, #1076
 330              	.LVL9:
  66:Src/USB/Driver_USBdrive.c ****     if(character == (TCHAR) 0xA5) return *L"е";
 331              		.loc 1 66 42 view .LVU144
 332 01aa 7047     		bx	lr
 333              	.LVL10:
 334              	.L8:
  67:Src/USB/Driver_USBdrive.c ****     if(character == (TCHAR) 0xF1) return *L"ё";
 335              		.loc 1 67 42 view .LVU145
 336 01ac 40F23540 		movw	r0, #1077
 337              	.LVL11:
  67:Src/USB/Driver_USBdrive.c ****     if(character == (TCHAR) 0xF1) return *L"ё";
 338              		.loc 1 67 42 view .LVU146
 339 01b0 7047     		bx	lr
 340              	.LVL12:
 341              	.L9:
  68:Src/USB/Driver_USBdrive.c ****     if(character == (TCHAR) 0xA6) return *L"ж";
 342              		.loc 1 68 42 view .LVU147
 343 01b2 40F25140 		movw	r0, #1105
 344              	.LVL13:
  68:Src/USB/Driver_USBdrive.c ****     if(character == (TCHAR) 0xA6) return *L"ж";
 345              		.loc 1 68 42 view .LVU148
 346 01b6 7047     		bx	lr
 347              	.LVL14:
 348              	.L10:
  69:Src/USB/Driver_USBdrive.c ****     if(character == (TCHAR) 0xA7) return *L"з";
 349              		.loc 1 69 42 view .LVU149
 350 01b8 40F23640 		movw	r0, #1078
 351              	.LVL15:
  69:Src/USB/Driver_USBdrive.c ****     if(character == (TCHAR) 0xA7) return *L"з";
 352              		.loc 1 69 42 view .LVU150
 353 01bc 7047     		bx	lr
 354              	.LVL16:
 355              	.L11:
  70:Src/USB/Driver_USBdrive.c ****     if(character == (TCHAR) 0xA8) return *L"и";
 356              		.loc 1 70 42 view .LVU151
 357 01be 40F23740 		movw	r0, #1079
 358              	.LVL17:
  70:Src/USB/Driver_USBdrive.c ****     if(character == (TCHAR) 0xA8) return *L"и";
 359              		.loc 1 70 42 view .LVU152
 360 01c2 7047     		bx	lr
 361              	.LVL18:
 362              	.L12:
  71:Src/USB/Driver_USBdrive.c ****     if(character == (TCHAR) 0xA9) return *L"й";
 363              		.loc 1 71 42 view .LVU153
 364 01c4 4FF48760 		mov	r0, #1080
 365              	.LVL19:
  71:Src/USB/Driver_USBdrive.c ****     if(character == (TCHAR) 0xA9) return *L"й";
 366              		.loc 1 71 42 view .LVU154
ARM GAS  /tmp/ccR5Y2I8.s 			page 10


 367 01c8 7047     		bx	lr
 368              	.LVL20:
 369              	.L13:
  72:Src/USB/Driver_USBdrive.c ****     if(character == (TCHAR) 0xAA) return *L"к";
 370              		.loc 1 72 42 view .LVU155
 371 01ca 40F23940 		movw	r0, #1081
 372              	.LVL21:
  72:Src/USB/Driver_USBdrive.c ****     if(character == (TCHAR) 0xAA) return *L"к";
 373              		.loc 1 72 42 view .LVU156
 374 01ce 7047     		bx	lr
 375              	.LVL22:
 376              	.L14:
  73:Src/USB/Driver_USBdrive.c ****     if(character == (TCHAR) 0xAB) return *L"л";
 377              		.loc 1 73 42 view .LVU157
 378 01d0 40F23A40 		movw	r0, #1082
 379              	.LVL23:
  73:Src/USB/Driver_USBdrive.c ****     if(character == (TCHAR) 0xAB) return *L"л";
 380              		.loc 1 73 42 view .LVU158
 381 01d4 7047     		bx	lr
 382              	.LVL24:
 383              	.L15:
  74:Src/USB/Driver_USBdrive.c ****     if(character == (TCHAR) 0xAC) return *L"м";
 384              		.loc 1 74 42 view .LVU159
 385 01d6 40F23B40 		movw	r0, #1083
 386              	.LVL25:
  74:Src/USB/Driver_USBdrive.c ****     if(character == (TCHAR) 0xAC) return *L"м";
 387              		.loc 1 74 42 view .LVU160
 388 01da 7047     		bx	lr
 389              	.LVL26:
 390              	.L16:
  75:Src/USB/Driver_USBdrive.c ****     if(character == (TCHAR) 0xAD) return *L"н";
 391              		.loc 1 75 42 view .LVU161
 392 01dc 40F23C40 		movw	r0, #1084
 393              	.LVL27:
  75:Src/USB/Driver_USBdrive.c ****     if(character == (TCHAR) 0xAD) return *L"н";
 394              		.loc 1 75 42 view .LVU162
 395 01e0 7047     		bx	lr
 396              	.LVL28:
 397              	.L17:
  76:Src/USB/Driver_USBdrive.c ****     if(character == (TCHAR) 0xAE) return *L"о";
 398              		.loc 1 76 42 view .LVU163
 399 01e2 40F23D40 		movw	r0, #1085
 400              	.LVL29:
  76:Src/USB/Driver_USBdrive.c ****     if(character == (TCHAR) 0xAE) return *L"о";
 401              		.loc 1 76 42 view .LVU164
 402 01e6 7047     		bx	lr
 403              	.LVL30:
 404              	.L18:
  77:Src/USB/Driver_USBdrive.c ****     if(character == (TCHAR) 0xAF) return *L"п";
 405              		.loc 1 77 42 view .LVU165
 406 01e8 40F23E40 		movw	r0, #1086
 407              	.LVL31:
  77:Src/USB/Driver_USBdrive.c ****     if(character == (TCHAR) 0xAF) return *L"п";
 408              		.loc 1 77 42 view .LVU166
 409 01ec 7047     		bx	lr
 410              	.LVL32:
 411              	.L19:
ARM GAS  /tmp/ccR5Y2I8.s 			page 11


  78:Src/USB/Driver_USBdrive.c ****     if(character == (TCHAR) 0xE0) return *L"р";
 412              		.loc 1 78 42 view .LVU167
 413 01ee 40F23F40 		movw	r0, #1087
 414              	.LVL33:
  78:Src/USB/Driver_USBdrive.c ****     if(character == (TCHAR) 0xE0) return *L"р";
 415              		.loc 1 78 42 view .LVU168
 416 01f2 7047     		bx	lr
 417              	.LVL34:
 418              	.L20:
  79:Src/USB/Driver_USBdrive.c ****     if(character == (TCHAR) 0xE1) return *L"с";
 419              		.loc 1 79 42 view .LVU169
 420 01f4 4FF48860 		mov	r0, #1088
 421              	.LVL35:
  79:Src/USB/Driver_USBdrive.c ****     if(character == (TCHAR) 0xE1) return *L"с";
 422              		.loc 1 79 42 view .LVU170
 423 01f8 7047     		bx	lr
 424              	.LVL36:
 425              	.L21:
  80:Src/USB/Driver_USBdrive.c ****     if(character == (TCHAR) 0xE2) return *L"т";
 426              		.loc 1 80 42 view .LVU171
 427 01fa 40F24140 		movw	r0, #1089
 428              	.LVL37:
  80:Src/USB/Driver_USBdrive.c ****     if(character == (TCHAR) 0xE2) return *L"т";
 429              		.loc 1 80 42 view .LVU172
 430 01fe 7047     		bx	lr
 431              	.LVL38:
 432              	.L22:
  81:Src/USB/Driver_USBdrive.c ****     if(character == (TCHAR) 0xE3) return *L"у";
 433              		.loc 1 81 42 view .LVU173
 434 0200 40F24240 		movw	r0, #1090
 435              	.LVL39:
  81:Src/USB/Driver_USBdrive.c ****     if(character == (TCHAR) 0xE3) return *L"у";
 436              		.loc 1 81 42 view .LVU174
 437 0204 7047     		bx	lr
 438              	.LVL40:
 439              	.L23:
  82:Src/USB/Driver_USBdrive.c ****     if(character == (TCHAR) 0xE4) return *L"ф";
 440              		.loc 1 82 42 view .LVU175
 441 0206 40F24340 		movw	r0, #1091
 442              	.LVL41:
  82:Src/USB/Driver_USBdrive.c ****     if(character == (TCHAR) 0xE4) return *L"ф";
 443              		.loc 1 82 42 view .LVU176
 444 020a 7047     		bx	lr
 445              	.LVL42:
 446              	.L24:
  83:Src/USB/Driver_USBdrive.c ****     if(character == (TCHAR) 0xE5) return *L"х";
 447              		.loc 1 83 42 view .LVU177
 448 020c 40F24440 		movw	r0, #1092
 449              	.LVL43:
  83:Src/USB/Driver_USBdrive.c ****     if(character == (TCHAR) 0xE5) return *L"х";
 450              		.loc 1 83 42 view .LVU178
 451 0210 7047     		bx	lr
 452              	.LVL44:
 453              	.L25:
  84:Src/USB/Driver_USBdrive.c ****     if(character == (TCHAR) 0xE6) return *L"ц";
 454              		.loc 1 84 42 view .LVU179
 455 0212 40F24540 		movw	r0, #1093
ARM GAS  /tmp/ccR5Y2I8.s 			page 12


 456              	.LVL45:
  84:Src/USB/Driver_USBdrive.c ****     if(character == (TCHAR) 0xE6) return *L"ц";
 457              		.loc 1 84 42 view .LVU180
 458 0216 7047     		bx	lr
 459              	.LVL46:
 460              	.L26:
  85:Src/USB/Driver_USBdrive.c ****     if(character == (TCHAR) 0xE7) return *L"ч";
 461              		.loc 1 85 42 view .LVU181
 462 0218 40F24640 		movw	r0, #1094
 463              	.LVL47:
  85:Src/USB/Driver_USBdrive.c ****     if(character == (TCHAR) 0xE7) return *L"ч";
 464              		.loc 1 85 42 view .LVU182
 465 021c 7047     		bx	lr
 466              	.LVL48:
 467              	.L27:
  86:Src/USB/Driver_USBdrive.c ****     if(character == (TCHAR) 0xE8) return *L"ш";
 468              		.loc 1 86 42 view .LVU183
 469 021e 40F24740 		movw	r0, #1095
 470              	.LVL49:
  86:Src/USB/Driver_USBdrive.c ****     if(character == (TCHAR) 0xE8) return *L"ш";
 471              		.loc 1 86 42 view .LVU184
 472 0222 7047     		bx	lr
 473              	.LVL50:
 474              	.L28:
  87:Src/USB/Driver_USBdrive.c ****     if(character == (TCHAR) 0xE9) return *L"щ";
 475              		.loc 1 87 42 view .LVU185
 476 0224 4FF48960 		mov	r0, #1096
 477              	.LVL51:
  87:Src/USB/Driver_USBdrive.c ****     if(character == (TCHAR) 0xE9) return *L"щ";
 478              		.loc 1 87 42 view .LVU186
 479 0228 7047     		bx	lr
 480              	.LVL52:
 481              	.L29:
  88:Src/USB/Driver_USBdrive.c ****     if(character == (TCHAR) 0xEA) return *L"ъ";
 482              		.loc 1 88 42 view .LVU187
 483 022a 40F24940 		movw	r0, #1097
 484              	.LVL53:
  88:Src/USB/Driver_USBdrive.c ****     if(character == (TCHAR) 0xEA) return *L"ъ";
 485              		.loc 1 88 42 view .LVU188
 486 022e 7047     		bx	lr
 487              	.LVL54:
 488              	.L30:
  89:Src/USB/Driver_USBdrive.c ****     if(character == (TCHAR) 0xEB) return *L"ы";
 489              		.loc 1 89 42 view .LVU189
 490 0230 40F24A40 		movw	r0, #1098
 491              	.LVL55:
  89:Src/USB/Driver_USBdrive.c ****     if(character == (TCHAR) 0xEB) return *L"ы";
 492              		.loc 1 89 42 view .LVU190
 493 0234 7047     		bx	lr
 494              	.LVL56:
 495              	.L31:
  90:Src/USB/Driver_USBdrive.c ****     if(character == (TCHAR) 0xEC) return *L"ь";
 496              		.loc 1 90 42 view .LVU191
 497 0236 40F24B40 		movw	r0, #1099
 498              	.LVL57:
  90:Src/USB/Driver_USBdrive.c ****     if(character == (TCHAR) 0xEC) return *L"ь";
 499              		.loc 1 90 42 view .LVU192
ARM GAS  /tmp/ccR5Y2I8.s 			page 13


 500 023a 7047     		bx	lr
 501              	.LVL58:
 502              	.L32:
  91:Src/USB/Driver_USBdrive.c ****     if(character == (TCHAR) 0xED) return *L"э";
 503              		.loc 1 91 42 view .LVU193
 504 023c 40F24C40 		movw	r0, #1100
 505              	.LVL59:
  91:Src/USB/Driver_USBdrive.c ****     if(character == (TCHAR) 0xED) return *L"э";
 506              		.loc 1 91 42 view .LVU194
 507 0240 7047     		bx	lr
 508              	.LVL60:
 509              	.L33:
  92:Src/USB/Driver_USBdrive.c ****     if(character == (TCHAR) 0xEE) return *L"ю";
 510              		.loc 1 92 42 view .LVU195
 511 0242 40F24D40 		movw	r0, #1101
 512              	.LVL61:
  92:Src/USB/Driver_USBdrive.c ****     if(character == (TCHAR) 0xEE) return *L"ю";
 513              		.loc 1 92 42 view .LVU196
 514 0246 7047     		bx	lr
 515              	.LVL62:
 516              	.L34:
  93:Src/USB/Driver_USBdrive.c ****     if(character == (TCHAR) 0xEF) return *L"я";
 517              		.loc 1 93 42 view .LVU197
 518 0248 40F24E40 		movw	r0, #1102
 519              	.LVL63:
  93:Src/USB/Driver_USBdrive.c ****     if(character == (TCHAR) 0xEF) return *L"я";
 520              		.loc 1 93 42 view .LVU198
 521 024c 7047     		bx	lr
 522              	.LVL64:
 523              	.L35:
  94:Src/USB/Driver_USBdrive.c ****     if(character == (TCHAR) 0x80) return *L"А";
 524              		.loc 1 94 42 view .LVU199
 525 024e 40F24F40 		movw	r0, #1103
 526              	.LVL65:
  94:Src/USB/Driver_USBdrive.c ****     if(character == (TCHAR) 0x80) return *L"А";
 527              		.loc 1 94 42 view .LVU200
 528 0252 7047     		bx	lr
 529              	.LVL66:
 530              	.L36:
  95:Src/USB/Driver_USBdrive.c ****     if(character == (TCHAR) 0x81) return *L"Б";
 531              		.loc 1 95 42 view .LVU201
 532 0254 4FF48260 		mov	r0, #1040
 533              	.LVL67:
  95:Src/USB/Driver_USBdrive.c ****     if(character == (TCHAR) 0x81) return *L"Б";
 534              		.loc 1 95 42 view .LVU202
 535 0258 7047     		bx	lr
 536              	.LVL68:
 537              	.L37:
  96:Src/USB/Driver_USBdrive.c ****     if(character == (TCHAR) 0x82) return *L"В";
 538              		.loc 1 96 42 view .LVU203
 539 025a 40F21140 		movw	r0, #1041
 540              	.LVL69:
  96:Src/USB/Driver_USBdrive.c ****     if(character == (TCHAR) 0x82) return *L"В";
 541              		.loc 1 96 42 view .LVU204
 542 025e 7047     		bx	lr
 543              	.LVL70:
 544              	.L38:
ARM GAS  /tmp/ccR5Y2I8.s 			page 14


  97:Src/USB/Driver_USBdrive.c ****     if(character == (TCHAR) 0x83) return *L"Г";
 545              		.loc 1 97 42 view .LVU205
 546 0260 40F21240 		movw	r0, #1042
 547              	.LVL71:
  97:Src/USB/Driver_USBdrive.c ****     if(character == (TCHAR) 0x83) return *L"Г";
 548              		.loc 1 97 42 view .LVU206
 549 0264 7047     		bx	lr
 550              	.LVL72:
 551              	.L39:
  98:Src/USB/Driver_USBdrive.c ****     if(character == (TCHAR) 0x84) return *L"Д";
 552              		.loc 1 98 42 view .LVU207
 553 0266 40F21340 		movw	r0, #1043
 554              	.LVL73:
  98:Src/USB/Driver_USBdrive.c ****     if(character == (TCHAR) 0x84) return *L"Д";
 555              		.loc 1 98 42 view .LVU208
 556 026a 7047     		bx	lr
 557              	.LVL74:
 558              	.L40:
  99:Src/USB/Driver_USBdrive.c ****     if(character == (TCHAR) 0x85) return *L"Е";
 559              		.loc 1 99 42 view .LVU209
 560 026c 40F21440 		movw	r0, #1044
 561              	.LVL75:
  99:Src/USB/Driver_USBdrive.c ****     if(character == (TCHAR) 0x85) return *L"Е";
 562              		.loc 1 99 42 view .LVU210
 563 0270 7047     		bx	lr
 564              	.LVL76:
 565              	.L41:
 100:Src/USB/Driver_USBdrive.c ****     if(character == (TCHAR) 0xF0) return *L"Ё";
 566              		.loc 1 100 42 view .LVU211
 567 0272 40F21540 		movw	r0, #1045
 568              	.LVL77:
 100:Src/USB/Driver_USBdrive.c ****     if(character == (TCHAR) 0xF0) return *L"Ё";
 569              		.loc 1 100 42 view .LVU212
 570 0276 7047     		bx	lr
 571              	.LVL78:
 572              	.L42:
 101:Src/USB/Driver_USBdrive.c ****     if(character == (TCHAR) 0x86) return *L"Ж";
 573              		.loc 1 101 42 view .LVU213
 574 0278 40F20140 		movw	r0, #1025
 575              	.LVL79:
 101:Src/USB/Driver_USBdrive.c ****     if(character == (TCHAR) 0x86) return *L"Ж";
 576              		.loc 1 101 42 view .LVU214
 577 027c 7047     		bx	lr
 578              	.LVL80:
 579              	.L43:
 102:Src/USB/Driver_USBdrive.c ****     if(character == (TCHAR) 0x87) return *L"З";
 580              		.loc 1 102 42 view .LVU215
 581 027e 40F21640 		movw	r0, #1046
 582              	.LVL81:
 102:Src/USB/Driver_USBdrive.c ****     if(character == (TCHAR) 0x87) return *L"З";
 583              		.loc 1 102 42 view .LVU216
 584 0282 7047     		bx	lr
 585              	.LVL82:
 586              	.L44:
 103:Src/USB/Driver_USBdrive.c ****     if(character == (TCHAR) 0x88) return *L"И";
 587              		.loc 1 103 42 view .LVU217
 588 0284 40F21740 		movw	r0, #1047
ARM GAS  /tmp/ccR5Y2I8.s 			page 15


 589              	.LVL83:
 103:Src/USB/Driver_USBdrive.c ****     if(character == (TCHAR) 0x88) return *L"И";
 590              		.loc 1 103 42 view .LVU218
 591 0288 7047     		bx	lr
 592              	.LVL84:
 593              	.L45:
 104:Src/USB/Driver_USBdrive.c ****     if(character == (TCHAR) 0x89) return *L"Й";
 594              		.loc 1 104 42 view .LVU219
 595 028a 4FF48360 		mov	r0, #1048
 596              	.LVL85:
 104:Src/USB/Driver_USBdrive.c ****     if(character == (TCHAR) 0x89) return *L"Й";
 597              		.loc 1 104 42 view .LVU220
 598 028e 7047     		bx	lr
 599              	.LVL86:
 600              	.L46:
 105:Src/USB/Driver_USBdrive.c ****     if(character == (TCHAR) 0x8A) return *L"К";
 601              		.loc 1 105 42 view .LVU221
 602 0290 40F21940 		movw	r0, #1049
 603              	.LVL87:
 105:Src/USB/Driver_USBdrive.c ****     if(character == (TCHAR) 0x8A) return *L"К";
 604              		.loc 1 105 42 view .LVU222
 605 0294 7047     		bx	lr
 606              	.LVL88:
 607              	.L47:
 106:Src/USB/Driver_USBdrive.c ****     if(character == (TCHAR) 0x8B) return *L"Л";
 608              		.loc 1 106 42 view .LVU223
 609 0296 40F21A40 		movw	r0, #1050
 610              	.LVL89:
 106:Src/USB/Driver_USBdrive.c ****     if(character == (TCHAR) 0x8B) return *L"Л";
 611              		.loc 1 106 42 view .LVU224
 612 029a 7047     		bx	lr
 613              	.LVL90:
 614              	.L48:
 107:Src/USB/Driver_USBdrive.c ****     if(character == (TCHAR) 0x8C) return *L"М";
 615              		.loc 1 107 42 view .LVU225
 616 029c 40F21B40 		movw	r0, #1051
 617              	.LVL91:
 107:Src/USB/Driver_USBdrive.c ****     if(character == (TCHAR) 0x8C) return *L"М";
 618              		.loc 1 107 42 view .LVU226
 619 02a0 7047     		bx	lr
 620              	.LVL92:
 621              	.L49:
 108:Src/USB/Driver_USBdrive.c ****     if(character == (TCHAR) 0x8D) return *L"Н";
 622              		.loc 1 108 42 view .LVU227
 623 02a2 40F21C40 		movw	r0, #1052
 624              	.LVL93:
 108:Src/USB/Driver_USBdrive.c ****     if(character == (TCHAR) 0x8D) return *L"Н";
 625              		.loc 1 108 42 view .LVU228
 626 02a6 7047     		bx	lr
 627              	.LVL94:
 628              	.L50:
 109:Src/USB/Driver_USBdrive.c ****     if(character == (TCHAR) 0x8E) return *L"О";
 629              		.loc 1 109 42 view .LVU229
 630 02a8 40F21D40 		movw	r0, #1053
 631              	.LVL95:
 109:Src/USB/Driver_USBdrive.c ****     if(character == (TCHAR) 0x8E) return *L"О";
 632              		.loc 1 109 42 view .LVU230
ARM GAS  /tmp/ccR5Y2I8.s 			page 16


 633 02ac 7047     		bx	lr
 634              	.LVL96:
 635              	.L51:
 110:Src/USB/Driver_USBdrive.c ****     if(character == (TCHAR) 0x8F) return *L"П";
 636              		.loc 1 110 42 view .LVU231
 637 02ae 40F21E40 		movw	r0, #1054
 638              	.LVL97:
 110:Src/USB/Driver_USBdrive.c ****     if(character == (TCHAR) 0x8F) return *L"П";
 639              		.loc 1 110 42 view .LVU232
 640 02b2 7047     		bx	lr
 641              	.LVL98:
 642              	.L52:
 111:Src/USB/Driver_USBdrive.c ****     if(character == (TCHAR) 0x90) return *L"Р";
 643              		.loc 1 111 42 view .LVU233
 644 02b4 40F21F40 		movw	r0, #1055
 645              	.LVL99:
 111:Src/USB/Driver_USBdrive.c ****     if(character == (TCHAR) 0x90) return *L"Р";
 646              		.loc 1 111 42 view .LVU234
 647 02b8 7047     		bx	lr
 648              	.LVL100:
 649              	.L53:
 112:Src/USB/Driver_USBdrive.c ****     if(character == (TCHAR) 0x91) return *L"С";
 650              		.loc 1 112 42 view .LVU235
 651 02ba 4FF48460 		mov	r0, #1056
 652              	.LVL101:
 112:Src/USB/Driver_USBdrive.c ****     if(character == (TCHAR) 0x91) return *L"С";
 653              		.loc 1 112 42 view .LVU236
 654 02be 7047     		bx	lr
 655              	.LVL102:
 656              	.L54:
 113:Src/USB/Driver_USBdrive.c ****     if(character == (TCHAR) 0x92) return *L"Т";
 657              		.loc 1 113 42 view .LVU237
 658 02c0 40F22140 		movw	r0, #1057
 659              	.LVL103:
 113:Src/USB/Driver_USBdrive.c ****     if(character == (TCHAR) 0x92) return *L"Т";
 660              		.loc 1 113 42 view .LVU238
 661 02c4 7047     		bx	lr
 662              	.LVL104:
 663              	.L55:
 114:Src/USB/Driver_USBdrive.c ****     if(character == (TCHAR) 0x93) return *L"У";
 664              		.loc 1 114 42 view .LVU239
 665 02c6 40F22240 		movw	r0, #1058
 666              	.LVL105:
 114:Src/USB/Driver_USBdrive.c ****     if(character == (TCHAR) 0x93) return *L"У";
 667              		.loc 1 114 42 view .LVU240
 668 02ca 7047     		bx	lr
 669              	.LVL106:
 670              	.L56:
 115:Src/USB/Driver_USBdrive.c ****     if(character == (TCHAR) 0x94) return *L"Ф";
 671              		.loc 1 115 42 view .LVU241
 672 02cc 40F22340 		movw	r0, #1059
 673              	.LVL107:
 115:Src/USB/Driver_USBdrive.c ****     if(character == (TCHAR) 0x94) return *L"Ф";
 674              		.loc 1 115 42 view .LVU242
 675 02d0 7047     		bx	lr
 676              	.LVL108:
 677              	.L57:
ARM GAS  /tmp/ccR5Y2I8.s 			page 17


 116:Src/USB/Driver_USBdrive.c ****     if(character == (TCHAR) 0x95) return *L"Х";
 678              		.loc 1 116 42 view .LVU243
 679 02d2 40F22440 		movw	r0, #1060
 680              	.LVL109:
 116:Src/USB/Driver_USBdrive.c ****     if(character == (TCHAR) 0x95) return *L"Х";
 681              		.loc 1 116 42 view .LVU244
 682 02d6 7047     		bx	lr
 683              	.LVL110:
 684              	.L58:
 117:Src/USB/Driver_USBdrive.c ****     if(character == (TCHAR) 0x96) return *L"Ц";
 685              		.loc 1 117 42 view .LVU245
 686 02d8 40F22540 		movw	r0, #1061
 687              	.LVL111:
 117:Src/USB/Driver_USBdrive.c ****     if(character == (TCHAR) 0x96) return *L"Ц";
 688              		.loc 1 117 42 view .LVU246
 689 02dc 7047     		bx	lr
 690              	.LVL112:
 691              	.L59:
 118:Src/USB/Driver_USBdrive.c ****     if(character == (TCHAR) 0x97) return *L"Ч";
 692              		.loc 1 118 42 view .LVU247
 693 02de 40F22640 		movw	r0, #1062
 694              	.LVL113:
 118:Src/USB/Driver_USBdrive.c ****     if(character == (TCHAR) 0x97) return *L"Ч";
 695              		.loc 1 118 42 view .LVU248
 696 02e2 7047     		bx	lr
 697              	.LVL114:
 698              	.L60:
 119:Src/USB/Driver_USBdrive.c ****     if(character == (TCHAR) 0x98) return *L"Ш";
 699              		.loc 1 119 42 view .LVU249
 700 02e4 40F22740 		movw	r0, #1063
 701              	.LVL115:
 119:Src/USB/Driver_USBdrive.c ****     if(character == (TCHAR) 0x98) return *L"Ш";
 702              		.loc 1 119 42 view .LVU250
 703 02e8 7047     		bx	lr
 704              	.LVL116:
 705              	.L61:
 120:Src/USB/Driver_USBdrive.c ****     if(character == (TCHAR) 0x99) return *L"Щ";
 706              		.loc 1 120 42 view .LVU251
 707 02ea 4FF48560 		mov	r0, #1064
 708              	.LVL117:
 120:Src/USB/Driver_USBdrive.c ****     if(character == (TCHAR) 0x99) return *L"Щ";
 709              		.loc 1 120 42 view .LVU252
 710 02ee 7047     		bx	lr
 711              	.LVL118:
 712              	.L62:
 121:Src/USB/Driver_USBdrive.c ****     if(character == (TCHAR) 0x9A) return *L"Ъ";
 713              		.loc 1 121 42 view .LVU253
 714 02f0 40F22940 		movw	r0, #1065
 715              	.LVL119:
 121:Src/USB/Driver_USBdrive.c ****     if(character == (TCHAR) 0x9A) return *L"Ъ";
 716              		.loc 1 121 42 view .LVU254
 717 02f4 7047     		bx	lr
 718              	.LVL120:
 719              	.L63:
 122:Src/USB/Driver_USBdrive.c ****     if(character == (TCHAR) 0x9B) return *L"Ы";
 720              		.loc 1 122 42 view .LVU255
 721 02f6 40F22A40 		movw	r0, #1066
ARM GAS  /tmp/ccR5Y2I8.s 			page 18


 722              	.LVL121:
 122:Src/USB/Driver_USBdrive.c ****     if(character == (TCHAR) 0x9B) return *L"Ы";
 723              		.loc 1 122 42 view .LVU256
 724 02fa 7047     		bx	lr
 725              	.LVL122:
 726              	.L64:
 123:Src/USB/Driver_USBdrive.c ****     if(character == (TCHAR) 0x9C) return *L"Ь";
 727              		.loc 1 123 42 view .LVU257
 728 02fc 40F22B40 		movw	r0, #1067
 729              	.LVL123:
 123:Src/USB/Driver_USBdrive.c ****     if(character == (TCHAR) 0x9C) return *L"Ь";
 730              		.loc 1 123 42 view .LVU258
 731 0300 7047     		bx	lr
 732              	.LVL124:
 733              	.L65:
 124:Src/USB/Driver_USBdrive.c ****     if(character == (TCHAR) 0x9D) return *L"Э";
 734              		.loc 1 124 42 view .LVU259
 735 0302 40F22C40 		movw	r0, #1068
 736              	.LVL125:
 124:Src/USB/Driver_USBdrive.c ****     if(character == (TCHAR) 0x9D) return *L"Э";
 737              		.loc 1 124 42 view .LVU260
 738 0306 7047     		bx	lr
 739              	.LVL126:
 740              	.L66:
 125:Src/USB/Driver_USBdrive.c ****     if(character == (TCHAR) 0x9E) return *L"Ю";
 741              		.loc 1 125 42 view .LVU261
 742 0308 40F22D40 		movw	r0, #1069
 743              	.LVL127:
 125:Src/USB/Driver_USBdrive.c ****     if(character == (TCHAR) 0x9E) return *L"Ю";
 744              		.loc 1 125 42 view .LVU262
 745 030c 7047     		bx	lr
 746              	.LVL128:
 747              	.L67:
 126:Src/USB/Driver_USBdrive.c ****     if(character == (TCHAR) 0x9F) return *L"Я";
 748              		.loc 1 126 42 view .LVU263
 749 030e 40F22E40 		movw	r0, #1070
 750              	.LVL129:
 126:Src/USB/Driver_USBdrive.c ****     if(character == (TCHAR) 0x9F) return *L"Я";
 751              		.loc 1 126 42 view .LVU264
 752 0312 7047     		bx	lr
 753              	.LVL130:
 754              	.L68:
 127:Src/USB/Driver_USBdrive.c ****     return (wchar_t) character;
 755              		.loc 1 127 42 view .LVU265
 756 0314 40F22F40 		movw	r0, #1071
 757              	.LVL131:
 129:Src/USB/Driver_USBdrive.c **** }
 758              		.loc 1 129 1 view .LVU266
 759 0318 7047     		bx	lr
 760              		.cfi_endproc
 761              	.LFE72:
 763              		.section	.text.convertPathToWidePath,"ax",%progbits
 764              		.align	1
 765              		.syntax unified
 766              		.thumb
 767              		.thumb_func
 768              		.fpu softvfp
ARM GAS  /tmp/ccR5Y2I8.s 			page 19


 770              	convertPathToWidePath:
 771              	.LVL132:
 772              	.LFB74:
 130:Src/USB/Driver_USBdrive.c **** 
 131:Src/USB/Driver_USBdrive.c **** 
 132:Src/USB/Driver_USBdrive.c **** const TCHAR* getPath_USBdrive(void){ return path;}
 133:Src/USB/Driver_USBdrive.c **** 
 134:Src/USB/Driver_USBdrive.c **** static void convertPathToWidePath(wchar_t* widePath)
 135:Src/USB/Driver_USBdrive.c **** {
 773              		.loc 1 135 1 is_stmt 1 view -0
 774              		.cfi_startproc
 775              		@ args = 0, pretend = 0, frame = 0
 776              		@ frame_needed = 0, uses_anonymous_args = 0
 777              		.loc 1 135 1 is_stmt 0 view .LVU268
 778 0000 38B5     		push	{r3, r4, r5, lr}
 779              	.LCFI0:
 780              		.cfi_def_cfa_offset 16
 781              		.cfi_offset 3, -16
 782              		.cfi_offset 4, -12
 783              		.cfi_offset 5, -8
 784              		.cfi_offset 14, -4
 785 0002 0546     		mov	r5, r0
 136:Src/USB/Driver_USBdrive.c ****     int letterNember;
 786              		.loc 1 136 5 is_stmt 1 view .LVU269
 137:Src/USB/Driver_USBdrive.c ****     for (letterNember = 0; letterNember < PATH_LENGTH; letterNember++)
 787              		.loc 1 137 5 view .LVU270
 788              	.LVL133:
 789              		.loc 1 137 23 is_stmt 0 view .LVU271
 790 0004 0024     		movs	r4, #0
 791              	.LVL134:
 792              	.L70:
 793              		.loc 1 137 28 is_stmt 1 discriminator 1 view .LVU272
 794              		.loc 1 137 5 is_stmt 0 discriminator 1 view .LVU273
 795 0006 632C     		cmp	r4, #99
 796 0008 07DC     		bgt	.L73
 138:Src/USB/Driver_USBdrive.c ****         widePath[letterNember] = TCHAR2wchar_t(path[letterNember]);
 797              		.loc 1 138 9 is_stmt 1 discriminator 3 view .LVU274
 798              		.loc 1 138 34 is_stmt 0 discriminator 3 view .LVU275
 799 000a 044B     		ldr	r3, .L74
 800 000c 185D     		ldrb	r0, [r3, r4]	@ zero_extendqisi2
 801 000e FFF7FEFF 		bl	TCHAR2wchar_t
 802              	.LVL135:
 803              		.loc 1 138 32 discriminator 3 view .LVU276
 804 0012 45F82400 		str	r0, [r5, r4, lsl #2]
 137:Src/USB/Driver_USBdrive.c ****     for (letterNember = 0; letterNember < PATH_LENGTH; letterNember++)
 805              		.loc 1 137 56 is_stmt 1 discriminator 3 view .LVU277
 137:Src/USB/Driver_USBdrive.c ****     for (letterNember = 0; letterNember < PATH_LENGTH; letterNember++)
 806              		.loc 1 137 68 is_stmt 0 discriminator 3 view .LVU278
 807 0016 0134     		adds	r4, r4, #1
 808              	.LVL136:
 137:Src/USB/Driver_USBdrive.c ****     for (letterNember = 0; letterNember < PATH_LENGTH; letterNember++)
 809              		.loc 1 137 68 discriminator 3 view .LVU279
 810 0018 F5E7     		b	.L70
 811              	.L73:
 139:Src/USB/Driver_USBdrive.c **** }
 812              		.loc 1 139 1 view .LVU280
 813 001a 38BD     		pop	{r3, r4, r5, pc}
ARM GAS  /tmp/ccR5Y2I8.s 			page 20


 814              	.LVL137:
 815              	.L75:
 816              		.loc 1 139 1 view .LVU281
 817              		.align	2
 818              	.L74:
 819 001c 00000000 		.word	.LANCHOR0
 820              		.cfi_endproc
 821              	.LFE74:
 823              		.section	.text.convertLongNameToWideLongName,"ax",%progbits
 824              		.align	1
 825              		.syntax unified
 826              		.thumb
 827              		.thumb_func
 828              		.fpu softvfp
 830              	convertLongNameToWideLongName:
 831              	.LVL138:
 832              	.LFB80:
 140:Src/USB/Driver_USBdrive.c **** 
 141:Src/USB/Driver_USBdrive.c **** static wchar_t widePath[PATH_LENGTH];
 142:Src/USB/Driver_USBdrive.c **** const wchar_t* getWidePath_USBdrive(void)
 143:Src/USB/Driver_USBdrive.c **** {
 144:Src/USB/Driver_USBdrive.c ****     convertPathToWidePath(widePath);
 145:Src/USB/Driver_USBdrive.c ****     return (const wchar_t*) widePath;
 146:Src/USB/Driver_USBdrive.c **** }
 147:Src/USB/Driver_USBdrive.c **** 
 148:Src/USB/Driver_USBdrive.c **** 
 149:Src/USB/Driver_USBdrive.c **** void openDirectory_USBdrive(const TCHAR* pathToDirectory)
 150:Src/USB/Driver_USBdrive.c **** {
 151:Src/USB/Driver_USBdrive.c ****     f_closedir(&directory);
 152:Src/USB/Driver_USBdrive.c **** 
 153:Src/USB/Driver_USBdrive.c ****     if (currentMountedStatus_USBdrive == UNMOUNTED_USBDRIVE)
 154:Src/USB/Driver_USBdrive.c ****         return;
 155:Src/USB/Driver_USBdrive.c **** 
 156:Src/USB/Driver_USBdrive.c ****     if(f_opendir(&directory, pathToDirectory)!=FR_OK)
 157:Src/USB/Driver_USBdrive.c ****     {
 158:Src/USB/Driver_USBdrive.c ****         f_opendir(&directory, path);
 159:Src/USB/Driver_USBdrive.c ****         return;
 160:Src/USB/Driver_USBdrive.c ****     }
 161:Src/USB/Driver_USBdrive.c **** 
 162:Src/USB/Driver_USBdrive.c ****     sprintf(path, "%s", pathToDirectory);
 163:Src/USB/Driver_USBdrive.c **** 
 164:Src/USB/Driver_USBdrive.c **** }
 165:Src/USB/Driver_USBdrive.c **** 
 166:Src/USB/Driver_USBdrive.c **** void readItem_USBdrive()
 167:Src/USB/Driver_USBdrive.c **** {
 168:Src/USB/Driver_USBdrive.c ****     if (currentMountedStatus_USBdrive == UNMOUNTED_USBDRIVE)
 169:Src/USB/Driver_USBdrive.c ****         return;
 170:Src/USB/Driver_USBdrive.c **** 
 171:Src/USB/Driver_USBdrive.c ****     if(f_readdir(&directory, &fileInformation)!=FR_OK)
 172:Src/USB/Driver_USBdrive.c ****         return;
 173:Src/USB/Driver_USBdrive.c **** }
 174:Src/USB/Driver_USBdrive.c **** 
 175:Src/USB/Driver_USBdrive.c **** const TCHAR* getName_USBdrive(void) { return (const TCHAR*) fileInformation.fname;}
 176:Src/USB/Driver_USBdrive.c **** 
 177:Src/USB/Driver_USBdrive.c **** const TCHAR* getLongName_USBdrive(void) { return (const TCHAR*) fileInformation.lfname;}
 178:Src/USB/Driver_USBdrive.c **** 
 179:Src/USB/Driver_USBdrive.c **** 
ARM GAS  /tmp/ccR5Y2I8.s 			page 21


 180:Src/USB/Driver_USBdrive.c **** 
 181:Src/USB/Driver_USBdrive.c **** static void convertLongNameToWideLongName(wchar_t* wideLongName, const TCHAR* longName)
 182:Src/USB/Driver_USBdrive.c **** {
 833              		.loc 1 182 1 is_stmt 1 view -0
 834              		.cfi_startproc
 835              		@ args = 0, pretend = 0, frame = 0
 836              		@ frame_needed = 0, uses_anonymous_args = 0
 837              		.loc 1 182 1 is_stmt 0 view .LVU283
 838 0000 70B5     		push	{r4, r5, r6, lr}
 839              	.LCFI1:
 840              		.cfi_def_cfa_offset 16
 841              		.cfi_offset 4, -16
 842              		.cfi_offset 5, -12
 843              		.cfi_offset 6, -8
 844              		.cfi_offset 14, -4
 845 0002 0546     		mov	r5, r0
 846 0004 0E46     		mov	r6, r1
 183:Src/USB/Driver_USBdrive.c ****     wideLongName[0] = *L" ";
 847              		.loc 1 183 5 is_stmt 1 view .LVU284
 848              		.loc 1 183 21 is_stmt 0 view .LVU285
 849 0006 2023     		movs	r3, #32
 850 0008 0360     		str	r3, [r0]
 184:Src/USB/Driver_USBdrive.c ****     int letterNember;
 851              		.loc 1 184 5 is_stmt 1 view .LVU286
 185:Src/USB/Driver_USBdrive.c ****     for (letterNember = 0; letterNember < MAX_WIDE_NAME_LENGTH; letterNember++)
 852              		.loc 1 185 5 view .LVU287
 853              	.LVL139:
 854              		.loc 1 185 23 is_stmt 0 view .LVU288
 855 000a 0023     		movs	r3, #0
 856              	.LVL140:
 857              	.L77:
 858              		.loc 1 185 28 is_stmt 1 discriminator 1 view .LVU289
 859              		.loc 1 185 5 is_stmt 0 discriminator 1 view .LVU290
 860 000c 632B     		cmp	r3, #99
 861 000e 04DC     		bgt	.L82
 186:Src/USB/Driver_USBdrive.c ****         wideLongName[letterNember+1] = *L"\0";
 862              		.loc 1 186 9 is_stmt 1 discriminator 3 view .LVU291
 863              		.loc 1 186 21 is_stmt 0 discriminator 3 view .LVU292
 864 0010 0133     		adds	r3, r3, #1
 865              	.LVL141:
 866              		.loc 1 186 38 discriminator 3 view .LVU293
 867 0012 0022     		movs	r2, #0
 868 0014 45F82320 		str	r2, [r5, r3, lsl #2]
 185:Src/USB/Driver_USBdrive.c ****     for (letterNember = 0; letterNember < MAX_WIDE_NAME_LENGTH; letterNember++)
 869              		.loc 1 185 65 is_stmt 1 discriminator 3 view .LVU294
 870              	.LVL142:
 185:Src/USB/Driver_USBdrive.c ****     for (letterNember = 0; letterNember < MAX_WIDE_NAME_LENGTH; letterNember++)
 871              		.loc 1 185 65 is_stmt 0 discriminator 3 view .LVU295
 872 0018 F8E7     		b	.L77
 873              	.L82:
 187:Src/USB/Driver_USBdrive.c ****     for (letterNember = 0; letterNember < MAX_WIDE_NAME_LENGTH; letterNember++)
 874              		.loc 1 187 23 view .LVU296
 875 001a 0023     		movs	r3, #0
 876              	.LVL143:
 877              	.L79:
 878              		.loc 1 187 28 is_stmt 1 discriminator 1 view .LVU297
 879              		.loc 1 187 5 is_stmt 0 discriminator 1 view .LVU298
ARM GAS  /tmp/ccR5Y2I8.s 			page 22


 880 001c 632B     		cmp	r3, #99
 881 001e 07DC     		bgt	.L83
 188:Src/USB/Driver_USBdrive.c ****         wideLongName[letterNember+1] = TCHAR2wchar_t(longName[letterNember]);
 882              		.loc 1 188 9 is_stmt 1 discriminator 3 view .LVU299
 883              		.loc 1 188 21 is_stmt 0 discriminator 3 view .LVU300
 884 0020 5C1C     		adds	r4, r3, #1
 885              		.loc 1 188 40 discriminator 3 view .LVU301
 886 0022 F05C     		ldrb	r0, [r6, r3]	@ zero_extendqisi2
 887 0024 FFF7FEFF 		bl	TCHAR2wchar_t
 888              	.LVL144:
 889              		.loc 1 188 38 discriminator 3 view .LVU302
 890 0028 45F82400 		str	r0, [r5, r4, lsl #2]
 187:Src/USB/Driver_USBdrive.c ****     for (letterNember = 0; letterNember < MAX_WIDE_NAME_LENGTH; letterNember++)
 891              		.loc 1 187 65 is_stmt 1 discriminator 3 view .LVU303
 187:Src/USB/Driver_USBdrive.c ****     for (letterNember = 0; letterNember < MAX_WIDE_NAME_LENGTH; letterNember++)
 892              		.loc 1 187 77 is_stmt 0 discriminator 3 view .LVU304
 893 002c 2346     		mov	r3, r4
 894              	.LVL145:
 187:Src/USB/Driver_USBdrive.c ****     for (letterNember = 0; letterNember < MAX_WIDE_NAME_LENGTH; letterNember++)
 895              		.loc 1 187 77 discriminator 3 view .LVU305
 896 002e F5E7     		b	.L79
 897              	.LVL146:
 898              	.L83:
 189:Src/USB/Driver_USBdrive.c **** }
 899              		.loc 1 189 1 view .LVU306
 900 0030 70BD     		pop	{r4, r5, r6, pc}
 901              		.loc 1 189 1 view .LVU307
 902              		.cfi_endproc
 903              	.LFE80:
 905              		.section	.text.createDriver_USBdrive,"ax",%progbits
 906              		.align	1
 907              		.global	createDriver_USBdrive
 908              		.syntax unified
 909              		.thumb
 910              		.thumb_func
 911              		.fpu softvfp
 913              	createDriver_USBdrive:
 914              	.LFB68:
  20:Src/USB/Driver_USBdrive.c ****     currentMountedStatus_USBdrive = UNMOUNTED_USBDRIVE;
 915              		.loc 1 20 1 is_stmt 1 view -0
 916              		.cfi_startproc
 917              		@ args = 0, pretend = 0, frame = 0
 918              		@ frame_needed = 0, uses_anonymous_args = 0
 919 0000 10B5     		push	{r4, lr}
 920              	.LCFI2:
 921              		.cfi_def_cfa_offset 8
 922              		.cfi_offset 4, -8
 923              		.cfi_offset 14, -4
  21:Src/USB/Driver_USBdrive.c ****     memcpy(path, zeroPath_USBdriver, PATH_LENGTH);
 924              		.loc 1 21 5 view .LVU309
  21:Src/USB/Driver_USBdrive.c ****     memcpy(path, zeroPath_USBdriver, PATH_LENGTH);
 925              		.loc 1 21 35 is_stmt 0 view .LVU310
 926 0002 0024     		movs	r4, #0
 927 0004 084B     		ldr	r3, .L86
 928 0006 1C70     		strb	r4, [r3]
  22:Src/USB/Driver_USBdrive.c ****     sprintf(fileInformation.fname, "%s", "");
 929              		.loc 1 22 5 is_stmt 1 view .LVU311
ARM GAS  /tmp/ccR5Y2I8.s 			page 23


 930 0008 0848     		ldr	r0, .L86+4
 931 000a 40F8044B 		str	r4, [r0], #4
 932 000e 6022     		movs	r2, #96
 933 0010 2146     		mov	r1, r4
 934 0012 FFF7FEFF 		bl	memset
 935              	.LVL147:
  23:Src/USB/Driver_USBdrive.c ****     fileInformation.lfsize = _MAX_LFN;
 936              		.loc 1 23 5 view .LVU312
 937 0016 064B     		ldr	r3, .L86+8
 938 0018 5C72     		strb	r4, [r3, #9]
  24:Src/USB/Driver_USBdrive.c ****     fileInformation.lfname = fname_arr;
 939              		.loc 1 24 5 view .LVU313
  24:Src/USB/Driver_USBdrive.c ****     fileInformation.lfname = fname_arr;
 940              		.loc 1 24 28 is_stmt 0 view .LVU314
 941 001a FF22     		movs	r2, #255
 942 001c DA61     		str	r2, [r3, #28]
  25:Src/USB/Driver_USBdrive.c ****     sprintf(fileInformation.lfname, "%s", "");
 943              		.loc 1 25 5 is_stmt 1 view .LVU315
  25:Src/USB/Driver_USBdrive.c ****     sprintf(fileInformation.lfname, "%s", "");
 944              		.loc 1 25 28 is_stmt 0 view .LVU316
 945 001e 054A     		ldr	r2, .L86+12
 946 0020 9A61     		str	r2, [r3, #24]
  26:Src/USB/Driver_USBdrive.c **** }
 947              		.loc 1 26 5 is_stmt 1 view .LVU317
 948 0022 1470     		strb	r4, [r2]
  27:Src/USB/Driver_USBdrive.c **** 
 949              		.loc 1 27 1 is_stmt 0 view .LVU318
 950 0024 10BD     		pop	{r4, pc}
 951              	.L87:
 952 0026 00BF     		.align	2
 953              	.L86:
 954 0028 00000000 		.word	.LANCHOR1
 955 002c 00000000 		.word	.LANCHOR0
 956 0030 00000000 		.word	.LANCHOR2
 957 0034 00000000 		.word	.LANCHOR3
 958              		.cfi_endproc
 959              	.LFE68:
 961              		.section	.text.mount_USBdrive,"ax",%progbits
 962              		.align	1
 963              		.global	mount_USBdrive
 964              		.syntax unified
 965              		.thumb
 966              		.thumb_func
 967              		.fpu softvfp
 969              	mount_USBdrive:
 970              	.LFB69:
  30:Src/USB/Driver_USBdrive.c ****     if(currentMountedStatus_USBdrive == MOUNTED_USBDRIVE)
 971              		.loc 1 30 1 is_stmt 1 view -0
 972              		.cfi_startproc
 973              		@ args = 0, pretend = 0, frame = 0
 974              		@ frame_needed = 0, uses_anonymous_args = 0
 975 0000 08B5     		push	{r3, lr}
 976              	.LCFI3:
 977              		.cfi_def_cfa_offset 8
 978              		.cfi_offset 3, -8
 979              		.cfi_offset 14, -4
  31:Src/USB/Driver_USBdrive.c ****         return;
ARM GAS  /tmp/ccR5Y2I8.s 			page 24


 980              		.loc 1 31 5 view .LVU320
  31:Src/USB/Driver_USBdrive.c ****         return;
 981              		.loc 1 31 38 is_stmt 0 view .LVU321
 982 0002 0B4B     		ldr	r3, .L93
 983 0004 1B78     		ldrb	r3, [r3]	@ zero_extendqisi2
  31:Src/USB/Driver_USBdrive.c ****         return;
 984              		.loc 1 31 7 view .LVU322
 985 0006 012B     		cmp	r3, #1
 986 0008 08D0     		beq	.L88
  34:Src/USB/Driver_USBdrive.c ****     {
 987              		.loc 1 34 5 is_stmt 1 view .LVU323
  34:Src/USB/Driver_USBdrive.c ****     {
 988              		.loc 1 34 8 is_stmt 0 view .LVU324
 989 000a 0022     		movs	r2, #0
 990 000c 0949     		ldr	r1, .L93+4
 991 000e 0A48     		ldr	r0, .L93+8
 992 0010 FFF7FEFF 		bl	f_mount
 993              	.LVL148:
  34:Src/USB/Driver_USBdrive.c ****     {
 994              		.loc 1 34 7 view .LVU325
 995 0014 18B1     		cbz	r0, .L92
  41:Src/USB/Driver_USBdrive.c **** }
 996              		.loc 1 41 5 is_stmt 1 view .LVU326
  41:Src/USB/Driver_USBdrive.c **** }
 997              		.loc 1 41 35 is_stmt 0 view .LVU327
 998 0016 064B     		ldr	r3, .L93
 999 0018 0022     		movs	r2, #0
 1000 001a 1A70     		strb	r2, [r3]
 1001              	.L88:
  42:Src/USB/Driver_USBdrive.c **** 
 1002              		.loc 1 42 1 view .LVU328
 1003 001c 08BD     		pop	{r3, pc}
 1004              	.L92:
  36:Src/USB/Driver_USBdrive.c ****         sprintf(path, "%s", USBHPath);
 1005              		.loc 1 36 9 is_stmt 1 view .LVU329
  36:Src/USB/Driver_USBdrive.c ****         sprintf(path, "%s", USBHPath);
 1006              		.loc 1 36 39 is_stmt 0 view .LVU330
 1007 001e 044B     		ldr	r3, .L93
 1008 0020 0122     		movs	r2, #1
 1009 0022 1A70     		strb	r2, [r3]
  37:Src/USB/Driver_USBdrive.c ****         return;
 1010              		.loc 1 37 9 is_stmt 1 view .LVU331
 1011 0024 0349     		ldr	r1, .L93+4
 1012 0026 0548     		ldr	r0, .L93+12
 1013 0028 FFF7FEFF 		bl	strcpy
 1014              	.LVL149:
  38:Src/USB/Driver_USBdrive.c ****     }
 1015              		.loc 1 38 9 view .LVU332
 1016 002c F6E7     		b	.L88
 1017              	.L94:
 1018 002e 00BF     		.align	2
 1019              	.L93:
 1020 0030 00000000 		.word	.LANCHOR1
 1021 0034 00000000 		.word	USBHPath
 1022 0038 00000000 		.word	USBDISKFatFs
 1023 003c 00000000 		.word	.LANCHOR0
 1024              		.cfi_endproc
ARM GAS  /tmp/ccR5Y2I8.s 			page 25


 1025              	.LFE69:
 1027              		.section	.rodata.unmount_USBdrive.str1.4,"aMS",%progbits,1
 1028              		.align	2
 1029              	.LC0:
 1030 0000 256300   		.ascii	"%c\000"
 1031              		.section	.text.unmount_USBdrive,"ax",%progbits
 1032              		.align	1
 1033              		.global	unmount_USBdrive
 1034              		.syntax unified
 1035              		.thumb
 1036              		.thumb_func
 1037              		.fpu softvfp
 1039              	unmount_USBdrive:
 1040              	.LFB70:
  45:Src/USB/Driver_USBdrive.c ****     if (currentMountedStatus_USBdrive == UNMOUNTED_USBDRIVE)
 1041              		.loc 1 45 1 view -0
 1042              		.cfi_startproc
 1043              		@ args = 0, pretend = 0, frame = 0
 1044              		@ frame_needed = 0, uses_anonymous_args = 0
 1045 0000 08B5     		push	{r3, lr}
 1046              	.LCFI4:
 1047              		.cfi_def_cfa_offset 8
 1048              		.cfi_offset 3, -8
 1049              		.cfi_offset 14, -4
  46:Src/USB/Driver_USBdrive.c ****         return;
 1050              		.loc 1 46 5 view .LVU334
  46:Src/USB/Driver_USBdrive.c ****         return;
 1051              		.loc 1 46 39 is_stmt 0 view .LVU335
 1052 0002 0D4B     		ldr	r3, .L100
 1053 0004 1B78     		ldrb	r3, [r3]	@ zero_extendqisi2
  46:Src/USB/Driver_USBdrive.c ****         return;
 1054              		.loc 1 46 8 view .LVU336
 1055 0006 03B9     		cbnz	r3, .L99
 1056              	.L95:
  55:Src/USB/Driver_USBdrive.c **** 
 1057              		.loc 1 55 1 view .LVU337
 1058 0008 08BD     		pop	{r3, pc}
 1059              	.L99:
  49:Src/USB/Driver_USBdrive.c ****     memcpy(path, zeroPath_USBdriver, PATH_LENGTH);
 1060              		.loc 1 49 5 is_stmt 1 view .LVU338
 1061 000a 0022     		movs	r2, #0
 1062 000c 0B49     		ldr	r1, .L100+4
 1063 000e 0C48     		ldr	r0, .L100+8
 1064 0010 FFF7FEFF 		bl	sprintf
 1065              	.LVL150:
  50:Src/USB/Driver_USBdrive.c **** 
 1066              		.loc 1 50 5 view .LVU339
 1067 0014 0021     		movs	r1, #0
 1068 0016 0B48     		ldr	r0, .L100+12
 1069 0018 40F8041B 		str	r1, [r0], #4
 1070 001c 6022     		movs	r2, #96
 1071 001e FFF7FEFF 		bl	memset
 1072              	.LVL151:
  52:Src/USB/Driver_USBdrive.c **** 
 1073              		.loc 1 52 5 view .LVU340
 1074              	.L97:
  52:Src/USB/Driver_USBdrive.c **** 
ARM GAS  /tmp/ccR5Y2I8.s 			page 26


 1075              		.loc 1 52 50 discriminator 1 view .LVU341
  52:Src/USB/Driver_USBdrive.c **** 
 1076              		.loc 1 52 11 discriminator 1 view .LVU342
  52:Src/USB/Driver_USBdrive.c **** 
 1077              		.loc 1 52 12 is_stmt 0 discriminator 1 view .LVU343
 1078 0022 0022     		movs	r2, #0
 1079 0024 0649     		ldr	r1, .L100+8
 1080 0026 1046     		mov	r0, r2
 1081 0028 FFF7FEFF 		bl	f_mount
 1082              	.LVL152:
  52:Src/USB/Driver_USBdrive.c **** 
 1083              		.loc 1 52 11 discriminator 1 view .LVU344
 1084 002c 0028     		cmp	r0, #0
 1085 002e F8D1     		bne	.L97
  52:Src/USB/Driver_USBdrive.c **** 
 1086              		.loc 1 52 51 is_stmt 1 discriminator 2 view .LVU345
  54:Src/USB/Driver_USBdrive.c **** }
 1087              		.loc 1 54 5 discriminator 2 view .LVU346
  54:Src/USB/Driver_USBdrive.c **** }
 1088              		.loc 1 54 35 is_stmt 0 discriminator 2 view .LVU347
 1089 0030 014B     		ldr	r3, .L100
 1090 0032 0022     		movs	r2, #0
 1091 0034 1A70     		strb	r2, [r3]
 1092 0036 E7E7     		b	.L95
 1093              	.L101:
 1094              		.align	2
 1095              	.L100:
 1096 0038 00000000 		.word	.LANCHOR1
 1097 003c 00000000 		.word	.LC0
 1098 0040 00000000 		.word	USBHPath
 1099 0044 00000000 		.word	.LANCHOR0
 1100              		.cfi_endproc
 1101              	.LFE70:
 1103              		.section	.text.getMountedStatus,"ax",%progbits
 1104              		.align	1
 1105              		.global	getMountedStatus
 1106              		.syntax unified
 1107              		.thumb
 1108              		.thumb_func
 1109              		.fpu softvfp
 1111              	getMountedStatus:
 1112              	.LFB71:
  57:Src/USB/Driver_USBdrive.c **** 
 1113              		.loc 1 57 47 is_stmt 1 view -0
 1114              		.cfi_startproc
 1115              		@ args = 0, pretend = 0, frame = 0
 1116              		@ frame_needed = 0, uses_anonymous_args = 0
 1117              		@ link register save eliminated.
  57:Src/USB/Driver_USBdrive.c **** 
 1118              		.loc 1 57 49 view .LVU349
  57:Src/USB/Driver_USBdrive.c **** 
 1119              		.loc 1 57 1 is_stmt 0 view .LVU350
 1120 0000 014B     		ldr	r3, .L103
 1121 0002 1878     		ldrb	r0, [r3]	@ zero_extendqisi2
 1122 0004 7047     		bx	lr
 1123              	.L104:
 1124 0006 00BF     		.align	2
ARM GAS  /tmp/ccR5Y2I8.s 			page 27


 1125              	.L103:
 1126 0008 00000000 		.word	.LANCHOR1
 1127              		.cfi_endproc
 1128              	.LFE71:
 1130              		.section	.text.getPath_USBdrive,"ax",%progbits
 1131              		.align	1
 1132              		.global	getPath_USBdrive
 1133              		.syntax unified
 1134              		.thumb
 1135              		.thumb_func
 1136              		.fpu softvfp
 1138              	getPath_USBdrive:
 1139              	.LFB73:
 132:Src/USB/Driver_USBdrive.c **** 
 1140              		.loc 1 132 36 is_stmt 1 view -0
 1141              		.cfi_startproc
 1142              		@ args = 0, pretend = 0, frame = 0
 1143              		@ frame_needed = 0, uses_anonymous_args = 0
 1144              		@ link register save eliminated.
 132:Src/USB/Driver_USBdrive.c **** 
 1145              		.loc 1 132 38 view .LVU352
 132:Src/USB/Driver_USBdrive.c **** 
 1146              		.loc 1 132 1 is_stmt 0 view .LVU353
 1147 0000 0048     		ldr	r0, .L106
 1148 0002 7047     		bx	lr
 1149              	.L107:
 1150              		.align	2
 1151              	.L106:
 1152 0004 00000000 		.word	.LANCHOR0
 1153              		.cfi_endproc
 1154              	.LFE73:
 1156              		.section	.text.getWidePath_USBdrive,"ax",%progbits
 1157              		.align	1
 1158              		.global	getWidePath_USBdrive
 1159              		.syntax unified
 1160              		.thumb
 1161              		.thumb_func
 1162              		.fpu softvfp
 1164              	getWidePath_USBdrive:
 1165              	.LFB75:
 143:Src/USB/Driver_USBdrive.c ****     convertPathToWidePath(widePath);
 1166              		.loc 1 143 1 is_stmt 1 view -0
 1167              		.cfi_startproc
 1168              		@ args = 0, pretend = 0, frame = 0
 1169              		@ frame_needed = 0, uses_anonymous_args = 0
 1170 0000 10B5     		push	{r4, lr}
 1171              	.LCFI5:
 1172              		.cfi_def_cfa_offset 8
 1173              		.cfi_offset 4, -8
 1174              		.cfi_offset 14, -4
 144:Src/USB/Driver_USBdrive.c ****     return (const wchar_t*) widePath;
 1175              		.loc 1 144 5 view .LVU355
 1176 0002 034C     		ldr	r4, .L110
 1177 0004 2046     		mov	r0, r4
 1178 0006 FFF7FEFF 		bl	convertPathToWidePath
 1179              	.LVL153:
 145:Src/USB/Driver_USBdrive.c **** }
ARM GAS  /tmp/ccR5Y2I8.s 			page 28


 1180              		.loc 1 145 5 view .LVU356
 146:Src/USB/Driver_USBdrive.c **** 
 1181              		.loc 1 146 1 is_stmt 0 view .LVU357
 1182 000a 2046     		mov	r0, r4
 1183 000c 10BD     		pop	{r4, pc}
 1184              	.L111:
 1185 000e 00BF     		.align	2
 1186              	.L110:
 1187 0010 00000000 		.word	.LANCHOR4
 1188              		.cfi_endproc
 1189              	.LFE75:
 1191              		.section	.text.openDirectory_USBdrive,"ax",%progbits
 1192              		.align	1
 1193              		.global	openDirectory_USBdrive
 1194              		.syntax unified
 1195              		.thumb
 1196              		.thumb_func
 1197              		.fpu softvfp
 1199              	openDirectory_USBdrive:
 1200              	.LVL154:
 1201              	.LFB76:
 150:Src/USB/Driver_USBdrive.c ****     f_closedir(&directory);
 1202              		.loc 1 150 1 is_stmt 1 view -0
 1203              		.cfi_startproc
 1204              		@ args = 0, pretend = 0, frame = 0
 1205              		@ frame_needed = 0, uses_anonymous_args = 0
 150:Src/USB/Driver_USBdrive.c ****     f_closedir(&directory);
 1206              		.loc 1 150 1 is_stmt 0 view .LVU359
 1207 0000 10B5     		push	{r4, lr}
 1208              	.LCFI6:
 1209              		.cfi_def_cfa_offset 8
 1210              		.cfi_offset 4, -8
 1211              		.cfi_offset 14, -4
 1212 0002 0446     		mov	r4, r0
 151:Src/USB/Driver_USBdrive.c **** 
 1213              		.loc 1 151 5 is_stmt 1 view .LVU360
 1214 0004 0A48     		ldr	r0, .L118
 1215              	.LVL155:
 151:Src/USB/Driver_USBdrive.c **** 
 1216              		.loc 1 151 5 is_stmt 0 view .LVU361
 1217 0006 FFF7FEFF 		bl	f_closedir
 1218              	.LVL156:
 153:Src/USB/Driver_USBdrive.c ****         return;
 1219              		.loc 1 153 5 is_stmt 1 view .LVU362
 153:Src/USB/Driver_USBdrive.c ****         return;
 1220              		.loc 1 153 39 is_stmt 0 view .LVU363
 1221 000a 0A4B     		ldr	r3, .L118+4
 1222 000c 1B78     		ldrb	r3, [r3]	@ zero_extendqisi2
 153:Src/USB/Driver_USBdrive.c ****         return;
 1223              		.loc 1 153 8 view .LVU364
 1224 000e 03B9     		cbnz	r3, .L116
 1225              	.L112:
 164:Src/USB/Driver_USBdrive.c **** 
 1226              		.loc 1 164 1 view .LVU365
 1227 0010 10BD     		pop	{r4, pc}
 1228              	.LVL157:
 1229              	.L116:
ARM GAS  /tmp/ccR5Y2I8.s 			page 29


 156:Src/USB/Driver_USBdrive.c ****     {
 1230              		.loc 1 156 5 is_stmt 1 view .LVU366
 156:Src/USB/Driver_USBdrive.c ****     {
 1231              		.loc 1 156 8 is_stmt 0 view .LVU367
 1232 0012 2146     		mov	r1, r4
 1233 0014 0648     		ldr	r0, .L118
 1234 0016 FFF7FEFF 		bl	f_opendir
 1235              	.LVL158:
 156:Src/USB/Driver_USBdrive.c ****     {
 1236              		.loc 1 156 7 view .LVU368
 1237 001a 20B9     		cbnz	r0, .L117
 162:Src/USB/Driver_USBdrive.c **** 
 1238              		.loc 1 162 5 is_stmt 1 view .LVU369
 1239 001c 2146     		mov	r1, r4
 1240 001e 0648     		ldr	r0, .L118+8
 1241 0020 FFF7FEFF 		bl	strcpy
 1242              	.LVL159:
 1243 0024 F4E7     		b	.L112
 1244              	.L117:
 158:Src/USB/Driver_USBdrive.c ****         return;
 1245              		.loc 1 158 9 view .LVU370
 1246 0026 0449     		ldr	r1, .L118+8
 1247 0028 0148     		ldr	r0, .L118
 1248 002a FFF7FEFF 		bl	f_opendir
 1249              	.LVL160:
 159:Src/USB/Driver_USBdrive.c ****     }
 1250              		.loc 1 159 9 view .LVU371
 1251 002e EFE7     		b	.L112
 1252              	.L119:
 1253              		.align	2
 1254              	.L118:
 1255 0030 00000000 		.word	directory
 1256 0034 00000000 		.word	.LANCHOR1
 1257 0038 00000000 		.word	.LANCHOR0
 1258              		.cfi_endproc
 1259              	.LFE76:
 1261              		.section	.text.readItem_USBdrive,"ax",%progbits
 1262              		.align	1
 1263              		.global	readItem_USBdrive
 1264              		.syntax unified
 1265              		.thumb
 1266              		.thumb_func
 1267              		.fpu softvfp
 1269              	readItem_USBdrive:
 1270              	.LFB77:
 167:Src/USB/Driver_USBdrive.c ****     if (currentMountedStatus_USBdrive == UNMOUNTED_USBDRIVE)
 1271              		.loc 1 167 1 view -0
 1272              		.cfi_startproc
 1273              		@ args = 0, pretend = 0, frame = 0
 1274              		@ frame_needed = 0, uses_anonymous_args = 0
 1275 0000 08B5     		push	{r3, lr}
 1276              	.LCFI7:
 1277              		.cfi_def_cfa_offset 8
 1278              		.cfi_offset 3, -8
 1279              		.cfi_offset 14, -4
 168:Src/USB/Driver_USBdrive.c ****         return;
 1280              		.loc 1 168 5 view .LVU373
ARM GAS  /tmp/ccR5Y2I8.s 			page 30


 168:Src/USB/Driver_USBdrive.c ****         return;
 1281              		.loc 1 168 39 is_stmt 0 view .LVU374
 1282 0002 044B     		ldr	r3, .L124
 1283 0004 1B78     		ldrb	r3, [r3]	@ zero_extendqisi2
 168:Src/USB/Driver_USBdrive.c ****         return;
 1284              		.loc 1 168 8 view .LVU375
 1285 0006 03B9     		cbnz	r3, .L123
 1286              	.L120:
 173:Src/USB/Driver_USBdrive.c **** 
 1287              		.loc 1 173 1 view .LVU376
 1288 0008 08BD     		pop	{r3, pc}
 1289              	.L123:
 171:Src/USB/Driver_USBdrive.c ****         return;
 1290              		.loc 1 171 5 is_stmt 1 view .LVU377
 171:Src/USB/Driver_USBdrive.c ****         return;
 1291              		.loc 1 171 8 is_stmt 0 view .LVU378
 1292 000a 0349     		ldr	r1, .L124+4
 1293 000c 0348     		ldr	r0, .L124+8
 1294 000e FFF7FEFF 		bl	f_readdir
 1295              	.LVL161:
 1296 0012 F9E7     		b	.L120
 1297              	.L125:
 1298              		.align	2
 1299              	.L124:
 1300 0014 00000000 		.word	.LANCHOR1
 1301 0018 00000000 		.word	.LANCHOR2
 1302 001c 00000000 		.word	directory
 1303              		.cfi_endproc
 1304              	.LFE77:
 1306              		.section	.text.getName_USBdrive,"ax",%progbits
 1307              		.align	1
 1308              		.global	getName_USBdrive
 1309              		.syntax unified
 1310              		.thumb
 1311              		.thumb_func
 1312              		.fpu softvfp
 1314              	getName_USBdrive:
 1315              	.LFB78:
 175:Src/USB/Driver_USBdrive.c **** 
 1316              		.loc 1 175 37 is_stmt 1 view -0
 1317              		.cfi_startproc
 1318              		@ args = 0, pretend = 0, frame = 0
 1319              		@ frame_needed = 0, uses_anonymous_args = 0
 1320              		@ link register save eliminated.
 175:Src/USB/Driver_USBdrive.c **** 
 1321              		.loc 1 175 39 view .LVU380
 175:Src/USB/Driver_USBdrive.c **** 
 1322              		.loc 1 175 1 is_stmt 0 view .LVU381
 1323 0000 0048     		ldr	r0, .L127
 1324 0002 7047     		bx	lr
 1325              	.L128:
 1326              		.align	2
 1327              	.L127:
 1328 0004 09000000 		.word	.LANCHOR2+9
 1329              		.cfi_endproc
 1330              	.LFE78:
 1332              		.section	.text.getLongName_USBdrive,"ax",%progbits
ARM GAS  /tmp/ccR5Y2I8.s 			page 31


 1333              		.align	1
 1334              		.global	getLongName_USBdrive
 1335              		.syntax unified
 1336              		.thumb
 1337              		.thumb_func
 1338              		.fpu softvfp
 1340              	getLongName_USBdrive:
 1341              	.LFB79:
 177:Src/USB/Driver_USBdrive.c **** 
 1342              		.loc 1 177 41 is_stmt 1 view -0
 1343              		.cfi_startproc
 1344              		@ args = 0, pretend = 0, frame = 0
 1345              		@ frame_needed = 0, uses_anonymous_args = 0
 1346              		@ link register save eliminated.
 177:Src/USB/Driver_USBdrive.c **** 
 1347              		.loc 1 177 43 view .LVU383
 177:Src/USB/Driver_USBdrive.c **** 
 1348              		.loc 1 177 1 is_stmt 0 view .LVU384
 1349 0000 014B     		ldr	r3, .L130
 1350 0002 9869     		ldr	r0, [r3, #24]
 1351 0004 7047     		bx	lr
 1352              	.L131:
 1353 0006 00BF     		.align	2
 1354              	.L130:
 1355 0008 00000000 		.word	.LANCHOR2
 1356              		.cfi_endproc
 1357              	.LFE79:
 1359              		.section	.text.getWideLongName_USBdrive,"ax",%progbits
 1360              		.align	1
 1361              		.global	getWideLongName_USBdrive
 1362              		.syntax unified
 1363              		.thumb
 1364              		.thumb_func
 1365              		.fpu softvfp
 1367              	getWideLongName_USBdrive:
 1368              	.LFB81:
 190:Src/USB/Driver_USBdrive.c **** 
 191:Src/USB/Driver_USBdrive.c **** static wchar_t outputWideName[MAX_WIDE_NAME_LENGTH];
 192:Src/USB/Driver_USBdrive.c **** const wchar_t* getWideLongName_USBdrive(void)
 193:Src/USB/Driver_USBdrive.c **** {
 1369              		.loc 1 193 1 is_stmt 1 view -0
 1370              		.cfi_startproc
 1371              		@ args = 0, pretend = 0, frame = 0
 1372              		@ frame_needed = 0, uses_anonymous_args = 0
 1373 0000 10B5     		push	{r4, lr}
 1374              	.LCFI8:
 1375              		.cfi_def_cfa_offset 8
 1376              		.cfi_offset 4, -8
 1377              		.cfi_offset 14, -4
 194:Src/USB/Driver_USBdrive.c ****     convertLongNameToWideLongName(outputWideName, fileInformation.lfname);
 1378              		.loc 1 194 5 view .LVU386
 1379 0002 044C     		ldr	r4, .L134
 1380 0004 044B     		ldr	r3, .L134+4
 1381 0006 9969     		ldr	r1, [r3, #24]
 1382 0008 2046     		mov	r0, r4
 1383 000a FFF7FEFF 		bl	convertLongNameToWideLongName
 1384              	.LVL162:
ARM GAS  /tmp/ccR5Y2I8.s 			page 32


 195:Src/USB/Driver_USBdrive.c ****     return (const wchar_t*) outputWideName;
 1385              		.loc 1 195 5 view .LVU387
 196:Src/USB/Driver_USBdrive.c **** }
 1386              		.loc 1 196 1 is_stmt 0 view .LVU388
 1387 000e 2046     		mov	r0, r4
 1388 0010 10BD     		pop	{r4, pc}
 1389              	.L135:
 1390 0012 00BF     		.align	2
 1391              	.L134:
 1392 0014 00000000 		.word	.LANCHOR5
 1393 0018 00000000 		.word	.LANCHOR2
 1394              		.cfi_endproc
 1395              	.LFE81:
 1397              		.section	.text.getItemType_USBdrive,"ax",%progbits
 1398              		.align	1
 1399              		.global	getItemType_USBdrive
 1400              		.syntax unified
 1401              		.thumb
 1402              		.thumb_func
 1403              		.fpu softvfp
 1405              	getItemType_USBdrive:
 1406              	.LFB82:
 197:Src/USB/Driver_USBdrive.c **** 
 198:Src/USB/Driver_USBdrive.c **** itemType_USBdrive getItemType_USBdrive(void)
 199:Src/USB/Driver_USBdrive.c **** {
 1407              		.loc 1 199 1 is_stmt 1 view -0
 1408              		.cfi_startproc
 1409              		@ args = 0, pretend = 0, frame = 0
 1410              		@ frame_needed = 0, uses_anonymous_args = 0
 1411 0000 08B5     		push	{r3, lr}
 1412              	.LCFI9:
 1413              		.cfi_def_cfa_offset 8
 1414              		.cfi_offset 3, -8
 1415              		.cfi_offset 14, -4
 200:Src/USB/Driver_USBdrive.c ****     if (getName_USBdrive()[0] == '\0')
 1416              		.loc 1 200 5 view .LVU390
 1417              		.loc 1 200 27 is_stmt 0 view .LVU391
 1418 0002 FFF7FEFF 		bl	getName_USBdrive
 1419              	.LVL163:
 1420 0006 0078     		ldrb	r0, [r0]	@ zero_extendqisi2
 1421              		.loc 1 200 8 view .LVU392
 1422 0008 20B1     		cbz	r0, .L137
 201:Src/USB/Driver_USBdrive.c ****         return ITEM_IS_EMPTY;
 202:Src/USB/Driver_USBdrive.c ****     if (fileInformation.fattrib == AM_DIR)
 1423              		.loc 1 202 5 is_stmt 1 view .LVU393
 1424              		.loc 1 202 24 is_stmt 0 view .LVU394
 1425 000a 044B     		ldr	r3, .L140
 1426 000c 1B7A     		ldrb	r3, [r3, #8]	@ zero_extendqisi2
 1427              		.loc 1 202 8 view .LVU395
 1428 000e 102B     		cmp	r3, #16
 1429 0010 01D0     		beq	.L138
 203:Src/USB/Driver_USBdrive.c ****         return ITEM_IS_DIRECTORY;
 204:Src/USB/Driver_USBdrive.c ****     return ITEM_IS_FILE;
 1430              		.loc 1 204 12 view .LVU396
 1431 0012 0120     		movs	r0, #1
 1432              	.L137:
 205:Src/USB/Driver_USBdrive.c **** }
ARM GAS  /tmp/ccR5Y2I8.s 			page 33


 1433              		.loc 1 205 1 view .LVU397
 1434 0014 08BD     		pop	{r3, pc}
 1435              	.L138:
 203:Src/USB/Driver_USBdrive.c ****         return ITEM_IS_DIRECTORY;
 1436              		.loc 1 203 16 view .LVU398
 1437 0016 0220     		movs	r0, #2
 1438 0018 FCE7     		b	.L137
 1439              	.L141:
 1440 001a 00BF     		.align	2
 1441              	.L140:
 1442 001c 00000000 		.word	.LANCHOR2
 1443              		.cfi_endproc
 1444              	.LFE82:
 1446              		.section	.text.openFile_USBdrive,"ax",%progbits
 1447              		.align	1
 1448              		.global	openFile_USBdrive
 1449              		.syntax unified
 1450              		.thumb
 1451              		.thumb_func
 1452              		.fpu softvfp
 1454              	openFile_USBdrive:
 1455              	.LVL164:
 1456              	.LFB83:
 206:Src/USB/Driver_USBdrive.c **** 
 207:Src/USB/Driver_USBdrive.c **** void openFile_USBdrive(const TCHAR* pathToFile)
 208:Src/USB/Driver_USBdrive.c **** {
 1457              		.loc 1 208 1 is_stmt 1 view -0
 1458              		.cfi_startproc
 1459              		@ args = 0, pretend = 0, frame = 0
 1460              		@ frame_needed = 0, uses_anonymous_args = 0
 1461              		.loc 1 208 1 is_stmt 0 view .LVU400
 1462 0000 10B5     		push	{r4, lr}
 1463              	.LCFI10:
 1464              		.cfi_def_cfa_offset 8
 1465              		.cfi_offset 4, -8
 1466              		.cfi_offset 14, -4
 1467 0002 0446     		mov	r4, r0
 209:Src/USB/Driver_USBdrive.c ****     f_close(&file);
 1468              		.loc 1 209 5 is_stmt 1 view .LVU401
 1469 0004 0648     		ldr	r0, .L146
 1470              	.LVL165:
 1471              		.loc 1 209 5 is_stmt 0 view .LVU402
 1472 0006 FFF7FEFF 		bl	f_close
 1473              	.LVL166:
 210:Src/USB/Driver_USBdrive.c **** 
 211:Src/USB/Driver_USBdrive.c ****     if (currentMountedStatus_USBdrive == UNMOUNTED_USBDRIVE)
 1474              		.loc 1 211 5 is_stmt 1 view .LVU403
 1475              		.loc 1 211 39 is_stmt 0 view .LVU404
 1476 000a 064B     		ldr	r3, .L146+4
 1477 000c 1B78     		ldrb	r3, [r3]	@ zero_extendqisi2
 1478              		.loc 1 211 8 view .LVU405
 1479 000e 03B9     		cbnz	r3, .L145
 1480              	.L142:
 212:Src/USB/Driver_USBdrive.c ****         return;
 213:Src/USB/Driver_USBdrive.c **** 
 214:Src/USB/Driver_USBdrive.c ****     f_open(&file, pathToFile, FA_READ);
 215:Src/USB/Driver_USBdrive.c **** }
ARM GAS  /tmp/ccR5Y2I8.s 			page 34


 1481              		.loc 1 215 1 view .LVU406
 1482 0010 10BD     		pop	{r4, pc}
 1483              	.LVL167:
 1484              	.L145:
 214:Src/USB/Driver_USBdrive.c **** }
 1485              		.loc 1 214 5 is_stmt 1 view .LVU407
 1486 0012 0122     		movs	r2, #1
 1487 0014 2146     		mov	r1, r4
 1488 0016 0248     		ldr	r0, .L146
 1489 0018 FFF7FEFF 		bl	f_open
 1490              	.LVL168:
 1491 001c F8E7     		b	.L142
 1492              	.L147:
 1493 001e 00BF     		.align	2
 1494              	.L146:
 1495 0020 00000000 		.word	file
 1496 0024 00000000 		.word	.LANCHOR1
 1497              		.cfi_endproc
 1498              	.LFE83:
 1500              		.section	.rodata.getStringFromFile_USBdrive.str1.4,"aMS",%progbits,1
 1501              		.align	2
 1502              	.LC1:
 1503 0000 00       		.ascii	"\000"
 1504              		.section	.text.getStringFromFile_USBdrive,"ax",%progbits
 1505              		.align	1
 1506              		.global	getStringFromFile_USBdrive
 1507              		.syntax unified
 1508              		.thumb
 1509              		.thumb_func
 1510              		.fpu softvfp
 1512              	getStringFromFile_USBdrive:
 1513              	.LFB84:
 216:Src/USB/Driver_USBdrive.c **** 
 217:Src/USB/Driver_USBdrive.c **** static TCHAR stringFromFile[STRING_FROM_FILE_LENGTH];
 218:Src/USB/Driver_USBdrive.c **** const TCHAR* getStringFromFile_USBdrive(void)
 219:Src/USB/Driver_USBdrive.c **** {
 1514              		.loc 1 219 1 view -0
 1515              		.cfi_startproc
 1516              		@ args = 0, pretend = 0, frame = 0
 1517              		@ frame_needed = 0, uses_anonymous_args = 0
 220:Src/USB/Driver_USBdrive.c ****     if (currentMountedStatus_USBdrive == UNMOUNTED_USBDRIVE)
 1518              		.loc 1 220 5 view .LVU409
 1519              		.loc 1 220 39 is_stmt 0 view .LVU410
 1520 0000 064B     		ldr	r3, .L156
 1521 0002 1B78     		ldrb	r3, [r3]	@ zero_extendqisi2
 1522              		.loc 1 220 8 view .LVU411
 1523 0004 0BB9     		cbnz	r3, .L155
 221:Src/USB/Driver_USBdrive.c ****         return "";
 1524              		.loc 1 221 16 view .LVU412
 1525 0006 0648     		ldr	r0, .L156+4
 222:Src/USB/Driver_USBdrive.c **** 
 223:Src/USB/Driver_USBdrive.c ****     f_gets(stringFromFile, STRING_FROM_FILE_LENGTH, &file);
 224:Src/USB/Driver_USBdrive.c ****     return (const TCHAR*) stringFromFile;
 225:Src/USB/Driver_USBdrive.c **** }
 1526              		.loc 1 225 1 view .LVU413
 1527 0008 7047     		bx	lr
 1528              	.L155:
ARM GAS  /tmp/ccR5Y2I8.s 			page 35


 219:Src/USB/Driver_USBdrive.c ****     if (currentMountedStatus_USBdrive == UNMOUNTED_USBDRIVE)
 1529              		.loc 1 219 1 view .LVU414
 1530 000a 10B5     		push	{r4, lr}
 1531              	.LCFI11:
 1532              		.cfi_def_cfa_offset 8
 1533              		.cfi_offset 4, -8
 1534              		.cfi_offset 14, -4
 223:Src/USB/Driver_USBdrive.c ****     return (const TCHAR*) stringFromFile;
 1535              		.loc 1 223 5 is_stmt 1 view .LVU415
 1536 000c 054C     		ldr	r4, .L156+8
 1537 000e 064A     		ldr	r2, .L156+12
 1538 0010 6421     		movs	r1, #100
 1539 0012 2046     		mov	r0, r4
 1540 0014 FFF7FEFF 		bl	f_gets
 1541              	.LVL169:
 224:Src/USB/Driver_USBdrive.c **** }
 1542              		.loc 1 224 5 view .LVU416
 224:Src/USB/Driver_USBdrive.c **** }
 1543              		.loc 1 224 12 is_stmt 0 view .LVU417
 1544 0018 2046     		mov	r0, r4
 1545              		.loc 1 225 1 view .LVU418
 1546 001a 10BD     		pop	{r4, pc}
 1547              	.L157:
 1548              		.align	2
 1549              	.L156:
 1550 001c 00000000 		.word	.LANCHOR1
 1551 0020 00000000 		.word	.LC1
 1552 0024 00000000 		.word	.LANCHOR6
 1553 0028 00000000 		.word	file
 1554              		.cfi_endproc
 1555              	.LFE84:
 1557              		.section	.text.endOfFile_USBdrive,"ax",%progbits
 1558              		.align	1
 1559              		.global	endOfFile_USBdrive
 1560              		.syntax unified
 1561              		.thumb
 1562              		.thumb_func
 1563              		.fpu softvfp
 1565              	endOfFile_USBdrive:
 1566              	.LFB85:
 226:Src/USB/Driver_USBdrive.c **** 
 227:Src/USB/Driver_USBdrive.c **** _Bool endOfFile_USBdrive(void)
 228:Src/USB/Driver_USBdrive.c **** {
 1567              		.loc 1 228 1 is_stmt 1 view -0
 1568              		.cfi_startproc
 1569              		@ args = 0, pretend = 0, frame = 0
 1570              		@ frame_needed = 0, uses_anonymous_args = 0
 1571              		@ link register save eliminated.
 229:Src/USB/Driver_USBdrive.c ****     if(f_eof(&file)==0)
 1572              		.loc 1 229 5 view .LVU420
 1573              		.loc 1 229 8 is_stmt 0 view .LVU421
 1574 0000 064B     		ldr	r3, .L161
 1575 0002 41F20802 		movw	r2, #4104
 1576 0006 9A58     		ldr	r2, [r3, r2]
 1577 0008 41F20C01 		movw	r1, #4108
 1578 000c 5B58     		ldr	r3, [r3, r1]
 1579              		.loc 1 229 7 view .LVU422
ARM GAS  /tmp/ccR5Y2I8.s 			page 36


 1580 000e 9A42     		cmp	r2, r3
 1581 0010 01D1     		bne	.L160
 230:Src/USB/Driver_USBdrive.c ****         return false;
 231:Src/USB/Driver_USBdrive.c ****     return true;
 1582              		.loc 1 231 12 view .LVU423
 1583 0012 0120     		movs	r0, #1
 1584 0014 7047     		bx	lr
 1585              	.L160:
 230:Src/USB/Driver_USBdrive.c ****         return false;
 1586              		.loc 1 230 16 view .LVU424
 1587 0016 0020     		movs	r0, #0
 232:Src/USB/Driver_USBdrive.c **** }
 1588              		.loc 1 232 1 view .LVU425
 1589 0018 7047     		bx	lr
 1590              	.L162:
 1591 001a 00BF     		.align	2
 1592              	.L161:
 1593 001c 00000000 		.word	file
 1594              		.cfi_endproc
 1595              	.LFE85:
 1597              		.section	.bss.USBDISKFatFs,"aw",%nobits
 1598              		.align	2
 1601              	USBDISKFatFs:
 1602 0000 00000000 		.space	4144
 1602      00000000 
 1602      00000000 
 1602      00000000 
 1602      00000000 
 1603              		.section	.bss.currentMountedStatus_USBdrive,"aw",%nobits
 1604              		.set	.LANCHOR1,. + 0
 1607              	currentMountedStatus_USBdrive:
 1608 0000 00       		.space	1
 1609              		.section	.bss.directory,"aw",%nobits
 1610              		.align	2
 1613              	directory:
 1614 0000 00000000 		.space	4136
 1614      00000000 
 1614      00000000 
 1614      00000000 
 1614      00000000 
 1615              		.section	.bss.file,"aw",%nobits
 1616              		.align	2
 1619              	file:
 1620 0000 00000000 		.space	4140
 1620      00000000 
 1620      00000000 
 1620      00000000 
 1620      00000000 
 1621              		.section	.bss.fileInformation,"aw",%nobits
 1622              		.align	2
 1623              		.set	.LANCHOR2,. + 0
 1626              	fileInformation:
 1627 0000 00000000 		.space	32
 1627      00000000 
 1627      00000000 
 1627      00000000 
 1627      00000000 
ARM GAS  /tmp/ccR5Y2I8.s 			page 37


 1628              		.section	.bss.fname_arr,"aw",%nobits
 1629              		.align	2
 1630              		.set	.LANCHOR3,. + 0
 1633              	fname_arr:
 1634 0000 00000000 		.space	255
 1634      00000000 
 1634      00000000 
 1634      00000000 
 1634      00000000 
 1635              		.section	.bss.outputWideName,"aw",%nobits
 1636              		.align	2
 1637              		.set	.LANCHOR5,. + 0
 1640              	outputWideName:
 1641 0000 00000000 		.space	400
 1641      00000000 
 1641      00000000 
 1641      00000000 
 1641      00000000 
 1642              		.section	.bss.path,"aw",%nobits
 1643              		.align	2
 1644              		.set	.LANCHOR0,. + 0
 1647              	path:
 1648 0000 00000000 		.space	100
 1648      00000000 
 1648      00000000 
 1648      00000000 
 1648      00000000 
 1649              		.section	.bss.stringFromFile,"aw",%nobits
 1650              		.align	2
 1651              		.set	.LANCHOR6,. + 0
 1654              	stringFromFile:
 1655 0000 00000000 		.space	100
 1655      00000000 
 1655      00000000 
 1655      00000000 
 1655      00000000 
 1656              		.section	.bss.widePath,"aw",%nobits
 1657              		.align	2
 1658              		.set	.LANCHOR4,. + 0
 1661              	widePath:
 1662 0000 00000000 		.space	400
 1662      00000000 
 1662      00000000 
 1662      00000000 
 1662      00000000 
 1663              		.text
 1664              	.Letext0:
 1665              		.file 2 "/usr/lib/gcc/arm-none-eabi/9.2.1/include/stddef.h"
 1666              		.file 3 "/usr/include/newlib/sys/_types.h"
 1667              		.file 4 "/usr/include/newlib/sys/reent.h"
 1668              		.file 5 "/usr/include/newlib/sys/lock.h"
 1669              		.file 6 "Middlewares/Third_Party/FatFs/src/integer.h"
 1670              		.file 7 "/usr/lib/gcc/arm-none-eabi/9.2.1/include/stdint.h"
 1671              		.file 8 "Drivers/CMSIS/Include/core_cm3.h"
 1672              		.file 9 "Drivers/CMSIS/Device/ST/STM32F1xx/Include/system_stm32f1xx.h"
 1673              		.file 10 "Drivers/STM32F1xx_HAL_Driver/Inc/stm32f1xx_hal.h"
 1674              		.file 11 "/usr/include/newlib/stdlib.h"
ARM GAS  /tmp/ccR5Y2I8.s 			page 38


 1675              		.file 12 "Middlewares/ST/STM32_USB_Host_Library/Core/Inc/usbh_def.h"
 1676              		.file 13 "Middlewares/ST/STM32_USB_Host_Library/Core/Inc/usbh_ctlreq.h"
 1677              		.file 14 "Middlewares/ST/STM32_USB_Host_Library/Class/MSC/Inc/usbh_msc.h"
 1678              		.file 15 "Middlewares/Third_Party/FatFs/src/ff.h"
 1679              		.file 16 "Inc/USB/Driver_USBdrive.h"
 1680              		.file 17 "Middlewares/Third_Party/FatFs/src/diskio.h"
 1681              		.file 18 "Middlewares/Third_Party/FatFs/src/ff_gen_drv.h"
 1682              		.file 19 "Middlewares/Third_Party/FatFs/src/drivers/usbh_diskio.h"
 1683              		.file 20 "Inc/fatfs.h"
 1684              		.file 21 "/usr/include/newlib/stdio.h"
 1685              		.file 22 "<built-in>"
ARM GAS  /tmp/ccR5Y2I8.s 			page 39


DEFINED SYMBOLS
                            *ABS*:0000000000000000 Driver_USBdrive.c
     /tmp/ccR5Y2I8.s:16     .text.TCHAR2wchar_t:0000000000000000 $t
     /tmp/ccR5Y2I8.s:23     .text.TCHAR2wchar_t:0000000000000000 TCHAR2wchar_t
     /tmp/ccR5Y2I8.s:764    .text.convertPathToWidePath:0000000000000000 $t
     /tmp/ccR5Y2I8.s:770    .text.convertPathToWidePath:0000000000000000 convertPathToWidePath
     /tmp/ccR5Y2I8.s:819    .text.convertPathToWidePath:000000000000001c $d
     /tmp/ccR5Y2I8.s:824    .text.convertLongNameToWideLongName:0000000000000000 $t
     /tmp/ccR5Y2I8.s:830    .text.convertLongNameToWideLongName:0000000000000000 convertLongNameToWideLongName
     /tmp/ccR5Y2I8.s:906    .text.createDriver_USBdrive:0000000000000000 $t
     /tmp/ccR5Y2I8.s:913    .text.createDriver_USBdrive:0000000000000000 createDriver_USBdrive
     /tmp/ccR5Y2I8.s:954    .text.createDriver_USBdrive:0000000000000028 $d
     /tmp/ccR5Y2I8.s:962    .text.mount_USBdrive:0000000000000000 $t
     /tmp/ccR5Y2I8.s:969    .text.mount_USBdrive:0000000000000000 mount_USBdrive
     /tmp/ccR5Y2I8.s:1020   .text.mount_USBdrive:0000000000000030 $d
     /tmp/ccR5Y2I8.s:1601   .bss.USBDISKFatFs:0000000000000000 USBDISKFatFs
     /tmp/ccR5Y2I8.s:1028   .rodata.unmount_USBdrive.str1.4:0000000000000000 $d
     /tmp/ccR5Y2I8.s:1032   .text.unmount_USBdrive:0000000000000000 $t
     /tmp/ccR5Y2I8.s:1039   .text.unmount_USBdrive:0000000000000000 unmount_USBdrive
     /tmp/ccR5Y2I8.s:1096   .text.unmount_USBdrive:0000000000000038 $d
     /tmp/ccR5Y2I8.s:1104   .text.getMountedStatus:0000000000000000 $t
     /tmp/ccR5Y2I8.s:1111   .text.getMountedStatus:0000000000000000 getMountedStatus
     /tmp/ccR5Y2I8.s:1126   .text.getMountedStatus:0000000000000008 $d
     /tmp/ccR5Y2I8.s:1131   .text.getPath_USBdrive:0000000000000000 $t
     /tmp/ccR5Y2I8.s:1138   .text.getPath_USBdrive:0000000000000000 getPath_USBdrive
     /tmp/ccR5Y2I8.s:1152   .text.getPath_USBdrive:0000000000000004 $d
     /tmp/ccR5Y2I8.s:1157   .text.getWidePath_USBdrive:0000000000000000 $t
     /tmp/ccR5Y2I8.s:1164   .text.getWidePath_USBdrive:0000000000000000 getWidePath_USBdrive
     /tmp/ccR5Y2I8.s:1187   .text.getWidePath_USBdrive:0000000000000010 $d
     /tmp/ccR5Y2I8.s:1192   .text.openDirectory_USBdrive:0000000000000000 $t
     /tmp/ccR5Y2I8.s:1199   .text.openDirectory_USBdrive:0000000000000000 openDirectory_USBdrive
     /tmp/ccR5Y2I8.s:1255   .text.openDirectory_USBdrive:0000000000000030 $d
     /tmp/ccR5Y2I8.s:1613   .bss.directory:0000000000000000 directory
     /tmp/ccR5Y2I8.s:1262   .text.readItem_USBdrive:0000000000000000 $t
     /tmp/ccR5Y2I8.s:1269   .text.readItem_USBdrive:0000000000000000 readItem_USBdrive
     /tmp/ccR5Y2I8.s:1300   .text.readItem_USBdrive:0000000000000014 $d
     /tmp/ccR5Y2I8.s:1307   .text.getName_USBdrive:0000000000000000 $t
     /tmp/ccR5Y2I8.s:1314   .text.getName_USBdrive:0000000000000000 getName_USBdrive
     /tmp/ccR5Y2I8.s:1328   .text.getName_USBdrive:0000000000000004 $d
     /tmp/ccR5Y2I8.s:1333   .text.getLongName_USBdrive:0000000000000000 $t
     /tmp/ccR5Y2I8.s:1340   .text.getLongName_USBdrive:0000000000000000 getLongName_USBdrive
     /tmp/ccR5Y2I8.s:1355   .text.getLongName_USBdrive:0000000000000008 $d
     /tmp/ccR5Y2I8.s:1360   .text.getWideLongName_USBdrive:0000000000000000 $t
     /tmp/ccR5Y2I8.s:1367   .text.getWideLongName_USBdrive:0000000000000000 getWideLongName_USBdrive
     /tmp/ccR5Y2I8.s:1392   .text.getWideLongName_USBdrive:0000000000000014 $d
     /tmp/ccR5Y2I8.s:1398   .text.getItemType_USBdrive:0000000000000000 $t
     /tmp/ccR5Y2I8.s:1405   .text.getItemType_USBdrive:0000000000000000 getItemType_USBdrive
     /tmp/ccR5Y2I8.s:1442   .text.getItemType_USBdrive:000000000000001c $d
     /tmp/ccR5Y2I8.s:1447   .text.openFile_USBdrive:0000000000000000 $t
     /tmp/ccR5Y2I8.s:1454   .text.openFile_USBdrive:0000000000000000 openFile_USBdrive
     /tmp/ccR5Y2I8.s:1495   .text.openFile_USBdrive:0000000000000020 $d
     /tmp/ccR5Y2I8.s:1619   .bss.file:0000000000000000 file
     /tmp/ccR5Y2I8.s:1501   .rodata.getStringFromFile_USBdrive.str1.4:0000000000000000 $d
     /tmp/ccR5Y2I8.s:1505   .text.getStringFromFile_USBdrive:0000000000000000 $t
     /tmp/ccR5Y2I8.s:1512   .text.getStringFromFile_USBdrive:0000000000000000 getStringFromFile_USBdrive
     /tmp/ccR5Y2I8.s:1550   .text.getStringFromFile_USBdrive:000000000000001c $d
     /tmp/ccR5Y2I8.s:1558   .text.endOfFile_USBdrive:0000000000000000 $t
ARM GAS  /tmp/ccR5Y2I8.s 			page 40


     /tmp/ccR5Y2I8.s:1565   .text.endOfFile_USBdrive:0000000000000000 endOfFile_USBdrive
     /tmp/ccR5Y2I8.s:1593   .text.endOfFile_USBdrive:000000000000001c $d
     /tmp/ccR5Y2I8.s:1598   .bss.USBDISKFatFs:0000000000000000 $d
     /tmp/ccR5Y2I8.s:1607   .bss.currentMountedStatus_USBdrive:0000000000000000 currentMountedStatus_USBdrive
     /tmp/ccR5Y2I8.s:1608   .bss.currentMountedStatus_USBdrive:0000000000000000 $d
     /tmp/ccR5Y2I8.s:1610   .bss.directory:0000000000000000 $d
     /tmp/ccR5Y2I8.s:1616   .bss.file:0000000000000000 $d
     /tmp/ccR5Y2I8.s:1622   .bss.fileInformation:0000000000000000 $d
     /tmp/ccR5Y2I8.s:1626   .bss.fileInformation:0000000000000000 fileInformation
     /tmp/ccR5Y2I8.s:1629   .bss.fname_arr:0000000000000000 $d
     /tmp/ccR5Y2I8.s:1633   .bss.fname_arr:0000000000000000 fname_arr
     /tmp/ccR5Y2I8.s:1636   .bss.outputWideName:0000000000000000 $d
     /tmp/ccR5Y2I8.s:1640   .bss.outputWideName:0000000000000000 outputWideName
     /tmp/ccR5Y2I8.s:1643   .bss.path:0000000000000000 $d
     /tmp/ccR5Y2I8.s:1647   .bss.path:0000000000000000 path
     /tmp/ccR5Y2I8.s:1650   .bss.stringFromFile:0000000000000000 $d
     /tmp/ccR5Y2I8.s:1654   .bss.stringFromFile:0000000000000000 stringFromFile
     /tmp/ccR5Y2I8.s:1657   .bss.widePath:0000000000000000 $d
     /tmp/ccR5Y2I8.s:1661   .bss.widePath:0000000000000000 widePath

UNDEFINED SYMBOLS
memset
f_mount
strcpy
USBHPath
sprintf
f_closedir
f_opendir
f_readdir
f_close
f_open
f_gets
