ARM GAS  /tmp/ccKP1uaH.s 			page 1


   1              		.cpu cortex-m3
   2              		.eabi_attribute 20, 1
   3              		.eabi_attribute 21, 1
   4              		.eabi_attribute 23, 3
   5              		.eabi_attribute 24, 1
   6              		.eabi_attribute 25, 1
   7              		.eabi_attribute 26, 1
   8              		.eabi_attribute 30, 1
   9              		.eabi_attribute 34, 1
  10              		.eabi_attribute 18, 4
  11              		.file	"Driver_USBdrive.c"
  12              		.text
  13              	.Ltext0:
  14              		.cfi_sections	.debug_frame
  15              		.section	.text.TCHAR2wchar_t,"ax",%progbits
  16              		.align	1
  17              		.syntax unified
  18              		.thumb
  19              		.thumb_func
  20              		.fpu softvfp
  22              	TCHAR2wchar_t:
  23              	.LFB70:
  24              		.file 1 "Src/USB/Driver_USBdrive.c"
   1:Src/USB/Driver_USBdrive.c **** #include "Driver_USBdrive.h"
   2:Src/USB/Driver_USBdrive.c **** #include "string.h"
   3:Src/USB/Driver_USBdrive.c **** #include "stdio.h"
   4:Src/USB/Driver_USBdrive.c **** #include "stdbool.h"
   5:Src/USB/Driver_USBdrive.c **** 
   6:Src/USB/Driver_USBdrive.c **** #include "fatfs.h"
   7:Src/USB/Driver_USBdrive.c **** #include "ff.h"
   8:Src/USB/Driver_USBdrive.c **** 
   9:Src/USB/Driver_USBdrive.c **** static const TCHAR zeroPath_USBdriver[PATH_LENGTH] = "";
  10:Src/USB/Driver_USBdrive.c **** 
  11:Src/USB/Driver_USBdrive.c **** static mountedStatus_USBdrive currentMountedStatus_USBdrive;
  12:Src/USB/Driver_USBdrive.c **** static TCHAR path[PATH_LENGTH];
  13:Src/USB/Driver_USBdrive.c **** static FATFS USBDISKFatFs;
  14:Src/USB/Driver_USBdrive.c **** static DIR directory;
  15:Src/USB/Driver_USBdrive.c **** static FILINFO fileInformation;
  16:Src/USB/Driver_USBdrive.c **** static FIL file;
  17:Src/USB/Driver_USBdrive.c **** 
  18:Src/USB/Driver_USBdrive.c **** 
  19:Src/USB/Driver_USBdrive.c **** void createDriver_USBdrive(void)
  20:Src/USB/Driver_USBdrive.c **** {
  21:Src/USB/Driver_USBdrive.c ****     currentMountedStatus_USBdrive = UNMOUNTED_USBDRIVE;
  22:Src/USB/Driver_USBdrive.c ****     memcpy(path, zeroPath_USBdriver, PATH_LENGTH);
  23:Src/USB/Driver_USBdrive.c ****     sprintf(fileInformation.fname, "%s", "");
  24:Src/USB/Driver_USBdrive.c ****     fileInformation.lfsize = _MAX_LFN;
  25:Src/USB/Driver_USBdrive.c ****     sprintf(fileInformation.lfname, "%s", "");
  26:Src/USB/Driver_USBdrive.c **** }
  27:Src/USB/Driver_USBdrive.c **** 
  28:Src/USB/Driver_USBdrive.c **** void mount_USBdrive(void)
  29:Src/USB/Driver_USBdrive.c **** {
  30:Src/USB/Driver_USBdrive.c ****     if(currentMountedStatus_USBdrive == MOUNTED_USBDRIVE)
  31:Src/USB/Driver_USBdrive.c ****         return;
  32:Src/USB/Driver_USBdrive.c **** 
  33:Src/USB/Driver_USBdrive.c ****     if(f_mount(&USBDISKFatFs, USBHPath, 0) == FR_OK)
  34:Src/USB/Driver_USBdrive.c ****     {
ARM GAS  /tmp/ccKP1uaH.s 			page 2


  35:Src/USB/Driver_USBdrive.c ****         currentMountedStatus_USBdrive = MOUNTED_USBDRIVE;
  36:Src/USB/Driver_USBdrive.c ****         sprintf(path, "%s", USBHPath);
  37:Src/USB/Driver_USBdrive.c ****         return;
  38:Src/USB/Driver_USBdrive.c ****     }
  39:Src/USB/Driver_USBdrive.c **** 
  40:Src/USB/Driver_USBdrive.c ****     currentMountedStatus_USBdrive = UNMOUNTED_USBDRIVE;
  41:Src/USB/Driver_USBdrive.c **** }
  42:Src/USB/Driver_USBdrive.c **** 
  43:Src/USB/Driver_USBdrive.c **** void unmount_USBdrive(void)
  44:Src/USB/Driver_USBdrive.c **** {
  45:Src/USB/Driver_USBdrive.c ****     if (currentMountedStatus_USBdrive == UNMOUNTED_USBDRIVE)
  46:Src/USB/Driver_USBdrive.c ****         return;
  47:Src/USB/Driver_USBdrive.c **** 
  48:Src/USB/Driver_USBdrive.c ****     sprintf(USBHPath, "%c",'\0');
  49:Src/USB/Driver_USBdrive.c ****     memcpy(path, zeroPath_USBdriver, PATH_LENGTH);
  50:Src/USB/Driver_USBdrive.c **** 
  51:Src/USB/Driver_USBdrive.c ****     while (f_mount(NULL, USBHPath, 0) != FR_OK) {};
  52:Src/USB/Driver_USBdrive.c **** 
  53:Src/USB/Driver_USBdrive.c ****     currentMountedStatus_USBdrive = UNMOUNTED_USBDRIVE;
  54:Src/USB/Driver_USBdrive.c **** }
  55:Src/USB/Driver_USBdrive.c **** 
  56:Src/USB/Driver_USBdrive.c **** mountedStatus_USBdrive getMountedStatus(void) { return currentMountedStatus_USBdrive;}
  57:Src/USB/Driver_USBdrive.c **** 
  58:Src/USB/Driver_USBdrive.c **** 
  59:Src/USB/Driver_USBdrive.c **** static wchar_t TCHAR2wchar_t(TCHAR character)
  60:Src/USB/Driver_USBdrive.c **** {
  25              		.loc 1 60 0
  26              		.cfi_startproc
  27              		@ args = 0, pretend = 0, frame = 0
  28              		@ frame_needed = 0, uses_anonymous_args = 0
  29              		@ link register save eliminated.
  30              	.LVL0:
  61:Src/USB/Driver_USBdrive.c ****     if(character == (TCHAR) 0xA0) return *L"а";
  31              		.loc 1 61 0
  32 0000 A028     		cmp	r0, #160
  33 0002 30D0     		beq	.L69
  62:Src/USB/Driver_USBdrive.c ****     if(character == (TCHAR) 0xA1) return *L"б";
  34              		.loc 1 62 0
  35 0004 A128     		cmp	r0, #161
  36 0006 31D0     		beq	.L70
  63:Src/USB/Driver_USBdrive.c ****     if(character == (TCHAR) 0xA2) return *L"в";
  37              		.loc 1 63 0
  38 0008 A228     		cmp	r0, #162
  39 000a 32D0     		beq	.L71
  64:Src/USB/Driver_USBdrive.c ****     if(character == (TCHAR) 0xA3) return *L"г";
  40              		.loc 1 64 0
  41 000c A328     		cmp	r0, #163
  42 000e 33D0     		beq	.L72
  65:Src/USB/Driver_USBdrive.c ****     if(character == (TCHAR) 0xA4) return *L"д";
  43              		.loc 1 65 0
  44 0010 A428     		cmp	r0, #164
  45 0012 34D0     		beq	.L73
  66:Src/USB/Driver_USBdrive.c ****     if(character == (TCHAR) 0xA5) return *L"е";
  46              		.loc 1 66 0
  47 0014 A528     		cmp	r0, #165
  48 0016 35D0     		beq	.L74
  67:Src/USB/Driver_USBdrive.c ****     if(character == (TCHAR) 0xF1) return *L"ё";
ARM GAS  /tmp/ccKP1uaH.s 			page 3


  49              		.loc 1 67 0
  50 0018 F128     		cmp	r0, #241
  51 001a 36D0     		beq	.L75
  68:Src/USB/Driver_USBdrive.c ****     if(character == (TCHAR) 0xA6) return *L"ж";
  52              		.loc 1 68 0
  53 001c A628     		cmp	r0, #166
  54 001e 37D0     		beq	.L76
  69:Src/USB/Driver_USBdrive.c ****     if(character == (TCHAR) 0xA7) return *L"з";
  55              		.loc 1 69 0
  56 0020 A728     		cmp	r0, #167
  57 0022 38D0     		beq	.L77
  70:Src/USB/Driver_USBdrive.c ****     if(character == (TCHAR) 0xA8) return *L"и";
  58              		.loc 1 70 0
  59 0024 A828     		cmp	r0, #168
  60 0026 39D0     		beq	.L78
  71:Src/USB/Driver_USBdrive.c ****     if(character == (TCHAR) 0xA9) return *L"й";
  61              		.loc 1 71 0
  62 0028 A928     		cmp	r0, #169
  63 002a 3AD0     		beq	.L79
  72:Src/USB/Driver_USBdrive.c ****     if(character == (TCHAR) 0xAA) return *L"к";
  64              		.loc 1 72 0
  65 002c AA28     		cmp	r0, #170
  66 002e 3BD0     		beq	.L80
  73:Src/USB/Driver_USBdrive.c ****     if(character == (TCHAR) 0xAB) return *L"л";
  67              		.loc 1 73 0
  68 0030 AB28     		cmp	r0, #171
  69 0032 3CD0     		beq	.L81
  74:Src/USB/Driver_USBdrive.c ****     if(character == (TCHAR) 0xAC) return *L"м";
  70              		.loc 1 74 0
  71 0034 AC28     		cmp	r0, #172
  72 0036 3DD0     		beq	.L82
  75:Src/USB/Driver_USBdrive.c ****     if(character == (TCHAR) 0xAD) return *L"н";
  73              		.loc 1 75 0
  74 0038 AD28     		cmp	r0, #173
  75 003a 3ED0     		beq	.L83
  76:Src/USB/Driver_USBdrive.c ****     if(character == (TCHAR) 0xAE) return *L"о";
  76              		.loc 1 76 0
  77 003c AE28     		cmp	r0, #174
  78 003e 3FD0     		beq	.L84
  77:Src/USB/Driver_USBdrive.c ****     if(character == (TCHAR) 0xAF) return *L"п";
  79              		.loc 1 77 0
  80 0040 AF28     		cmp	r0, #175
  81 0042 40D0     		beq	.L85
  78:Src/USB/Driver_USBdrive.c ****     if(character == (TCHAR) 0xE0) return *L"р";
  82              		.loc 1 78 0
  83 0044 E028     		cmp	r0, #224
  84 0046 41D0     		beq	.L86
  79:Src/USB/Driver_USBdrive.c ****     if(character == (TCHAR) 0xE1) return *L"с";
  85              		.loc 1 79 0
  86 0048 E128     		cmp	r0, #225
  87 004a 42D0     		beq	.L87
  80:Src/USB/Driver_USBdrive.c ****     if(character == (TCHAR) 0xE2) return *L"т";
  88              		.loc 1 80 0
  89 004c E228     		cmp	r0, #226
  90 004e 43D0     		beq	.L88
  81:Src/USB/Driver_USBdrive.c ****     if(character == (TCHAR) 0xE3) return *L"у";
  91              		.loc 1 81 0
ARM GAS  /tmp/ccKP1uaH.s 			page 4


  92 0050 E328     		cmp	r0, #227
  93 0052 44D0     		beq	.L89
  82:Src/USB/Driver_USBdrive.c ****     if(character == (TCHAR) 0xE4) return *L"ф";
  94              		.loc 1 82 0
  95 0054 E428     		cmp	r0, #228
  96 0056 45D0     		beq	.L90
  83:Src/USB/Driver_USBdrive.c ****     if(character == (TCHAR) 0xE5) return *L"х";
  97              		.loc 1 83 0
  98 0058 E528     		cmp	r0, #229
  99 005a 46D0     		beq	.L91
  84:Src/USB/Driver_USBdrive.c ****     if(character == (TCHAR) 0xE6) return *L"ц";
 100              		.loc 1 84 0
 101 005c E628     		cmp	r0, #230
 102 005e 47D1     		bne	.L26
 103              		.loc 1 84 0 is_stmt 0 discriminator 1
 104 0060 884B     		ldr	r3, .L95
 105 0062 1868     		ldr	r0, [r3]
 106              	.LVL1:
 107 0064 7047     		bx	lr
 108              	.LVL2:
 109              	.L69:
  61:Src/USB/Driver_USBdrive.c ****     if(character == (TCHAR) 0xA1) return *L"б";
 110              		.loc 1 61 0 is_stmt 1 discriminator 1
 111 0066 884B     		ldr	r3, .L95+4
 112 0068 1868     		ldr	r0, [r3]
 113              	.LVL3:
 114 006a 7047     		bx	lr
 115              	.LVL4:
 116              	.L70:
  62:Src/USB/Driver_USBdrive.c ****     if(character == (TCHAR) 0xA2) return *L"в";
 117              		.loc 1 62 0 discriminator 1
 118 006c 874B     		ldr	r3, .L95+8
 119 006e 1868     		ldr	r0, [r3]
 120              	.LVL5:
 121 0070 7047     		bx	lr
 122              	.LVL6:
 123              	.L71:
  63:Src/USB/Driver_USBdrive.c ****     if(character == (TCHAR) 0xA3) return *L"г";
 124              		.loc 1 63 0 discriminator 1
 125 0072 874B     		ldr	r3, .L95+12
 126 0074 1868     		ldr	r0, [r3]
 127              	.LVL7:
 128 0076 7047     		bx	lr
 129              	.LVL8:
 130              	.L72:
  64:Src/USB/Driver_USBdrive.c ****     if(character == (TCHAR) 0xA4) return *L"д";
 131              		.loc 1 64 0 discriminator 1
 132 0078 864B     		ldr	r3, .L95+16
 133 007a 1868     		ldr	r0, [r3]
 134              	.LVL9:
 135 007c 7047     		bx	lr
 136              	.LVL10:
 137              	.L73:
  65:Src/USB/Driver_USBdrive.c ****     if(character == (TCHAR) 0xA5) return *L"е";
 138              		.loc 1 65 0 discriminator 1
 139 007e 864B     		ldr	r3, .L95+20
 140 0080 1868     		ldr	r0, [r3]
ARM GAS  /tmp/ccKP1uaH.s 			page 5


 141              	.LVL11:
 142 0082 7047     		bx	lr
 143              	.LVL12:
 144              	.L74:
  66:Src/USB/Driver_USBdrive.c ****     if(character == (TCHAR) 0xF1) return *L"ё";
 145              		.loc 1 66 0 discriminator 1
 146 0084 854B     		ldr	r3, .L95+24
 147 0086 1868     		ldr	r0, [r3]
 148              	.LVL13:
 149 0088 7047     		bx	lr
 150              	.LVL14:
 151              	.L75:
  67:Src/USB/Driver_USBdrive.c ****     if(character == (TCHAR) 0xA6) return *L"ж";
 152              		.loc 1 67 0 discriminator 1
 153 008a 854B     		ldr	r3, .L95+28
 154 008c 1868     		ldr	r0, [r3]
 155              	.LVL15:
 156 008e 7047     		bx	lr
 157              	.LVL16:
 158              	.L76:
  68:Src/USB/Driver_USBdrive.c ****     if(character == (TCHAR) 0xA7) return *L"з";
 159              		.loc 1 68 0 discriminator 1
 160 0090 844B     		ldr	r3, .L95+32
 161 0092 1868     		ldr	r0, [r3]
 162              	.LVL17:
 163 0094 7047     		bx	lr
 164              	.LVL18:
 165              	.L77:
  69:Src/USB/Driver_USBdrive.c ****     if(character == (TCHAR) 0xA8) return *L"и";
 166              		.loc 1 69 0 discriminator 1
 167 0096 844B     		ldr	r3, .L95+36
 168 0098 1868     		ldr	r0, [r3]
 169              	.LVL19:
 170 009a 7047     		bx	lr
 171              	.LVL20:
 172              	.L78:
  70:Src/USB/Driver_USBdrive.c ****     if(character == (TCHAR) 0xA9) return *L"й";
 173              		.loc 1 70 0 discriminator 1
 174 009c 834B     		ldr	r3, .L95+40
 175 009e 1868     		ldr	r0, [r3]
 176              	.LVL21:
 177 00a0 7047     		bx	lr
 178              	.LVL22:
 179              	.L79:
  71:Src/USB/Driver_USBdrive.c ****     if(character == (TCHAR) 0xAA) return *L"к";
 180              		.loc 1 71 0 discriminator 1
 181 00a2 834B     		ldr	r3, .L95+44
 182 00a4 1868     		ldr	r0, [r3]
 183              	.LVL23:
 184 00a6 7047     		bx	lr
 185              	.LVL24:
 186              	.L80:
  72:Src/USB/Driver_USBdrive.c ****     if(character == (TCHAR) 0xAB) return *L"л";
 187              		.loc 1 72 0 discriminator 1
 188 00a8 824B     		ldr	r3, .L95+48
 189 00aa 1868     		ldr	r0, [r3]
 190              	.LVL25:
ARM GAS  /tmp/ccKP1uaH.s 			page 6


 191 00ac 7047     		bx	lr
 192              	.LVL26:
 193              	.L81:
  73:Src/USB/Driver_USBdrive.c ****     if(character == (TCHAR) 0xAC) return *L"м";
 194              		.loc 1 73 0 discriminator 1
 195 00ae 824B     		ldr	r3, .L95+52
 196 00b0 1868     		ldr	r0, [r3]
 197              	.LVL27:
 198 00b2 7047     		bx	lr
 199              	.LVL28:
 200              	.L82:
  74:Src/USB/Driver_USBdrive.c ****     if(character == (TCHAR) 0xAD) return *L"н";
 201              		.loc 1 74 0 discriminator 1
 202 00b4 814B     		ldr	r3, .L95+56
 203 00b6 1868     		ldr	r0, [r3]
 204              	.LVL29:
 205 00b8 7047     		bx	lr
 206              	.LVL30:
 207              	.L83:
  75:Src/USB/Driver_USBdrive.c ****     if(character == (TCHAR) 0xAE) return *L"о";
 208              		.loc 1 75 0 discriminator 1
 209 00ba 814B     		ldr	r3, .L95+60
 210 00bc 1868     		ldr	r0, [r3]
 211              	.LVL31:
 212 00be 7047     		bx	lr
 213              	.LVL32:
 214              	.L84:
  76:Src/USB/Driver_USBdrive.c ****     if(character == (TCHAR) 0xAF) return *L"п";
 215              		.loc 1 76 0 discriminator 1
 216 00c0 804B     		ldr	r3, .L95+64
 217 00c2 1868     		ldr	r0, [r3]
 218              	.LVL33:
 219 00c4 7047     		bx	lr
 220              	.LVL34:
 221              	.L85:
  77:Src/USB/Driver_USBdrive.c ****     if(character == (TCHAR) 0xE0) return *L"р";
 222              		.loc 1 77 0 discriminator 1
 223 00c6 804B     		ldr	r3, .L95+68
 224 00c8 1868     		ldr	r0, [r3]
 225              	.LVL35:
 226 00ca 7047     		bx	lr
 227              	.LVL36:
 228              	.L86:
  78:Src/USB/Driver_USBdrive.c ****     if(character == (TCHAR) 0xE1) return *L"с";
 229              		.loc 1 78 0 discriminator 1
 230 00cc 7F4B     		ldr	r3, .L95+72
 231 00ce 1868     		ldr	r0, [r3]
 232              	.LVL37:
 233 00d0 7047     		bx	lr
 234              	.LVL38:
 235              	.L87:
  79:Src/USB/Driver_USBdrive.c ****     if(character == (TCHAR) 0xE2) return *L"т";
 236              		.loc 1 79 0 discriminator 1
 237 00d2 7F4B     		ldr	r3, .L95+76
 238 00d4 1868     		ldr	r0, [r3]
 239              	.LVL39:
 240 00d6 7047     		bx	lr
ARM GAS  /tmp/ccKP1uaH.s 			page 7


 241              	.LVL40:
 242              	.L88:
  80:Src/USB/Driver_USBdrive.c ****     if(character == (TCHAR) 0xE3) return *L"у";
 243              		.loc 1 80 0 discriminator 1
 244 00d8 7E4B     		ldr	r3, .L95+80
 245 00da 1868     		ldr	r0, [r3]
 246              	.LVL41:
 247 00dc 7047     		bx	lr
 248              	.LVL42:
 249              	.L89:
  81:Src/USB/Driver_USBdrive.c ****     if(character == (TCHAR) 0xE4) return *L"ф";
 250              		.loc 1 81 0 discriminator 1
 251 00de 7E4B     		ldr	r3, .L95+84
 252 00e0 1868     		ldr	r0, [r3]
 253              	.LVL43:
 254 00e2 7047     		bx	lr
 255              	.LVL44:
 256              	.L90:
  82:Src/USB/Driver_USBdrive.c ****     if(character == (TCHAR) 0xE5) return *L"х";
 257              		.loc 1 82 0 discriminator 1
 258 00e4 7D4B     		ldr	r3, .L95+88
 259 00e6 1868     		ldr	r0, [r3]
 260              	.LVL45:
 261 00e8 7047     		bx	lr
 262              	.LVL46:
 263              	.L91:
  83:Src/USB/Driver_USBdrive.c ****     if(character == (TCHAR) 0xE6) return *L"ц";
 264              		.loc 1 83 0 discriminator 1
 265 00ea 7D4B     		ldr	r3, .L95+92
 266 00ec 1868     		ldr	r0, [r3]
 267              	.LVL47:
 268 00ee 7047     		bx	lr
 269              	.LVL48:
 270              	.L26:
  85:Src/USB/Driver_USBdrive.c ****     if(character == (TCHAR) 0xE7) return *L"ч";
 271              		.loc 1 85 0
 272 00f0 E728     		cmp	r0, #231
 273 00f2 02D1     		bne	.L27
 274              		.loc 1 85 0 is_stmt 0 discriminator 1
 275 00f4 7B4B     		ldr	r3, .L95+96
 276 00f6 1868     		ldr	r0, [r3]
 277              	.LVL49:
 278 00f8 7047     		bx	lr
 279              	.LVL50:
 280              	.L27:
  86:Src/USB/Driver_USBdrive.c ****     if(character == (TCHAR) 0xE8) return *L"ш";
 281              		.loc 1 86 0 is_stmt 1
 282 00fa E828     		cmp	r0, #232
 283 00fc 08D0     		beq	.L92
  87:Src/USB/Driver_USBdrive.c ****     if(character == (TCHAR) 0xE9) return *L"щ";
 284              		.loc 1 87 0
 285 00fe E928     		cmp	r0, #233
 286 0100 09D0     		beq	.L93
  88:Src/USB/Driver_USBdrive.c ****     if(character == (TCHAR) 0xEA) return *L"ъ";
 287              		.loc 1 88 0
 288 0102 EA28     		cmp	r0, #234
 289 0104 0AD0     		beq	.L94
ARM GAS  /tmp/ccKP1uaH.s 			page 8


  89:Src/USB/Driver_USBdrive.c ****     if(character == (TCHAR) 0xEB) return *L"ы";
 290              		.loc 1 89 0
 291 0106 EB28     		cmp	r0, #235
 292 0108 0BD1     		bne	.L31
 293              		.loc 1 89 0 is_stmt 0 discriminator 1
 294 010a 774B     		ldr	r3, .L95+100
 295 010c 1868     		ldr	r0, [r3]
 296              	.LVL51:
 297 010e 7047     		bx	lr
 298              	.LVL52:
 299              	.L92:
  86:Src/USB/Driver_USBdrive.c ****     if(character == (TCHAR) 0xE9) return *L"щ";
 300              		.loc 1 86 0 is_stmt 1 discriminator 1
 301 0110 764B     		ldr	r3, .L95+104
 302 0112 1868     		ldr	r0, [r3]
 303              	.LVL53:
 304 0114 7047     		bx	lr
 305              	.LVL54:
 306              	.L93:
  87:Src/USB/Driver_USBdrive.c ****     if(character == (TCHAR) 0xEA) return *L"ъ";
 307              		.loc 1 87 0 discriminator 1
 308 0116 764B     		ldr	r3, .L95+108
 309 0118 1868     		ldr	r0, [r3]
 310              	.LVL55:
 311 011a 7047     		bx	lr
 312              	.LVL56:
 313              	.L94:
  88:Src/USB/Driver_USBdrive.c ****     if(character == (TCHAR) 0xEB) return *L"ы";
 314              		.loc 1 88 0 discriminator 1
 315 011c 754B     		ldr	r3, .L95+112
 316 011e 1868     		ldr	r0, [r3]
 317              	.LVL57:
 318 0120 7047     		bx	lr
 319              	.LVL58:
 320              	.L31:
  90:Src/USB/Driver_USBdrive.c ****     if(character == (TCHAR) 0xEC) return *L"ь";
 321              		.loc 1 90 0
 322 0122 EC28     		cmp	r0, #236
 323 0124 02D1     		bne	.L32
 324              		.loc 1 90 0 is_stmt 0 discriminator 1
 325 0126 744B     		ldr	r3, .L95+116
 326 0128 1868     		ldr	r0, [r3]
 327              	.LVL59:
 328 012a 7047     		bx	lr
 329              	.LVL60:
 330              	.L32:
  91:Src/USB/Driver_USBdrive.c ****     if(character == (TCHAR) 0xED) return *L"э";
 331              		.loc 1 91 0 is_stmt 1
 332 012c ED28     		cmp	r0, #237
 333 012e 02D1     		bne	.L33
 334              		.loc 1 91 0 is_stmt 0 discriminator 1
 335 0130 724B     		ldr	r3, .L95+120
 336 0132 1868     		ldr	r0, [r3]
 337              	.LVL61:
 338 0134 7047     		bx	lr
 339              	.LVL62:
 340              	.L33:
ARM GAS  /tmp/ccKP1uaH.s 			page 9


  92:Src/USB/Driver_USBdrive.c ****     if(character == (TCHAR) 0xEE) return *L"ю";
 341              		.loc 1 92 0 is_stmt 1
 342 0136 EE28     		cmp	r0, #238
 343 0138 02D1     		bne	.L34
 344              		.loc 1 92 0 is_stmt 0 discriminator 1
 345 013a 714B     		ldr	r3, .L95+124
 346 013c 1868     		ldr	r0, [r3]
 347              	.LVL63:
 348 013e 7047     		bx	lr
 349              	.LVL64:
 350              	.L34:
  93:Src/USB/Driver_USBdrive.c ****     if(character == (TCHAR) 0xEF) return *L"я";
 351              		.loc 1 93 0 is_stmt 1
 352 0140 EF28     		cmp	r0, #239
 353 0142 02D1     		bne	.L35
 354              		.loc 1 93 0 is_stmt 0 discriminator 1
 355 0144 6F4B     		ldr	r3, .L95+128
 356 0146 1868     		ldr	r0, [r3]
 357              	.LVL65:
 358 0148 7047     		bx	lr
 359              	.LVL66:
 360              	.L35:
  94:Src/USB/Driver_USBdrive.c ****     if(character == (TCHAR) 0x80) return *L"А";
 361              		.loc 1 94 0 is_stmt 1
 362 014a 8028     		cmp	r0, #128
 363 014c 02D1     		bne	.L36
 364              		.loc 1 94 0 is_stmt 0 discriminator 1
 365 014e 6E4B     		ldr	r3, .L95+132
 366 0150 1868     		ldr	r0, [r3]
 367              	.LVL67:
 368 0152 7047     		bx	lr
 369              	.LVL68:
 370              	.L36:
  95:Src/USB/Driver_USBdrive.c ****     if(character == (TCHAR) 0x81) return *L"Б";
 371              		.loc 1 95 0 is_stmt 1
 372 0154 8128     		cmp	r0, #129
 373 0156 02D1     		bne	.L37
 374              		.loc 1 95 0 is_stmt 0 discriminator 1
 375 0158 6C4B     		ldr	r3, .L95+136
 376 015a 1868     		ldr	r0, [r3]
 377              	.LVL69:
 378 015c 7047     		bx	lr
 379              	.LVL70:
 380              	.L37:
  96:Src/USB/Driver_USBdrive.c ****     if(character == (TCHAR) 0x82) return *L"В";
 381              		.loc 1 96 0 is_stmt 1
 382 015e 8228     		cmp	r0, #130
 383 0160 02D1     		bne	.L38
 384              		.loc 1 96 0 is_stmt 0 discriminator 1
 385 0162 6B4B     		ldr	r3, .L95+140
 386 0164 1868     		ldr	r0, [r3]
 387              	.LVL71:
 388 0166 7047     		bx	lr
 389              	.LVL72:
 390              	.L38:
  97:Src/USB/Driver_USBdrive.c ****     if(character == (TCHAR) 0x83) return *L"Г";
 391              		.loc 1 97 0 is_stmt 1
ARM GAS  /tmp/ccKP1uaH.s 			page 10


 392 0168 8328     		cmp	r0, #131
 393 016a 02D1     		bne	.L39
 394              		.loc 1 97 0 is_stmt 0 discriminator 1
 395 016c 694B     		ldr	r3, .L95+144
 396 016e 1868     		ldr	r0, [r3]
 397              	.LVL73:
 398 0170 7047     		bx	lr
 399              	.LVL74:
 400              	.L39:
  98:Src/USB/Driver_USBdrive.c ****     if(character == (TCHAR) 0x84) return *L"Д";
 401              		.loc 1 98 0 is_stmt 1
 402 0172 8428     		cmp	r0, #132
 403 0174 02D1     		bne	.L40
 404              		.loc 1 98 0 is_stmt 0 discriminator 1
 405 0176 684B     		ldr	r3, .L95+148
 406 0178 1868     		ldr	r0, [r3]
 407              	.LVL75:
 408 017a 7047     		bx	lr
 409              	.LVL76:
 410              	.L40:
  99:Src/USB/Driver_USBdrive.c ****     if(character == (TCHAR) 0x85) return *L"Е";
 411              		.loc 1 99 0 is_stmt 1
 412 017c 8528     		cmp	r0, #133
 413 017e 02D1     		bne	.L41
 414              		.loc 1 99 0 is_stmt 0 discriminator 1
 415 0180 664B     		ldr	r3, .L95+152
 416 0182 1868     		ldr	r0, [r3]
 417              	.LVL77:
 418 0184 7047     		bx	lr
 419              	.LVL78:
 420              	.L41:
 100:Src/USB/Driver_USBdrive.c ****     if(character == (TCHAR) 0xF0) return *L"Ё";
 421              		.loc 1 100 0 is_stmt 1
 422 0186 F028     		cmp	r0, #240
 423 0188 02D1     		bne	.L42
 424              		.loc 1 100 0 is_stmt 0 discriminator 1
 425 018a 654B     		ldr	r3, .L95+156
 426 018c 1868     		ldr	r0, [r3]
 427              	.LVL79:
 428 018e 7047     		bx	lr
 429              	.LVL80:
 430              	.L42:
 101:Src/USB/Driver_USBdrive.c ****     if(character == (TCHAR) 0x86) return *L"Ж";
 431              		.loc 1 101 0 is_stmt 1
 432 0190 8628     		cmp	r0, #134
 433 0192 02D1     		bne	.L43
 434              		.loc 1 101 0 is_stmt 0 discriminator 1
 435 0194 634B     		ldr	r3, .L95+160
 436 0196 1868     		ldr	r0, [r3]
 437              	.LVL81:
 438 0198 7047     		bx	lr
 439              	.LVL82:
 440              	.L43:
 102:Src/USB/Driver_USBdrive.c ****     if(character == (TCHAR) 0x87) return *L"З";
 441              		.loc 1 102 0 is_stmt 1
 442 019a 8728     		cmp	r0, #135
 443 019c 02D1     		bne	.L44
ARM GAS  /tmp/ccKP1uaH.s 			page 11


 444              		.loc 1 102 0 is_stmt 0 discriminator 1
 445 019e 624B     		ldr	r3, .L95+164
 446 01a0 1868     		ldr	r0, [r3]
 447              	.LVL83:
 448 01a2 7047     		bx	lr
 449              	.LVL84:
 450              	.L44:
 103:Src/USB/Driver_USBdrive.c ****     if(character == (TCHAR) 0x88) return *L"И";
 451              		.loc 1 103 0 is_stmt 1
 452 01a4 8828     		cmp	r0, #136
 453 01a6 02D1     		bne	.L45
 454              		.loc 1 103 0 is_stmt 0 discriminator 1
 455 01a8 604B     		ldr	r3, .L95+168
 456 01aa 1868     		ldr	r0, [r3]
 457              	.LVL85:
 458 01ac 7047     		bx	lr
 459              	.LVL86:
 460              	.L45:
 104:Src/USB/Driver_USBdrive.c ****     if(character == (TCHAR) 0x89) return *L"Й";
 461              		.loc 1 104 0 is_stmt 1
 462 01ae 8928     		cmp	r0, #137
 463 01b0 02D1     		bne	.L46
 464              		.loc 1 104 0 is_stmt 0 discriminator 1
 465 01b2 5F4B     		ldr	r3, .L95+172
 466 01b4 1868     		ldr	r0, [r3]
 467              	.LVL87:
 468 01b6 7047     		bx	lr
 469              	.LVL88:
 470              	.L46:
 105:Src/USB/Driver_USBdrive.c ****     if(character == (TCHAR) 0x8A) return *L"К";
 471              		.loc 1 105 0 is_stmt 1
 472 01b8 8A28     		cmp	r0, #138
 473 01ba 02D1     		bne	.L47
 474              		.loc 1 105 0 is_stmt 0 discriminator 1
 475 01bc 5D4B     		ldr	r3, .L95+176
 476 01be 1868     		ldr	r0, [r3]
 477              	.LVL89:
 478 01c0 7047     		bx	lr
 479              	.LVL90:
 480              	.L47:
 106:Src/USB/Driver_USBdrive.c ****     if(character == (TCHAR) 0x8B) return *L"Л";
 481              		.loc 1 106 0 is_stmt 1
 482 01c2 8B28     		cmp	r0, #139
 483 01c4 02D1     		bne	.L48
 484              		.loc 1 106 0 is_stmt 0 discriminator 1
 485 01c6 5C4B     		ldr	r3, .L95+180
 486 01c8 1868     		ldr	r0, [r3]
 487              	.LVL91:
 488 01ca 7047     		bx	lr
 489              	.LVL92:
 490              	.L48:
 107:Src/USB/Driver_USBdrive.c ****     if(character == (TCHAR) 0x8C) return *L"М";
 491              		.loc 1 107 0 is_stmt 1
 492 01cc 8C28     		cmp	r0, #140
 493 01ce 02D1     		bne	.L49
 494              		.loc 1 107 0 is_stmt 0 discriminator 1
 495 01d0 5A4B     		ldr	r3, .L95+184
ARM GAS  /tmp/ccKP1uaH.s 			page 12


 496 01d2 1868     		ldr	r0, [r3]
 497              	.LVL93:
 498 01d4 7047     		bx	lr
 499              	.LVL94:
 500              	.L49:
 108:Src/USB/Driver_USBdrive.c ****     if(character == (TCHAR) 0x8D) return *L"Н";
 501              		.loc 1 108 0 is_stmt 1
 502 01d6 8D28     		cmp	r0, #141
 503 01d8 02D1     		bne	.L50
 504              		.loc 1 108 0 is_stmt 0 discriminator 1
 505 01da 594B     		ldr	r3, .L95+188
 506 01dc 1868     		ldr	r0, [r3]
 507              	.LVL95:
 508 01de 7047     		bx	lr
 509              	.LVL96:
 510              	.L50:
 109:Src/USB/Driver_USBdrive.c ****     if(character == (TCHAR) 0x8E) return *L"О";
 511              		.loc 1 109 0 is_stmt 1
 512 01e0 8E28     		cmp	r0, #142
 513 01e2 02D1     		bne	.L51
 514              		.loc 1 109 0 is_stmt 0 discriminator 1
 515 01e4 574B     		ldr	r3, .L95+192
 516 01e6 1868     		ldr	r0, [r3]
 517              	.LVL97:
 518 01e8 7047     		bx	lr
 519              	.LVL98:
 520              	.L51:
 110:Src/USB/Driver_USBdrive.c ****     if(character == (TCHAR) 0x8F) return *L"П";
 521              		.loc 1 110 0 is_stmt 1
 522 01ea 8F28     		cmp	r0, #143
 523 01ec 02D1     		bne	.L52
 524              		.loc 1 110 0 is_stmt 0 discriminator 1
 525 01ee 564B     		ldr	r3, .L95+196
 526 01f0 1868     		ldr	r0, [r3]
 527              	.LVL99:
 528 01f2 7047     		bx	lr
 529              	.LVL100:
 530              	.L52:
 111:Src/USB/Driver_USBdrive.c ****     if(character == (TCHAR) 0x90) return *L"Р";
 531              		.loc 1 111 0 is_stmt 1
 532 01f4 9028     		cmp	r0, #144
 533 01f6 02D1     		bne	.L53
 534              		.loc 1 111 0 is_stmt 0 discriminator 1
 535 01f8 544B     		ldr	r3, .L95+200
 536 01fa 1868     		ldr	r0, [r3]
 537              	.LVL101:
 538 01fc 7047     		bx	lr
 539              	.LVL102:
 540              	.L53:
 112:Src/USB/Driver_USBdrive.c ****     if(character == (TCHAR) 0x91) return *L"С";
 541              		.loc 1 112 0 is_stmt 1
 542 01fe 9128     		cmp	r0, #145
 543 0200 02D1     		bne	.L54
 544              		.loc 1 112 0 is_stmt 0 discriminator 1
 545 0202 534B     		ldr	r3, .L95+204
 546 0204 1868     		ldr	r0, [r3]
 547              	.LVL103:
ARM GAS  /tmp/ccKP1uaH.s 			page 13


 548 0206 7047     		bx	lr
 549              	.LVL104:
 550              	.L54:
 113:Src/USB/Driver_USBdrive.c ****     if(character == (TCHAR) 0x92) return *L"Т";
 551              		.loc 1 113 0 is_stmt 1
 552 0208 9228     		cmp	r0, #146
 553 020a 02D1     		bne	.L55
 554              		.loc 1 113 0 is_stmt 0 discriminator 1
 555 020c 514B     		ldr	r3, .L95+208
 556 020e 1868     		ldr	r0, [r3]
 557              	.LVL105:
 558 0210 7047     		bx	lr
 559              	.LVL106:
 560              	.L55:
 114:Src/USB/Driver_USBdrive.c ****     if(character == (TCHAR) 0x93) return *L"У";
 561              		.loc 1 114 0 is_stmt 1
 562 0212 9328     		cmp	r0, #147
 563 0214 02D1     		bne	.L56
 564              		.loc 1 114 0 is_stmt 0 discriminator 1
 565 0216 504B     		ldr	r3, .L95+212
 566 0218 1868     		ldr	r0, [r3]
 567              	.LVL107:
 568 021a 7047     		bx	lr
 569              	.LVL108:
 570              	.L56:
 115:Src/USB/Driver_USBdrive.c ****     if(character == (TCHAR) 0x94) return *L"Ф";
 571              		.loc 1 115 0 is_stmt 1
 572 021c 9428     		cmp	r0, #148
 573 021e 02D1     		bne	.L57
 574              		.loc 1 115 0 is_stmt 0 discriminator 1
 575 0220 4E4B     		ldr	r3, .L95+216
 576 0222 1868     		ldr	r0, [r3]
 577              	.LVL109:
 578 0224 7047     		bx	lr
 579              	.LVL110:
 580              	.L57:
 116:Src/USB/Driver_USBdrive.c ****     if(character == (TCHAR) 0x95) return *L"Х";
 581              		.loc 1 116 0 is_stmt 1
 582 0226 9528     		cmp	r0, #149
 583 0228 02D1     		bne	.L58
 584              		.loc 1 116 0 is_stmt 0 discriminator 1
 585 022a 4D4B     		ldr	r3, .L95+220
 586 022c 1868     		ldr	r0, [r3]
 587              	.LVL111:
 588 022e 7047     		bx	lr
 589              	.LVL112:
 590              	.L58:
 117:Src/USB/Driver_USBdrive.c ****     if(character == (TCHAR) 0x96) return *L"Ц";
 591              		.loc 1 117 0 is_stmt 1
 592 0230 9628     		cmp	r0, #150
 593 0232 02D1     		bne	.L59
 594              		.loc 1 117 0 is_stmt 0 discriminator 1
 595 0234 4B4B     		ldr	r3, .L95+224
 596 0236 1868     		ldr	r0, [r3]
 597              	.LVL113:
 598 0238 7047     		bx	lr
 599              	.LVL114:
ARM GAS  /tmp/ccKP1uaH.s 			page 14


 600              	.L59:
 118:Src/USB/Driver_USBdrive.c ****     if(character == (TCHAR) 0x97) return *L"Ч";
 601              		.loc 1 118 0 is_stmt 1
 602 023a 9728     		cmp	r0, #151
 603 023c 02D1     		bne	.L60
 604              		.loc 1 118 0 is_stmt 0 discriminator 1
 605 023e 4A4B     		ldr	r3, .L95+228
 606 0240 1868     		ldr	r0, [r3]
 607              	.LVL115:
 608 0242 7047     		bx	lr
 609              	.LVL116:
 610              	.L60:
 119:Src/USB/Driver_USBdrive.c ****     if(character == (TCHAR) 0x98) return *L"Ш";
 611              		.loc 1 119 0 is_stmt 1
 612 0244 9828     		cmp	r0, #152
 613 0246 02D1     		bne	.L61
 614              		.loc 1 119 0 is_stmt 0 discriminator 1
 615 0248 484B     		ldr	r3, .L95+232
 616 024a 1868     		ldr	r0, [r3]
 617              	.LVL117:
 618 024c 7047     		bx	lr
 619              	.LVL118:
 620              	.L61:
 120:Src/USB/Driver_USBdrive.c ****     if(character == (TCHAR) 0x99) return *L"Щ";
 621              		.loc 1 120 0 is_stmt 1
 622 024e 9928     		cmp	r0, #153
 623 0250 02D1     		bne	.L62
 624              		.loc 1 120 0 is_stmt 0 discriminator 1
 625 0252 474B     		ldr	r3, .L95+236
 626 0254 1868     		ldr	r0, [r3]
 627              	.LVL119:
 628 0256 7047     		bx	lr
 629              	.LVL120:
 630              	.L62:
 121:Src/USB/Driver_USBdrive.c ****     if(character == (TCHAR) 0x9A) return *L"Ъ";
 631              		.loc 1 121 0 is_stmt 1
 632 0258 9A28     		cmp	r0, #154
 633 025a 02D1     		bne	.L63
 634              		.loc 1 121 0 is_stmt 0 discriminator 1
 635 025c 454B     		ldr	r3, .L95+240
 636 025e 1868     		ldr	r0, [r3]
 637              	.LVL121:
 638 0260 7047     		bx	lr
 639              	.LVL122:
 640              	.L63:
 122:Src/USB/Driver_USBdrive.c ****     if(character == (TCHAR) 0x9B) return *L"Ы";
 641              		.loc 1 122 0 is_stmt 1
 642 0262 9B28     		cmp	r0, #155
 643 0264 02D1     		bne	.L64
 644              		.loc 1 122 0 is_stmt 0 discriminator 1
 645 0266 444B     		ldr	r3, .L95+244
 646 0268 1868     		ldr	r0, [r3]
 647              	.LVL123:
 648 026a 7047     		bx	lr
 649              	.LVL124:
 650              	.L64:
 123:Src/USB/Driver_USBdrive.c ****     if(character == (TCHAR) 0x9C) return *L"Ь";
ARM GAS  /tmp/ccKP1uaH.s 			page 15


 651              		.loc 1 123 0 is_stmt 1
 652 026c 9C28     		cmp	r0, #156
 653 026e 02D1     		bne	.L65
 654              		.loc 1 123 0 is_stmt 0 discriminator 1
 655 0270 424B     		ldr	r3, .L95+248
 656 0272 1868     		ldr	r0, [r3]
 657              	.LVL125:
 658 0274 7047     		bx	lr
 659              	.LVL126:
 660              	.L65:
 124:Src/USB/Driver_USBdrive.c ****     if(character == (TCHAR) 0x9D) return *L"Э";
 661              		.loc 1 124 0 is_stmt 1
 662 0276 9D28     		cmp	r0, #157
 663 0278 40F08480 		bne	.L66
 664              		.loc 1 124 0 is_stmt 0 discriminator 1
 665 027c 404B     		ldr	r3, .L95+252
 666 027e 1868     		ldr	r0, [r3]
 667              	.LVL127:
 668 0280 7047     		bx	lr
 669              	.L96:
 670 0282 00BF     		.align	2
 671              	.L95:
 672 0284 00000000 		.word	.LC23
 673 0288 08000000 		.word	.LC0
 674 028c 10000000 		.word	.LC1
 675 0290 18000000 		.word	.LC2
 676 0294 20000000 		.word	.LC3
 677 0298 28000000 		.word	.LC4
 678 029c 30000000 		.word	.LC5
 679 02a0 38000000 		.word	.LC6
 680 02a4 40000000 		.word	.LC7
 681 02a8 48000000 		.word	.LC8
 682 02ac 50000000 		.word	.LC9
 683 02b0 58000000 		.word	.LC10
 684 02b4 60000000 		.word	.LC11
 685 02b8 68000000 		.word	.LC12
 686 02bc 70000000 		.word	.LC13
 687 02c0 78000000 		.word	.LC14
 688 02c4 80000000 		.word	.LC15
 689 02c8 88000000 		.word	.LC16
 690 02cc 90000000 		.word	.LC17
 691 02d0 98000000 		.word	.LC18
 692 02d4 A0000000 		.word	.LC19
 693 02d8 A8000000 		.word	.LC20
 694 02dc B0000000 		.word	.LC21
 695 02e0 B8000000 		.word	.LC22
 696 02e4 C0000000 		.word	.LC24
 697 02e8 C8000000 		.word	.LC28
 698 02ec D0000000 		.word	.LC25
 699 02f0 D8000000 		.word	.LC26
 700 02f4 E0000000 		.word	.LC27
 701 02f8 E8000000 		.word	.LC29
 702 02fc F0000000 		.word	.LC30
 703 0300 F8000000 		.word	.LC31
 704 0304 00010000 		.word	.LC32
 705 0308 08010000 		.word	.LC33
 706 030c 10010000 		.word	.LC34
ARM GAS  /tmp/ccKP1uaH.s 			page 16


 707 0310 18010000 		.word	.LC35
 708 0314 20010000 		.word	.LC36
 709 0318 28010000 		.word	.LC37
 710 031c 30010000 		.word	.LC38
 711 0320 38010000 		.word	.LC39
 712 0324 40010000 		.word	.LC40
 713 0328 48010000 		.word	.LC41
 714 032c 50010000 		.word	.LC42
 715 0330 58010000 		.word	.LC43
 716 0334 60010000 		.word	.LC44
 717 0338 68010000 		.word	.LC45
 718 033c 70010000 		.word	.LC46
 719 0340 78010000 		.word	.LC47
 720 0344 80010000 		.word	.LC48
 721 0348 88010000 		.word	.LC49
 722 034c 90010000 		.word	.LC50
 723 0350 98010000 		.word	.LC51
 724 0354 A0010000 		.word	.LC52
 725 0358 A8010000 		.word	.LC53
 726 035c B0010000 		.word	.LC54
 727 0360 B8010000 		.word	.LC55
 728 0364 C0010000 		.word	.LC56
 729 0368 C8010000 		.word	.LC57
 730 036c D0010000 		.word	.LC58
 731 0370 D8010000 		.word	.LC59
 732 0374 E0010000 		.word	.LC60
 733 0378 E8010000 		.word	.LC61
 734 037c F0010000 		.word	.LC62
 735 0380 F8010000 		.word	.LC63
 736              	.LVL128:
 737              	.L66:
 125:Src/USB/Driver_USBdrive.c ****     if(character == (TCHAR) 0x9E) return *L"Ю";
 738              		.loc 1 125 0 is_stmt 1
 739 0384 9E28     		cmp	r0, #158
 740 0386 02D1     		bne	.L67
 741              		.loc 1 125 0 is_stmt 0 discriminator 1
 742 0388 034B     		ldr	r3, .L97
 743 038a 1868     		ldr	r0, [r3]
 744              	.LVL129:
 745 038c 7047     		bx	lr
 746              	.LVL130:
 747              	.L67:
 126:Src/USB/Driver_USBdrive.c ****     if(character == (TCHAR) 0x9F) return *L"Я";
 748              		.loc 1 126 0 is_stmt 1
 749 038e 9F28     		cmp	r0, #159
 750 0390 01D1     		bne	.L1
 751              		.loc 1 126 0 is_stmt 0 discriminator 1
 752 0392 024B     		ldr	r3, .L97+4
 753 0394 1868     		ldr	r0, [r3]
 754              	.LVL131:
 755              	.L1:
 127:Src/USB/Driver_USBdrive.c ****     return (wchar_t) character;
 128:Src/USB/Driver_USBdrive.c **** }
 756              		.loc 1 128 0 is_stmt 1
 757 0396 7047     		bx	lr
 758              	.L98:
 759              		.align	2
ARM GAS  /tmp/ccKP1uaH.s 			page 17


 760              	.L97:
 761 0398 00020000 		.word	.LC64
 762 039c 08020000 		.word	.LC65
 763              		.cfi_endproc
 764              	.LFE70:
 766              		.section	.text.convertPathToWidePath,"ax",%progbits
 767              		.align	1
 768              		.syntax unified
 769              		.thumb
 770              		.thumb_func
 771              		.fpu softvfp
 773              	convertPathToWidePath:
 774              	.LFB72:
 129:Src/USB/Driver_USBdrive.c **** 
 130:Src/USB/Driver_USBdrive.c **** 
 131:Src/USB/Driver_USBdrive.c **** const TCHAR* getPath_USBdrive(void){ return path;}
 132:Src/USB/Driver_USBdrive.c **** 
 133:Src/USB/Driver_USBdrive.c **** static void convertPathToWidePath(wchar_t* widePath)
 134:Src/USB/Driver_USBdrive.c **** {
 775              		.loc 1 134 0
 776              		.cfi_startproc
 777              		@ args = 0, pretend = 0, frame = 0
 778              		@ frame_needed = 0, uses_anonymous_args = 0
 779              	.LVL132:
 780 0000 38B5     		push	{r3, r4, r5, lr}
 781              	.LCFI0:
 782              		.cfi_def_cfa_offset 16
 783              		.cfi_offset 3, -16
 784              		.cfi_offset 4, -12
 785              		.cfi_offset 5, -8
 786              		.cfi_offset 14, -4
 787 0002 0546     		mov	r5, r0
 788              	.LVL133:
 135:Src/USB/Driver_USBdrive.c ****     int letterNember;
 136:Src/USB/Driver_USBdrive.c ****     for (letterNember = 0; letterNember < PATH_LENGTH; letterNember++)
 789              		.loc 1 136 0
 790 0004 0024     		movs	r4, #0
 791 0006 06E0     		b	.L100
 792              	.LVL134:
 793              	.L101:
 137:Src/USB/Driver_USBdrive.c ****         widePath[letterNember] = TCHAR2wchar_t(path[letterNember]);
 794              		.loc 1 137 0 discriminator 3
 795 0008 044B     		ldr	r3, .L103
 796 000a 185D     		ldrb	r0, [r3, r4]	@ zero_extendqisi2
 797 000c FFF7FEFF 		bl	TCHAR2wchar_t
 798              	.LVL135:
 799 0010 45F82400 		str	r0, [r5, r4, lsl #2]
 136:Src/USB/Driver_USBdrive.c ****         widePath[letterNember] = TCHAR2wchar_t(path[letterNember]);
 800              		.loc 1 136 0 discriminator 3
 801 0014 0134     		adds	r4, r4, #1
 802              	.LVL136:
 803              	.L100:
 136:Src/USB/Driver_USBdrive.c ****         widePath[letterNember] = TCHAR2wchar_t(path[letterNember]);
 804              		.loc 1 136 0 is_stmt 0 discriminator 1
 805 0016 632C     		cmp	r4, #99
 806 0018 F6DD     		ble	.L101
 138:Src/USB/Driver_USBdrive.c **** }
ARM GAS  /tmp/ccKP1uaH.s 			page 18


 807              		.loc 1 138 0 is_stmt 1
 808 001a 38BD     		pop	{r3, r4, r5, pc}
 809              	.LVL137:
 810              	.L104:
 811              		.align	2
 812              	.L103:
 813 001c 00000000 		.word	.LANCHOR0
 814              		.cfi_endproc
 815              	.LFE72:
 817              		.section	.text.convertLongNameToWideLongName,"ax",%progbits
 818              		.align	1
 819              		.syntax unified
 820              		.thumb
 821              		.thumb_func
 822              		.fpu softvfp
 824              	convertLongNameToWideLongName:
 825              	.LFB78:
 139:Src/USB/Driver_USBdrive.c **** 
 140:Src/USB/Driver_USBdrive.c **** static wchar_t widePath[PATH_LENGTH];
 141:Src/USB/Driver_USBdrive.c **** const wchar_t* getWidePath_USBdrive(void)
 142:Src/USB/Driver_USBdrive.c **** {
 143:Src/USB/Driver_USBdrive.c ****     convertPathToWidePath(widePath);
 144:Src/USB/Driver_USBdrive.c ****     return (const wchar_t*) widePath;
 145:Src/USB/Driver_USBdrive.c **** }
 146:Src/USB/Driver_USBdrive.c **** 
 147:Src/USB/Driver_USBdrive.c **** 
 148:Src/USB/Driver_USBdrive.c **** void openDirectory_USBdrive(const TCHAR* pathToDirectory)
 149:Src/USB/Driver_USBdrive.c **** {
 150:Src/USB/Driver_USBdrive.c ****     f_closedir(&directory);
 151:Src/USB/Driver_USBdrive.c **** 
 152:Src/USB/Driver_USBdrive.c ****     if (currentMountedStatus_USBdrive == UNMOUNTED_USBDRIVE)
 153:Src/USB/Driver_USBdrive.c ****         return;
 154:Src/USB/Driver_USBdrive.c **** 
 155:Src/USB/Driver_USBdrive.c ****     if(f_opendir(&directory, pathToDirectory)!=FR_OK)
 156:Src/USB/Driver_USBdrive.c ****     {
 157:Src/USB/Driver_USBdrive.c ****         f_opendir(&directory, path);
 158:Src/USB/Driver_USBdrive.c ****         return;
 159:Src/USB/Driver_USBdrive.c ****     }
 160:Src/USB/Driver_USBdrive.c **** 
 161:Src/USB/Driver_USBdrive.c ****     sprintf(path, "%s", pathToDirectory);
 162:Src/USB/Driver_USBdrive.c **** 
 163:Src/USB/Driver_USBdrive.c **** }
 164:Src/USB/Driver_USBdrive.c **** 
 165:Src/USB/Driver_USBdrive.c **** void readItem_USBdrive()
 166:Src/USB/Driver_USBdrive.c **** {
 167:Src/USB/Driver_USBdrive.c ****     if (currentMountedStatus_USBdrive == UNMOUNTED_USBDRIVE)
 168:Src/USB/Driver_USBdrive.c ****         return;
 169:Src/USB/Driver_USBdrive.c **** 
 170:Src/USB/Driver_USBdrive.c ****     if(f_readdir(&directory, &fileInformation)!=FR_OK)
 171:Src/USB/Driver_USBdrive.c ****         return;
 172:Src/USB/Driver_USBdrive.c **** }
 173:Src/USB/Driver_USBdrive.c **** 
 174:Src/USB/Driver_USBdrive.c **** const TCHAR* getName_USBdrive(void) { return (const TCHAR*) fileInformation.fname;}
 175:Src/USB/Driver_USBdrive.c **** 
 176:Src/USB/Driver_USBdrive.c **** const TCHAR* getLongName_USBdrive(void) { return (const TCHAR*) fileInformation.lfname;}
 177:Src/USB/Driver_USBdrive.c **** 
 178:Src/USB/Driver_USBdrive.c **** 
ARM GAS  /tmp/ccKP1uaH.s 			page 19


 179:Src/USB/Driver_USBdrive.c **** 
 180:Src/USB/Driver_USBdrive.c **** static void convertLongNameToWideLongName(wchar_t* wideLongName, const TCHAR* longName)
 181:Src/USB/Driver_USBdrive.c **** {
 826              		.loc 1 181 0
 827              		.cfi_startproc
 828              		@ args = 0, pretend = 0, frame = 0
 829              		@ frame_needed = 0, uses_anonymous_args = 0
 830              	.LVL138:
 831 0000 70B5     		push	{r4, r5, r6, lr}
 832              	.LCFI1:
 833              		.cfi_def_cfa_offset 16
 834              		.cfi_offset 4, -16
 835              		.cfi_offset 5, -12
 836              		.cfi_offset 6, -8
 837              		.cfi_offset 14, -4
 838 0002 0546     		mov	r5, r0
 839 0004 0E46     		mov	r6, r1
 182:Src/USB/Driver_USBdrive.c ****     wideLongName[0] = *L" ";
 840              		.loc 1 182 0
 841 0006 0C4B     		ldr	r3, .L111
 842 0008 1B68     		ldr	r3, [r3]
 843 000a 0360     		str	r3, [r0]
 844              	.LVL139:
 183:Src/USB/Driver_USBdrive.c ****     int letterNember;
 184:Src/USB/Driver_USBdrive.c ****     for (letterNember = 0; letterNember < MAX_WIDE_NAME_LENGTH; letterNember++)
 845              		.loc 1 184 0
 846 000c 0023     		movs	r3, #0
 847 000e 04E0     		b	.L106
 848              	.LVL140:
 849              	.L107:
 185:Src/USB/Driver_USBdrive.c ****         wideLongName[letterNember+1] = *L"\0";
 850              		.loc 1 185 0 discriminator 3
 851 0010 0133     		adds	r3, r3, #1
 852              	.LVL141:
 853 0012 0A4A     		ldr	r2, .L111+4
 854 0014 1268     		ldr	r2, [r2]
 855 0016 45F82320 		str	r2, [r5, r3, lsl #2]
 856              	.LVL142:
 857              	.L106:
 184:Src/USB/Driver_USBdrive.c ****         wideLongName[letterNember+1] = *L"\0";
 858              		.loc 1 184 0 discriminator 1
 859 001a 632B     		cmp	r3, #99
 860 001c F8DD     		ble	.L107
 186:Src/USB/Driver_USBdrive.c ****     for (letterNember = 0; letterNember < MAX_WIDE_NAME_LENGTH; letterNember++)
 861              		.loc 1 186 0
 862 001e 0023     		movs	r3, #0
 863              	.LVL143:
 864 0020 06E0     		b	.L108
 865              	.LVL144:
 866              	.L109:
 187:Src/USB/Driver_USBdrive.c ****         wideLongName[letterNember+1] = TCHAR2wchar_t(longName[letterNember]);
 867              		.loc 1 187 0 discriminator 3
 868 0022 5C1C     		adds	r4, r3, #1
 869 0024 F05C     		ldrb	r0, [r6, r3]	@ zero_extendqisi2
 870 0026 FFF7FEFF 		bl	TCHAR2wchar_t
 871              	.LVL145:
 872 002a 45F82400 		str	r0, [r5, r4, lsl #2]
ARM GAS  /tmp/ccKP1uaH.s 			page 20


 186:Src/USB/Driver_USBdrive.c ****     for (letterNember = 0; letterNember < MAX_WIDE_NAME_LENGTH; letterNember++)
 873              		.loc 1 186 0 discriminator 3
 874 002e 2346     		mov	r3, r4
 875              	.LVL146:
 876              	.L108:
 186:Src/USB/Driver_USBdrive.c ****     for (letterNember = 0; letterNember < MAX_WIDE_NAME_LENGTH; letterNember++)
 877              		.loc 1 186 0 is_stmt 0 discriminator 1
 878 0030 632B     		cmp	r3, #99
 879 0032 F6DD     		ble	.L109
 188:Src/USB/Driver_USBdrive.c **** }
 880              		.loc 1 188 0 is_stmt 1
 881 0034 70BD     		pop	{r4, r5, r6, pc}
 882              	.LVL147:
 883              	.L112:
 884 0036 00BF     		.align	2
 885              	.L111:
 886 0038 00000000 		.word	.LC66
 887 003c 00000000 		.word	.LANCHOR1
 888              		.cfi_endproc
 889              	.LFE78:
 891              		.section	.text.createDriver_USBdrive,"ax",%progbits
 892              		.align	1
 893              		.global	createDriver_USBdrive
 894              		.syntax unified
 895              		.thumb
 896              		.thumb_func
 897              		.fpu softvfp
 899              	createDriver_USBdrive:
 900              	.LFB66:
  20:Src/USB/Driver_USBdrive.c ****     currentMountedStatus_USBdrive = UNMOUNTED_USBDRIVE;
 901              		.loc 1 20 0
 902              		.cfi_startproc
 903              		@ args = 0, pretend = 0, frame = 0
 904              		@ frame_needed = 0, uses_anonymous_args = 0
 905 0000 10B5     		push	{r4, lr}
 906              	.LCFI2:
 907              		.cfi_def_cfa_offset 8
 908              		.cfi_offset 4, -8
 909              		.cfi_offset 14, -4
  21:Src/USB/Driver_USBdrive.c ****     memcpy(path, zeroPath_USBdriver, PATH_LENGTH);
 910              		.loc 1 21 0
 911 0002 0024     		movs	r4, #0
 912 0004 074B     		ldr	r3, .L115
 913 0006 1C70     		strb	r4, [r3]
  22:Src/USB/Driver_USBdrive.c ****     sprintf(fileInformation.fname, "%s", "");
 914              		.loc 1 22 0
 915 0008 0748     		ldr	r0, .L115+4
 916 000a 40F8044B 		str	r4, [r0], #4
 917 000e 6022     		movs	r2, #96
 918 0010 2146     		mov	r1, r4
 919 0012 FFF7FEFF 		bl	memset
 920              	.LVL148:
  23:Src/USB/Driver_USBdrive.c ****     fileInformation.lfsize = _MAX_LFN;
 921              		.loc 1 23 0
 922 0016 054B     		ldr	r3, .L115+8
 923 0018 5C72     		strb	r4, [r3, #9]
  24:Src/USB/Driver_USBdrive.c ****     sprintf(fileInformation.lfname, "%s", "");
ARM GAS  /tmp/ccKP1uaH.s 			page 21


 924              		.loc 1 24 0
 925 001a FF22     		movs	r2, #255
 926 001c C3F81821 		str	r2, [r3, #280]
  25:Src/USB/Driver_USBdrive.c **** }
 927              		.loc 1 25 0
 928 0020 9C75     		strb	r4, [r3, #22]
  26:Src/USB/Driver_USBdrive.c **** 
 929              		.loc 1 26 0
 930 0022 10BD     		pop	{r4, pc}
 931              	.L116:
 932              		.align	2
 933              	.L115:
 934 0024 00000000 		.word	.LANCHOR2
 935 0028 00000000 		.word	.LANCHOR0
 936 002c 00000000 		.word	.LANCHOR3
 937              		.cfi_endproc
 938              	.LFE66:
 940              		.section	.text.mount_USBdrive,"ax",%progbits
 941              		.align	1
 942              		.global	mount_USBdrive
 943              		.syntax unified
 944              		.thumb
 945              		.thumb_func
 946              		.fpu softvfp
 948              	mount_USBdrive:
 949              	.LFB67:
  29:Src/USB/Driver_USBdrive.c ****     if(currentMountedStatus_USBdrive == MOUNTED_USBDRIVE)
 950              		.loc 1 29 0
 951              		.cfi_startproc
 952              		@ args = 0, pretend = 0, frame = 0
 953              		@ frame_needed = 0, uses_anonymous_args = 0
 954 0000 08B5     		push	{r3, lr}
 955              	.LCFI3:
 956              		.cfi_def_cfa_offset 8
 957              		.cfi_offset 3, -8
 958              		.cfi_offset 14, -4
  30:Src/USB/Driver_USBdrive.c ****         return;
 959              		.loc 1 30 0
 960 0002 0B4B     		ldr	r3, .L122
 961 0004 1B78     		ldrb	r3, [r3]	@ zero_extendqisi2
 962 0006 012B     		cmp	r3, #1
 963 0008 08D0     		beq	.L117
  33:Src/USB/Driver_USBdrive.c ****     {
 964              		.loc 1 33 0
 965 000a 0022     		movs	r2, #0
 966 000c 0949     		ldr	r1, .L122+4
 967 000e 0A48     		ldr	r0, .L122+8
 968 0010 FFF7FEFF 		bl	f_mount
 969              	.LVL149:
 970 0014 18B1     		cbz	r0, .L121
  40:Src/USB/Driver_USBdrive.c **** }
 971              		.loc 1 40 0
 972 0016 064B     		ldr	r3, .L122
 973 0018 0022     		movs	r2, #0
 974 001a 1A70     		strb	r2, [r3]
 975              	.L117:
  41:Src/USB/Driver_USBdrive.c **** 
ARM GAS  /tmp/ccKP1uaH.s 			page 22


 976              		.loc 1 41 0
 977 001c 08BD     		pop	{r3, pc}
 978              	.L121:
  35:Src/USB/Driver_USBdrive.c ****         sprintf(path, "%s", USBHPath);
 979              		.loc 1 35 0
 980 001e 044B     		ldr	r3, .L122
 981 0020 0122     		movs	r2, #1
 982 0022 1A70     		strb	r2, [r3]
  36:Src/USB/Driver_USBdrive.c ****         return;
 983              		.loc 1 36 0
 984 0024 0349     		ldr	r1, .L122+4
 985 0026 0548     		ldr	r0, .L122+12
 986 0028 FFF7FEFF 		bl	strcpy
 987              	.LVL150:
  37:Src/USB/Driver_USBdrive.c ****     }
 988              		.loc 1 37 0
 989 002c F6E7     		b	.L117
 990              	.L123:
 991 002e 00BF     		.align	2
 992              	.L122:
 993 0030 00000000 		.word	.LANCHOR2
 994 0034 00000000 		.word	USBHPath
 995 0038 00000000 		.word	USBDISKFatFs
 996 003c 00000000 		.word	.LANCHOR0
 997              		.cfi_endproc
 998              	.LFE67:
 1000              		.section	.text.unmount_USBdrive,"ax",%progbits
 1001              		.align	1
 1002              		.global	unmount_USBdrive
 1003              		.syntax unified
 1004              		.thumb
 1005              		.thumb_func
 1006              		.fpu softvfp
 1008              	unmount_USBdrive:
 1009              	.LFB68:
  44:Src/USB/Driver_USBdrive.c ****     if (currentMountedStatus_USBdrive == UNMOUNTED_USBDRIVE)
 1010              		.loc 1 44 0
 1011              		.cfi_startproc
 1012              		@ args = 0, pretend = 0, frame = 0
 1013              		@ frame_needed = 0, uses_anonymous_args = 0
 1014 0000 08B5     		push	{r3, lr}
 1015              	.LCFI4:
 1016              		.cfi_def_cfa_offset 8
 1017              		.cfi_offset 3, -8
 1018              		.cfi_offset 14, -4
  45:Src/USB/Driver_USBdrive.c ****         return;
 1019              		.loc 1 45 0
 1020 0002 0D4B     		ldr	r3, .L129
 1021 0004 1B78     		ldrb	r3, [r3]	@ zero_extendqisi2
 1022 0006 03B9     		cbnz	r3, .L128
 1023              	.L124:
  54:Src/USB/Driver_USBdrive.c **** 
 1024              		.loc 1 54 0
 1025 0008 08BD     		pop	{r3, pc}
 1026              	.L128:
  48:Src/USB/Driver_USBdrive.c ****     memcpy(path, zeroPath_USBdriver, PATH_LENGTH);
 1027              		.loc 1 48 0
ARM GAS  /tmp/ccKP1uaH.s 			page 23


 1028 000a 0022     		movs	r2, #0
 1029 000c 0B49     		ldr	r1, .L129+4
 1030 000e 0C48     		ldr	r0, .L129+8
 1031 0010 FFF7FEFF 		bl	sprintf
 1032              	.LVL151:
  49:Src/USB/Driver_USBdrive.c **** 
 1033              		.loc 1 49 0
 1034 0014 0021     		movs	r1, #0
 1035 0016 0B48     		ldr	r0, .L129+12
 1036 0018 40F8041B 		str	r1, [r0], #4
 1037 001c 6022     		movs	r2, #96
 1038 001e FFF7FEFF 		bl	memset
 1039              	.LVL152:
 1040              	.L126:
  51:Src/USB/Driver_USBdrive.c **** 
 1041              		.loc 1 51 0 discriminator 1
 1042 0022 0022     		movs	r2, #0
 1043 0024 0649     		ldr	r1, .L129+8
 1044 0026 1046     		mov	r0, r2
 1045 0028 FFF7FEFF 		bl	f_mount
 1046              	.LVL153:
 1047 002c 0028     		cmp	r0, #0
 1048 002e F8D1     		bne	.L126
  53:Src/USB/Driver_USBdrive.c **** }
 1049              		.loc 1 53 0
 1050 0030 014B     		ldr	r3, .L129
 1051 0032 0022     		movs	r2, #0
 1052 0034 1A70     		strb	r2, [r3]
 1053 0036 E7E7     		b	.L124
 1054              	.L130:
 1055              		.align	2
 1056              	.L129:
 1057 0038 00000000 		.word	.LANCHOR2
 1058 003c 00000000 		.word	.LC68
 1059 0040 00000000 		.word	USBHPath
 1060 0044 00000000 		.word	.LANCHOR0
 1061              		.cfi_endproc
 1062              	.LFE68:
 1064              		.section	.text.getMountedStatus,"ax",%progbits
 1065              		.align	1
 1066              		.global	getMountedStatus
 1067              		.syntax unified
 1068              		.thumb
 1069              		.thumb_func
 1070              		.fpu softvfp
 1072              	getMountedStatus:
 1073              	.LFB69:
  56:Src/USB/Driver_USBdrive.c **** 
 1074              		.loc 1 56 0
 1075              		.cfi_startproc
 1076              		@ args = 0, pretend = 0, frame = 0
 1077              		@ frame_needed = 0, uses_anonymous_args = 0
 1078              		@ link register save eliminated.
  56:Src/USB/Driver_USBdrive.c **** 
 1079              		.loc 1 56 0
 1080 0000 014B     		ldr	r3, .L132
 1081 0002 1878     		ldrb	r0, [r3]	@ zero_extendqisi2
ARM GAS  /tmp/ccKP1uaH.s 			page 24


 1082 0004 7047     		bx	lr
 1083              	.L133:
 1084 0006 00BF     		.align	2
 1085              	.L132:
 1086 0008 00000000 		.word	.LANCHOR2
 1087              		.cfi_endproc
 1088              	.LFE69:
 1090              		.section	.text.getPath_USBdrive,"ax",%progbits
 1091              		.align	1
 1092              		.global	getPath_USBdrive
 1093              		.syntax unified
 1094              		.thumb
 1095              		.thumb_func
 1096              		.fpu softvfp
 1098              	getPath_USBdrive:
 1099              	.LFB71:
 131:Src/USB/Driver_USBdrive.c **** 
 1100              		.loc 1 131 0
 1101              		.cfi_startproc
 1102              		@ args = 0, pretend = 0, frame = 0
 1103              		@ frame_needed = 0, uses_anonymous_args = 0
 1104              		@ link register save eliminated.
 131:Src/USB/Driver_USBdrive.c **** 
 1105              		.loc 1 131 0
 1106 0000 0048     		ldr	r0, .L135
 1107 0002 7047     		bx	lr
 1108              	.L136:
 1109              		.align	2
 1110              	.L135:
 1111 0004 00000000 		.word	.LANCHOR0
 1112              		.cfi_endproc
 1113              	.LFE71:
 1115              		.section	.text.getWidePath_USBdrive,"ax",%progbits
 1116              		.align	1
 1117              		.global	getWidePath_USBdrive
 1118              		.syntax unified
 1119              		.thumb
 1120              		.thumb_func
 1121              		.fpu softvfp
 1123              	getWidePath_USBdrive:
 1124              	.LFB73:
 142:Src/USB/Driver_USBdrive.c ****     convertPathToWidePath(widePath);
 1125              		.loc 1 142 0
 1126              		.cfi_startproc
 1127              		@ args = 0, pretend = 0, frame = 0
 1128              		@ frame_needed = 0, uses_anonymous_args = 0
 1129 0000 10B5     		push	{r4, lr}
 1130              	.LCFI5:
 1131              		.cfi_def_cfa_offset 8
 1132              		.cfi_offset 4, -8
 1133              		.cfi_offset 14, -4
 143:Src/USB/Driver_USBdrive.c ****     return (const wchar_t*) widePath;
 1134              		.loc 1 143 0
 1135 0002 034C     		ldr	r4, .L139
 1136 0004 2046     		mov	r0, r4
 1137 0006 FFF7FEFF 		bl	convertPathToWidePath
 1138              	.LVL154:
ARM GAS  /tmp/ccKP1uaH.s 			page 25


 145:Src/USB/Driver_USBdrive.c **** 
 1139              		.loc 1 145 0
 1140 000a 2046     		mov	r0, r4
 1141 000c 10BD     		pop	{r4, pc}
 1142              	.L140:
 1143 000e 00BF     		.align	2
 1144              	.L139:
 1145 0010 00000000 		.word	.LANCHOR4
 1146              		.cfi_endproc
 1147              	.LFE73:
 1149              		.section	.text.openDirectory_USBdrive,"ax",%progbits
 1150              		.align	1
 1151              		.global	openDirectory_USBdrive
 1152              		.syntax unified
 1153              		.thumb
 1154              		.thumb_func
 1155              		.fpu softvfp
 1157              	openDirectory_USBdrive:
 1158              	.LFB74:
 149:Src/USB/Driver_USBdrive.c ****     f_closedir(&directory);
 1159              		.loc 1 149 0
 1160              		.cfi_startproc
 1161              		@ args = 0, pretend = 0, frame = 0
 1162              		@ frame_needed = 0, uses_anonymous_args = 0
 1163              	.LVL155:
 1164 0000 10B5     		push	{r4, lr}
 1165              	.LCFI6:
 1166              		.cfi_def_cfa_offset 8
 1167              		.cfi_offset 4, -8
 1168              		.cfi_offset 14, -4
 1169 0002 0446     		mov	r4, r0
 150:Src/USB/Driver_USBdrive.c **** 
 1170              		.loc 1 150 0
 1171 0004 0A48     		ldr	r0, .L147
 1172              	.LVL156:
 1173 0006 FFF7FEFF 		bl	f_closedir
 1174              	.LVL157:
 152:Src/USB/Driver_USBdrive.c ****         return;
 1175              		.loc 1 152 0
 1176 000a 0A4B     		ldr	r3, .L147+4
 1177 000c 1B78     		ldrb	r3, [r3]	@ zero_extendqisi2
 1178 000e 03B9     		cbnz	r3, .L145
 1179              	.L141:
 163:Src/USB/Driver_USBdrive.c **** 
 1180              		.loc 1 163 0
 1181 0010 10BD     		pop	{r4, pc}
 1182              	.LVL158:
 1183              	.L145:
 155:Src/USB/Driver_USBdrive.c ****     {
 1184              		.loc 1 155 0
 1185 0012 2146     		mov	r1, r4
 1186 0014 0648     		ldr	r0, .L147
 1187 0016 FFF7FEFF 		bl	f_opendir
 1188              	.LVL159:
 1189 001a 20B9     		cbnz	r0, .L146
 161:Src/USB/Driver_USBdrive.c **** 
 1190              		.loc 1 161 0
ARM GAS  /tmp/ccKP1uaH.s 			page 26


 1191 001c 2146     		mov	r1, r4
 1192 001e 0648     		ldr	r0, .L147+8
 1193 0020 FFF7FEFF 		bl	strcpy
 1194              	.LVL160:
 1195 0024 F4E7     		b	.L141
 1196              	.L146:
 157:Src/USB/Driver_USBdrive.c ****         return;
 1197              		.loc 1 157 0
 1198 0026 0449     		ldr	r1, .L147+8
 1199 0028 0148     		ldr	r0, .L147
 1200 002a FFF7FEFF 		bl	f_opendir
 1201              	.LVL161:
 158:Src/USB/Driver_USBdrive.c ****     }
 1202              		.loc 1 158 0
 1203 002e EFE7     		b	.L141
 1204              	.L148:
 1205              		.align	2
 1206              	.L147:
 1207 0030 00000000 		.word	directory
 1208 0034 00000000 		.word	.LANCHOR2
 1209 0038 00000000 		.word	.LANCHOR0
 1210              		.cfi_endproc
 1211              	.LFE74:
 1213              		.section	.text.readItem_USBdrive,"ax",%progbits
 1214              		.align	1
 1215              		.global	readItem_USBdrive
 1216              		.syntax unified
 1217              		.thumb
 1218              		.thumb_func
 1219              		.fpu softvfp
 1221              	readItem_USBdrive:
 1222              	.LFB75:
 166:Src/USB/Driver_USBdrive.c ****     if (currentMountedStatus_USBdrive == UNMOUNTED_USBDRIVE)
 1223              		.loc 1 166 0
 1224              		.cfi_startproc
 1225              		@ args = 0, pretend = 0, frame = 0
 1226              		@ frame_needed = 0, uses_anonymous_args = 0
 1227 0000 08B5     		push	{r3, lr}
 1228              	.LCFI7:
 1229              		.cfi_def_cfa_offset 8
 1230              		.cfi_offset 3, -8
 1231              		.cfi_offset 14, -4
 167:Src/USB/Driver_USBdrive.c ****         return;
 1232              		.loc 1 167 0
 1233 0002 044B     		ldr	r3, .L153
 1234 0004 1B78     		ldrb	r3, [r3]	@ zero_extendqisi2
 1235 0006 03B9     		cbnz	r3, .L152
 1236              	.L149:
 172:Src/USB/Driver_USBdrive.c **** 
 1237              		.loc 1 172 0
 1238 0008 08BD     		pop	{r3, pc}
 1239              	.L152:
 170:Src/USB/Driver_USBdrive.c ****         return;
 1240              		.loc 1 170 0
 1241 000a 0349     		ldr	r1, .L153+4
 1242 000c 0348     		ldr	r0, .L153+8
 1243 000e FFF7FEFF 		bl	f_readdir
ARM GAS  /tmp/ccKP1uaH.s 			page 27


 1244              	.LVL162:
 1245 0012 F9E7     		b	.L149
 1246              	.L154:
 1247              		.align	2
 1248              	.L153:
 1249 0014 00000000 		.word	.LANCHOR2
 1250 0018 00000000 		.word	.LANCHOR3
 1251 001c 00000000 		.word	directory
 1252              		.cfi_endproc
 1253              	.LFE75:
 1255              		.section	.text.getName_USBdrive,"ax",%progbits
 1256              		.align	1
 1257              		.global	getName_USBdrive
 1258              		.syntax unified
 1259              		.thumb
 1260              		.thumb_func
 1261              		.fpu softvfp
 1263              	getName_USBdrive:
 1264              	.LFB76:
 174:Src/USB/Driver_USBdrive.c **** 
 1265              		.loc 1 174 0
 1266              		.cfi_startproc
 1267              		@ args = 0, pretend = 0, frame = 0
 1268              		@ frame_needed = 0, uses_anonymous_args = 0
 1269              		@ link register save eliminated.
 174:Src/USB/Driver_USBdrive.c **** 
 1270              		.loc 1 174 0
 1271 0000 0048     		ldr	r0, .L156
 1272 0002 7047     		bx	lr
 1273              	.L157:
 1274              		.align	2
 1275              	.L156:
 1276 0004 09000000 		.word	.LANCHOR3+9
 1277              		.cfi_endproc
 1278              	.LFE76:
 1280              		.section	.text.getLongName_USBdrive,"ax",%progbits
 1281              		.align	1
 1282              		.global	getLongName_USBdrive
 1283              		.syntax unified
 1284              		.thumb
 1285              		.thumb_func
 1286              		.fpu softvfp
 1288              	getLongName_USBdrive:
 1289              	.LFB77:
 176:Src/USB/Driver_USBdrive.c **** 
 1290              		.loc 1 176 0
 1291              		.cfi_startproc
 1292              		@ args = 0, pretend = 0, frame = 0
 1293              		@ frame_needed = 0, uses_anonymous_args = 0
 1294              		@ link register save eliminated.
 176:Src/USB/Driver_USBdrive.c **** 
 1295              		.loc 1 176 0
 1296 0000 0048     		ldr	r0, .L159
 1297 0002 7047     		bx	lr
 1298              	.L160:
 1299              		.align	2
 1300              	.L159:
ARM GAS  /tmp/ccKP1uaH.s 			page 28


 1301 0004 16000000 		.word	.LANCHOR3+22
 1302              		.cfi_endproc
 1303              	.LFE77:
 1305              		.section	.text.getWideLongName_USBdrive,"ax",%progbits
 1306              		.align	1
 1307              		.global	getWideLongName_USBdrive
 1308              		.syntax unified
 1309              		.thumb
 1310              		.thumb_func
 1311              		.fpu softvfp
 1313              	getWideLongName_USBdrive:
 1314              	.LFB79:
 189:Src/USB/Driver_USBdrive.c **** 
 190:Src/USB/Driver_USBdrive.c **** static wchar_t outputWideName[MAX_WIDE_NAME_LENGTH];
 191:Src/USB/Driver_USBdrive.c **** const wchar_t* getWideLongName_USBdrive(void)
 192:Src/USB/Driver_USBdrive.c **** {
 1315              		.loc 1 192 0
 1316              		.cfi_startproc
 1317              		@ args = 0, pretend = 0, frame = 0
 1318              		@ frame_needed = 0, uses_anonymous_args = 0
 1319 0000 10B5     		push	{r4, lr}
 1320              	.LCFI8:
 1321              		.cfi_def_cfa_offset 8
 1322              		.cfi_offset 4, -8
 1323              		.cfi_offset 14, -4
 193:Src/USB/Driver_USBdrive.c ****     convertLongNameToWideLongName(outputWideName, fileInformation.lfname);
 1324              		.loc 1 193 0
 1325 0002 034C     		ldr	r4, .L163
 1326 0004 0349     		ldr	r1, .L163+4
 1327 0006 2046     		mov	r0, r4
 1328 0008 FFF7FEFF 		bl	convertLongNameToWideLongName
 1329              	.LVL163:
 194:Src/USB/Driver_USBdrive.c ****     return (const wchar_t*) outputWideName;
 195:Src/USB/Driver_USBdrive.c **** }
 1330              		.loc 1 195 0
 1331 000c 2046     		mov	r0, r4
 1332 000e 10BD     		pop	{r4, pc}
 1333              	.L164:
 1334              		.align	2
 1335              	.L163:
 1336 0010 00000000 		.word	.LANCHOR5
 1337 0014 16000000 		.word	.LANCHOR3+22
 1338              		.cfi_endproc
 1339              	.LFE79:
 1341              		.section	.text.getItemType_USBdrive,"ax",%progbits
 1342              		.align	1
 1343              		.global	getItemType_USBdrive
 1344              		.syntax unified
 1345              		.thumb
 1346              		.thumb_func
 1347              		.fpu softvfp
 1349              	getItemType_USBdrive:
 1350              	.LFB80:
 196:Src/USB/Driver_USBdrive.c **** 
 197:Src/USB/Driver_USBdrive.c **** itemType_USBdrive getItemType_USBdrive(void)
 198:Src/USB/Driver_USBdrive.c **** {
 1351              		.loc 1 198 0
ARM GAS  /tmp/ccKP1uaH.s 			page 29


 1352              		.cfi_startproc
 1353              		@ args = 0, pretend = 0, frame = 0
 1354              		@ frame_needed = 0, uses_anonymous_args = 0
 1355 0000 08B5     		push	{r3, lr}
 1356              	.LCFI9:
 1357              		.cfi_def_cfa_offset 8
 1358              		.cfi_offset 3, -8
 1359              		.cfi_offset 14, -4
 199:Src/USB/Driver_USBdrive.c ****     if (getName_USBdrive()[0] == '\0')
 1360              		.loc 1 199 0
 1361 0002 FFF7FEFF 		bl	getName_USBdrive
 1362              	.LVL164:
 1363 0006 0378     		ldrb	r3, [r0]	@ zero_extendqisi2
 1364 0008 3BB1     		cbz	r3, .L167
 200:Src/USB/Driver_USBdrive.c ****         return ITEM_IS_EMPTY;
 201:Src/USB/Driver_USBdrive.c ****     if (fileInformation.fattrib == AM_DIR)
 1365              		.loc 1 201 0
 1366 000a 054B     		ldr	r3, .L171
 1367 000c 1B7A     		ldrb	r3, [r3, #8]	@ zero_extendqisi2
 1368 000e 102B     		cmp	r3, #16
 1369 0010 01D0     		beq	.L170
 202:Src/USB/Driver_USBdrive.c ****         return ITEM_IS_DIRECTORY;
 203:Src/USB/Driver_USBdrive.c ****     return ITEM_IS_FILE;
 1370              		.loc 1 203 0
 1371 0012 0120     		movs	r0, #1
 1372 0014 02E0     		b	.L166
 1373              	.L170:
 202:Src/USB/Driver_USBdrive.c ****         return ITEM_IS_DIRECTORY;
 1374              		.loc 1 202 0
 1375 0016 0220     		movs	r0, #2
 1376 0018 00E0     		b	.L166
 1377              	.L167:
 200:Src/USB/Driver_USBdrive.c ****         return ITEM_IS_EMPTY;
 1378              		.loc 1 200 0
 1379 001a 0020     		movs	r0, #0
 1380              	.L166:
 204:Src/USB/Driver_USBdrive.c **** }
 1381              		.loc 1 204 0
 1382 001c 08BD     		pop	{r3, pc}
 1383              	.L172:
 1384 001e 00BF     		.align	2
 1385              	.L171:
 1386 0020 00000000 		.word	.LANCHOR3
 1387              		.cfi_endproc
 1388              	.LFE80:
 1390              		.section	.text.openFile_USBdrive,"ax",%progbits
 1391              		.align	1
 1392              		.global	openFile_USBdrive
 1393              		.syntax unified
 1394              		.thumb
 1395              		.thumb_func
 1396              		.fpu softvfp
 1398              	openFile_USBdrive:
 1399              	.LFB81:
 205:Src/USB/Driver_USBdrive.c **** 
 206:Src/USB/Driver_USBdrive.c **** void openFile_USBdrive(const TCHAR* pathToFile)
 207:Src/USB/Driver_USBdrive.c **** {
ARM GAS  /tmp/ccKP1uaH.s 			page 30


 1400              		.loc 1 207 0
 1401              		.cfi_startproc
 1402              		@ args = 0, pretend = 0, frame = 0
 1403              		@ frame_needed = 0, uses_anonymous_args = 0
 1404              	.LVL165:
 1405 0000 10B5     		push	{r4, lr}
 1406              	.LCFI10:
 1407              		.cfi_def_cfa_offset 8
 1408              		.cfi_offset 4, -8
 1409              		.cfi_offset 14, -4
 1410 0002 0446     		mov	r4, r0
 208:Src/USB/Driver_USBdrive.c ****     f_close(&file);
 1411              		.loc 1 208 0
 1412 0004 0648     		ldr	r0, .L177
 1413              	.LVL166:
 1414 0006 FFF7FEFF 		bl	f_close
 1415              	.LVL167:
 209:Src/USB/Driver_USBdrive.c **** 
 210:Src/USB/Driver_USBdrive.c ****     if (currentMountedStatus_USBdrive == UNMOUNTED_USBDRIVE)
 1416              		.loc 1 210 0
 1417 000a 064B     		ldr	r3, .L177+4
 1418 000c 1B78     		ldrb	r3, [r3]	@ zero_extendqisi2
 1419 000e 03B9     		cbnz	r3, .L176
 1420              	.L173:
 211:Src/USB/Driver_USBdrive.c ****         return;
 212:Src/USB/Driver_USBdrive.c **** 
 213:Src/USB/Driver_USBdrive.c ****     f_open(&file, pathToFile, FA_READ);
 214:Src/USB/Driver_USBdrive.c **** }
 1421              		.loc 1 214 0
 1422 0010 10BD     		pop	{r4, pc}
 1423              	.LVL168:
 1424              	.L176:
 213:Src/USB/Driver_USBdrive.c **** }
 1425              		.loc 1 213 0
 1426 0012 0122     		movs	r2, #1
 1427 0014 2146     		mov	r1, r4
 1428 0016 0248     		ldr	r0, .L177
 1429 0018 FFF7FEFF 		bl	f_open
 1430              	.LVL169:
 1431 001c F8E7     		b	.L173
 1432              	.L178:
 1433 001e 00BF     		.align	2
 1434              	.L177:
 1435 0020 00000000 		.word	file
 1436 0024 00000000 		.word	.LANCHOR2
 1437              		.cfi_endproc
 1438              	.LFE81:
 1440              		.section	.text.getStringFromFile_USBdrive,"ax",%progbits
 1441              		.align	1
 1442              		.global	getStringFromFile_USBdrive
 1443              		.syntax unified
 1444              		.thumb
 1445              		.thumb_func
 1446              		.fpu softvfp
 1448              	getStringFromFile_USBdrive:
 1449              	.LFB82:
 215:Src/USB/Driver_USBdrive.c **** 
ARM GAS  /tmp/ccKP1uaH.s 			page 31


 216:Src/USB/Driver_USBdrive.c **** static TCHAR stringFromFile[STRING_FROM_FILE_LENGTH];
 217:Src/USB/Driver_USBdrive.c **** const TCHAR* getStringFromFile_USBdrive(void)
 218:Src/USB/Driver_USBdrive.c **** {
 1450              		.loc 1 218 0
 1451              		.cfi_startproc
 1452              		@ args = 0, pretend = 0, frame = 0
 1453              		@ frame_needed = 0, uses_anonymous_args = 0
 219:Src/USB/Driver_USBdrive.c ****     if (currentMountedStatus_USBdrive == UNMOUNTED_USBDRIVE)
 1454              		.loc 1 219 0
 1455 0000 064B     		ldr	r3, .L187
 1456 0002 1B78     		ldrb	r3, [r3]	@ zero_extendqisi2
 1457 0004 0BB9     		cbnz	r3, .L186
 220:Src/USB/Driver_USBdrive.c ****         return "";
 1458              		.loc 1 220 0
 1459 0006 0648     		ldr	r0, .L187+4
 221:Src/USB/Driver_USBdrive.c **** 
 222:Src/USB/Driver_USBdrive.c ****     f_gets(stringFromFile, STRING_FROM_FILE_LENGTH, &file);
 223:Src/USB/Driver_USBdrive.c ****     return (const TCHAR*) stringFromFile;
 224:Src/USB/Driver_USBdrive.c **** }
 1460              		.loc 1 224 0
 1461 0008 7047     		bx	lr
 1462              	.L186:
 218:Src/USB/Driver_USBdrive.c ****     if (currentMountedStatus_USBdrive == UNMOUNTED_USBDRIVE)
 1463              		.loc 1 218 0
 1464 000a 10B5     		push	{r4, lr}
 1465              	.LCFI11:
 1466              		.cfi_def_cfa_offset 8
 1467              		.cfi_offset 4, -8
 1468              		.cfi_offset 14, -4
 222:Src/USB/Driver_USBdrive.c ****     return (const TCHAR*) stringFromFile;
 1469              		.loc 1 222 0
 1470 000c 054C     		ldr	r4, .L187+8
 1471 000e 064A     		ldr	r2, .L187+12
 1472 0010 6421     		movs	r1, #100
 1473 0012 2046     		mov	r0, r4
 1474 0014 FFF7FEFF 		bl	f_gets
 1475              	.LVL170:
 223:Src/USB/Driver_USBdrive.c **** }
 1476              		.loc 1 223 0
 1477 0018 2046     		mov	r0, r4
 1478              		.loc 1 224 0
 1479 001a 10BD     		pop	{r4, pc}
 1480              	.L188:
 1481              		.align	2
 1482              	.L187:
 1483 001c 00000000 		.word	.LANCHOR2
 1484 0020 00000000 		.word	.LC69
 1485 0024 00000000 		.word	.LANCHOR6
 1486 0028 00000000 		.word	file
 1487              		.cfi_endproc
 1488              	.LFE82:
 1490              		.section	.text.endOfFile_USBdrive,"ax",%progbits
 1491              		.align	1
 1492              		.global	endOfFile_USBdrive
 1493              		.syntax unified
 1494              		.thumb
 1495              		.thumb_func
ARM GAS  /tmp/ccKP1uaH.s 			page 32


 1496              		.fpu softvfp
 1498              	endOfFile_USBdrive:
 1499              	.LFB83:
 225:Src/USB/Driver_USBdrive.c **** 
 226:Src/USB/Driver_USBdrive.c **** _Bool endOfFile_USBdrive(void)
 227:Src/USB/Driver_USBdrive.c **** {
 1500              		.loc 1 227 0
 1501              		.cfi_startproc
 1502              		@ args = 0, pretend = 0, frame = 0
 1503              		@ frame_needed = 0, uses_anonymous_args = 0
 1504              		@ link register save eliminated.
 228:Src/USB/Driver_USBdrive.c ****     if(f_eof(&file)==0)
 1505              		.loc 1 228 0
 1506 0000 064B     		ldr	r3, .L192
 1507 0002 41F20802 		movw	r2, #4104
 1508 0006 9A58     		ldr	r2, [r3, r2]
 1509 0008 41F20C01 		movw	r1, #4108
 1510 000c 5B58     		ldr	r3, [r3, r1]
 1511 000e 9A42     		cmp	r2, r3
 1512 0010 01D0     		beq	.L191
 229:Src/USB/Driver_USBdrive.c ****         return false;
 1513              		.loc 1 229 0
 1514 0012 0020     		movs	r0, #0
 1515 0014 7047     		bx	lr
 1516              	.L191:
 230:Src/USB/Driver_USBdrive.c ****     return true;
 1517              		.loc 1 230 0
 1518 0016 0120     		movs	r0, #1
 231:Src/USB/Driver_USBdrive.c **** }
 1519              		.loc 1 231 0
 1520 0018 7047     		bx	lr
 1521              	.L193:
 1522 001a 00BF     		.align	2
 1523              	.L192:
 1524 001c 00000000 		.word	file
 1525              		.cfi_endproc
 1526              	.LFE83:
 1528              		.section	.rodata
 1529              		.align	2
 1530              		.set	.LANCHOR1,. + 0
 1531              	.LC67:
 1532 0000 00000000 		.ascii	"\000\000\000\000\000\000\000\000"
 1532      00000000 
 1533              		.section	.bss.USBDISKFatFs,"aw",%nobits
 1534              		.align	2
 1537              	USBDISKFatFs:
 1538 0000 00000000 		.space	4144
 1538      00000000 
 1538      00000000 
 1538      00000000 
 1538      00000000 
 1539              		.section	.bss.currentMountedStatus_USBdrive,"aw",%nobits
 1540              		.set	.LANCHOR2,. + 0
 1543              	currentMountedStatus_USBdrive:
 1544 0000 00       		.space	1
 1545              		.section	.bss.directory,"aw",%nobits
 1546              		.align	2
ARM GAS  /tmp/ccKP1uaH.s 			page 33


 1549              	directory:
 1550 0000 00000000 		.space	4136
 1550      00000000 
 1550      00000000 
 1550      00000000 
 1550      00000000 
 1551              		.section	.bss.file,"aw",%nobits
 1552              		.align	2
 1555              	file:
 1556 0000 00000000 		.space	4140
 1556      00000000 
 1556      00000000 
 1556      00000000 
 1556      00000000 
 1557              		.section	.bss.fileInformation,"aw",%nobits
 1558              		.align	2
 1559              		.set	.LANCHOR3,. + 0
 1562              	fileInformation:
 1563 0000 00000000 		.space	284
 1563      00000000 
 1563      00000000 
 1563      00000000 
 1563      00000000 
 1564              		.section	.bss.outputWideName,"aw",%nobits
 1565              		.align	2
 1566              		.set	.LANCHOR5,. + 0
 1569              	outputWideName:
 1570 0000 00000000 		.space	400
 1570      00000000 
 1570      00000000 
 1570      00000000 
 1570      00000000 
 1571              		.section	.bss.path,"aw",%nobits
 1572              		.align	2
 1573              		.set	.LANCHOR0,. + 0
 1576              	path:
 1577 0000 00000000 		.space	100
 1577      00000000 
 1577      00000000 
 1577      00000000 
 1577      00000000 
 1578              		.section	.bss.stringFromFile,"aw",%nobits
 1579              		.align	2
 1580              		.set	.LANCHOR6,. + 0
 1583              	stringFromFile:
 1584 0000 00000000 		.space	100
 1584      00000000 
 1584      00000000 
 1584      00000000 
 1584      00000000 
 1585              		.section	.bss.widePath,"aw",%nobits
 1586              		.align	2
 1587              		.set	.LANCHOR4,. + 0
 1590              	widePath:
 1591 0000 00000000 		.space	400
 1591      00000000 
 1591      00000000 
ARM GAS  /tmp/ccKP1uaH.s 			page 34


 1591      00000000 
 1591      00000000 
 1592              		.section	.rodata.TCHAR2wchar_t.str4.4,"aMS",%progbits,4
 1593              		.align	2
 1594              	.LC23:
 1595 0000 46040000 		.ascii	"F\004\000\000\000\000\000\000"
 1595      00000000 
 1596              	.LC0:
 1597 0008 30040000 		.ascii	"0\004\000\000\000\000\000\000"
 1597      00000000 
 1598              	.LC1:
 1599 0010 31040000 		.ascii	"1\004\000\000\000\000\000\000"
 1599      00000000 
 1600              	.LC2:
 1601 0018 32040000 		.ascii	"2\004\000\000\000\000\000\000"
 1601      00000000 
 1602              	.LC3:
 1603 0020 33040000 		.ascii	"3\004\000\000\000\000\000\000"
 1603      00000000 
 1604              	.LC4:
 1605 0028 34040000 		.ascii	"4\004\000\000\000\000\000\000"
 1605      00000000 
 1606              	.LC5:
 1607 0030 35040000 		.ascii	"5\004\000\000\000\000\000\000"
 1607      00000000 
 1608              	.LC6:
 1609 0038 51040000 		.ascii	"Q\004\000\000\000\000\000\000"
 1609      00000000 
 1610              	.LC7:
 1611 0040 36040000 		.ascii	"6\004\000\000\000\000\000\000"
 1611      00000000 
 1612              	.LC8:
 1613 0048 37040000 		.ascii	"7\004\000\000\000\000\000\000"
 1613      00000000 
 1614              	.LC9:
 1615 0050 38040000 		.ascii	"8\004\000\000\000\000\000\000"
 1615      00000000 
 1616              	.LC10:
 1617 0058 39040000 		.ascii	"9\004\000\000\000\000\000\000"
 1617      00000000 
 1618              	.LC11:
 1619 0060 3A040000 		.ascii	":\004\000\000\000\000\000\000"
 1619      00000000 
 1620              	.LC12:
 1621 0068 3B040000 		.ascii	";\004\000\000\000\000\000\000"
 1621      00000000 
 1622              	.LC13:
 1623 0070 3C040000 		.ascii	"<\004\000\000\000\000\000\000"
 1623      00000000 
 1624              	.LC14:
 1625 0078 3D040000 		.ascii	"=\004\000\000\000\000\000\000"
 1625      00000000 
 1626              	.LC15:
 1627 0080 3E040000 		.ascii	">\004\000\000\000\000\000\000"
 1627      00000000 
 1628              	.LC16:
 1629 0088 3F040000 		.ascii	"?\004\000\000\000\000\000\000"
ARM GAS  /tmp/ccKP1uaH.s 			page 35


 1629      00000000 
 1630              	.LC17:
 1631 0090 40040000 		.ascii	"@\004\000\000\000\000\000\000"
 1631      00000000 
 1632              	.LC18:
 1633 0098 41040000 		.ascii	"A\004\000\000\000\000\000\000"
 1633      00000000 
 1634              	.LC19:
 1635 00a0 42040000 		.ascii	"B\004\000\000\000\000\000\000"
 1635      00000000 
 1636              	.LC20:
 1637 00a8 43040000 		.ascii	"C\004\000\000\000\000\000\000"
 1637      00000000 
 1638              	.LC21:
 1639 00b0 44040000 		.ascii	"D\004\000\000\000\000\000\000"
 1639      00000000 
 1640              	.LC22:
 1641 00b8 45040000 		.ascii	"E\004\000\000\000\000\000\000"
 1641      00000000 
 1642              	.LC24:
 1643 00c0 47040000 		.ascii	"G\004\000\000\000\000\000\000"
 1643      00000000 
 1644              	.LC28:
 1645 00c8 4B040000 		.ascii	"K\004\000\000\000\000\000\000"
 1645      00000000 
 1646              	.LC25:
 1647 00d0 48040000 		.ascii	"H\004\000\000\000\000\000\000"
 1647      00000000 
 1648              	.LC26:
 1649 00d8 49040000 		.ascii	"I\004\000\000\000\000\000\000"
 1649      00000000 
 1650              	.LC27:
 1651 00e0 4A040000 		.ascii	"J\004\000\000\000\000\000\000"
 1651      00000000 
 1652              	.LC29:
 1653 00e8 4C040000 		.ascii	"L\004\000\000\000\000\000\000"
 1653      00000000 
 1654              	.LC30:
 1655 00f0 4D040000 		.ascii	"M\004\000\000\000\000\000\000"
 1655      00000000 
 1656              	.LC31:
 1657 00f8 4E040000 		.ascii	"N\004\000\000\000\000\000\000"
 1657      00000000 
 1658              	.LC32:
 1659 0100 4F040000 		.ascii	"O\004\000\000\000\000\000\000"
 1659      00000000 
 1660              	.LC33:
 1661 0108 10040000 		.ascii	"\020\004\000\000\000\000\000\000"
 1661      00000000 
 1662              	.LC34:
 1663 0110 11040000 		.ascii	"\021\004\000\000\000\000\000\000"
 1663      00000000 
 1664              	.LC35:
 1665 0118 12040000 		.ascii	"\022\004\000\000\000\000\000\000"
 1665      00000000 
 1666              	.LC36:
 1667 0120 13040000 		.ascii	"\023\004\000\000\000\000\000\000"
ARM GAS  /tmp/ccKP1uaH.s 			page 36


 1667      00000000 
 1668              	.LC37:
 1669 0128 14040000 		.ascii	"\024\004\000\000\000\000\000\000"
 1669      00000000 
 1670              	.LC38:
 1671 0130 15040000 		.ascii	"\025\004\000\000\000\000\000\000"
 1671      00000000 
 1672              	.LC39:
 1673 0138 01040000 		.ascii	"\001\004\000\000\000\000\000\000"
 1673      00000000 
 1674              	.LC40:
 1675 0140 16040000 		.ascii	"\026\004\000\000\000\000\000\000"
 1675      00000000 
 1676              	.LC41:
 1677 0148 17040000 		.ascii	"\027\004\000\000\000\000\000\000"
 1677      00000000 
 1678              	.LC42:
 1679 0150 18040000 		.ascii	"\030\004\000\000\000\000\000\000"
 1679      00000000 
 1680              	.LC43:
 1681 0158 19040000 		.ascii	"\031\004\000\000\000\000\000\000"
 1681      00000000 
 1682              	.LC44:
 1683 0160 1A040000 		.ascii	"\032\004\000\000\000\000\000\000"
 1683      00000000 
 1684              	.LC45:
 1685 0168 1B040000 		.ascii	"\033\004\000\000\000\000\000\000"
 1685      00000000 
 1686              	.LC46:
 1687 0170 1C040000 		.ascii	"\034\004\000\000\000\000\000\000"
 1687      00000000 
 1688              	.LC47:
 1689 0178 1D040000 		.ascii	"\035\004\000\000\000\000\000\000"
 1689      00000000 
 1690              	.LC48:
 1691 0180 1E040000 		.ascii	"\036\004\000\000\000\000\000\000"
 1691      00000000 
 1692              	.LC49:
 1693 0188 1F040000 		.ascii	"\037\004\000\000\000\000\000\000"
 1693      00000000 
 1694              	.LC50:
 1695 0190 20040000 		.ascii	" \004\000\000\000\000\000\000"
 1695      00000000 
 1696              	.LC51:
 1697 0198 21040000 		.ascii	"!\004\000\000\000\000\000\000"
 1697      00000000 
 1698              	.LC52:
 1699 01a0 22040000 		.ascii	"\"\004\000\000\000\000\000\000"
 1699      00000000 
 1700              	.LC53:
 1701 01a8 23040000 		.ascii	"#\004\000\000\000\000\000\000"
 1701      00000000 
 1702              	.LC54:
 1703 01b0 24040000 		.ascii	"$\004\000\000\000\000\000\000"
 1703      00000000 
 1704              	.LC55:
 1705 01b8 25040000 		.ascii	"%\004\000\000\000\000\000\000"
ARM GAS  /tmp/ccKP1uaH.s 			page 37


 1705      00000000 
 1706              	.LC56:
 1707 01c0 26040000 		.ascii	"&\004\000\000\000\000\000\000"
 1707      00000000 
 1708              	.LC57:
 1709 01c8 27040000 		.ascii	"'\004\000\000\000\000\000\000"
 1709      00000000 
 1710              	.LC58:
 1711 01d0 28040000 		.ascii	"(\004\000\000\000\000\000\000"
 1711      00000000 
 1712              	.LC59:
 1713 01d8 29040000 		.ascii	")\004\000\000\000\000\000\000"
 1713      00000000 
 1714              	.LC60:
 1715 01e0 2A040000 		.ascii	"*\004\000\000\000\000\000\000"
 1715      00000000 
 1716              	.LC61:
 1717 01e8 2B040000 		.ascii	"+\004\000\000\000\000\000\000"
 1717      00000000 
 1718              	.LC62:
 1719 01f0 2C040000 		.ascii	",\004\000\000\000\000\000\000"
 1719      00000000 
 1720              	.LC63:
 1721 01f8 2D040000 		.ascii	"-\004\000\000\000\000\000\000"
 1721      00000000 
 1722              	.LC64:
 1723 0200 2E040000 		.ascii	".\004\000\000\000\000\000\000"
 1723      00000000 
 1724              	.LC65:
 1725 0208 2F040000 		.ascii	"/\004\000\000\000\000\000\000"
 1725      00000000 
 1726              		.section	.rodata.convertLongNameToWideLongName.str4.4,"aMS",%progbits,4
 1727              		.align	2
 1728              	.LC66:
 1729 0000 20000000 		.ascii	" \000\000\000\000\000\000\000"
 1729      00000000 
 1730              		.section	.rodata.getStringFromFile_USBdrive.str1.4,"aMS",%progbits,1
 1731              		.align	2
 1732              	.LC69:
 1733 0000 00       		.ascii	"\000"
 1734              		.section	.rodata.unmount_USBdrive.str1.4,"aMS",%progbits,1
 1735              		.align	2
 1736              	.LC68:
 1737 0000 256300   		.ascii	"%c\000"
 1738              		.text
 1739              	.Letext0:
 1740              		.file 2 "/usr/lib/gcc/arm-none-eabi/7.3.1/include/stddef.h"
 1741              		.file 3 "/usr/arm-none-eabi/include/machine/_default_types.h"
 1742              		.file 4 "/usr/arm-none-eabi/include/sys/lock.h"
 1743              		.file 5 "/usr/arm-none-eabi/include/sys/_types.h"
 1744              		.file 6 "/usr/arm-none-eabi/include/sys/reent.h"
 1745              		.file 7 "Middlewares/Third_Party/FatFs/src/integer.h"
 1746              		.file 8 "/usr/arm-none-eabi/include/sys/_stdint.h"
 1747              		.file 9 "Drivers/CMSIS/Include/core_cm3.h"
 1748              		.file 10 "Drivers/CMSIS/Device/ST/STM32F1xx/Include/system_stm32f1xx.h"
 1749              		.file 11 "Drivers/STM32F1xx_HAL_Driver/Inc/stm32f1xx_hal.h"
 1750              		.file 12 "/usr/arm-none-eabi/include/stdlib.h"
ARM GAS  /tmp/ccKP1uaH.s 			page 38


 1751              		.file 13 "Middlewares/ST/STM32_USB_Host_Library/Core/Inc/usbh_def.h"
 1752              		.file 14 "Middlewares/ST/STM32_USB_Host_Library/Core/Inc/usbh_ctlreq.h"
 1753              		.file 15 "Middlewares/ST/STM32_USB_Host_Library/Class/MSC/Inc/usbh_msc.h"
 1754              		.file 16 "Middlewares/Third_Party/FatFs/src/ff.h"
 1755              		.file 17 "Inc/USB/Driver_USBdrive.h"
 1756              		.file 18 "Middlewares/Third_Party/FatFs/src/diskio.h"
 1757              		.file 19 "Middlewares/Third_Party/FatFs/src/ff_gen_drv.h"
 1758              		.file 20 "Middlewares/Third_Party/FatFs/src/drivers/usbh_diskio.h"
 1759              		.file 21 "Inc/fatfs.h"
 1760              		.file 22 "/usr/arm-none-eabi/include/stdio.h"
 1761              		.file 23 "<built-in>"
ARM GAS  /tmp/ccKP1uaH.s 			page 39

