ARM GAS  /tmp/ccfXTgCz.s 			page 1


   1              		.cpu cortex-m3
   2              		.eabi_attribute 20, 1
   3              		.eabi_attribute 21, 1
   4              		.eabi_attribute 23, 3
   5              		.eabi_attribute 24, 1
   6              		.eabi_attribute 25, 1
   7              		.eabi_attribute 26, 1
   8              		.eabi_attribute 30, 1
   9              		.eabi_attribute 34, 1
  10              		.eabi_attribute 18, 4
  11              		.file	"Driver_LCD.c"
  12              		.text
  13              	.Ltext0:
  14              		.cfi_sections	.debug_frame
  15              		.section	.text.first_line_DDRAM_address,"ax",%progbits
  16              		.align	1
  17              		.arch armv7-m
  18              		.syntax unified
  19              		.thumb
  20              		.thumb_func
  21              		.fpu softvfp
  23              	first_line_DDRAM_address:
  24              	.LFB5:
  25              		.file 1 "Src/LCD/Driver_LCD.c"
   1:Src/LCD/Driver_LCD.c **** #include "Driver_LCD.h"
   2:Src/LCD/Driver_LCD.c **** #include "stdbool.h"
   3:Src/LCD/Driver_LCD.c **** 
   4:Src/LCD/Driver_LCD.c **** /*
   5:Src/LCD/Driver_LCD.c **** void create_LCD(void)
   6:Src/LCD/Driver_LCD.c **** {
   7:Src/LCD/Driver_LCD.c **** 
   8:Src/LCD/Driver_LCD.c **** }
   9:Src/LCD/Driver_LCD.c **** */
  10:Src/LCD/Driver_LCD.c **** 
  11:Src/LCD/Driver_LCD.c **** void clear_display_LCD(void)
  12:Src/LCD/Driver_LCD.c **** {
  13:Src/LCD/Driver_LCD.c ****     int status_LCD;
  14:Src/LCD/Driver_LCD.c ****     RS_low_LCD();
  15:Src/LCD/Driver_LCD.c ****     RW_low_LCD();
  16:Src/LCD/Driver_LCD.c ****     status_LCD = NOT_READY_LCD;
  17:Src/LCD/Driver_LCD.c ****     while (status_LCD != READY_LCD) { status_LCD = Ready_LCD();}
  18:Src/LCD/Driver_LCD.c ****     E_high_LCD();
  19:Src/LCD/Driver_LCD.c ****     DB0_high_LCD();
  20:Src/LCD/Driver_LCD.c ****     DB1_low_LCD();
  21:Src/LCD/Driver_LCD.c ****     DB2_low_LCD();
  22:Src/LCD/Driver_LCD.c ****     DB3_low_LCD();
  23:Src/LCD/Driver_LCD.c ****     DB4_low_LCD();
  24:Src/LCD/Driver_LCD.c ****     DB5_low_LCD();
  25:Src/LCD/Driver_LCD.c ****     DB6_low_LCD();
  26:Src/LCD/Driver_LCD.c ****     DB7_low_LCD();
  27:Src/LCD/Driver_LCD.c ****     status_LCD = NOT_READY_LCD;
  28:Src/LCD/Driver_LCD.c ****     while (status_LCD != READY_LCD) { status_LCD = Ready_LCD();}
  29:Src/LCD/Driver_LCD.c ****     E_low_LCD();
  30:Src/LCD/Driver_LCD.c ****     status_LCD = NOT_READY_LCD;
  31:Src/LCD/Driver_LCD.c ****     while (status_LCD != READY_LCD) { status_LCD = Ready_LCD();}
  32:Src/LCD/Driver_LCD.c **** }
  33:Src/LCD/Driver_LCD.c **** 
ARM GAS  /tmp/ccfXTgCz.s 			page 2


  34:Src/LCD/Driver_LCD.c **** void return_home_LCD(void)
  35:Src/LCD/Driver_LCD.c **** {
  36:Src/LCD/Driver_LCD.c ****     int status_LCD;
  37:Src/LCD/Driver_LCD.c ****     RS_low_LCD();
  38:Src/LCD/Driver_LCD.c ****     RW_low_LCD();
  39:Src/LCD/Driver_LCD.c ****     status_LCD = NOT_READY_LCD;
  40:Src/LCD/Driver_LCD.c ****     while (status_LCD != READY_LCD) { status_LCD = Ready_LCD();}
  41:Src/LCD/Driver_LCD.c ****     E_high_LCD();
  42:Src/LCD/Driver_LCD.c ****     DB0_low_LCD();
  43:Src/LCD/Driver_LCD.c ****     DB1_high_LCD();
  44:Src/LCD/Driver_LCD.c ****     DB2_low_LCD();
  45:Src/LCD/Driver_LCD.c ****     DB3_low_LCD();
  46:Src/LCD/Driver_LCD.c ****     DB4_low_LCD();
  47:Src/LCD/Driver_LCD.c ****     DB5_low_LCD();
  48:Src/LCD/Driver_LCD.c ****     DB6_low_LCD();
  49:Src/LCD/Driver_LCD.c ****     DB7_low_LCD();
  50:Src/LCD/Driver_LCD.c ****     status_LCD = NOT_READY_LCD;
  51:Src/LCD/Driver_LCD.c ****     while (status_LCD != READY_LCD) { status_LCD = Ready_LCD();}
  52:Src/LCD/Driver_LCD.c ****     E_low_LCD();
  53:Src/LCD/Driver_LCD.c ****     status_LCD = NOT_READY_LCD;
  54:Src/LCD/Driver_LCD.c ****     while (status_LCD != READY_LCD) { status_LCD = Ready_LCD();}
  55:Src/LCD/Driver_LCD.c **** }
  56:Src/LCD/Driver_LCD.c **** 
  57:Src/LCD/Driver_LCD.c **** void set_dataLenght_numberOfLines_fontType_LCD(void)
  58:Src/LCD/Driver_LCD.c **** {
  59:Src/LCD/Driver_LCD.c ****     int status_LCD;
  60:Src/LCD/Driver_LCD.c ****     RS_low_LCD();
  61:Src/LCD/Driver_LCD.c ****     RW_low_LCD();
  62:Src/LCD/Driver_LCD.c ****     status_LCD = NOT_READY_LCD;
  63:Src/LCD/Driver_LCD.c ****     while (status_LCD != READY_LCD) { status_LCD = Ready_LCD();}
  64:Src/LCD/Driver_LCD.c ****     E_high_LCD();
  65:Src/LCD/Driver_LCD.c ****     DB0_low_LCD();
  66:Src/LCD/Driver_LCD.c ****     DB1_low_LCD();
  67:Src/LCD/Driver_LCD.c ****     DB2_low_LCD();
  68:Src/LCD/Driver_LCD.c ****     DB3_high_LCD();
  69:Src/LCD/Driver_LCD.c ****     DB4_high_LCD();
  70:Src/LCD/Driver_LCD.c ****     DB5_high_LCD();
  71:Src/LCD/Driver_LCD.c ****     DB6_low_LCD();
  72:Src/LCD/Driver_LCD.c ****     DB7_low_LCD();
  73:Src/LCD/Driver_LCD.c ****     status_LCD = NOT_READY_LCD;
  74:Src/LCD/Driver_LCD.c ****     while (status_LCD != READY_LCD) { status_LCD = Ready_LCD();}
  75:Src/LCD/Driver_LCD.c ****     E_low_LCD();
  76:Src/LCD/Driver_LCD.c ****     status_LCD = NOT_READY_LCD;
  77:Src/LCD/Driver_LCD.c ****     while (status_LCD != READY_LCD) { status_LCD = Ready_LCD();}
  78:Src/LCD/Driver_LCD.c **** }
  79:Src/LCD/Driver_LCD.c **** 
  80:Src/LCD/Driver_LCD.c **** void set_do_not_display_cursor_LCD(void)
  81:Src/LCD/Driver_LCD.c **** {
  82:Src/LCD/Driver_LCD.c ****     int status_LCD;
  83:Src/LCD/Driver_LCD.c ****     RS_low_LCD();
  84:Src/LCD/Driver_LCD.c ****     RW_low_LCD();
  85:Src/LCD/Driver_LCD.c ****     status_LCD = NOT_READY_LCD;
  86:Src/LCD/Driver_LCD.c ****     while (status_LCD != READY_LCD) { status_LCD = Ready_LCD();}
  87:Src/LCD/Driver_LCD.c ****     E_high_LCD();
  88:Src/LCD/Driver_LCD.c ****     DB0_low_LCD();
  89:Src/LCD/Driver_LCD.c ****     DB1_low_LCD();
  90:Src/LCD/Driver_LCD.c ****     DB2_high_LCD();
ARM GAS  /tmp/ccfXTgCz.s 			page 3


  91:Src/LCD/Driver_LCD.c ****     DB3_high_LCD();
  92:Src/LCD/Driver_LCD.c ****     DB4_low_LCD();
  93:Src/LCD/Driver_LCD.c ****     DB5_low_LCD();
  94:Src/LCD/Driver_LCD.c ****     DB6_low_LCD();
  95:Src/LCD/Driver_LCD.c ****     DB7_low_LCD();
  96:Src/LCD/Driver_LCD.c ****     status_LCD = NOT_READY_LCD;
  97:Src/LCD/Driver_LCD.c ****     while (status_LCD != READY_LCD) { status_LCD = Ready_LCD();}
  98:Src/LCD/Driver_LCD.c ****     E_low_LCD();
  99:Src/LCD/Driver_LCD.c ****     status_LCD = NOT_READY_LCD;
 100:Src/LCD/Driver_LCD.c ****     while (status_LCD != READY_LCD) { status_LCD = Ready_LCD();}
 101:Src/LCD/Driver_LCD.c **** }
 102:Src/LCD/Driver_LCD.c **** 
 103:Src/LCD/Driver_LCD.c **** void set_cursor_moving_to_the_right_LCD(void)
 104:Src/LCD/Driver_LCD.c **** {
 105:Src/LCD/Driver_LCD.c ****     int status_LCD;
 106:Src/LCD/Driver_LCD.c ****     RS_low_LCD();
 107:Src/LCD/Driver_LCD.c ****     RW_low_LCD();
 108:Src/LCD/Driver_LCD.c ****     status_LCD = NOT_READY_LCD;
 109:Src/LCD/Driver_LCD.c ****     while (status_LCD != READY_LCD) { status_LCD = Ready_LCD();}
 110:Src/LCD/Driver_LCD.c ****     E_high_LCD();
 111:Src/LCD/Driver_LCD.c ****     DB0_low_LCD();
 112:Src/LCD/Driver_LCD.c ****     DB1_low_LCD();
 113:Src/LCD/Driver_LCD.c ****     DB2_high_LCD();
 114:Src/LCD/Driver_LCD.c ****     DB3_low_LCD();
 115:Src/LCD/Driver_LCD.c ****     DB4_high_LCD();
 116:Src/LCD/Driver_LCD.c ****     DB5_low_LCD();
 117:Src/LCD/Driver_LCD.c ****     DB6_low_LCD();
 118:Src/LCD/Driver_LCD.c ****     DB7_low_LCD();
 119:Src/LCD/Driver_LCD.c ****     status_LCD = NOT_READY_LCD;
 120:Src/LCD/Driver_LCD.c ****     while (status_LCD != READY_LCD) { status_LCD = Ready_LCD();}
 121:Src/LCD/Driver_LCD.c ****     E_low_LCD();
 122:Src/LCD/Driver_LCD.c ****     status_LCD = NOT_READY_LCD;
 123:Src/LCD/Driver_LCD.c ****     while (status_LCD != READY_LCD) { status_LCD = Ready_LCD();}
 124:Src/LCD/Driver_LCD.c **** }
 125:Src/LCD/Driver_LCD.c **** 
 126:Src/LCD/Driver_LCD.c **** static void first_line_DDRAM_address(void)
 127:Src/LCD/Driver_LCD.c **** {
  26              		.loc 1 127 1 view -0
  27              		.cfi_startproc
  28              		@ args = 0, pretend = 0, frame = 0
  29              		@ frame_needed = 0, uses_anonymous_args = 0
  30 0000 08B5     		push	{r3, lr}
  31              	.LCFI0:
  32              		.cfi_def_cfa_offset 8
  33              		.cfi_offset 3, -8
  34              		.cfi_offset 14, -4
 128:Src/LCD/Driver_LCD.c ****     DB0_low_LCD();
  35              		.loc 1 128 5 view .LVU1
  36 0002 FFF7FEFF 		bl	DB0_low_LCD
  37              	.LVL0:
 129:Src/LCD/Driver_LCD.c ****     DB1_low_LCD();
  38              		.loc 1 129 5 view .LVU2
  39 0006 FFF7FEFF 		bl	DB1_low_LCD
  40              	.LVL1:
 130:Src/LCD/Driver_LCD.c ****     DB2_low_LCD();
  41              		.loc 1 130 5 view .LVU3
  42 000a FFF7FEFF 		bl	DB2_low_LCD
ARM GAS  /tmp/ccfXTgCz.s 			page 4


  43              	.LVL2:
 131:Src/LCD/Driver_LCD.c ****     DB3_low_LCD();
  44              		.loc 1 131 5 view .LVU4
  45 000e FFF7FEFF 		bl	DB3_low_LCD
  46              	.LVL3:
 132:Src/LCD/Driver_LCD.c ****     DB4_low_LCD();
  47              		.loc 1 132 5 view .LVU5
  48 0012 FFF7FEFF 		bl	DB4_low_LCD
  49              	.LVL4:
 133:Src/LCD/Driver_LCD.c ****     DB5_low_LCD();
  50              		.loc 1 133 5 view .LVU6
  51 0016 FFF7FEFF 		bl	DB5_low_LCD
  52              	.LVL5:
 134:Src/LCD/Driver_LCD.c ****     DB6_low_LCD();
  53              		.loc 1 134 5 view .LVU7
  54 001a FFF7FEFF 		bl	DB6_low_LCD
  55              	.LVL6:
 135:Src/LCD/Driver_LCD.c ****     DB7_high_LCD();
  56              		.loc 1 135 5 view .LVU8
  57 001e FFF7FEFF 		bl	DB7_high_LCD
  58              	.LVL7:
 136:Src/LCD/Driver_LCD.c **** }
  59              		.loc 1 136 1 is_stmt 0 view .LVU9
  60 0022 08BD     		pop	{r3, pc}
  61              		.cfi_endproc
  62              	.LFE5:
  64              		.section	.text.third_line_DDRAM_address,"ax",%progbits
  65              		.align	1
  66              		.syntax unified
  67              		.thumb
  68              		.thumb_func
  69              		.fpu softvfp
  71              	third_line_DDRAM_address:
  72              	.LFB7:
 137:Src/LCD/Driver_LCD.c **** 
 138:Src/LCD/Driver_LCD.c **** static void second_line_DDRAM_address(void)
 139:Src/LCD/Driver_LCD.c **** {
 140:Src/LCD/Driver_LCD.c ****     DB0_low_LCD();
 141:Src/LCD/Driver_LCD.c ****     DB1_low_LCD();
 142:Src/LCD/Driver_LCD.c ****     DB2_low_LCD();
 143:Src/LCD/Driver_LCD.c ****     DB3_low_LCD();
 144:Src/LCD/Driver_LCD.c ****     DB4_low_LCD();
 145:Src/LCD/Driver_LCD.c ****     DB5_low_LCD();
 146:Src/LCD/Driver_LCD.c ****     DB6_high_LCD();
 147:Src/LCD/Driver_LCD.c ****     DB7_high_LCD();
 148:Src/LCD/Driver_LCD.c **** }
 149:Src/LCD/Driver_LCD.c **** 
 150:Src/LCD/Driver_LCD.c **** static void third_line_DDRAM_address(void)
 151:Src/LCD/Driver_LCD.c **** {
  73              		.loc 1 151 1 is_stmt 1 view -0
  74              		.cfi_startproc
  75              		@ args = 0, pretend = 0, frame = 0
  76              		@ frame_needed = 0, uses_anonymous_args = 0
  77 0000 08B5     		push	{r3, lr}
  78              	.LCFI1:
  79              		.cfi_def_cfa_offset 8
  80              		.cfi_offset 3, -8
ARM GAS  /tmp/ccfXTgCz.s 			page 5


  81              		.cfi_offset 14, -4
 152:Src/LCD/Driver_LCD.c ****     DB0_low_LCD();
  82              		.loc 1 152 5 view .LVU11
  83 0002 FFF7FEFF 		bl	DB0_low_LCD
  84              	.LVL8:
 153:Src/LCD/Driver_LCD.c ****     DB1_low_LCD();
  85              		.loc 1 153 5 view .LVU12
  86 0006 FFF7FEFF 		bl	DB1_low_LCD
  87              	.LVL9:
 154:Src/LCD/Driver_LCD.c ****     DB2_high_LCD();
  88              		.loc 1 154 5 view .LVU13
  89 000a FFF7FEFF 		bl	DB2_high_LCD
  90              	.LVL10:
 155:Src/LCD/Driver_LCD.c ****     DB3_low_LCD();
  91              		.loc 1 155 5 view .LVU14
  92 000e FFF7FEFF 		bl	DB3_low_LCD
  93              	.LVL11:
 156:Src/LCD/Driver_LCD.c ****     DB4_high_LCD();
  94              		.loc 1 156 5 view .LVU15
  95 0012 FFF7FEFF 		bl	DB4_high_LCD
  96              	.LVL12:
 157:Src/LCD/Driver_LCD.c ****     DB5_low_LCD();
  97              		.loc 1 157 5 view .LVU16
  98 0016 FFF7FEFF 		bl	DB5_low_LCD
  99              	.LVL13:
 158:Src/LCD/Driver_LCD.c ****     DB6_low_LCD();
 100              		.loc 1 158 5 view .LVU17
 101 001a FFF7FEFF 		bl	DB6_low_LCD
 102              	.LVL14:
 159:Src/LCD/Driver_LCD.c ****     DB7_high_LCD();
 103              		.loc 1 159 5 view .LVU18
 104 001e FFF7FEFF 		bl	DB7_high_LCD
 105              	.LVL15:
 160:Src/LCD/Driver_LCD.c **** }
 106              		.loc 1 160 1 is_stmt 0 view .LVU19
 107 0022 08BD     		pop	{r3, pc}
 108              		.cfi_endproc
 109              	.LFE7:
 111              		.section	.text.second_line_DDRAM_address,"ax",%progbits
 112              		.align	1
 113              		.syntax unified
 114              		.thumb
 115              		.thumb_func
 116              		.fpu softvfp
 118              	second_line_DDRAM_address:
 119              	.LFB6:
 139:Src/LCD/Driver_LCD.c ****     DB0_low_LCD();
 120              		.loc 1 139 1 is_stmt 1 view -0
 121              		.cfi_startproc
 122              		@ args = 0, pretend = 0, frame = 0
 123              		@ frame_needed = 0, uses_anonymous_args = 0
 124 0000 08B5     		push	{r3, lr}
 125              	.LCFI2:
 126              		.cfi_def_cfa_offset 8
 127              		.cfi_offset 3, -8
 128              		.cfi_offset 14, -4
 140:Src/LCD/Driver_LCD.c ****     DB1_low_LCD();
ARM GAS  /tmp/ccfXTgCz.s 			page 6


 129              		.loc 1 140 5 view .LVU21
 130 0002 FFF7FEFF 		bl	DB0_low_LCD
 131              	.LVL16:
 141:Src/LCD/Driver_LCD.c ****     DB2_low_LCD();
 132              		.loc 1 141 5 view .LVU22
 133 0006 FFF7FEFF 		bl	DB1_low_LCD
 134              	.LVL17:
 142:Src/LCD/Driver_LCD.c ****     DB3_low_LCD();
 135              		.loc 1 142 5 view .LVU23
 136 000a FFF7FEFF 		bl	DB2_low_LCD
 137              	.LVL18:
 143:Src/LCD/Driver_LCD.c ****     DB4_low_LCD();
 138              		.loc 1 143 5 view .LVU24
 139 000e FFF7FEFF 		bl	DB3_low_LCD
 140              	.LVL19:
 144:Src/LCD/Driver_LCD.c ****     DB5_low_LCD();
 141              		.loc 1 144 5 view .LVU25
 142 0012 FFF7FEFF 		bl	DB4_low_LCD
 143              	.LVL20:
 145:Src/LCD/Driver_LCD.c ****     DB6_high_LCD();
 144              		.loc 1 145 5 view .LVU26
 145 0016 FFF7FEFF 		bl	DB5_low_LCD
 146              	.LVL21:
 146:Src/LCD/Driver_LCD.c ****     DB7_high_LCD();
 147              		.loc 1 146 5 view .LVU27
 148 001a FFF7FEFF 		bl	DB6_high_LCD
 149              	.LVL22:
 147:Src/LCD/Driver_LCD.c **** }
 150              		.loc 1 147 5 view .LVU28
 151 001e FFF7FEFF 		bl	DB7_high_LCD
 152              	.LVL23:
 148:Src/LCD/Driver_LCD.c **** 
 153              		.loc 1 148 1 is_stmt 0 view .LVU29
 154 0022 08BD     		pop	{r3, pc}
 155              		.cfi_endproc
 156              	.LFE6:
 158              		.section	.text.fourth_line_DDRAM_address,"ax",%progbits
 159              		.align	1
 160              		.syntax unified
 161              		.thumb
 162              		.thumb_func
 163              		.fpu softvfp
 165              	fourth_line_DDRAM_address:
 166              	.LFB8:
 161:Src/LCD/Driver_LCD.c **** 
 162:Src/LCD/Driver_LCD.c **** static void fourth_line_DDRAM_address(void)
 163:Src/LCD/Driver_LCD.c **** {
 167              		.loc 1 163 1 is_stmt 1 view -0
 168              		.cfi_startproc
 169              		@ args = 0, pretend = 0, frame = 0
 170              		@ frame_needed = 0, uses_anonymous_args = 0
 171 0000 08B5     		push	{r3, lr}
 172              	.LCFI3:
 173              		.cfi_def_cfa_offset 8
 174              		.cfi_offset 3, -8
 175              		.cfi_offset 14, -4
 164:Src/LCD/Driver_LCD.c ****     DB0_low_LCD();
ARM GAS  /tmp/ccfXTgCz.s 			page 7


 176              		.loc 1 164 5 view .LVU31
 177 0002 FFF7FEFF 		bl	DB0_low_LCD
 178              	.LVL24:
 165:Src/LCD/Driver_LCD.c ****     DB1_low_LCD();
 179              		.loc 1 165 5 view .LVU32
 180 0006 FFF7FEFF 		bl	DB1_low_LCD
 181              	.LVL25:
 166:Src/LCD/Driver_LCD.c ****     DB2_high_LCD();
 182              		.loc 1 166 5 view .LVU33
 183 000a FFF7FEFF 		bl	DB2_high_LCD
 184              	.LVL26:
 167:Src/LCD/Driver_LCD.c ****     DB3_low_LCD();
 185              		.loc 1 167 5 view .LVU34
 186 000e FFF7FEFF 		bl	DB3_low_LCD
 187              	.LVL27:
 168:Src/LCD/Driver_LCD.c ****     DB4_high_LCD();
 188              		.loc 1 168 5 view .LVU35
 189 0012 FFF7FEFF 		bl	DB4_high_LCD
 190              	.LVL28:
 169:Src/LCD/Driver_LCD.c ****     DB5_low_LCD();
 191              		.loc 1 169 5 view .LVU36
 192 0016 FFF7FEFF 		bl	DB5_low_LCD
 193              	.LVL29:
 170:Src/LCD/Driver_LCD.c ****     DB6_high_LCD();
 194              		.loc 1 170 5 view .LVU37
 195 001a FFF7FEFF 		bl	DB6_high_LCD
 196              	.LVL30:
 171:Src/LCD/Driver_LCD.c ****     DB7_high_LCD();
 197              		.loc 1 171 5 view .LVU38
 198 001e FFF7FEFF 		bl	DB7_high_LCD
 199              	.LVL31:
 172:Src/LCD/Driver_LCD.c **** }
 200              		.loc 1 172 1 is_stmt 0 view .LVU39
 201 0022 08BD     		pop	{r3, pc}
 202              		.cfi_endproc
 203              	.LFE8:
 205              		.section	.text.char_2_data_LCD,"ax",%progbits
 206              		.align	1
 207              		.syntax unified
 208              		.thumb
 209              		.thumb_func
 210              		.fpu softvfp
 212              	char_2_data_LCD:
 213              	.LVL32:
 214              	.LFB10:
 173:Src/LCD/Driver_LCD.c **** 
 174:Src/LCD/Driver_LCD.c **** void move_to_line_LCD(int line)
 175:Src/LCD/Driver_LCD.c **** {
 176:Src/LCD/Driver_LCD.c ****     if (line < 1)
 177:Src/LCD/Driver_LCD.c ****         return;
 178:Src/LCD/Driver_LCD.c ****     if (line > NUMBEROFLINES_LCD)
 179:Src/LCD/Driver_LCD.c ****         return;
 180:Src/LCD/Driver_LCD.c **** 
 181:Src/LCD/Driver_LCD.c ****     int status_LCD;
 182:Src/LCD/Driver_LCD.c ****     RS_low_LCD();
 183:Src/LCD/Driver_LCD.c ****     RW_low_LCD();
 184:Src/LCD/Driver_LCD.c ****     status_LCD = NOT_READY_LCD;
ARM GAS  /tmp/ccfXTgCz.s 			page 8


 185:Src/LCD/Driver_LCD.c ****     while (status_LCD != READY_LCD) { status_LCD = Ready_LCD();}
 186:Src/LCD/Driver_LCD.c ****     E_high_LCD();
 187:Src/LCD/Driver_LCD.c ****     if (line == 1) first_line_DDRAM_address();
 188:Src/LCD/Driver_LCD.c ****     if (line == 2) second_line_DDRAM_address();
 189:Src/LCD/Driver_LCD.c ****     if (line == 3) third_line_DDRAM_address();
 190:Src/LCD/Driver_LCD.c ****     if (line == 4) fourth_line_DDRAM_address();
 191:Src/LCD/Driver_LCD.c ****     status_LCD = NOT_READY_LCD;
 192:Src/LCD/Driver_LCD.c ****     while (status_LCD != READY_LCD) { status_LCD = Ready_LCD();}
 193:Src/LCD/Driver_LCD.c ****     E_low_LCD();
 194:Src/LCD/Driver_LCD.c ****     status_LCD = NOT_READY_LCD;
 195:Src/LCD/Driver_LCD.c ****     while (status_LCD != READY_LCD) { status_LCD = Ready_LCD();}
 196:Src/LCD/Driver_LCD.c **** }
 197:Src/LCD/Driver_LCD.c **** 
 198:Src/LCD/Driver_LCD.c **** 
 199:Src/LCD/Driver_LCD.c **** static void char_2_data_LCD(const char c)
 200:Src/LCD/Driver_LCD.c **** {
 215              		.loc 1 200 1 is_stmt 1 view -0
 216              		.cfi_startproc
 217              		@ args = 0, pretend = 0, frame = 0
 218              		@ frame_needed = 0, uses_anonymous_args = 0
 219              		.loc 1 200 1 is_stmt 0 view .LVU41
 220 0000 10B5     		push	{r4, lr}
 221              	.LCFI4:
 222              		.cfi_def_cfa_offset 8
 223              		.cfi_offset 4, -8
 224              		.cfi_offset 14, -4
 225 0002 0446     		mov	r4, r0
 201:Src/LCD/Driver_LCD.c ****     if (c>>0 & 1) DB0_high_LCD(); else DB0_low_LCD();
 226              		.loc 1 201 5 is_stmt 1 view .LVU42
 227              		.loc 1 201 8 is_stmt 0 view .LVU43
 228 0004 10F0010F 		tst	r0, #1
 229 0008 24D0     		beq	.L10
 230              		.loc 1 201 19 is_stmt 1 discriminator 1 view .LVU44
 231 000a FFF7FEFF 		bl	DB0_high_LCD
 232              	.LVL33:
 233              	.L11:
 202:Src/LCD/Driver_LCD.c ****     if (c>>1 & 1) DB1_high_LCD(); else DB1_low_LCD();
 234              		.loc 1 202 5 view .LVU45
 235              		.loc 1 202 8 is_stmt 0 view .LVU46
 236 000e 14F0020F 		tst	r4, #2
 237 0012 22D0     		beq	.L12
 238              		.loc 1 202 19 is_stmt 1 discriminator 1 view .LVU47
 239 0014 FFF7FEFF 		bl	DB1_high_LCD
 240              	.LVL34:
 241              	.L13:
 203:Src/LCD/Driver_LCD.c ****     if (c>>2 & 1) DB2_high_LCD(); else DB2_low_LCD();
 242              		.loc 1 203 5 view .LVU48
 243              		.loc 1 203 8 is_stmt 0 view .LVU49
 244 0018 14F0040F 		tst	r4, #4
 245 001c 20D0     		beq	.L14
 246              		.loc 1 203 19 is_stmt 1 discriminator 1 view .LVU50
 247 001e FFF7FEFF 		bl	DB2_high_LCD
 248              	.LVL35:
 249              	.L15:
 204:Src/LCD/Driver_LCD.c ****     if (c>>3 & 1) DB3_high_LCD(); else DB3_low_LCD();
 250              		.loc 1 204 5 view .LVU51
 251              		.loc 1 204 8 is_stmt 0 view .LVU52
ARM GAS  /tmp/ccfXTgCz.s 			page 9


 252 0022 14F0080F 		tst	r4, #8
 253 0026 1ED0     		beq	.L16
 254              		.loc 1 204 19 is_stmt 1 discriminator 1 view .LVU53
 255 0028 FFF7FEFF 		bl	DB3_high_LCD
 256              	.LVL36:
 257              	.L17:
 205:Src/LCD/Driver_LCD.c ****     if (c>>4 & 1) DB4_high_LCD(); else DB4_low_LCD();
 258              		.loc 1 205 5 view .LVU54
 259              		.loc 1 205 8 is_stmt 0 view .LVU55
 260 002c 14F0100F 		tst	r4, #16
 261 0030 1CD0     		beq	.L18
 262              		.loc 1 205 19 is_stmt 1 discriminator 1 view .LVU56
 263 0032 FFF7FEFF 		bl	DB4_high_LCD
 264              	.LVL37:
 265              	.L19:
 206:Src/LCD/Driver_LCD.c ****     if (c>>5 & 1) DB5_high_LCD(); else DB5_low_LCD();
 266              		.loc 1 206 5 view .LVU57
 267              		.loc 1 206 8 is_stmt 0 view .LVU58
 268 0036 14F0200F 		tst	r4, #32
 269 003a 1AD0     		beq	.L20
 270              		.loc 1 206 19 is_stmt 1 discriminator 1 view .LVU59
 271 003c FFF7FEFF 		bl	DB5_high_LCD
 272              	.LVL38:
 273              	.L21:
 207:Src/LCD/Driver_LCD.c ****     if (c>>6 & 1) DB6_high_LCD(); else DB6_low_LCD();
 274              		.loc 1 207 5 view .LVU60
 275              		.loc 1 207 8 is_stmt 0 view .LVU61
 276 0040 14F0400F 		tst	r4, #64
 277 0044 18D0     		beq	.L22
 278              		.loc 1 207 19 is_stmt 1 discriminator 1 view .LVU62
 279 0046 FFF7FEFF 		bl	DB6_high_LCD
 280              	.LVL39:
 281              	.L23:
 208:Src/LCD/Driver_LCD.c ****     if (c>>7 & 1) DB7_high_LCD(); else DB7_low_LCD();
 282              		.loc 1 208 5 view .LVU63
 283              		.loc 1 208 8 is_stmt 0 view .LVU64
 284 004a E309     		lsrs	r3, r4, #7
 285 004c 17D0     		beq	.L24
 286              		.loc 1 208 19 is_stmt 1 discriminator 1 view .LVU65
 287 004e FFF7FEFF 		bl	DB7_high_LCD
 288              	.LVL40:
 289              	.L9:
 209:Src/LCD/Driver_LCD.c **** }
 290              		.loc 1 209 1 is_stmt 0 view .LVU66
 291 0052 10BD     		pop	{r4, pc}
 292              	.LVL41:
 293              	.L10:
 201:Src/LCD/Driver_LCD.c ****     if (c>>1 & 1) DB1_high_LCD(); else DB1_low_LCD();
 294              		.loc 1 201 40 is_stmt 1 discriminator 2 view .LVU67
 295 0054 FFF7FEFF 		bl	DB0_low_LCD
 296              	.LVL42:
 201:Src/LCD/Driver_LCD.c ****     if (c>>1 & 1) DB1_high_LCD(); else DB1_low_LCD();
 297              		.loc 1 201 40 is_stmt 0 discriminator 2 view .LVU68
 298 0058 D9E7     		b	.L11
 299              	.L12:
 202:Src/LCD/Driver_LCD.c ****     if (c>>2 & 1) DB2_high_LCD(); else DB2_low_LCD();
 300              		.loc 1 202 40 is_stmt 1 discriminator 2 view .LVU69
ARM GAS  /tmp/ccfXTgCz.s 			page 10


 301 005a FFF7FEFF 		bl	DB1_low_LCD
 302              	.LVL43:
 303 005e DBE7     		b	.L13
 304              	.L14:
 203:Src/LCD/Driver_LCD.c ****     if (c>>3 & 1) DB3_high_LCD(); else DB3_low_LCD();
 305              		.loc 1 203 40 discriminator 2 view .LVU70
 306 0060 FFF7FEFF 		bl	DB2_low_LCD
 307              	.LVL44:
 308 0064 DDE7     		b	.L15
 309              	.L16:
 204:Src/LCD/Driver_LCD.c ****     if (c>>4 & 1) DB4_high_LCD(); else DB4_low_LCD();
 310              		.loc 1 204 40 discriminator 2 view .LVU71
 311 0066 FFF7FEFF 		bl	DB3_low_LCD
 312              	.LVL45:
 313 006a DFE7     		b	.L17
 314              	.L18:
 205:Src/LCD/Driver_LCD.c ****     if (c>>5 & 1) DB5_high_LCD(); else DB5_low_LCD();
 315              		.loc 1 205 40 discriminator 2 view .LVU72
 316 006c FFF7FEFF 		bl	DB4_low_LCD
 317              	.LVL46:
 318 0070 E1E7     		b	.L19
 319              	.L20:
 206:Src/LCD/Driver_LCD.c ****     if (c>>6 & 1) DB6_high_LCD(); else DB6_low_LCD();
 320              		.loc 1 206 40 discriminator 2 view .LVU73
 321 0072 FFF7FEFF 		bl	DB5_low_LCD
 322              	.LVL47:
 323 0076 E3E7     		b	.L21
 324              	.L22:
 207:Src/LCD/Driver_LCD.c ****     if (c>>7 & 1) DB7_high_LCD(); else DB7_low_LCD();
 325              		.loc 1 207 40 discriminator 2 view .LVU74
 326 0078 FFF7FEFF 		bl	DB6_low_LCD
 327              	.LVL48:
 328 007c E5E7     		b	.L23
 329              	.L24:
 208:Src/LCD/Driver_LCD.c **** }
 330              		.loc 1 208 40 discriminator 2 view .LVU75
 331 007e FFF7FEFF 		bl	DB7_low_LCD
 332              	.LVL49:
 333              		.loc 1 209 1 is_stmt 0 discriminator 2 view .LVU76
 334 0082 E6E7     		b	.L9
 335              		.cfi_endproc
 336              	.LFE10:
 338              		.section	.text.clear_display_LCD,"ax",%progbits
 339              		.align	1
 340              		.global	clear_display_LCD
 341              		.syntax unified
 342              		.thumb
 343              		.thumb_func
 344              		.fpu softvfp
 346              	clear_display_LCD:
 347              	.LFB0:
  12:Src/LCD/Driver_LCD.c ****     int status_LCD;
 348              		.loc 1 12 1 is_stmt 1 view -0
 349              		.cfi_startproc
 350              		@ args = 0, pretend = 0, frame = 0
 351              		@ frame_needed = 0, uses_anonymous_args = 0
 352 0000 08B5     		push	{r3, lr}
ARM GAS  /tmp/ccfXTgCz.s 			page 11


 353              	.LCFI5:
 354              		.cfi_def_cfa_offset 8
 355              		.cfi_offset 3, -8
 356              		.cfi_offset 14, -4
  13:Src/LCD/Driver_LCD.c ****     RS_low_LCD();
 357              		.loc 1 13 5 view .LVU78
  14:Src/LCD/Driver_LCD.c ****     RW_low_LCD();
 358              		.loc 1 14 5 view .LVU79
 359 0002 FFF7FEFF 		bl	RS_low_LCD
 360              	.LVL50:
  15:Src/LCD/Driver_LCD.c ****     status_LCD = NOT_READY_LCD;
 361              		.loc 1 15 5 view .LVU80
 362 0006 FFF7FEFF 		bl	RW_low_LCD
 363              	.LVL51:
  16:Src/LCD/Driver_LCD.c ****     while (status_LCD != READY_LCD) { status_LCD = Ready_LCD();}
 364              		.loc 1 16 5 view .LVU81
  17:Src/LCD/Driver_LCD.c ****     E_high_LCD();
 365              		.loc 1 17 5 view .LVU82
  16:Src/LCD/Driver_LCD.c ****     while (status_LCD != READY_LCD) { status_LCD = Ready_LCD();}
 366              		.loc 1 16 16 is_stmt 0 view .LVU83
 367 000a 0020     		movs	r0, #0
 368              	.LVL52:
 369              	.L28:
  17:Src/LCD/Driver_LCD.c ****     E_high_LCD();
 370              		.loc 1 17 11 is_stmt 1 discriminator 1 view .LVU84
 371 000c 0128     		cmp	r0, #1
 372 000e 02D0     		beq	.L35
  17:Src/LCD/Driver_LCD.c ****     E_high_LCD();
 373              		.loc 1 17 39 discriminator 2 view .LVU85
  17:Src/LCD/Driver_LCD.c ****     E_high_LCD();
 374              		.loc 1 17 52 is_stmt 0 discriminator 2 view .LVU86
 375 0010 FFF7FEFF 		bl	Ready_LCD
 376              	.LVL53:
  17:Src/LCD/Driver_LCD.c ****     E_high_LCD();
 377              		.loc 1 17 52 discriminator 2 view .LVU87
 378 0014 FAE7     		b	.L28
 379              	.L35:
  18:Src/LCD/Driver_LCD.c ****     DB0_high_LCD();
 380              		.loc 1 18 5 is_stmt 1 view .LVU88
 381 0016 FFF7FEFF 		bl	E_high_LCD
 382              	.LVL54:
  19:Src/LCD/Driver_LCD.c ****     DB1_low_LCD();
 383              		.loc 1 19 5 view .LVU89
 384 001a FFF7FEFF 		bl	DB0_high_LCD
 385              	.LVL55:
  20:Src/LCD/Driver_LCD.c ****     DB2_low_LCD();
 386              		.loc 1 20 5 view .LVU90
 387 001e FFF7FEFF 		bl	DB1_low_LCD
 388              	.LVL56:
  21:Src/LCD/Driver_LCD.c ****     DB3_low_LCD();
 389              		.loc 1 21 5 view .LVU91
 390 0022 FFF7FEFF 		bl	DB2_low_LCD
 391              	.LVL57:
  22:Src/LCD/Driver_LCD.c ****     DB4_low_LCD();
 392              		.loc 1 22 5 view .LVU92
 393 0026 FFF7FEFF 		bl	DB3_low_LCD
 394              	.LVL58:
ARM GAS  /tmp/ccfXTgCz.s 			page 12


  23:Src/LCD/Driver_LCD.c ****     DB5_low_LCD();
 395              		.loc 1 23 5 view .LVU93
 396 002a FFF7FEFF 		bl	DB4_low_LCD
 397              	.LVL59:
  24:Src/LCD/Driver_LCD.c ****     DB6_low_LCD();
 398              		.loc 1 24 5 view .LVU94
 399 002e FFF7FEFF 		bl	DB5_low_LCD
 400              	.LVL60:
  25:Src/LCD/Driver_LCD.c ****     DB7_low_LCD();
 401              		.loc 1 25 5 view .LVU95
 402 0032 FFF7FEFF 		bl	DB6_low_LCD
 403              	.LVL61:
  26:Src/LCD/Driver_LCD.c ****     status_LCD = NOT_READY_LCD;
 404              		.loc 1 26 5 view .LVU96
 405 0036 FFF7FEFF 		bl	DB7_low_LCD
 406              	.LVL62:
  27:Src/LCD/Driver_LCD.c ****     while (status_LCD != READY_LCD) { status_LCD = Ready_LCD();}
 407              		.loc 1 27 5 view .LVU97
  28:Src/LCD/Driver_LCD.c ****     E_low_LCD();
 408              		.loc 1 28 5 view .LVU98
  27:Src/LCD/Driver_LCD.c ****     while (status_LCD != READY_LCD) { status_LCD = Ready_LCD();}
 409              		.loc 1 27 16 is_stmt 0 view .LVU99
 410 003a 0020     		movs	r0, #0
 411              	.LVL63:
 412              	.L30:
  28:Src/LCD/Driver_LCD.c ****     E_low_LCD();
 413              		.loc 1 28 11 is_stmt 1 discriminator 1 view .LVU100
 414 003c 0128     		cmp	r0, #1
 415 003e 02D0     		beq	.L36
  28:Src/LCD/Driver_LCD.c ****     E_low_LCD();
 416              		.loc 1 28 39 discriminator 2 view .LVU101
  28:Src/LCD/Driver_LCD.c ****     E_low_LCD();
 417              		.loc 1 28 52 is_stmt 0 discriminator 2 view .LVU102
 418 0040 FFF7FEFF 		bl	Ready_LCD
 419              	.LVL64:
  28:Src/LCD/Driver_LCD.c ****     E_low_LCD();
 420              		.loc 1 28 52 discriminator 2 view .LVU103
 421 0044 FAE7     		b	.L30
 422              	.L36:
  29:Src/LCD/Driver_LCD.c ****     status_LCD = NOT_READY_LCD;
 423              		.loc 1 29 5 is_stmt 1 view .LVU104
 424 0046 FFF7FEFF 		bl	E_low_LCD
 425              	.LVL65:
  30:Src/LCD/Driver_LCD.c ****     while (status_LCD != READY_LCD) { status_LCD = Ready_LCD();}
 426              		.loc 1 30 5 view .LVU105
  31:Src/LCD/Driver_LCD.c **** }
 427              		.loc 1 31 5 view .LVU106
  30:Src/LCD/Driver_LCD.c ****     while (status_LCD != READY_LCD) { status_LCD = Ready_LCD();}
 428              		.loc 1 30 16 is_stmt 0 view .LVU107
 429 004a 0020     		movs	r0, #0
  31:Src/LCD/Driver_LCD.c **** }
 430              		.loc 1 31 11 view .LVU108
 431 004c 01E0     		b	.L32
 432              	.LVL66:
 433              	.L33:
  31:Src/LCD/Driver_LCD.c **** }
 434              		.loc 1 31 39 is_stmt 1 discriminator 2 view .LVU109
ARM GAS  /tmp/ccfXTgCz.s 			page 13


  31:Src/LCD/Driver_LCD.c **** }
 435              		.loc 1 31 52 is_stmt 0 discriminator 2 view .LVU110
 436 004e FFF7FEFF 		bl	Ready_LCD
 437              	.LVL67:
 438              	.L32:
  31:Src/LCD/Driver_LCD.c **** }
 439              		.loc 1 31 11 is_stmt 1 discriminator 1 view .LVU111
 440 0052 0128     		cmp	r0, #1
 441 0054 FBD1     		bne	.L33
  32:Src/LCD/Driver_LCD.c **** 
 442              		.loc 1 32 1 is_stmt 0 view .LVU112
 443 0056 08BD     		pop	{r3, pc}
 444              		.cfi_endproc
 445              	.LFE0:
 447              		.section	.text.return_home_LCD,"ax",%progbits
 448              		.align	1
 449              		.global	return_home_LCD
 450              		.syntax unified
 451              		.thumb
 452              		.thumb_func
 453              		.fpu softvfp
 455              	return_home_LCD:
 456              	.LFB1:
  35:Src/LCD/Driver_LCD.c ****     int status_LCD;
 457              		.loc 1 35 1 is_stmt 1 view -0
 458              		.cfi_startproc
 459              		@ args = 0, pretend = 0, frame = 0
 460              		@ frame_needed = 0, uses_anonymous_args = 0
 461 0000 08B5     		push	{r3, lr}
 462              	.LCFI6:
 463              		.cfi_def_cfa_offset 8
 464              		.cfi_offset 3, -8
 465              		.cfi_offset 14, -4
  36:Src/LCD/Driver_LCD.c ****     RS_low_LCD();
 466              		.loc 1 36 5 view .LVU114
  37:Src/LCD/Driver_LCD.c ****     RW_low_LCD();
 467              		.loc 1 37 5 view .LVU115
 468 0002 FFF7FEFF 		bl	RS_low_LCD
 469              	.LVL68:
  38:Src/LCD/Driver_LCD.c ****     status_LCD = NOT_READY_LCD;
 470              		.loc 1 38 5 view .LVU116
 471 0006 FFF7FEFF 		bl	RW_low_LCD
 472              	.LVL69:
  39:Src/LCD/Driver_LCD.c ****     while (status_LCD != READY_LCD) { status_LCD = Ready_LCD();}
 473              		.loc 1 39 5 view .LVU117
  40:Src/LCD/Driver_LCD.c ****     E_high_LCD();
 474              		.loc 1 40 5 view .LVU118
  39:Src/LCD/Driver_LCD.c ****     while (status_LCD != READY_LCD) { status_LCD = Ready_LCD();}
 475              		.loc 1 39 16 is_stmt 0 view .LVU119
 476 000a 0020     		movs	r0, #0
 477              	.LVL70:
 478              	.L38:
  40:Src/LCD/Driver_LCD.c ****     E_high_LCD();
 479              		.loc 1 40 11 is_stmt 1 discriminator 1 view .LVU120
 480 000c 0128     		cmp	r0, #1
 481 000e 02D0     		beq	.L45
  40:Src/LCD/Driver_LCD.c ****     E_high_LCD();
ARM GAS  /tmp/ccfXTgCz.s 			page 14


 482              		.loc 1 40 39 discriminator 2 view .LVU121
  40:Src/LCD/Driver_LCD.c ****     E_high_LCD();
 483              		.loc 1 40 52 is_stmt 0 discriminator 2 view .LVU122
 484 0010 FFF7FEFF 		bl	Ready_LCD
 485              	.LVL71:
  40:Src/LCD/Driver_LCD.c ****     E_high_LCD();
 486              		.loc 1 40 52 discriminator 2 view .LVU123
 487 0014 FAE7     		b	.L38
 488              	.L45:
  41:Src/LCD/Driver_LCD.c ****     DB0_low_LCD();
 489              		.loc 1 41 5 is_stmt 1 view .LVU124
 490 0016 FFF7FEFF 		bl	E_high_LCD
 491              	.LVL72:
  42:Src/LCD/Driver_LCD.c ****     DB1_high_LCD();
 492              		.loc 1 42 5 view .LVU125
 493 001a FFF7FEFF 		bl	DB0_low_LCD
 494              	.LVL73:
  43:Src/LCD/Driver_LCD.c ****     DB2_low_LCD();
 495              		.loc 1 43 5 view .LVU126
 496 001e FFF7FEFF 		bl	DB1_high_LCD
 497              	.LVL74:
  44:Src/LCD/Driver_LCD.c ****     DB3_low_LCD();
 498              		.loc 1 44 5 view .LVU127
 499 0022 FFF7FEFF 		bl	DB2_low_LCD
 500              	.LVL75:
  45:Src/LCD/Driver_LCD.c ****     DB4_low_LCD();
 501              		.loc 1 45 5 view .LVU128
 502 0026 FFF7FEFF 		bl	DB3_low_LCD
 503              	.LVL76:
  46:Src/LCD/Driver_LCD.c ****     DB5_low_LCD();
 504              		.loc 1 46 5 view .LVU129
 505 002a FFF7FEFF 		bl	DB4_low_LCD
 506              	.LVL77:
  47:Src/LCD/Driver_LCD.c ****     DB6_low_LCD();
 507              		.loc 1 47 5 view .LVU130
 508 002e FFF7FEFF 		bl	DB5_low_LCD
 509              	.LVL78:
  48:Src/LCD/Driver_LCD.c ****     DB7_low_LCD();
 510              		.loc 1 48 5 view .LVU131
 511 0032 FFF7FEFF 		bl	DB6_low_LCD
 512              	.LVL79:
  49:Src/LCD/Driver_LCD.c ****     status_LCD = NOT_READY_LCD;
 513              		.loc 1 49 5 view .LVU132
 514 0036 FFF7FEFF 		bl	DB7_low_LCD
 515              	.LVL80:
  50:Src/LCD/Driver_LCD.c ****     while (status_LCD != READY_LCD) { status_LCD = Ready_LCD();}
 516              		.loc 1 50 5 view .LVU133
  51:Src/LCD/Driver_LCD.c ****     E_low_LCD();
 517              		.loc 1 51 5 view .LVU134
  50:Src/LCD/Driver_LCD.c ****     while (status_LCD != READY_LCD) { status_LCD = Ready_LCD();}
 518              		.loc 1 50 16 is_stmt 0 view .LVU135
 519 003a 0020     		movs	r0, #0
 520              	.LVL81:
 521              	.L40:
  51:Src/LCD/Driver_LCD.c ****     E_low_LCD();
 522              		.loc 1 51 11 is_stmt 1 discriminator 1 view .LVU136
 523 003c 0128     		cmp	r0, #1
ARM GAS  /tmp/ccfXTgCz.s 			page 15


 524 003e 02D0     		beq	.L46
  51:Src/LCD/Driver_LCD.c ****     E_low_LCD();
 525              		.loc 1 51 39 discriminator 2 view .LVU137
  51:Src/LCD/Driver_LCD.c ****     E_low_LCD();
 526              		.loc 1 51 52 is_stmt 0 discriminator 2 view .LVU138
 527 0040 FFF7FEFF 		bl	Ready_LCD
 528              	.LVL82:
  51:Src/LCD/Driver_LCD.c ****     E_low_LCD();
 529              		.loc 1 51 52 discriminator 2 view .LVU139
 530 0044 FAE7     		b	.L40
 531              	.L46:
  52:Src/LCD/Driver_LCD.c ****     status_LCD = NOT_READY_LCD;
 532              		.loc 1 52 5 is_stmt 1 view .LVU140
 533 0046 FFF7FEFF 		bl	E_low_LCD
 534              	.LVL83:
  53:Src/LCD/Driver_LCD.c ****     while (status_LCD != READY_LCD) { status_LCD = Ready_LCD();}
 535              		.loc 1 53 5 view .LVU141
  54:Src/LCD/Driver_LCD.c **** }
 536              		.loc 1 54 5 view .LVU142
  53:Src/LCD/Driver_LCD.c ****     while (status_LCD != READY_LCD) { status_LCD = Ready_LCD();}
 537              		.loc 1 53 16 is_stmt 0 view .LVU143
 538 004a 0020     		movs	r0, #0
  54:Src/LCD/Driver_LCD.c **** }
 539              		.loc 1 54 11 view .LVU144
 540 004c 01E0     		b	.L42
 541              	.LVL84:
 542              	.L43:
  54:Src/LCD/Driver_LCD.c **** }
 543              		.loc 1 54 39 is_stmt 1 discriminator 2 view .LVU145
  54:Src/LCD/Driver_LCD.c **** }
 544              		.loc 1 54 52 is_stmt 0 discriminator 2 view .LVU146
 545 004e FFF7FEFF 		bl	Ready_LCD
 546              	.LVL85:
 547              	.L42:
  54:Src/LCD/Driver_LCD.c **** }
 548              		.loc 1 54 11 is_stmt 1 discriminator 1 view .LVU147
 549 0052 0128     		cmp	r0, #1
 550 0054 FBD1     		bne	.L43
  55:Src/LCD/Driver_LCD.c **** 
 551              		.loc 1 55 1 is_stmt 0 view .LVU148
 552 0056 08BD     		pop	{r3, pc}
 553              		.cfi_endproc
 554              	.LFE1:
 556              		.section	.text.set_dataLenght_numberOfLines_fontType_LCD,"ax",%progbits
 557              		.align	1
 558              		.global	set_dataLenght_numberOfLines_fontType_LCD
 559              		.syntax unified
 560              		.thumb
 561              		.thumb_func
 562              		.fpu softvfp
 564              	set_dataLenght_numberOfLines_fontType_LCD:
 565              	.LFB2:
  58:Src/LCD/Driver_LCD.c ****     int status_LCD;
 566              		.loc 1 58 1 is_stmt 1 view -0
 567              		.cfi_startproc
 568              		@ args = 0, pretend = 0, frame = 0
 569              		@ frame_needed = 0, uses_anonymous_args = 0
ARM GAS  /tmp/ccfXTgCz.s 			page 16


 570 0000 08B5     		push	{r3, lr}
 571              	.LCFI7:
 572              		.cfi_def_cfa_offset 8
 573              		.cfi_offset 3, -8
 574              		.cfi_offset 14, -4
  59:Src/LCD/Driver_LCD.c ****     RS_low_LCD();
 575              		.loc 1 59 5 view .LVU150
  60:Src/LCD/Driver_LCD.c ****     RW_low_LCD();
 576              		.loc 1 60 5 view .LVU151
 577 0002 FFF7FEFF 		bl	RS_low_LCD
 578              	.LVL86:
  61:Src/LCD/Driver_LCD.c ****     status_LCD = NOT_READY_LCD;
 579              		.loc 1 61 5 view .LVU152
 580 0006 FFF7FEFF 		bl	RW_low_LCD
 581              	.LVL87:
  62:Src/LCD/Driver_LCD.c ****     while (status_LCD != READY_LCD) { status_LCD = Ready_LCD();}
 582              		.loc 1 62 5 view .LVU153
  63:Src/LCD/Driver_LCD.c ****     E_high_LCD();
 583              		.loc 1 63 5 view .LVU154
  62:Src/LCD/Driver_LCD.c ****     while (status_LCD != READY_LCD) { status_LCD = Ready_LCD();}
 584              		.loc 1 62 16 is_stmt 0 view .LVU155
 585 000a 0020     		movs	r0, #0
 586              	.LVL88:
 587              	.L48:
  63:Src/LCD/Driver_LCD.c ****     E_high_LCD();
 588              		.loc 1 63 11 is_stmt 1 discriminator 1 view .LVU156
 589 000c 0128     		cmp	r0, #1
 590 000e 02D0     		beq	.L55
  63:Src/LCD/Driver_LCD.c ****     E_high_LCD();
 591              		.loc 1 63 39 discriminator 2 view .LVU157
  63:Src/LCD/Driver_LCD.c ****     E_high_LCD();
 592              		.loc 1 63 52 is_stmt 0 discriminator 2 view .LVU158
 593 0010 FFF7FEFF 		bl	Ready_LCD
 594              	.LVL89:
  63:Src/LCD/Driver_LCD.c ****     E_high_LCD();
 595              		.loc 1 63 52 discriminator 2 view .LVU159
 596 0014 FAE7     		b	.L48
 597              	.L55:
  64:Src/LCD/Driver_LCD.c ****     DB0_low_LCD();
 598              		.loc 1 64 5 is_stmt 1 view .LVU160
 599 0016 FFF7FEFF 		bl	E_high_LCD
 600              	.LVL90:
  65:Src/LCD/Driver_LCD.c ****     DB1_low_LCD();
 601              		.loc 1 65 5 view .LVU161
 602 001a FFF7FEFF 		bl	DB0_low_LCD
 603              	.LVL91:
  66:Src/LCD/Driver_LCD.c ****     DB2_low_LCD();
 604              		.loc 1 66 5 view .LVU162
 605 001e FFF7FEFF 		bl	DB1_low_LCD
 606              	.LVL92:
  67:Src/LCD/Driver_LCD.c ****     DB3_high_LCD();
 607              		.loc 1 67 5 view .LVU163
 608 0022 FFF7FEFF 		bl	DB2_low_LCD
 609              	.LVL93:
  68:Src/LCD/Driver_LCD.c ****     DB4_high_LCD();
 610              		.loc 1 68 5 view .LVU164
 611 0026 FFF7FEFF 		bl	DB3_high_LCD
ARM GAS  /tmp/ccfXTgCz.s 			page 17


 612              	.LVL94:
  69:Src/LCD/Driver_LCD.c ****     DB5_high_LCD();
 613              		.loc 1 69 5 view .LVU165
 614 002a FFF7FEFF 		bl	DB4_high_LCD
 615              	.LVL95:
  70:Src/LCD/Driver_LCD.c ****     DB6_low_LCD();
 616              		.loc 1 70 5 view .LVU166
 617 002e FFF7FEFF 		bl	DB5_high_LCD
 618              	.LVL96:
  71:Src/LCD/Driver_LCD.c ****     DB7_low_LCD();
 619              		.loc 1 71 5 view .LVU167
 620 0032 FFF7FEFF 		bl	DB6_low_LCD
 621              	.LVL97:
  72:Src/LCD/Driver_LCD.c ****     status_LCD = NOT_READY_LCD;
 622              		.loc 1 72 5 view .LVU168
 623 0036 FFF7FEFF 		bl	DB7_low_LCD
 624              	.LVL98:
  73:Src/LCD/Driver_LCD.c ****     while (status_LCD != READY_LCD) { status_LCD = Ready_LCD();}
 625              		.loc 1 73 5 view .LVU169
  74:Src/LCD/Driver_LCD.c ****     E_low_LCD();
 626              		.loc 1 74 5 view .LVU170
  73:Src/LCD/Driver_LCD.c ****     while (status_LCD != READY_LCD) { status_LCD = Ready_LCD();}
 627              		.loc 1 73 16 is_stmt 0 view .LVU171
 628 003a 0020     		movs	r0, #0
 629              	.LVL99:
 630              	.L50:
  74:Src/LCD/Driver_LCD.c ****     E_low_LCD();
 631              		.loc 1 74 11 is_stmt 1 discriminator 1 view .LVU172
 632 003c 0128     		cmp	r0, #1
 633 003e 02D0     		beq	.L56
  74:Src/LCD/Driver_LCD.c ****     E_low_LCD();
 634              		.loc 1 74 39 discriminator 2 view .LVU173
  74:Src/LCD/Driver_LCD.c ****     E_low_LCD();
 635              		.loc 1 74 52 is_stmt 0 discriminator 2 view .LVU174
 636 0040 FFF7FEFF 		bl	Ready_LCD
 637              	.LVL100:
  74:Src/LCD/Driver_LCD.c ****     E_low_LCD();
 638              		.loc 1 74 52 discriminator 2 view .LVU175
 639 0044 FAE7     		b	.L50
 640              	.L56:
  75:Src/LCD/Driver_LCD.c ****     status_LCD = NOT_READY_LCD;
 641              		.loc 1 75 5 is_stmt 1 view .LVU176
 642 0046 FFF7FEFF 		bl	E_low_LCD
 643              	.LVL101:
  76:Src/LCD/Driver_LCD.c ****     while (status_LCD != READY_LCD) { status_LCD = Ready_LCD();}
 644              		.loc 1 76 5 view .LVU177
  77:Src/LCD/Driver_LCD.c **** }
 645              		.loc 1 77 5 view .LVU178
  76:Src/LCD/Driver_LCD.c ****     while (status_LCD != READY_LCD) { status_LCD = Ready_LCD();}
 646              		.loc 1 76 16 is_stmt 0 view .LVU179
 647 004a 0020     		movs	r0, #0
  77:Src/LCD/Driver_LCD.c **** }
 648              		.loc 1 77 11 view .LVU180
 649 004c 01E0     		b	.L52
 650              	.LVL102:
 651              	.L53:
  77:Src/LCD/Driver_LCD.c **** }
ARM GAS  /tmp/ccfXTgCz.s 			page 18


 652              		.loc 1 77 39 is_stmt 1 discriminator 2 view .LVU181
  77:Src/LCD/Driver_LCD.c **** }
 653              		.loc 1 77 52 is_stmt 0 discriminator 2 view .LVU182
 654 004e FFF7FEFF 		bl	Ready_LCD
 655              	.LVL103:
 656              	.L52:
  77:Src/LCD/Driver_LCD.c **** }
 657              		.loc 1 77 11 is_stmt 1 discriminator 1 view .LVU183
 658 0052 0128     		cmp	r0, #1
 659 0054 FBD1     		bne	.L53
  78:Src/LCD/Driver_LCD.c **** 
 660              		.loc 1 78 1 is_stmt 0 view .LVU184
 661 0056 08BD     		pop	{r3, pc}
 662              		.cfi_endproc
 663              	.LFE2:
 665              		.section	.text.set_do_not_display_cursor_LCD,"ax",%progbits
 666              		.align	1
 667              		.global	set_do_not_display_cursor_LCD
 668              		.syntax unified
 669              		.thumb
 670              		.thumb_func
 671              		.fpu softvfp
 673              	set_do_not_display_cursor_LCD:
 674              	.LFB3:
  81:Src/LCD/Driver_LCD.c ****     int status_LCD;
 675              		.loc 1 81 1 is_stmt 1 view -0
 676              		.cfi_startproc
 677              		@ args = 0, pretend = 0, frame = 0
 678              		@ frame_needed = 0, uses_anonymous_args = 0
 679 0000 08B5     		push	{r3, lr}
 680              	.LCFI8:
 681              		.cfi_def_cfa_offset 8
 682              		.cfi_offset 3, -8
 683              		.cfi_offset 14, -4
  82:Src/LCD/Driver_LCD.c ****     RS_low_LCD();
 684              		.loc 1 82 5 view .LVU186
  83:Src/LCD/Driver_LCD.c ****     RW_low_LCD();
 685              		.loc 1 83 5 view .LVU187
 686 0002 FFF7FEFF 		bl	RS_low_LCD
 687              	.LVL104:
  84:Src/LCD/Driver_LCD.c ****     status_LCD = NOT_READY_LCD;
 688              		.loc 1 84 5 view .LVU188
 689 0006 FFF7FEFF 		bl	RW_low_LCD
 690              	.LVL105:
  85:Src/LCD/Driver_LCD.c ****     while (status_LCD != READY_LCD) { status_LCD = Ready_LCD();}
 691              		.loc 1 85 5 view .LVU189
  86:Src/LCD/Driver_LCD.c ****     E_high_LCD();
 692              		.loc 1 86 5 view .LVU190
  85:Src/LCD/Driver_LCD.c ****     while (status_LCD != READY_LCD) { status_LCD = Ready_LCD();}
 693              		.loc 1 85 16 is_stmt 0 view .LVU191
 694 000a 0020     		movs	r0, #0
 695              	.LVL106:
 696              	.L58:
  86:Src/LCD/Driver_LCD.c ****     E_high_LCD();
 697              		.loc 1 86 11 is_stmt 1 discriminator 1 view .LVU192
 698 000c 0128     		cmp	r0, #1
 699 000e 02D0     		beq	.L65
ARM GAS  /tmp/ccfXTgCz.s 			page 19


  86:Src/LCD/Driver_LCD.c ****     E_high_LCD();
 700              		.loc 1 86 39 discriminator 2 view .LVU193
  86:Src/LCD/Driver_LCD.c ****     E_high_LCD();
 701              		.loc 1 86 52 is_stmt 0 discriminator 2 view .LVU194
 702 0010 FFF7FEFF 		bl	Ready_LCD
 703              	.LVL107:
  86:Src/LCD/Driver_LCD.c ****     E_high_LCD();
 704              		.loc 1 86 52 discriminator 2 view .LVU195
 705 0014 FAE7     		b	.L58
 706              	.L65:
  87:Src/LCD/Driver_LCD.c ****     DB0_low_LCD();
 707              		.loc 1 87 5 is_stmt 1 view .LVU196
 708 0016 FFF7FEFF 		bl	E_high_LCD
 709              	.LVL108:
  88:Src/LCD/Driver_LCD.c ****     DB1_low_LCD();
 710              		.loc 1 88 5 view .LVU197
 711 001a FFF7FEFF 		bl	DB0_low_LCD
 712              	.LVL109:
  89:Src/LCD/Driver_LCD.c ****     DB2_high_LCD();
 713              		.loc 1 89 5 view .LVU198
 714 001e FFF7FEFF 		bl	DB1_low_LCD
 715              	.LVL110:
  90:Src/LCD/Driver_LCD.c ****     DB3_high_LCD();
 716              		.loc 1 90 5 view .LVU199
 717 0022 FFF7FEFF 		bl	DB2_high_LCD
 718              	.LVL111:
  91:Src/LCD/Driver_LCD.c ****     DB4_low_LCD();
 719              		.loc 1 91 5 view .LVU200
 720 0026 FFF7FEFF 		bl	DB3_high_LCD
 721              	.LVL112:
  92:Src/LCD/Driver_LCD.c ****     DB5_low_LCD();
 722              		.loc 1 92 5 view .LVU201
 723 002a FFF7FEFF 		bl	DB4_low_LCD
 724              	.LVL113:
  93:Src/LCD/Driver_LCD.c ****     DB6_low_LCD();
 725              		.loc 1 93 5 view .LVU202
 726 002e FFF7FEFF 		bl	DB5_low_LCD
 727              	.LVL114:
  94:Src/LCD/Driver_LCD.c ****     DB7_low_LCD();
 728              		.loc 1 94 5 view .LVU203
 729 0032 FFF7FEFF 		bl	DB6_low_LCD
 730              	.LVL115:
  95:Src/LCD/Driver_LCD.c ****     status_LCD = NOT_READY_LCD;
 731              		.loc 1 95 5 view .LVU204
 732 0036 FFF7FEFF 		bl	DB7_low_LCD
 733              	.LVL116:
  96:Src/LCD/Driver_LCD.c ****     while (status_LCD != READY_LCD) { status_LCD = Ready_LCD();}
 734              		.loc 1 96 5 view .LVU205
  97:Src/LCD/Driver_LCD.c ****     E_low_LCD();
 735              		.loc 1 97 5 view .LVU206
  96:Src/LCD/Driver_LCD.c ****     while (status_LCD != READY_LCD) { status_LCD = Ready_LCD();}
 736              		.loc 1 96 16 is_stmt 0 view .LVU207
 737 003a 0020     		movs	r0, #0
 738              	.LVL117:
 739              	.L60:
  97:Src/LCD/Driver_LCD.c ****     E_low_LCD();
 740              		.loc 1 97 11 is_stmt 1 discriminator 1 view .LVU208
ARM GAS  /tmp/ccfXTgCz.s 			page 20


 741 003c 0128     		cmp	r0, #1
 742 003e 02D0     		beq	.L66
  97:Src/LCD/Driver_LCD.c ****     E_low_LCD();
 743              		.loc 1 97 39 discriminator 2 view .LVU209
  97:Src/LCD/Driver_LCD.c ****     E_low_LCD();
 744              		.loc 1 97 52 is_stmt 0 discriminator 2 view .LVU210
 745 0040 FFF7FEFF 		bl	Ready_LCD
 746              	.LVL118:
  97:Src/LCD/Driver_LCD.c ****     E_low_LCD();
 747              		.loc 1 97 52 discriminator 2 view .LVU211
 748 0044 FAE7     		b	.L60
 749              	.L66:
  98:Src/LCD/Driver_LCD.c ****     status_LCD = NOT_READY_LCD;
 750              		.loc 1 98 5 is_stmt 1 view .LVU212
 751 0046 FFF7FEFF 		bl	E_low_LCD
 752              	.LVL119:
  99:Src/LCD/Driver_LCD.c ****     while (status_LCD != READY_LCD) { status_LCD = Ready_LCD();}
 753              		.loc 1 99 5 view .LVU213
 100:Src/LCD/Driver_LCD.c **** }
 754              		.loc 1 100 5 view .LVU214
  99:Src/LCD/Driver_LCD.c ****     while (status_LCD != READY_LCD) { status_LCD = Ready_LCD();}
 755              		.loc 1 99 16 is_stmt 0 view .LVU215
 756 004a 0020     		movs	r0, #0
 100:Src/LCD/Driver_LCD.c **** }
 757              		.loc 1 100 11 view .LVU216
 758 004c 01E0     		b	.L62
 759              	.LVL120:
 760              	.L63:
 100:Src/LCD/Driver_LCD.c **** }
 761              		.loc 1 100 39 is_stmt 1 discriminator 2 view .LVU217
 100:Src/LCD/Driver_LCD.c **** }
 762              		.loc 1 100 52 is_stmt 0 discriminator 2 view .LVU218
 763 004e FFF7FEFF 		bl	Ready_LCD
 764              	.LVL121:
 765              	.L62:
 100:Src/LCD/Driver_LCD.c **** }
 766              		.loc 1 100 11 is_stmt 1 discriminator 1 view .LVU219
 767 0052 0128     		cmp	r0, #1
 768 0054 FBD1     		bne	.L63
 101:Src/LCD/Driver_LCD.c **** 
 769              		.loc 1 101 1 is_stmt 0 view .LVU220
 770 0056 08BD     		pop	{r3, pc}
 771              		.cfi_endproc
 772              	.LFE3:
 774              		.section	.text.set_cursor_moving_to_the_right_LCD,"ax",%progbits
 775              		.align	1
 776              		.global	set_cursor_moving_to_the_right_LCD
 777              		.syntax unified
 778              		.thumb
 779              		.thumb_func
 780              		.fpu softvfp
 782              	set_cursor_moving_to_the_right_LCD:
 783              	.LFB4:
 104:Src/LCD/Driver_LCD.c ****     int status_LCD;
 784              		.loc 1 104 1 is_stmt 1 view -0
 785              		.cfi_startproc
 786              		@ args = 0, pretend = 0, frame = 0
ARM GAS  /tmp/ccfXTgCz.s 			page 21


 787              		@ frame_needed = 0, uses_anonymous_args = 0
 788 0000 08B5     		push	{r3, lr}
 789              	.LCFI9:
 790              		.cfi_def_cfa_offset 8
 791              		.cfi_offset 3, -8
 792              		.cfi_offset 14, -4
 105:Src/LCD/Driver_LCD.c ****     RS_low_LCD();
 793              		.loc 1 105 5 view .LVU222
 106:Src/LCD/Driver_LCD.c ****     RW_low_LCD();
 794              		.loc 1 106 5 view .LVU223
 795 0002 FFF7FEFF 		bl	RS_low_LCD
 796              	.LVL122:
 107:Src/LCD/Driver_LCD.c ****     status_LCD = NOT_READY_LCD;
 797              		.loc 1 107 5 view .LVU224
 798 0006 FFF7FEFF 		bl	RW_low_LCD
 799              	.LVL123:
 108:Src/LCD/Driver_LCD.c ****     while (status_LCD != READY_LCD) { status_LCD = Ready_LCD();}
 800              		.loc 1 108 5 view .LVU225
 109:Src/LCD/Driver_LCD.c ****     E_high_LCD();
 801              		.loc 1 109 5 view .LVU226
 108:Src/LCD/Driver_LCD.c ****     while (status_LCD != READY_LCD) { status_LCD = Ready_LCD();}
 802              		.loc 1 108 16 is_stmt 0 view .LVU227
 803 000a 0020     		movs	r0, #0
 804              	.LVL124:
 805              	.L68:
 109:Src/LCD/Driver_LCD.c ****     E_high_LCD();
 806              		.loc 1 109 11 is_stmt 1 discriminator 1 view .LVU228
 807 000c 0128     		cmp	r0, #1
 808 000e 02D0     		beq	.L75
 109:Src/LCD/Driver_LCD.c ****     E_high_LCD();
 809              		.loc 1 109 39 discriminator 2 view .LVU229
 109:Src/LCD/Driver_LCD.c ****     E_high_LCD();
 810              		.loc 1 109 52 is_stmt 0 discriminator 2 view .LVU230
 811 0010 FFF7FEFF 		bl	Ready_LCD
 812              	.LVL125:
 109:Src/LCD/Driver_LCD.c ****     E_high_LCD();
 813              		.loc 1 109 52 discriminator 2 view .LVU231
 814 0014 FAE7     		b	.L68
 815              	.L75:
 110:Src/LCD/Driver_LCD.c ****     DB0_low_LCD();
 816              		.loc 1 110 5 is_stmt 1 view .LVU232
 817 0016 FFF7FEFF 		bl	E_high_LCD
 818              	.LVL126:
 111:Src/LCD/Driver_LCD.c ****     DB1_low_LCD();
 819              		.loc 1 111 5 view .LVU233
 820 001a FFF7FEFF 		bl	DB0_low_LCD
 821              	.LVL127:
 112:Src/LCD/Driver_LCD.c ****     DB2_high_LCD();
 822              		.loc 1 112 5 view .LVU234
 823 001e FFF7FEFF 		bl	DB1_low_LCD
 824              	.LVL128:
 113:Src/LCD/Driver_LCD.c ****     DB3_low_LCD();
 825              		.loc 1 113 5 view .LVU235
 826 0022 FFF7FEFF 		bl	DB2_high_LCD
 827              	.LVL129:
 114:Src/LCD/Driver_LCD.c ****     DB4_high_LCD();
 828              		.loc 1 114 5 view .LVU236
ARM GAS  /tmp/ccfXTgCz.s 			page 22


 829 0026 FFF7FEFF 		bl	DB3_low_LCD
 830              	.LVL130:
 115:Src/LCD/Driver_LCD.c ****     DB5_low_LCD();
 831              		.loc 1 115 5 view .LVU237
 832 002a FFF7FEFF 		bl	DB4_high_LCD
 833              	.LVL131:
 116:Src/LCD/Driver_LCD.c ****     DB6_low_LCD();
 834              		.loc 1 116 5 view .LVU238
 835 002e FFF7FEFF 		bl	DB5_low_LCD
 836              	.LVL132:
 117:Src/LCD/Driver_LCD.c ****     DB7_low_LCD();
 837              		.loc 1 117 5 view .LVU239
 838 0032 FFF7FEFF 		bl	DB6_low_LCD
 839              	.LVL133:
 118:Src/LCD/Driver_LCD.c ****     status_LCD = NOT_READY_LCD;
 840              		.loc 1 118 5 view .LVU240
 841 0036 FFF7FEFF 		bl	DB7_low_LCD
 842              	.LVL134:
 119:Src/LCD/Driver_LCD.c ****     while (status_LCD != READY_LCD) { status_LCD = Ready_LCD();}
 843              		.loc 1 119 5 view .LVU241
 120:Src/LCD/Driver_LCD.c ****     E_low_LCD();
 844              		.loc 1 120 5 view .LVU242
 119:Src/LCD/Driver_LCD.c ****     while (status_LCD != READY_LCD) { status_LCD = Ready_LCD();}
 845              		.loc 1 119 16 is_stmt 0 view .LVU243
 846 003a 0020     		movs	r0, #0
 847              	.LVL135:
 848              	.L70:
 120:Src/LCD/Driver_LCD.c ****     E_low_LCD();
 849              		.loc 1 120 11 is_stmt 1 discriminator 1 view .LVU244
 850 003c 0128     		cmp	r0, #1
 851 003e 02D0     		beq	.L76
 120:Src/LCD/Driver_LCD.c ****     E_low_LCD();
 852              		.loc 1 120 39 discriminator 2 view .LVU245
 120:Src/LCD/Driver_LCD.c ****     E_low_LCD();
 853              		.loc 1 120 52 is_stmt 0 discriminator 2 view .LVU246
 854 0040 FFF7FEFF 		bl	Ready_LCD
 855              	.LVL136:
 120:Src/LCD/Driver_LCD.c ****     E_low_LCD();
 856              		.loc 1 120 52 discriminator 2 view .LVU247
 857 0044 FAE7     		b	.L70
 858              	.L76:
 121:Src/LCD/Driver_LCD.c ****     status_LCD = NOT_READY_LCD;
 859              		.loc 1 121 5 is_stmt 1 view .LVU248
 860 0046 FFF7FEFF 		bl	E_low_LCD
 861              	.LVL137:
 122:Src/LCD/Driver_LCD.c ****     while (status_LCD != READY_LCD) { status_LCD = Ready_LCD();}
 862              		.loc 1 122 5 view .LVU249
 123:Src/LCD/Driver_LCD.c **** }
 863              		.loc 1 123 5 view .LVU250
 122:Src/LCD/Driver_LCD.c ****     while (status_LCD != READY_LCD) { status_LCD = Ready_LCD();}
 864              		.loc 1 122 16 is_stmt 0 view .LVU251
 865 004a 0020     		movs	r0, #0
 123:Src/LCD/Driver_LCD.c **** }
 866              		.loc 1 123 11 view .LVU252
 867 004c 01E0     		b	.L72
 868              	.LVL138:
 869              	.L73:
ARM GAS  /tmp/ccfXTgCz.s 			page 23


 123:Src/LCD/Driver_LCD.c **** }
 870              		.loc 1 123 39 is_stmt 1 discriminator 2 view .LVU253
 123:Src/LCD/Driver_LCD.c **** }
 871              		.loc 1 123 52 is_stmt 0 discriminator 2 view .LVU254
 872 004e FFF7FEFF 		bl	Ready_LCD
 873              	.LVL139:
 874              	.L72:
 123:Src/LCD/Driver_LCD.c **** }
 875              		.loc 1 123 11 is_stmt 1 discriminator 1 view .LVU255
 876 0052 0128     		cmp	r0, #1
 877 0054 FBD1     		bne	.L73
 124:Src/LCD/Driver_LCD.c **** 
 878              		.loc 1 124 1 is_stmt 0 view .LVU256
 879 0056 08BD     		pop	{r3, pc}
 880              		.cfi_endproc
 881              	.LFE4:
 883              		.section	.text.move_to_line_LCD,"ax",%progbits
 884              		.align	1
 885              		.global	move_to_line_LCD
 886              		.syntax unified
 887              		.thumb
 888              		.thumb_func
 889              		.fpu softvfp
 891              	move_to_line_LCD:
 892              	.LVL140:
 893              	.LFB9:
 175:Src/LCD/Driver_LCD.c ****     if (line < 1)
 894              		.loc 1 175 1 is_stmt 1 view -0
 895              		.cfi_startproc
 896              		@ args = 0, pretend = 0, frame = 0
 897              		@ frame_needed = 0, uses_anonymous_args = 0
 175:Src/LCD/Driver_LCD.c ****     if (line < 1)
 898              		.loc 1 175 1 is_stmt 0 view .LVU258
 899 0000 10B5     		push	{r4, lr}
 900              	.LCFI10:
 901              		.cfi_def_cfa_offset 8
 902              		.cfi_offset 4, -8
 903              		.cfi_offset 14, -4
 176:Src/LCD/Driver_LCD.c ****         return;
 904              		.loc 1 176 5 is_stmt 1 view .LVU259
 176:Src/LCD/Driver_LCD.c ****         return;
 905              		.loc 1 176 8 is_stmt 0 view .LVU260
 906 0002 041E     		subs	r4, r0, #0
 907 0004 01DD     		ble	.L77
 178:Src/LCD/Driver_LCD.c ****         return;
 908              		.loc 1 178 5 is_stmt 1 view .LVU261
 178:Src/LCD/Driver_LCD.c ****         return;
 909              		.loc 1 178 8 is_stmt 0 view .LVU262
 910 0006 042C     		cmp	r4, #4
 911 0008 00DD     		ble	.L90
 912              	.LVL141:
 913              	.L77:
 196:Src/LCD/Driver_LCD.c **** 
 914              		.loc 1 196 1 view .LVU263
 915 000a 10BD     		pop	{r4, pc}
 916              	.LVL142:
 917              	.L90:
ARM GAS  /tmp/ccfXTgCz.s 			page 24


 181:Src/LCD/Driver_LCD.c ****     RS_low_LCD();
 918              		.loc 1 181 5 is_stmt 1 view .LVU264
 182:Src/LCD/Driver_LCD.c ****     RW_low_LCD();
 919              		.loc 1 182 5 view .LVU265
 920 000c FFF7FEFF 		bl	RS_low_LCD
 921              	.LVL143:
 183:Src/LCD/Driver_LCD.c ****     status_LCD = NOT_READY_LCD;
 922              		.loc 1 183 5 view .LVU266
 923 0010 FFF7FEFF 		bl	RW_low_LCD
 924              	.LVL144:
 184:Src/LCD/Driver_LCD.c ****     while (status_LCD != READY_LCD) { status_LCD = Ready_LCD();}
 925              		.loc 1 184 5 view .LVU267
 185:Src/LCD/Driver_LCD.c ****     E_high_LCD();
 926              		.loc 1 185 5 view .LVU268
 184:Src/LCD/Driver_LCD.c ****     while (status_LCD != READY_LCD) { status_LCD = Ready_LCD();}
 927              		.loc 1 184 16 is_stmt 0 view .LVU269
 928 0014 0020     		movs	r0, #0
 929              	.LVL145:
 930              	.L79:
 185:Src/LCD/Driver_LCD.c ****     E_high_LCD();
 931              		.loc 1 185 11 is_stmt 1 discriminator 1 view .LVU270
 932 0016 0128     		cmp	r0, #1
 933 0018 02D0     		beq	.L91
 185:Src/LCD/Driver_LCD.c ****     E_high_LCD();
 934              		.loc 1 185 39 discriminator 2 view .LVU271
 185:Src/LCD/Driver_LCD.c ****     E_high_LCD();
 935              		.loc 1 185 52 is_stmt 0 discriminator 2 view .LVU272
 936 001a FFF7FEFF 		bl	Ready_LCD
 937              	.LVL146:
 185:Src/LCD/Driver_LCD.c ****     E_high_LCD();
 938              		.loc 1 185 52 discriminator 2 view .LVU273
 939 001e FAE7     		b	.L79
 940              	.L91:
 186:Src/LCD/Driver_LCD.c ****     if (line == 1) first_line_DDRAM_address();
 941              		.loc 1 186 5 is_stmt 1 view .LVU274
 942 0020 FFF7FEFF 		bl	E_high_LCD
 943              	.LVL147:
 187:Src/LCD/Driver_LCD.c ****     if (line == 2) second_line_DDRAM_address();
 944              		.loc 1 187 5 view .LVU275
 187:Src/LCD/Driver_LCD.c ****     if (line == 2) second_line_DDRAM_address();
 945              		.loc 1 187 8 is_stmt 0 view .LVU276
 946 0024 012C     		cmp	r4, #1
 947 0026 0BD0     		beq	.L92
 948              	.L81:
 188:Src/LCD/Driver_LCD.c ****     if (line == 3) third_line_DDRAM_address();
 949              		.loc 1 188 5 is_stmt 1 view .LVU277
 188:Src/LCD/Driver_LCD.c ****     if (line == 3) third_line_DDRAM_address();
 950              		.loc 1 188 8 is_stmt 0 view .LVU278
 951 0028 022C     		cmp	r4, #2
 952 002a 0CD0     		beq	.L93
 953              	.L82:
 189:Src/LCD/Driver_LCD.c ****     if (line == 4) fourth_line_DDRAM_address();
 954              		.loc 1 189 5 is_stmt 1 view .LVU279
 189:Src/LCD/Driver_LCD.c ****     if (line == 4) fourth_line_DDRAM_address();
 955              		.loc 1 189 8 is_stmt 0 view .LVU280
 956 002c 032C     		cmp	r4, #3
 957 002e 0DD0     		beq	.L94
ARM GAS  /tmp/ccfXTgCz.s 			page 25


 958              	.L83:
 190:Src/LCD/Driver_LCD.c ****     status_LCD = NOT_READY_LCD;
 959              		.loc 1 190 5 is_stmt 1 view .LVU281
 190:Src/LCD/Driver_LCD.c ****     status_LCD = NOT_READY_LCD;
 960              		.loc 1 190 8 is_stmt 0 view .LVU282
 961 0030 042C     		cmp	r4, #4
 962 0032 0ED0     		beq	.L95
 963              	.L84:
 184:Src/LCD/Driver_LCD.c ****     while (status_LCD != READY_LCD) { status_LCD = Ready_LCD();}
 964              		.loc 1 184 16 discriminator 1 view .LVU283
 965 0034 0020     		movs	r0, #0
 966              	.L85:
 967              	.LVL148:
 192:Src/LCD/Driver_LCD.c ****     E_low_LCD();
 968              		.loc 1 192 11 is_stmt 1 discriminator 1 view .LVU284
 969 0036 0128     		cmp	r0, #1
 970 0038 0ED0     		beq	.L96
 192:Src/LCD/Driver_LCD.c ****     E_low_LCD();
 971              		.loc 1 192 39 discriminator 2 view .LVU285
 192:Src/LCD/Driver_LCD.c ****     E_low_LCD();
 972              		.loc 1 192 52 is_stmt 0 discriminator 2 view .LVU286
 973 003a FFF7FEFF 		bl	Ready_LCD
 974              	.LVL149:
 192:Src/LCD/Driver_LCD.c ****     E_low_LCD();
 975              		.loc 1 192 52 discriminator 2 view .LVU287
 976 003e FAE7     		b	.L85
 977              	.LVL150:
 978              	.L92:
 187:Src/LCD/Driver_LCD.c ****     if (line == 2) second_line_DDRAM_address();
 979              		.loc 1 187 20 is_stmt 1 discriminator 1 view .LVU288
 980 0040 FFF7FEFF 		bl	first_line_DDRAM_address
 981              	.LVL151:
 982 0044 F0E7     		b	.L81
 983              	.L93:
 188:Src/LCD/Driver_LCD.c ****     if (line == 3) third_line_DDRAM_address();
 984              		.loc 1 188 20 discriminator 1 view .LVU289
 985 0046 FFF7FEFF 		bl	second_line_DDRAM_address
 986              	.LVL152:
 987 004a EFE7     		b	.L82
 988              	.L94:
 189:Src/LCD/Driver_LCD.c ****     if (line == 4) fourth_line_DDRAM_address();
 989              		.loc 1 189 20 discriminator 1 view .LVU290
 990 004c FFF7FEFF 		bl	third_line_DDRAM_address
 991              	.LVL153:
 992 0050 EEE7     		b	.L83
 993              	.L95:
 190:Src/LCD/Driver_LCD.c ****     status_LCD = NOT_READY_LCD;
 994              		.loc 1 190 20 discriminator 1 view .LVU291
 995 0052 FFF7FEFF 		bl	fourth_line_DDRAM_address
 996              	.LVL154:
 997 0056 EDE7     		b	.L84
 998              	.LVL155:
 999              	.L96:
 193:Src/LCD/Driver_LCD.c ****     status_LCD = NOT_READY_LCD;
 1000              		.loc 1 193 5 view .LVU292
 1001 0058 FFF7FEFF 		bl	E_low_LCD
 1002              	.LVL156:
ARM GAS  /tmp/ccfXTgCz.s 			page 26


 194:Src/LCD/Driver_LCD.c ****     while (status_LCD != READY_LCD) { status_LCD = Ready_LCD();}
 1003              		.loc 1 194 5 view .LVU293
 195:Src/LCD/Driver_LCD.c **** }
 1004              		.loc 1 195 5 view .LVU294
 194:Src/LCD/Driver_LCD.c ****     while (status_LCD != READY_LCD) { status_LCD = Ready_LCD();}
 1005              		.loc 1 194 16 is_stmt 0 view .LVU295
 1006 005c 0020     		movs	r0, #0
 195:Src/LCD/Driver_LCD.c **** }
 1007              		.loc 1 195 11 view .LVU296
 1008 005e 01E0     		b	.L87
 1009              	.LVL157:
 1010              	.L88:
 195:Src/LCD/Driver_LCD.c **** }
 1011              		.loc 1 195 39 is_stmt 1 discriminator 2 view .LVU297
 195:Src/LCD/Driver_LCD.c **** }
 1012              		.loc 1 195 52 is_stmt 0 discriminator 2 view .LVU298
 1013 0060 FFF7FEFF 		bl	Ready_LCD
 1014              	.LVL158:
 1015              	.L87:
 195:Src/LCD/Driver_LCD.c **** }
 1016              		.loc 1 195 11 is_stmt 1 discriminator 1 view .LVU299
 1017 0064 0128     		cmp	r0, #1
 1018 0066 FBD1     		bne	.L88
 1019 0068 CFE7     		b	.L77
 1020              		.cfi_endproc
 1021              	.LFE9:
 1023              		.section	.text.write_character,"ax",%progbits
 1024              		.align	1
 1025              		.global	write_character
 1026              		.syntax unified
 1027              		.thumb
 1028              		.thumb_func
 1029              		.fpu softvfp
 1031              	write_character:
 1032              	.LVL159:
 1033              	.LFB11:
 210:Src/LCD/Driver_LCD.c **** 
 211:Src/LCD/Driver_LCD.c **** void write_character(const char c)
 212:Src/LCD/Driver_LCD.c **** {
 1034              		.loc 1 212 1 view -0
 1035              		.cfi_startproc
 1036              		@ args = 0, pretend = 0, frame = 0
 1037              		@ frame_needed = 0, uses_anonymous_args = 0
 1038              		.loc 1 212 1 is_stmt 0 view .LVU301
 1039 0000 10B5     		push	{r4, lr}
 1040              	.LCFI11:
 1041              		.cfi_def_cfa_offset 8
 1042              		.cfi_offset 4, -8
 1043              		.cfi_offset 14, -4
 1044 0002 0446     		mov	r4, r0
 213:Src/LCD/Driver_LCD.c ****     int status_LCD;
 1045              		.loc 1 213 5 is_stmt 1 view .LVU302
 214:Src/LCD/Driver_LCD.c ****     RS_high_LCD();
 1046              		.loc 1 214 5 view .LVU303
 1047 0004 FFF7FEFF 		bl	RS_high_LCD
 1048              	.LVL160:
 215:Src/LCD/Driver_LCD.c ****     RW_low_LCD();
ARM GAS  /tmp/ccfXTgCz.s 			page 27


 1049              		.loc 1 215 5 view .LVU304
 1050 0008 FFF7FEFF 		bl	RW_low_LCD
 1051              	.LVL161:
 216:Src/LCD/Driver_LCD.c ****     status_LCD = NOT_READY_LCD;
 1052              		.loc 1 216 5 view .LVU305
 217:Src/LCD/Driver_LCD.c ****     while (status_LCD != READY_LCD) { status_LCD = Ready_LCD();}
 1053              		.loc 1 217 5 view .LVU306
 216:Src/LCD/Driver_LCD.c ****     status_LCD = NOT_READY_LCD;
 1054              		.loc 1 216 16 is_stmt 0 view .LVU307
 1055 000c 0020     		movs	r0, #0
 1056              	.LVL162:
 1057              	.L98:
 1058              		.loc 1 217 11 is_stmt 1 discriminator 1 view .LVU308
 1059 000e 0128     		cmp	r0, #1
 1060 0010 02D0     		beq	.L105
 1061              		.loc 1 217 39 discriminator 2 view .LVU309
 1062              		.loc 1 217 52 is_stmt 0 discriminator 2 view .LVU310
 1063 0012 FFF7FEFF 		bl	Ready_LCD
 1064              	.LVL163:
 1065              		.loc 1 217 52 discriminator 2 view .LVU311
 1066 0016 FAE7     		b	.L98
 1067              	.L105:
 218:Src/LCD/Driver_LCD.c ****     E_high_LCD();
 1068              		.loc 1 218 5 is_stmt 1 view .LVU312
 1069 0018 FFF7FEFF 		bl	E_high_LCD
 1070              	.LVL164:
 219:Src/LCD/Driver_LCD.c ****     char_2_data_LCD(c);
 1071              		.loc 1 219 5 view .LVU313
 1072 001c 2046     		mov	r0, r4
 1073 001e FFF7FEFF 		bl	char_2_data_LCD
 1074              	.LVL165:
 220:Src/LCD/Driver_LCD.c ****     status_LCD = NOT_READY_LCD;
 1075              		.loc 1 220 5 view .LVU314
 221:Src/LCD/Driver_LCD.c ****     while (status_LCD != READY_LCD) { status_LCD = Ready_LCD();}
 1076              		.loc 1 221 5 view .LVU315
 220:Src/LCD/Driver_LCD.c ****     status_LCD = NOT_READY_LCD;
 1077              		.loc 1 220 16 is_stmt 0 view .LVU316
 1078 0022 0020     		movs	r0, #0
 1079              	.LVL166:
 1080              	.L100:
 1081              		.loc 1 221 11 is_stmt 1 discriminator 1 view .LVU317
 1082 0024 0128     		cmp	r0, #1
 1083 0026 02D0     		beq	.L106
 1084              		.loc 1 221 39 discriminator 2 view .LVU318
 1085              		.loc 1 221 52 is_stmt 0 discriminator 2 view .LVU319
 1086 0028 FFF7FEFF 		bl	Ready_LCD
 1087              	.LVL167:
 1088              		.loc 1 221 52 discriminator 2 view .LVU320
 1089 002c FAE7     		b	.L100
 1090              	.L106:
 222:Src/LCD/Driver_LCD.c ****     E_low_LCD();
 1091              		.loc 1 222 5 is_stmt 1 view .LVU321
 1092 002e FFF7FEFF 		bl	E_low_LCD
 1093              	.LVL168:
 223:Src/LCD/Driver_LCD.c ****     status_LCD = NOT_READY_LCD;
 1094              		.loc 1 223 5 view .LVU322
 224:Src/LCD/Driver_LCD.c ****     while (status_LCD != READY_LCD) { status_LCD = Ready_LCD();}
ARM GAS  /tmp/ccfXTgCz.s 			page 28


 1095              		.loc 1 224 5 view .LVU323
 223:Src/LCD/Driver_LCD.c ****     status_LCD = NOT_READY_LCD;
 1096              		.loc 1 223 16 is_stmt 0 view .LVU324
 1097 0032 0020     		movs	r0, #0
 1098              		.loc 1 224 11 view .LVU325
 1099 0034 01E0     		b	.L102
 1100              	.LVL169:
 1101              	.L103:
 1102              		.loc 1 224 39 is_stmt 1 discriminator 2 view .LVU326
 1103              		.loc 1 224 52 is_stmt 0 discriminator 2 view .LVU327
 1104 0036 FFF7FEFF 		bl	Ready_LCD
 1105              	.LVL170:
 1106              	.L102:
 1107              		.loc 1 224 11 is_stmt 1 discriminator 1 view .LVU328
 1108 003a 0128     		cmp	r0, #1
 1109 003c FBD1     		bne	.L103
 225:Src/LCD/Driver_LCD.c **** }
 1110              		.loc 1 225 1 is_stmt 0 view .LVU329
 1111 003e 10BD     		pop	{r4, pc}
 1112              		.cfi_endproc
 1113              	.LFE11:
 1115              		.text
 1116              	.Letext0:
 1117              		.file 2 "Inc/LCD/Driver_LCD.h"
ARM GAS  /tmp/ccfXTgCz.s 			page 29


DEFINED SYMBOLS
                            *ABS*:0000000000000000 Driver_LCD.c
     /tmp/ccfXTgCz.s:16     .text.first_line_DDRAM_address:0000000000000000 $t
     /tmp/ccfXTgCz.s:23     .text.first_line_DDRAM_address:0000000000000000 first_line_DDRAM_address
     /tmp/ccfXTgCz.s:65     .text.third_line_DDRAM_address:0000000000000000 $t
     /tmp/ccfXTgCz.s:71     .text.third_line_DDRAM_address:0000000000000000 third_line_DDRAM_address
     /tmp/ccfXTgCz.s:112    .text.second_line_DDRAM_address:0000000000000000 $t
     /tmp/ccfXTgCz.s:118    .text.second_line_DDRAM_address:0000000000000000 second_line_DDRAM_address
     /tmp/ccfXTgCz.s:159    .text.fourth_line_DDRAM_address:0000000000000000 $t
     /tmp/ccfXTgCz.s:165    .text.fourth_line_DDRAM_address:0000000000000000 fourth_line_DDRAM_address
     /tmp/ccfXTgCz.s:206    .text.char_2_data_LCD:0000000000000000 $t
     /tmp/ccfXTgCz.s:212    .text.char_2_data_LCD:0000000000000000 char_2_data_LCD
     /tmp/ccfXTgCz.s:339    .text.clear_display_LCD:0000000000000000 $t
     /tmp/ccfXTgCz.s:346    .text.clear_display_LCD:0000000000000000 clear_display_LCD
     /tmp/ccfXTgCz.s:448    .text.return_home_LCD:0000000000000000 $t
     /tmp/ccfXTgCz.s:455    .text.return_home_LCD:0000000000000000 return_home_LCD
     /tmp/ccfXTgCz.s:557    .text.set_dataLenght_numberOfLines_fontType_LCD:0000000000000000 $t
     /tmp/ccfXTgCz.s:564    .text.set_dataLenght_numberOfLines_fontType_LCD:0000000000000000 set_dataLenght_numberOfLines_fontType_LCD
     /tmp/ccfXTgCz.s:666    .text.set_do_not_display_cursor_LCD:0000000000000000 $t
     /tmp/ccfXTgCz.s:673    .text.set_do_not_display_cursor_LCD:0000000000000000 set_do_not_display_cursor_LCD
     /tmp/ccfXTgCz.s:775    .text.set_cursor_moving_to_the_right_LCD:0000000000000000 $t
     /tmp/ccfXTgCz.s:782    .text.set_cursor_moving_to_the_right_LCD:0000000000000000 set_cursor_moving_to_the_right_LCD
     /tmp/ccfXTgCz.s:884    .text.move_to_line_LCD:0000000000000000 $t
     /tmp/ccfXTgCz.s:891    .text.move_to_line_LCD:0000000000000000 move_to_line_LCD
     /tmp/ccfXTgCz.s:1024   .text.write_character:0000000000000000 $t
     /tmp/ccfXTgCz.s:1031   .text.write_character:0000000000000000 write_character

UNDEFINED SYMBOLS
DB0_low_LCD
DB1_low_LCD
DB2_low_LCD
DB3_low_LCD
DB4_low_LCD
DB5_low_LCD
DB6_low_LCD
DB7_high_LCD
DB2_high_LCD
DB4_high_LCD
DB6_high_LCD
DB0_high_LCD
DB1_high_LCD
DB3_high_LCD
DB5_high_LCD
DB7_low_LCD
RS_low_LCD
RW_low_LCD
Ready_LCD
E_high_LCD
E_low_LCD
RS_high_LCD
