ARM GAS  /tmp/ccc7PQh8.s 			page 1


   1              		.cpu cortex-m3
   2              		.eabi_attribute 20, 1
   3              		.eabi_attribute 21, 1
   4              		.eabi_attribute 23, 3
   5              		.eabi_attribute 24, 1
   6              		.eabi_attribute 25, 1
   7              		.eabi_attribute 26, 1
   8              		.eabi_attribute 30, 1
   9              		.eabi_attribute 34, 1
  10              		.eabi_attribute 18, 4
  11              		.file	"GcodeConverter_Gcode.c"
  12              		.text
  13              	.Ltext0:
  14              		.cfi_sections	.debug_frame
  15              		.section	.text.setCommand,"ax",%progbits
  16              		.align	1
  17              		.syntax unified
  18              		.thumb
  19              		.thumb_func
  20              		.fpu softvfp
  22              	setCommand:
  23              	.LFB3:
  24              		.file 1 "Src/Gcode/GcodeConverter_Gcode.c"
   1:Src/Gcode/GcodeConverter_Gcode.c **** #include "GcodeConverter_Gcode.h"
   2:Src/Gcode/GcodeConverter_Gcode.c **** 
   3:Src/Gcode/GcodeConverter_Gcode.c **** #include <string.h>
   4:Src/Gcode/GcodeConverter_Gcode.c **** #include <stdint.h>
   5:Src/Gcode/GcodeConverter_Gcode.c **** #include <stdbool.h>
   6:Src/Gcode/GcodeConverter_Gcode.c **** 
   7:Src/Gcode/GcodeConverter_Gcode.c **** #include <stdio.h>
   8:Src/Gcode/GcodeConverter_Gcode.c **** #include <stdlib.h>
   9:Src/Gcode/GcodeConverter_Gcode.c **** 
  10:Src/Gcode/GcodeConverter_Gcode.c **** 
  11:Src/Gcode/GcodeConverter_Gcode.c **** static convertedCommand_Gcode command;
  12:Src/Gcode/GcodeConverter_Gcode.c **** 
  13:Src/Gcode/GcodeConverter_Gcode.c **** static void setCommand (float x, float y, float z, float e, float f, float bt, float et,
  14:Src/Gcode/GcodeConverter_Gcode.c ****                     _Bool change_x, _Bool change_y, _Bool change_z, _Bool change_e, _Bool change_f,
  15:Src/Gcode/GcodeConverter_Gcode.c **** {
  25              		.loc 1 15 0
  26              		.cfi_startproc
  27              		@ args = 40, pretend = 0, frame = 0
  28              		@ frame_needed = 0, uses_anonymous_args = 0
  29              	.LVL0:
  30 0000 2DE9F041 		push	{r4, r5, r6, r7, r8, lr}
  31              	.LCFI0:
  32              		.cfi_def_cfa_offset 24
  33              		.cfi_offset 4, -24
  34              		.cfi_offset 5, -20
  35              		.cfi_offset 6, -16
  36              		.cfi_offset 7, -12
  37              		.cfi_offset 8, -8
  38              		.cfi_offset 14, -4
  39 0004 9DF82480 		ldrb	r8, [sp, #36]	@ zero_extendqisi2
  40 0008 9DF828E0 		ldrb	lr, [sp, #40]	@ zero_extendqisi2
  41 000c 9DF82CC0 		ldrb	ip, [sp, #44]	@ zero_extendqisi2
  42 0010 9DF83070 		ldrb	r7, [sp, #48]	@ zero_extendqisi2
  43 0014 9DF83460 		ldrb	r6, [sp, #52]	@ zero_extendqisi2
ARM GAS  /tmp/ccc7PQh8.s 			page 2


  44 0018 9DF83850 		ldrb	r5, [sp, #56]	@ zero_extendqisi2
  45 001c 9DF83C40 		ldrb	r4, [sp, #60]	@ zero_extendqisi2
  16:Src/Gcode/GcodeConverter_Gcode.c ****     if (change_x) command.X = x;
  46              		.loc 1 16 0
  47 0020 B8F1000F 		cmp	r8, #0
  48 0024 03D0     		beq	.L2
  49              		.loc 1 16 0 is_stmt 0 discriminator 1
  50 0026 DFF83C80 		ldr	r8, .L10
  51 002a C8F80400 		str	r0, [r8, #4]	@ float
  52              	.L2:
  17:Src/Gcode/GcodeConverter_Gcode.c ****     if (change_y) command.Y = y;
  53              		.loc 1 17 0 is_stmt 1
  54 002e BEF1000F 		cmp	lr, #0
  55 0032 01D0     		beq	.L3
  56              		.loc 1 17 0 is_stmt 0 discriminator 1
  57 0034 0B48     		ldr	r0, .L10
  58              	.LVL1:
  59 0036 8160     		str	r1, [r0, #8]	@ float
  60              	.L3:
  18:Src/Gcode/GcodeConverter_Gcode.c ****     if (change_z) command.Z = z;
  61              		.loc 1 18 0 is_stmt 1
  62 0038 BCF1000F 		cmp	ip, #0
  63 003c 01D0     		beq	.L4
  64              		.loc 1 18 0 is_stmt 0 discriminator 1
  65 003e 0949     		ldr	r1, .L10
  66              	.LVL2:
  67 0040 CA60     		str	r2, [r1, #12]	@ float
  68              	.L4:
  19:Src/Gcode/GcodeConverter_Gcode.c ****     if (change_e) command.E = e;
  69              		.loc 1 19 0 is_stmt 1
  70 0042 0FB1     		cbz	r7, .L5
  71              		.loc 1 19 0 is_stmt 0 discriminator 1
  72 0044 074A     		ldr	r2, .L10
  73              	.LVL3:
  74 0046 1361     		str	r3, [r2, #16]	@ float
  75              	.L5:
  20:Src/Gcode/GcodeConverter_Gcode.c ****     if (change_f) command.F = f;
  76              		.loc 1 20 0 is_stmt 1
  77 0048 16B1     		cbz	r6, .L6
  78              		.loc 1 20 0 is_stmt 0 discriminator 1
  79 004a 069A     		ldr	r2, [sp, #24]	@ float
  80 004c 054B     		ldr	r3, .L10
  81              	.LVL4:
  82 004e 5A61     		str	r2, [r3, #20]	@ float
  83              	.L6:
  21:Src/Gcode/GcodeConverter_Gcode.c ****     if (change_bt) command.bedT = bt;
  84              		.loc 1 21 0 is_stmt 1
  85 0050 15B1     		cbz	r5, .L7
  86              		.loc 1 21 0 is_stmt 0 discriminator 1
  87 0052 079A     		ldr	r2, [sp, #28]	@ float
  88 0054 034B     		ldr	r3, .L10
  89 0056 DA61     		str	r2, [r3, #28]	@ float
  90              	.L7:
  22:Src/Gcode/GcodeConverter_Gcode.c ****     if (change_et) command.extrT = et;
  91              		.loc 1 22 0 is_stmt 1
  92 0058 14B1     		cbz	r4, .L1
  93              		.loc 1 22 0 is_stmt 0 discriminator 1
ARM GAS  /tmp/ccc7PQh8.s 			page 3


  94 005a 089A     		ldr	r2, [sp, #32]	@ float
  95 005c 014B     		ldr	r3, .L10
  96 005e 9A61     		str	r2, [r3, #24]	@ float
  97              	.L1:
  23:Src/Gcode/GcodeConverter_Gcode.c **** }
  98              		.loc 1 23 0 is_stmt 1
  99 0060 BDE8F081 		pop	{r4, r5, r6, r7, r8, pc}
 100              	.LVL5:
 101              	.L11:
 102              		.align	2
 103              	.L10:
 104 0064 00000000 		.word	.LANCHOR0
 105              		.cfi_endproc
 106              	.LFE3:
 108              		.section	.text.createGcodeConverter_Gcode,"ax",%progbits
 109              		.align	1
 110              		.global	createGcodeConverter_Gcode
 111              		.syntax unified
 112              		.thumb
 113              		.thumb_func
 114              		.fpu softvfp
 116              	createGcodeConverter_Gcode:
 117              	.LFB4:
  24:Src/Gcode/GcodeConverter_Gcode.c **** 
  25:Src/Gcode/GcodeConverter_Gcode.c **** void createGcodeConverter_Gcode(void)
  26:Src/Gcode/GcodeConverter_Gcode.c **** {
 118              		.loc 1 26 0
 119              		.cfi_startproc
 120              		@ args = 0, pretend = 0, frame = 0
 121              		@ frame_needed = 0, uses_anonymous_args = 0
 122 0000 00B5     		push	{lr}
 123              	.LCFI1:
 124              		.cfi_def_cfa_offset 4
 125              		.cfi_offset 14, -4
 126 0002 8BB0     		sub	sp, sp, #44
 127              	.LCFI2:
 128              		.cfi_def_cfa_offset 48
  27:Src/Gcode/GcodeConverter_Gcode.c ****     command.type = EMPTY_COMMAND;
 129              		.loc 1 27 0
 130 0004 0B4B     		ldr	r3, .L14
 131 0006 0022     		movs	r2, #0
 132 0008 1A70     		strb	r2, [r3]
  28:Src/Gcode/GcodeConverter_Gcode.c ****     setCommand(0, 0, 0, 0, F_DEFAULT, 0, 0, true, true, true, true, true, true, true);
 133              		.loc 1 28 0
 134 000a 0020     		movs	r0, #0
 135 000c 0123     		movs	r3, #1
 136 000e 0993     		str	r3, [sp, #36]
 137 0010 0893     		str	r3, [sp, #32]
 138 0012 0793     		str	r3, [sp, #28]
 139 0014 0693     		str	r3, [sp, #24]
 140 0016 0593     		str	r3, [sp, #20]
 141 0018 0493     		str	r3, [sp, #16]
 142 001a 0393     		str	r3, [sp, #12]
 143 001c 0290     		str	r0, [sp, #8]	@ float
 144 001e 0190     		str	r0, [sp, #4]	@ float
 145 0020 054B     		ldr	r3, .L14+4
 146 0022 0093     		str	r3, [sp]	@ float
ARM GAS  /tmp/ccc7PQh8.s 			page 4


 147 0024 0346     		mov	r3, r0
 148 0026 0246     		mov	r2, r0
 149 0028 0146     		mov	r1, r0
 150 002a FFF7FEFF 		bl	setCommand
 151              	.LVL6:
  29:Src/Gcode/GcodeConverter_Gcode.c **** }
 152              		.loc 1 29 0
 153 002e 0BB0     		add	sp, sp, #44
 154              	.LCFI3:
 155              		.cfi_def_cfa_offset 4
 156              		@ sp needed
 157 0030 5DF804FB 		ldr	pc, [sp], #4
 158              	.L15:
 159              		.align	2
 160              	.L14:
 161 0034 00000000 		.word	.LANCHOR0
 162 0038 00007A44 		.word	1148846080
 163              		.cfi_endproc
 164              	.LFE4:
 166              		.section	.text.getConvertedCommand_Gcode,"ax",%progbits
 167              		.align	1
 168              		.global	getConvertedCommand_Gcode
 169              		.syntax unified
 170              		.thumb
 171              		.thumb_func
 172              		.fpu softvfp
 174              	getConvertedCommand_Gcode:
 175              	.LFB5:
  30:Src/Gcode/GcodeConverter_Gcode.c **** 
  31:Src/Gcode/GcodeConverter_Gcode.c **** 
  32:Src/Gcode/GcodeConverter_Gcode.c **** const convertedCommand_Gcode getConvertedCommand_Gcode(void) { return command; }
 176              		.loc 1 32 0
 177              		.cfi_startproc
 178              		@ args = 0, pretend = 0, frame = 0
 179              		@ frame_needed = 0, uses_anonymous_args = 0
 180              		@ link register save eliminated.
 181              	.LVL7:
 182 0000 70B4     		push	{r4, r5, r6}
 183              	.LCFI4:
 184              		.cfi_def_cfa_offset 12
 185              		.cfi_offset 4, -12
 186              		.cfi_offset 5, -8
 187              		.cfi_offset 6, -4
 188 0002 0646     		mov	r6, r0
 189              		.loc 1 32 0
 190 0004 0446     		mov	r4, r0
 191 0006 054D     		ldr	r5, .L18
 192 0008 0FCD     		ldmia	r5!, {r0, r1, r2, r3}
 193              	.LVL8:
 194 000a 0FC4     		stmia	r4!, {r0, r1, r2, r3}
 195              	.LVL9:
 196 000c 95E80F00 		ldm	r5, {r0, r1, r2, r3}
 197 0010 84E80F00 		stm	r4, {r0, r1, r2, r3}
 198 0014 3046     		mov	r0, r6
 199 0016 70BC     		pop	{r4, r5, r6}
 200              	.LCFI5:
 201              		.cfi_restore 6
ARM GAS  /tmp/ccc7PQh8.s 			page 5


 202              		.cfi_restore 5
 203              		.cfi_restore 4
 204              		.cfi_def_cfa_offset 0
 205              	.LVL10:
 206 0018 7047     		bx	lr
 207              	.L19:
 208 001a 00BF     		.align	2
 209              	.L18:
 210 001c 00000000 		.word	.LANCHOR0
 211              		.cfi_endproc
 212              	.LFE5:
 214              		.global	__aeabi_d2f
 215              		.section	.text.convertCommand_Gcode,"ax",%progbits
 216              		.align	1
 217              		.global	convertCommand_Gcode
 218              		.syntax unified
 219              		.thumb
 220              		.thumb_func
 221              		.fpu softvfp
 223              	convertCommand_Gcode:
 224              	.LFB6:
  33:Src/Gcode/GcodeConverter_Gcode.c **** 
  34:Src/Gcode/GcodeConverter_Gcode.c **** 
  35:Src/Gcode/GcodeConverter_Gcode.c **** void convertCommand_Gcode(const char* commandString)
  36:Src/Gcode/GcodeConverter_Gcode.c **** {
 225              		.loc 1 36 0
 226              		.cfi_startproc
 227              		@ args = 0, pretend = 0, frame = 24
 228              		@ frame_needed = 0, uses_anonymous_args = 0
 229              	.LVL11:
 230 0000 2DE9F04F 		push	{r4, r5, r6, r7, r8, r9, r10, fp, lr}
 231              	.LCFI6:
 232              		.cfi_def_cfa_offset 36
 233              		.cfi_offset 4, -36
 234              		.cfi_offset 5, -32
 235              		.cfi_offset 6, -28
 236              		.cfi_offset 7, -24
 237              		.cfi_offset 8, -20
 238              		.cfi_offset 9, -16
 239              		.cfi_offset 10, -12
 240              		.cfi_offset 11, -8
 241              		.cfi_offset 14, -4
 242 0004 91B0     		sub	sp, sp, #68
 243              	.LCFI7:
 244              		.cfi_def_cfa_offset 104
 245 0006 0446     		mov	r4, r0
 246              	.LVL12:
  37:Src/Gcode/GcodeConverter_Gcode.c ****     uint8_t G=0, M=0;
  38:Src/Gcode/GcodeConverter_Gcode.c ****     float X=0, Y=0, Z=0, E=0, F=0, T=0;
  39:Src/Gcode/GcodeConverter_Gcode.c ****     _Bool XisChanged = false, YisChanged = false, ZisChanged = false, EisChanged = false, FisChange
  40:Src/Gcode/GcodeConverter_Gcode.c **** 
  41:Src/Gcode/GcodeConverter_Gcode.c ****     char *stringOffset;
  42:Src/Gcode/GcodeConverter_Gcode.c ****     if ((stringOffset = strchr(commandString, 'G')) != NULL)  G = atoi(stringOffset + sizeof(uint8_
 247              		.loc 1 42 0
 248 0008 4721     		movs	r1, #71
 249 000a FFF7FEFF 		bl	strchr
 250              	.LVL13:
ARM GAS  /tmp/ccc7PQh8.s 			page 6


 251 000e 0028     		cmp	r0, #0
 252 0010 00F0A880 		beq	.L42
 253              		.loc 1 42 0 is_stmt 0 discriminator 1
 254 0014 0130     		adds	r0, r0, #1
 255              	.LVL14:
 256 0016 FFF7FEFF 		bl	atoi
 257              	.LVL15:
 258 001a C5B2     		uxtb	r5, r0
 259              	.LVL16:
 260              	.L21:
  43:Src/Gcode/GcodeConverter_Gcode.c ****     if ((stringOffset = strchr(commandString, 'M')) != NULL)  M = atoi(stringOffset + sizeof(uint8_
 261              		.loc 1 43 0 is_stmt 1
 262 001c 4D21     		movs	r1, #77
 263 001e 2046     		mov	r0, r4
 264 0020 FFF7FEFF 		bl	strchr
 265              	.LVL17:
 266 0024 0028     		cmp	r0, #0
 267 0026 00F09F80 		beq	.L43
 268              		.loc 1 43 0 is_stmt 0 discriminator 1
 269 002a 0130     		adds	r0, r0, #1
 270              	.LVL18:
 271 002c FFF7FEFF 		bl	atoi
 272              	.LVL19:
 273 0030 C6B2     		uxtb	r6, r0
 274              	.LVL20:
 275              	.L22:
  44:Src/Gcode/GcodeConverter_Gcode.c ****     if ((stringOffset = strchr(commandString, 'X')) != NULL) {X = atof(stringOffset + sizeof(uint8_
 276              		.loc 1 44 0 is_stmt 1
 277 0032 5821     		movs	r1, #88
 278 0034 2046     		mov	r0, r4
 279 0036 FFF7FEFF 		bl	strchr
 280              	.LVL21:
 281 003a 0028     		cmp	r0, #0
 282 003c 00F09680 		beq	.L44
 283              		.loc 1 44 0 is_stmt 0 discriminator 1
 284 0040 0130     		adds	r0, r0, #1
 285              	.LVL22:
 286 0042 FFF7FEFF 		bl	atof
 287              	.LVL23:
 288 0046 FFF7FEFF 		bl	__aeabi_d2f
 289              	.LVL24:
 290 004a 0B90     		str	r0, [sp, #44]	@ float
 291              	.LVL25:
 292 004c 0127     		movs	r7, #1
 293              	.LVL26:
 294              	.L23:
  45:Src/Gcode/GcodeConverter_Gcode.c ****     if ((stringOffset = strchr(commandString, 'Y')) != NULL) {Y = atof(stringOffset + sizeof(uint8_
 295              		.loc 1 45 0 is_stmt 1
 296 004e 5921     		movs	r1, #89
 297 0050 2046     		mov	r0, r4
 298 0052 FFF7FEFF 		bl	strchr
 299              	.LVL27:
 300 0056 0028     		cmp	r0, #0
 301 0058 00F08C80 		beq	.L45
 302              		.loc 1 45 0 is_stmt 0 discriminator 1
 303 005c 0130     		adds	r0, r0, #1
 304              	.LVL28:
ARM GAS  /tmp/ccc7PQh8.s 			page 7


 305 005e FFF7FEFF 		bl	atof
 306              	.LVL29:
 307 0062 FFF7FEFF 		bl	__aeabi_d2f
 308              	.LVL30:
 309 0066 0C90     		str	r0, [sp, #48]	@ float
 310              	.LVL31:
 311 0068 4FF00109 		mov	r9, #1
 312              	.LVL32:
 313              	.L24:
  46:Src/Gcode/GcodeConverter_Gcode.c ****     if ((stringOffset = strchr(commandString, 'Z')) != NULL) {Z = atof(stringOffset + sizeof(uint8_
 314              		.loc 1 46 0 is_stmt 1
 315 006c 5A21     		movs	r1, #90
 316 006e 2046     		mov	r0, r4
 317 0070 FFF7FEFF 		bl	strchr
 318              	.LVL33:
 319 0074 0028     		cmp	r0, #0
 320 0076 00F08280 		beq	.L46
 321              		.loc 1 46 0 is_stmt 0 discriminator 1
 322 007a 0130     		adds	r0, r0, #1
 323              	.LVL34:
 324 007c FFF7FEFF 		bl	atof
 325              	.LVL35:
 326 0080 FFF7FEFF 		bl	__aeabi_d2f
 327              	.LVL36:
 328 0084 0D90     		str	r0, [sp, #52]	@ float
 329              	.LVL37:
 330 0086 4FF0010A 		mov	r10, #1
 331              	.LVL38:
 332              	.L25:
  47:Src/Gcode/GcodeConverter_Gcode.c ****     if ((stringOffset = strchr(commandString, 'E')) != NULL) {E = atof(stringOffset + sizeof(uint8_
 333              		.loc 1 47 0 is_stmt 1
 334 008a 4521     		movs	r1, #69
 335 008c 2046     		mov	r0, r4
 336 008e FFF7FEFF 		bl	strchr
 337              	.LVL39:
 338 0092 0028     		cmp	r0, #0
 339 0094 78D0     		beq	.L47
 340              		.loc 1 47 0 is_stmt 0 discriminator 1
 341 0096 0130     		adds	r0, r0, #1
 342              	.LVL40:
 343 0098 FFF7FEFF 		bl	atof
 344              	.LVL41:
 345 009c FFF7FEFF 		bl	__aeabi_d2f
 346              	.LVL42:
 347 00a0 0E90     		str	r0, [sp, #56]	@ float
 348              	.LVL43:
 349 00a2 4FF0010B 		mov	fp, #1
 350              	.LVL44:
 351              	.L26:
  48:Src/Gcode/GcodeConverter_Gcode.c ****     if ((stringOffset = strchr(commandString, 'F')) != NULL) {F = atof(stringOffset + sizeof(uint8_
 352              		.loc 1 48 0 is_stmt 1
 353 00a6 4621     		movs	r1, #70
 354 00a8 2046     		mov	r0, r4
 355 00aa FFF7FEFF 		bl	strchr
 356              	.LVL45:
 357 00ae 0028     		cmp	r0, #0
 358 00b0 6FD0     		beq	.L48
ARM GAS  /tmp/ccc7PQh8.s 			page 8


 359              		.loc 1 48 0 is_stmt 0 discriminator 1
 360 00b2 0130     		adds	r0, r0, #1
 361              	.LVL46:
 362 00b4 FFF7FEFF 		bl	atof
 363              	.LVL47:
 364 00b8 FFF7FEFF 		bl	__aeabi_d2f
 365              	.LVL48:
 366 00bc 8046     		mov	r8, r0
 367              	.LVL49:
 368 00be 0123     		movs	r3, #1
 369 00c0 0F93     		str	r3, [sp, #60]
 370              	.LVL50:
 371              	.L27:
  49:Src/Gcode/GcodeConverter_Gcode.c ****     if ((stringOffset = strchr(commandString, 'T')) != NULL) {T = atof(stringOffset + sizeof(uint8_
 372              		.loc 1 49 0 is_stmt 1
 373 00c2 5421     		movs	r1, #84
 374 00c4 2046     		mov	r0, r4
 375 00c6 FFF7FEFF 		bl	strchr
 376              	.LVL51:
 377 00ca 0028     		cmp	r0, #0
 378 00cc 66D0     		beq	.L49
 379              		.loc 1 49 0 is_stmt 0 discriminator 1
 380 00ce 0130     		adds	r0, r0, #1
 381              	.LVL52:
 382 00d0 FFF7FEFF 		bl	atof
 383              	.LVL53:
 384 00d4 FFF7FEFF 		bl	__aeabi_d2f
 385              	.LVL54:
 386 00d8 0123     		movs	r3, #1
 387              	.LVL55:
 388              	.L28:
  50:Src/Gcode/GcodeConverter_Gcode.c **** 
  51:Src/Gcode/GcodeConverter_Gcode.c ****     if(G==1)   { command.type = MOVE_COMMAND;               setCommand(X, Y, Z, E, F, T, T, XisChan
 389              		.loc 1 51 0 is_stmt 1
 390 00da 012D     		cmp	r5, #1
 391 00dc 61D0     		beq	.L51
  52:Src/Gcode/GcodeConverter_Gcode.c ****     if(G==92)  { command.type = SET_COORDINATES_COMMAND;    setCommand(X, Y, Z, E, F, T, T, XisChan
 392              		.loc 1 52 0
 393 00de 5C2D     		cmp	r5, #92
 394 00e0 7BD0     		beq	.L52
  53:Src/Gcode/GcodeConverter_Gcode.c ****     if(M==140) { command.type = HEAT_BED_COMMAND;           setCommand(X, Y, Z, E, F, T, T, false, 
 395              		.loc 1 53 0
 396 00e2 8C2E     		cmp	r6, #140
 397 00e4 00F09280 		beq	.L53
  54:Src/Gcode/GcodeConverter_Gcode.c ****     if(M==104) { command.type = HEAT_EXTRUDER_COMMAND;      setCommand(X, Y, Z, E, F, T, T, false, 
 398              		.loc 1 54 0
 399 00e8 682E     		cmp	r6, #104
 400 00ea 00F0A580 		beq	.L54
  55:Src/Gcode/GcodeConverter_Gcode.c ****     if(M==190) { command.type = WAIT_HEAT_BED_COMMAND;      setCommand(X, Y, Z, E, F, T, T, false, 
 401              		.loc 1 55 0
 402 00ee BE2E     		cmp	r6, #190
 403 00f0 00F0B880 		beq	.L55
  56:Src/Gcode/GcodeConverter_Gcode.c ****     if(M==109) { command.type = WAIT_HEAT_EXTRUDER_COMMAND; setCommand(X, Y, Z, E, F, T, T, false, 
 404              		.loc 1 56 0
 405 00f4 6D2E     		cmp	r6, #109
 406 00f6 00F0CB80 		beq	.L56
  57:Src/Gcode/GcodeConverter_Gcode.c **** 
ARM GAS  /tmp/ccc7PQh8.s 			page 9


  58:Src/Gcode/GcodeConverter_Gcode.c ****     if(G==28 && XisChanged  && YisChanged  && ZisChanged )   { command.type = GO_HOME_XYZ_COMMAND; 
 407              		.loc 1 58 0
 408 00fa 1C2D     		cmp	r5, #28
 409 00fc 00F0DE80 		beq	.L57
 410              	.L36:
  59:Src/Gcode/GcodeConverter_Gcode.c ****     if(G==28 && XisChanged  && !YisChanged && !ZisChanged)   { command.type = GO_HOME_X_COMMAND;   
 411              		.loc 1 59 0
 412 0100 1C2D     		cmp	r5, #28
 413 0102 00F0FF80 		beq	.L58
 414              	.L37:
  60:Src/Gcode/GcodeConverter_Gcode.c ****     if(G==28 && !XisChanged && YisChanged  && !ZisChanged)   { command.type = GO_HOME_Y_COMMAND;   
 415              		.loc 1 60 0
 416 0106 1C2D     		cmp	r5, #28
 417 0108 00F02081 		beq	.L59
 418              	.L38:
  61:Src/Gcode/GcodeConverter_Gcode.c ****     if(G==28 && !XisChanged && !YisChanged && ZisChanged )   { command.type = GO_HOME_Z_COMMAND;   
 419              		.loc 1 61 0
 420 010c 1C2D     		cmp	r5, #28
 421 010e 00F04381 		beq	.L60
 422              	.L39:
  62:Src/Gcode/GcodeConverter_Gcode.c ****     if(G==28 && XisChanged  && YisChanged  && !ZisChanged)   { command.type = GO_HOME_XY_COMMAND;  
 423              		.loc 1 62 0
 424 0112 1C2D     		cmp	r5, #28
 425 0114 00F06481 		beq	.L61
 426              	.L40:
  63:Src/Gcode/GcodeConverter_Gcode.c ****     if(G==28 && XisChanged  && !YisChanged && ZisChanged )   { command.type = GO_HOME_XZ_COMMAND;  
 427              		.loc 1 63 0
 428 0118 1C2D     		cmp	r5, #28
 429 011a 00F08581 		beq	.L62
 430              	.L41:
  64:Src/Gcode/GcodeConverter_Gcode.c ****     if(G==28 && !XisChanged && YisChanged  && ZisChanged )   { command.type = GO_HOME_YZ_COMMAND;  
 431              		.loc 1 64 0
 432 011e 1C2D     		cmp	r5, #28
 433 0120 58D1     		bne	.L20
 434              		.loc 1 64 0 is_stmt 0 discriminator 1
 435 0122 002F     		cmp	r7, #0
 436 0124 56D1     		bne	.L20
 437              		.loc 1 64 0 discriminator 2
 438 0126 B9F1000F 		cmp	r9, #0
 439 012a 53D0     		beq	.L20
 440              		.loc 1 64 0 discriminator 3
 441 012c BAF1000F 		cmp	r10, #0
 442 0130 50D0     		beq	.L20
 443              		.loc 1 64 0 discriminator 4
 444 0132 984B     		ldr	r3, .L63
 445              	.LVL56:
 446 0134 0822     		movs	r2, #8
 447 0136 1A70     		strb	r2, [r3]
 448 0138 0023     		movs	r3, #0
 449 013a 0993     		str	r3, [sp, #36]
 450 013c 0893     		str	r3, [sp, #32]
 451 013e 0F9A     		ldr	r2, [sp, #60]
 452 0140 0792     		str	r2, [sp, #28]
 453 0142 0693     		str	r3, [sp, #24]
 454 0144 CDF814A0 		str	r10, [sp, #20]
 455 0148 CDF81090 		str	r9, [sp, #16]
 456 014c 0397     		str	r7, [sp, #12]
ARM GAS  /tmp/ccc7PQh8.s 			page 10


 457 014e 0290     		str	r0, [sp, #8]	@ float
 458 0150 0190     		str	r0, [sp, #4]	@ float
 459 0152 CDF80080 		str	r8, [sp]	@ float
 460 0156 0E9B     		ldr	r3, [sp, #56]	@ float
 461 0158 0D9A     		ldr	r2, [sp, #52]	@ float
 462 015a 0C99     		ldr	r1, [sp, #48]	@ float
 463 015c 0B98     		ldr	r0, [sp, #44]	@ float
 464              	.LVL57:
 465 015e FFF7FEFF 		bl	setCommand
 466              	.LVL58:
 467 0162 37E0     		b	.L20
 468              	.LVL59:
 469              	.L42:
  37:Src/Gcode/GcodeConverter_Gcode.c ****     float X=0, Y=0, Z=0, E=0, F=0, T=0;
 470              		.loc 1 37 0 is_stmt 1
 471 0164 0025     		movs	r5, #0
 472 0166 59E7     		b	.L21
 473              	.LVL60:
 474              	.L43:
 475 0168 0026     		movs	r6, #0
 476 016a 62E7     		b	.L22
 477              	.LVL61:
 478              	.L44:
  39:Src/Gcode/GcodeConverter_Gcode.c **** 
 479              		.loc 1 39 0
 480 016c 0027     		movs	r7, #0
  38:Src/Gcode/GcodeConverter_Gcode.c ****     _Bool XisChanged = false, YisChanged = false, ZisChanged = false, EisChanged = false, FisChange
 481              		.loc 1 38 0
 482 016e 0023     		movs	r3, #0
 483 0170 0B93     		str	r3, [sp, #44]	@ float
 484 0172 6CE7     		b	.L23
 485              	.LVL62:
 486              	.L45:
  39:Src/Gcode/GcodeConverter_Gcode.c **** 
 487              		.loc 1 39 0
 488 0174 4FF00009 		mov	r9, #0
  38:Src/Gcode/GcodeConverter_Gcode.c ****     _Bool XisChanged = false, YisChanged = false, ZisChanged = false, EisChanged = false, FisChange
 489              		.loc 1 38 0
 490 0178 0023     		movs	r3, #0
 491 017a 0C93     		str	r3, [sp, #48]	@ float
 492 017c 76E7     		b	.L24
 493              	.LVL63:
 494              	.L46:
  39:Src/Gcode/GcodeConverter_Gcode.c **** 
 495              		.loc 1 39 0
 496 017e 4FF0000A 		mov	r10, #0
  38:Src/Gcode/GcodeConverter_Gcode.c ****     _Bool XisChanged = false, YisChanged = false, ZisChanged = false, EisChanged = false, FisChange
 497              		.loc 1 38 0
 498 0182 0023     		movs	r3, #0
 499 0184 0D93     		str	r3, [sp, #52]	@ float
 500 0186 80E7     		b	.L25
 501              	.LVL64:
 502              	.L47:
  39:Src/Gcode/GcodeConverter_Gcode.c **** 
 503              		.loc 1 39 0
 504 0188 4FF0000B 		mov	fp, #0
  38:Src/Gcode/GcodeConverter_Gcode.c ****     _Bool XisChanged = false, YisChanged = false, ZisChanged = false, EisChanged = false, FisChange
ARM GAS  /tmp/ccc7PQh8.s 			page 11


 505              		.loc 1 38 0
 506 018c 0023     		movs	r3, #0
 507 018e 0E93     		str	r3, [sp, #56]	@ float
 508 0190 89E7     		b	.L26
 509              	.LVL65:
 510              	.L48:
  39:Src/Gcode/GcodeConverter_Gcode.c **** 
 511              		.loc 1 39 0
 512 0192 0023     		movs	r3, #0
 513 0194 0F93     		str	r3, [sp, #60]
  38:Src/Gcode/GcodeConverter_Gcode.c ****     _Bool XisChanged = false, YisChanged = false, ZisChanged = false, EisChanged = false, FisChange
 514              		.loc 1 38 0
 515 0196 4FF00008 		mov	r8, #0
 516 019a 92E7     		b	.L27
 517              	.LVL66:
 518              	.L49:
  39:Src/Gcode/GcodeConverter_Gcode.c **** 
 519              		.loc 1 39 0
 520 019c 0023     		movs	r3, #0
  38:Src/Gcode/GcodeConverter_Gcode.c ****     _Bool XisChanged = false, YisChanged = false, ZisChanged = false, EisChanged = false, FisChange
 521              		.loc 1 38 0
 522 019e 0020     		movs	r0, #0
 523              	.LVL67:
 524 01a0 9BE7     		b	.L28
 525              	.LVL68:
 526              	.L51:
  51:Src/Gcode/GcodeConverter_Gcode.c ****     if(G==92)  { command.type = SET_COORDINATES_COMMAND;    setCommand(X, Y, Z, E, F, T, T, XisChan
 527              		.loc 1 51 0 discriminator 1
 528 01a2 7C4B     		ldr	r3, .L63
 529              	.LVL69:
 530 01a4 0122     		movs	r2, #1
 531 01a6 1A70     		strb	r2, [r3]
 532 01a8 0023     		movs	r3, #0
 533 01aa 0993     		str	r3, [sp, #36]
 534 01ac 0893     		str	r3, [sp, #32]
 535 01ae 0F9B     		ldr	r3, [sp, #60]
 536 01b0 0793     		str	r3, [sp, #28]
 537 01b2 CDF818B0 		str	fp, [sp, #24]
 538 01b6 CDF814A0 		str	r10, [sp, #20]
 539 01ba CDF81090 		str	r9, [sp, #16]
 540 01be 0397     		str	r7, [sp, #12]
 541 01c0 0290     		str	r0, [sp, #8]	@ float
 542 01c2 0190     		str	r0, [sp, #4]	@ float
 543 01c4 CDF80080 		str	r8, [sp]	@ float
 544 01c8 0E9B     		ldr	r3, [sp, #56]	@ float
 545 01ca 0D9A     		ldr	r2, [sp, #52]	@ float
 546 01cc 0C99     		ldr	r1, [sp, #48]	@ float
 547 01ce 0B98     		ldr	r0, [sp, #44]	@ float
 548              	.LVL70:
 549 01d0 FFF7FEFF 		bl	setCommand
 550              	.LVL71:
 551              	.L20:
  65:Src/Gcode/GcodeConverter_Gcode.c **** 
  66:Src/Gcode/GcodeConverter_Gcode.c **** }
 552              		.loc 1 66 0
 553 01d4 11B0     		add	sp, sp, #68
 554              	.LCFI8:
ARM GAS  /tmp/ccc7PQh8.s 			page 12


 555              		.cfi_remember_state
 556              		.cfi_def_cfa_offset 36
 557              		@ sp needed
 558 01d6 BDE8F08F 		pop	{r4, r5, r6, r7, r8, r9, r10, fp, pc}
 559              	.LVL72:
 560              	.L52:
 561              	.LCFI9:
 562              		.cfi_restore_state
  52:Src/Gcode/GcodeConverter_Gcode.c ****     if(M==140) { command.type = HEAT_BED_COMMAND;           setCommand(X, Y, Z, E, F, T, T, false, 
 563              		.loc 1 52 0 discriminator 1
 564 01da 6E4B     		ldr	r3, .L63
 565              	.LVL73:
 566 01dc 0222     		movs	r2, #2
 567 01de 1A70     		strb	r2, [r3]
 568 01e0 0023     		movs	r3, #0
 569 01e2 0993     		str	r3, [sp, #36]
 570 01e4 0893     		str	r3, [sp, #32]
 571 01e6 0793     		str	r3, [sp, #28]
 572 01e8 CDF818B0 		str	fp, [sp, #24]
 573 01ec CDF814A0 		str	r10, [sp, #20]
 574 01f0 CDF81090 		str	r9, [sp, #16]
 575 01f4 0397     		str	r7, [sp, #12]
 576 01f6 0290     		str	r0, [sp, #8]	@ float
 577 01f8 0190     		str	r0, [sp, #4]	@ float
 578 01fa CDF80080 		str	r8, [sp]	@ float
 579 01fe 0E9B     		ldr	r3, [sp, #56]	@ float
 580 0200 0D9A     		ldr	r2, [sp, #52]	@ float
 581 0202 0C99     		ldr	r1, [sp, #48]	@ float
 582 0204 0B98     		ldr	r0, [sp, #44]	@ float
 583              	.LVL74:
 584 0206 FFF7FEFF 		bl	setCommand
 585              	.LVL75:
 586 020a E3E7     		b	.L20
 587              	.LVL76:
 588              	.L53:
  53:Src/Gcode/GcodeConverter_Gcode.c ****     if(M==104) { command.type = HEAT_EXTRUDER_COMMAND;      setCommand(X, Y, Z, E, F, T, T, false, 
 589              		.loc 1 53 0 discriminator 1
 590 020c 614A     		ldr	r2, .L63
 591 020e 0B21     		movs	r1, #11
 592 0210 1170     		strb	r1, [r2]
 593 0212 0022     		movs	r2, #0
 594 0214 0992     		str	r2, [sp, #36]
 595 0216 0893     		str	r3, [sp, #32]
 596 0218 0792     		str	r2, [sp, #28]
 597 021a 0692     		str	r2, [sp, #24]
 598 021c 0592     		str	r2, [sp, #20]
 599 021e 0492     		str	r2, [sp, #16]
 600 0220 0392     		str	r2, [sp, #12]
 601 0222 0290     		str	r0, [sp, #8]	@ float
 602 0224 0190     		str	r0, [sp, #4]	@ float
 603 0226 CDF80080 		str	r8, [sp]	@ float
 604 022a 0E9B     		ldr	r3, [sp, #56]	@ float
 605              	.LVL77:
 606 022c 0D9A     		ldr	r2, [sp, #52]	@ float
 607 022e 0C99     		ldr	r1, [sp, #48]	@ float
 608 0230 0B98     		ldr	r0, [sp, #44]	@ float
 609              	.LVL78:
ARM GAS  /tmp/ccc7PQh8.s 			page 13


 610 0232 FFF7FEFF 		bl	setCommand
 611              	.LVL79:
 612 0236 CDE7     		b	.L20
 613              	.LVL80:
 614              	.L54:
  54:Src/Gcode/GcodeConverter_Gcode.c ****     if(M==190) { command.type = WAIT_HEAT_BED_COMMAND;      setCommand(X, Y, Z, E, F, T, T, false, 
 615              		.loc 1 54 0 discriminator 1
 616 0238 564A     		ldr	r2, .L63
 617 023a 0A21     		movs	r1, #10
 618 023c 1170     		strb	r1, [r2]
 619 023e 0993     		str	r3, [sp, #36]
 620 0240 0023     		movs	r3, #0
 621              	.LVL81:
 622 0242 0893     		str	r3, [sp, #32]
 623 0244 0793     		str	r3, [sp, #28]
 624 0246 0693     		str	r3, [sp, #24]
 625 0248 0593     		str	r3, [sp, #20]
 626 024a 0493     		str	r3, [sp, #16]
 627 024c 0393     		str	r3, [sp, #12]
 628 024e 0290     		str	r0, [sp, #8]	@ float
 629 0250 0190     		str	r0, [sp, #4]	@ float
 630 0252 CDF80080 		str	r8, [sp]	@ float
 631 0256 0E9B     		ldr	r3, [sp, #56]	@ float
 632 0258 0D9A     		ldr	r2, [sp, #52]	@ float
 633 025a 0C99     		ldr	r1, [sp, #48]	@ float
 634 025c 0B98     		ldr	r0, [sp, #44]	@ float
 635              	.LVL82:
 636 025e FFF7FEFF 		bl	setCommand
 637              	.LVL83:
 638 0262 B7E7     		b	.L20
 639              	.LVL84:
 640              	.L55:
  55:Src/Gcode/GcodeConverter_Gcode.c ****     if(M==109) { command.type = WAIT_HEAT_EXTRUDER_COMMAND; setCommand(X, Y, Z, E, F, T, T, false, 
 641              		.loc 1 55 0 discriminator 1
 642 0264 4B4A     		ldr	r2, .L63
 643 0266 0D21     		movs	r1, #13
 644 0268 1170     		strb	r1, [r2]
 645 026a 0022     		movs	r2, #0
 646 026c 0992     		str	r2, [sp, #36]
 647 026e 0893     		str	r3, [sp, #32]
 648 0270 0792     		str	r2, [sp, #28]
 649 0272 0692     		str	r2, [sp, #24]
 650 0274 0592     		str	r2, [sp, #20]
 651 0276 0492     		str	r2, [sp, #16]
 652 0278 0392     		str	r2, [sp, #12]
 653 027a 0290     		str	r0, [sp, #8]	@ float
 654 027c 0190     		str	r0, [sp, #4]	@ float
 655 027e CDF80080 		str	r8, [sp]	@ float
 656 0282 0E9B     		ldr	r3, [sp, #56]	@ float
 657              	.LVL85:
 658 0284 0D9A     		ldr	r2, [sp, #52]	@ float
 659 0286 0C99     		ldr	r1, [sp, #48]	@ float
 660 0288 0B98     		ldr	r0, [sp, #44]	@ float
 661              	.LVL86:
 662 028a FFF7FEFF 		bl	setCommand
 663              	.LVL87:
 664 028e A1E7     		b	.L20
ARM GAS  /tmp/ccc7PQh8.s 			page 14


 665              	.LVL88:
 666              	.L56:
  56:Src/Gcode/GcodeConverter_Gcode.c **** 
 667              		.loc 1 56 0 discriminator 1
 668 0290 404A     		ldr	r2, .L63
 669 0292 0C21     		movs	r1, #12
 670 0294 1170     		strb	r1, [r2]
 671 0296 0993     		str	r3, [sp, #36]
 672 0298 0023     		movs	r3, #0
 673              	.LVL89:
 674 029a 0893     		str	r3, [sp, #32]
 675 029c 0793     		str	r3, [sp, #28]
 676 029e 0693     		str	r3, [sp, #24]
 677 02a0 0593     		str	r3, [sp, #20]
 678 02a2 0493     		str	r3, [sp, #16]
 679 02a4 0393     		str	r3, [sp, #12]
 680 02a6 0290     		str	r0, [sp, #8]	@ float
 681 02a8 0190     		str	r0, [sp, #4]	@ float
 682 02aa CDF80080 		str	r8, [sp]	@ float
 683 02ae 0E9B     		ldr	r3, [sp, #56]	@ float
 684 02b0 0D9A     		ldr	r2, [sp, #52]	@ float
 685 02b2 0C99     		ldr	r1, [sp, #48]	@ float
 686 02b4 0B98     		ldr	r0, [sp, #44]	@ float
 687              	.LVL90:
 688 02b6 FFF7FEFF 		bl	setCommand
 689              	.LVL91:
 690 02ba 8BE7     		b	.L20
 691              	.LVL92:
 692              	.L57:
  58:Src/Gcode/GcodeConverter_Gcode.c ****     if(G==28 && XisChanged  && !YisChanged && !ZisChanged)   { command.type = GO_HOME_X_COMMAND;   
 693              		.loc 1 58 0 discriminator 1
 694 02bc 002F     		cmp	r7, #0
 695 02be 3FF41FAF 		beq	.L36
  58:Src/Gcode/GcodeConverter_Gcode.c ****     if(G==28 && XisChanged  && !YisChanged && !ZisChanged)   { command.type = GO_HOME_X_COMMAND;   
 696              		.loc 1 58 0 is_stmt 0 discriminator 2
 697 02c2 B9F1000F 		cmp	r9, #0
 698 02c6 3FF41BAF 		beq	.L36
  58:Src/Gcode/GcodeConverter_Gcode.c ****     if(G==28 && XisChanged  && !YisChanged && !ZisChanged)   { command.type = GO_HOME_X_COMMAND;   
 699              		.loc 1 58 0 discriminator 3
 700 02ca BAF1000F 		cmp	r10, #0
 701 02ce 3FF417AF 		beq	.L36
  58:Src/Gcode/GcodeConverter_Gcode.c ****     if(G==28 && XisChanged  && !YisChanged && !ZisChanged)   { command.type = GO_HOME_X_COMMAND;   
 702              		.loc 1 58 0 discriminator 4
 703 02d2 304B     		ldr	r3, .L63
 704              	.LVL93:
 705 02d4 0922     		movs	r2, #9
 706 02d6 1A70     		strb	r2, [r3]
 707 02d8 0023     		movs	r3, #0
 708 02da 0993     		str	r3, [sp, #36]
 709 02dc 0893     		str	r3, [sp, #32]
 710 02de 0F9A     		ldr	r2, [sp, #60]
 711 02e0 0792     		str	r2, [sp, #28]
 712 02e2 0693     		str	r3, [sp, #24]
 713 02e4 CDF814A0 		str	r10, [sp, #20]
 714 02e8 CDF81090 		str	r9, [sp, #16]
 715 02ec 0397     		str	r7, [sp, #12]
 716 02ee 0290     		str	r0, [sp, #8]	@ float
ARM GAS  /tmp/ccc7PQh8.s 			page 15


 717 02f0 0190     		str	r0, [sp, #4]	@ float
 718 02f2 CDF80080 		str	r8, [sp]	@ float
 719 02f6 0E9B     		ldr	r3, [sp, #56]	@ float
 720 02f8 0D9A     		ldr	r2, [sp, #52]	@ float
 721 02fa 0C99     		ldr	r1, [sp, #48]	@ float
 722 02fc 0B98     		ldr	r0, [sp, #44]	@ float
 723              	.LVL94:
 724 02fe FFF7FEFF 		bl	setCommand
 725              	.LVL95:
 726 0302 67E7     		b	.L20
 727              	.LVL96:
 728              	.L58:
  59:Src/Gcode/GcodeConverter_Gcode.c ****     if(G==28 && !XisChanged && YisChanged  && !ZisChanged)   { command.type = GO_HOME_Y_COMMAND;   
 729              		.loc 1 59 0 is_stmt 1 discriminator 1
 730 0304 002F     		cmp	r7, #0
 731 0306 3FF4FEAE 		beq	.L37
  59:Src/Gcode/GcodeConverter_Gcode.c ****     if(G==28 && !XisChanged && YisChanged  && !ZisChanged)   { command.type = GO_HOME_Y_COMMAND;   
 732              		.loc 1 59 0 is_stmt 0 discriminator 2
 733 030a B9F1000F 		cmp	r9, #0
 734 030e 7FF4FAAE 		bne	.L37
  59:Src/Gcode/GcodeConverter_Gcode.c ****     if(G==28 && !XisChanged && YisChanged  && !ZisChanged)   { command.type = GO_HOME_Y_COMMAND;   
 735              		.loc 1 59 0 discriminator 3
 736 0312 BAF1000F 		cmp	r10, #0
 737 0316 7FF4F6AE 		bne	.L37
  59:Src/Gcode/GcodeConverter_Gcode.c ****     if(G==28 && !XisChanged && YisChanged  && !ZisChanged)   { command.type = GO_HOME_Y_COMMAND;   
 738              		.loc 1 59 0 discriminator 4
 739 031a 1E4B     		ldr	r3, .L63
 740              	.LVL97:
 741 031c 0322     		movs	r2, #3
 742 031e 1A70     		strb	r2, [r3]
 743 0320 0023     		movs	r3, #0
 744 0322 0993     		str	r3, [sp, #36]
 745 0324 0893     		str	r3, [sp, #32]
 746 0326 0F9A     		ldr	r2, [sp, #60]
 747 0328 0792     		str	r2, [sp, #28]
 748 032a 0693     		str	r3, [sp, #24]
 749 032c CDF814A0 		str	r10, [sp, #20]
 750 0330 CDF81090 		str	r9, [sp, #16]
 751 0334 0397     		str	r7, [sp, #12]
 752 0336 0290     		str	r0, [sp, #8]	@ float
 753 0338 0190     		str	r0, [sp, #4]	@ float
 754 033a CDF80080 		str	r8, [sp]	@ float
 755 033e 0E9B     		ldr	r3, [sp, #56]	@ float
 756 0340 0D9A     		ldr	r2, [sp, #52]	@ float
 757 0342 0C99     		ldr	r1, [sp, #48]	@ float
 758 0344 0B98     		ldr	r0, [sp, #44]	@ float
 759              	.LVL98:
 760 0346 FFF7FEFF 		bl	setCommand
 761              	.LVL99:
 762 034a 43E7     		b	.L20
 763              	.LVL100:
 764              	.L59:
  60:Src/Gcode/GcodeConverter_Gcode.c ****     if(G==28 && !XisChanged && !YisChanged && ZisChanged )   { command.type = GO_HOME_Z_COMMAND;   
 765              		.loc 1 60 0 is_stmt 1 discriminator 1
 766 034c 002F     		cmp	r7, #0
 767 034e 7FF4DDAE 		bne	.L38
  60:Src/Gcode/GcodeConverter_Gcode.c ****     if(G==28 && !XisChanged && !YisChanged && ZisChanged )   { command.type = GO_HOME_Z_COMMAND;   
ARM GAS  /tmp/ccc7PQh8.s 			page 16


 768              		.loc 1 60 0 is_stmt 0 discriminator 2
 769 0352 B9F1000F 		cmp	r9, #0
 770 0356 3FF4D9AE 		beq	.L38
  60:Src/Gcode/GcodeConverter_Gcode.c ****     if(G==28 && !XisChanged && !YisChanged && ZisChanged )   { command.type = GO_HOME_Z_COMMAND;   
 771              		.loc 1 60 0 discriminator 3
 772 035a BAF1000F 		cmp	r10, #0
 773 035e 7FF4D5AE 		bne	.L38
  60:Src/Gcode/GcodeConverter_Gcode.c ****     if(G==28 && !XisChanged && !YisChanged && ZisChanged )   { command.type = GO_HOME_Z_COMMAND;   
 774              		.loc 1 60 0 discriminator 4
 775 0362 0C4B     		ldr	r3, .L63
 776              	.LVL101:
 777 0364 0422     		movs	r2, #4
 778 0366 1A70     		strb	r2, [r3]
 779 0368 0023     		movs	r3, #0
 780 036a 0993     		str	r3, [sp, #36]
 781 036c 0893     		str	r3, [sp, #32]
 782 036e 0F9A     		ldr	r2, [sp, #60]
 783 0370 0792     		str	r2, [sp, #28]
 784 0372 0693     		str	r3, [sp, #24]
 785 0374 CDF814A0 		str	r10, [sp, #20]
 786 0378 CDF81090 		str	r9, [sp, #16]
 787 037c 0397     		str	r7, [sp, #12]
 788 037e 0290     		str	r0, [sp, #8]	@ float
 789 0380 0190     		str	r0, [sp, #4]	@ float
 790 0382 CDF80080 		str	r8, [sp]	@ float
 791 0386 0E9B     		ldr	r3, [sp, #56]	@ float
 792 0388 0D9A     		ldr	r2, [sp, #52]	@ float
 793 038a 0C99     		ldr	r1, [sp, #48]	@ float
 794 038c 0B98     		ldr	r0, [sp, #44]	@ float
 795              	.LVL102:
 796 038e FFF7FEFF 		bl	setCommand
 797              	.LVL103:
 798 0392 1FE7     		b	.L20
 799              	.L64:
 800              		.align	2
 801              	.L63:
 802 0394 00000000 		.word	.LANCHOR0
 803              	.LVL104:
 804              	.L60:
  61:Src/Gcode/GcodeConverter_Gcode.c ****     if(G==28 && XisChanged  && YisChanged  && !ZisChanged)   { command.type = GO_HOME_XY_COMMAND;  
 805              		.loc 1 61 0 is_stmt 1 discriminator 1
 806 0398 002F     		cmp	r7, #0
 807 039a 7FF4BAAE 		bne	.L39
  61:Src/Gcode/GcodeConverter_Gcode.c ****     if(G==28 && XisChanged  && YisChanged  && !ZisChanged)   { command.type = GO_HOME_XY_COMMAND;  
 808              		.loc 1 61 0 is_stmt 0 discriminator 2
 809 039e B9F1000F 		cmp	r9, #0
 810 03a2 7FF4B6AE 		bne	.L39
  61:Src/Gcode/GcodeConverter_Gcode.c ****     if(G==28 && XisChanged  && YisChanged  && !ZisChanged)   { command.type = GO_HOME_XY_COMMAND;  
 811              		.loc 1 61 0 discriminator 3
 812 03a6 BAF1000F 		cmp	r10, #0
 813 03aa 3FF4B2AE 		beq	.L39
  61:Src/Gcode/GcodeConverter_Gcode.c ****     if(G==28 && XisChanged  && YisChanged  && !ZisChanged)   { command.type = GO_HOME_XY_COMMAND;  
 814              		.loc 1 61 0 discriminator 4
 815 03ae 304B     		ldr	r3, .L65
 816              	.LVL105:
 817 03b0 0522     		movs	r2, #5
 818 03b2 1A70     		strb	r2, [r3]
ARM GAS  /tmp/ccc7PQh8.s 			page 17


 819 03b4 0023     		movs	r3, #0
 820 03b6 0993     		str	r3, [sp, #36]
 821 03b8 0893     		str	r3, [sp, #32]
 822 03ba 0F9A     		ldr	r2, [sp, #60]
 823 03bc 0792     		str	r2, [sp, #28]
 824 03be 0693     		str	r3, [sp, #24]
 825 03c0 CDF814A0 		str	r10, [sp, #20]
 826 03c4 CDF81090 		str	r9, [sp, #16]
 827 03c8 0397     		str	r7, [sp, #12]
 828 03ca 0290     		str	r0, [sp, #8]	@ float
 829 03cc 0190     		str	r0, [sp, #4]	@ float
 830 03ce CDF80080 		str	r8, [sp]	@ float
 831 03d2 0E9B     		ldr	r3, [sp, #56]	@ float
 832 03d4 0D9A     		ldr	r2, [sp, #52]	@ float
 833 03d6 0C99     		ldr	r1, [sp, #48]	@ float
 834 03d8 0B98     		ldr	r0, [sp, #44]	@ float
 835              	.LVL106:
 836 03da FFF7FEFF 		bl	setCommand
 837              	.LVL107:
 838 03de F9E6     		b	.L20
 839              	.LVL108:
 840              	.L61:
  62:Src/Gcode/GcodeConverter_Gcode.c ****     if(G==28 && XisChanged  && !YisChanged && ZisChanged )   { command.type = GO_HOME_XZ_COMMAND;  
 841              		.loc 1 62 0 is_stmt 1 discriminator 1
 842 03e0 002F     		cmp	r7, #0
 843 03e2 3FF499AE 		beq	.L40
  62:Src/Gcode/GcodeConverter_Gcode.c ****     if(G==28 && XisChanged  && !YisChanged && ZisChanged )   { command.type = GO_HOME_XZ_COMMAND;  
 844              		.loc 1 62 0 is_stmt 0 discriminator 2
 845 03e6 B9F1000F 		cmp	r9, #0
 846 03ea 3FF495AE 		beq	.L40
  62:Src/Gcode/GcodeConverter_Gcode.c ****     if(G==28 && XisChanged  && !YisChanged && ZisChanged )   { command.type = GO_HOME_XZ_COMMAND;  
 847              		.loc 1 62 0 discriminator 3
 848 03ee BAF1000F 		cmp	r10, #0
 849 03f2 7FF491AE 		bne	.L40
  62:Src/Gcode/GcodeConverter_Gcode.c ****     if(G==28 && XisChanged  && !YisChanged && ZisChanged )   { command.type = GO_HOME_XZ_COMMAND;  
 850              		.loc 1 62 0 discriminator 4
 851 03f6 1E4B     		ldr	r3, .L65
 852              	.LVL109:
 853 03f8 0622     		movs	r2, #6
 854 03fa 1A70     		strb	r2, [r3]
 855 03fc 0023     		movs	r3, #0
 856 03fe 0993     		str	r3, [sp, #36]
 857 0400 0893     		str	r3, [sp, #32]
 858 0402 0F9A     		ldr	r2, [sp, #60]
 859 0404 0792     		str	r2, [sp, #28]
 860 0406 0693     		str	r3, [sp, #24]
 861 0408 CDF814A0 		str	r10, [sp, #20]
 862 040c CDF81090 		str	r9, [sp, #16]
 863 0410 0397     		str	r7, [sp, #12]
 864 0412 0290     		str	r0, [sp, #8]	@ float
 865 0414 0190     		str	r0, [sp, #4]	@ float
 866 0416 CDF80080 		str	r8, [sp]	@ float
 867 041a 0E9B     		ldr	r3, [sp, #56]	@ float
 868 041c 0D9A     		ldr	r2, [sp, #52]	@ float
 869 041e 0C99     		ldr	r1, [sp, #48]	@ float
 870 0420 0B98     		ldr	r0, [sp, #44]	@ float
 871              	.LVL110:
ARM GAS  /tmp/ccc7PQh8.s 			page 18


 872 0422 FFF7FEFF 		bl	setCommand
 873              	.LVL111:
 874 0426 D5E6     		b	.L20
 875              	.LVL112:
 876              	.L62:
  63:Src/Gcode/GcodeConverter_Gcode.c ****     if(G==28 && !XisChanged && YisChanged  && ZisChanged )   { command.type = GO_HOME_YZ_COMMAND;  
 877              		.loc 1 63 0 is_stmt 1 discriminator 1
 878 0428 002F     		cmp	r7, #0
 879 042a 3FF478AE 		beq	.L41
  63:Src/Gcode/GcodeConverter_Gcode.c ****     if(G==28 && !XisChanged && YisChanged  && ZisChanged )   { command.type = GO_HOME_YZ_COMMAND;  
 880              		.loc 1 63 0 is_stmt 0 discriminator 2
 881 042e B9F1000F 		cmp	r9, #0
 882 0432 7FF474AE 		bne	.L41
  63:Src/Gcode/GcodeConverter_Gcode.c ****     if(G==28 && !XisChanged && YisChanged  && ZisChanged )   { command.type = GO_HOME_YZ_COMMAND;  
 883              		.loc 1 63 0 discriminator 3
 884 0436 BAF1000F 		cmp	r10, #0
 885 043a 3FF470AE 		beq	.L41
  63:Src/Gcode/GcodeConverter_Gcode.c ****     if(G==28 && !XisChanged && YisChanged  && ZisChanged )   { command.type = GO_HOME_YZ_COMMAND;  
 886              		.loc 1 63 0 discriminator 4
 887 043e 0C4B     		ldr	r3, .L65
 888              	.LVL113:
 889 0440 0722     		movs	r2, #7
 890 0442 1A70     		strb	r2, [r3]
 891 0444 0023     		movs	r3, #0
 892 0446 0993     		str	r3, [sp, #36]
 893 0448 0893     		str	r3, [sp, #32]
 894 044a 0F9A     		ldr	r2, [sp, #60]
 895 044c 0792     		str	r2, [sp, #28]
 896 044e 0693     		str	r3, [sp, #24]
 897 0450 CDF814A0 		str	r10, [sp, #20]
 898 0454 CDF81090 		str	r9, [sp, #16]
 899 0458 0397     		str	r7, [sp, #12]
 900 045a 0290     		str	r0, [sp, #8]	@ float
 901 045c 0190     		str	r0, [sp, #4]	@ float
 902 045e CDF80080 		str	r8, [sp]	@ float
 903 0462 0E9B     		ldr	r3, [sp, #56]	@ float
 904 0464 0D9A     		ldr	r2, [sp, #52]	@ float
 905 0466 0C99     		ldr	r1, [sp, #48]	@ float
 906 0468 0B98     		ldr	r0, [sp, #44]	@ float
 907              	.LVL114:
 908 046a FFF7FEFF 		bl	setCommand
 909              	.LVL115:
 910 046e B1E6     		b	.L20
 911              	.L66:
 912              		.align	2
 913              	.L65:
 914 0470 00000000 		.word	.LANCHOR0
 915              		.cfi_endproc
 916              	.LFE6:
 918              		.section	.bss.command,"aw",%nobits
 919              		.align	2
 920              		.set	.LANCHOR0,. + 0
 923              	command:
 924 0000 00000000 		.space	32
 924      00000000 
 924      00000000 
 924      00000000 
ARM GAS  /tmp/ccc7PQh8.s 			page 19


 924      00000000 
 925              		.text
 926              	.Letext0:
 927              		.file 2 "Inc/Gcode/Config_Gcode.h"
 928              		.file 3 "Inc/Gcode/GcodeConverter_Gcode.h"
 929              		.file 4 "/usr/arm-none-eabi/include/machine/_default_types.h"
 930              		.file 5 "/usr/arm-none-eabi/include/sys/lock.h"
 931              		.file 6 "/usr/arm-none-eabi/include/sys/_types.h"
 932              		.file 7 "/usr/lib/gcc/arm-none-eabi/7.3.1/include/stddef.h"
 933              		.file 8 "/usr/arm-none-eabi/include/sys/reent.h"
 934              		.file 9 "/usr/arm-none-eabi/include/sys/_stdint.h"
 935              		.file 10 "/usr/arm-none-eabi/include/stdlib.h"
 936              		.file 11 "/usr/arm-none-eabi/include/string.h"
ARM GAS  /tmp/ccc7PQh8.s 			page 20

