ARM GAS  /tmp/cciXzEoc.s 			page 1


   1              		.cpu cortex-m3
   2              		.eabi_attribute 20, 1
   3              		.eabi_attribute 21, 1
   4              		.eabi_attribute 23, 3
   5              		.eabi_attribute 24, 1
   6              		.eabi_attribute 25, 1
   7              		.eabi_attribute 26, 1
   8              		.eabi_attribute 30, 1
   9              		.eabi_attribute 34, 1
  10              		.eabi_attribute 18, 4
  11              		.file	"GPIO_Motors.c"
  12              		.text
  13              	.Ltext0:
  14              		.cfi_sections	.debug_frame
  15              		.section	.text.EnableX_Motors,"ax",%progbits
  16              		.align	1
  17              		.global	EnableX_Motors
  18              		.arch armv7-m
  19              		.syntax unified
  20              		.thumb
  21              		.thumb_func
  22              		.fpu softvfp
  24              	EnableX_Motors:
  25              	.LFB65:
  26              		.file 1 "Src/Motors/GPIO_Motors.c"
   1:Src/Motors/GPIO_Motors.c **** #include "GPIO_Motors.h"
   2:Src/Motors/GPIO_Motors.c **** 
   3:Src/Motors/GPIO_Motors.c **** #include "main.h"
   4:Src/Motors/GPIO_Motors.c **** #include "tim.h"
   5:Src/Motors/GPIO_Motors.c **** #include "gpio.h"
   6:Src/Motors/GPIO_Motors.c **** #include "stm32f1xx_hal.h"
   7:Src/Motors/GPIO_Motors.c **** 
   8:Src/Motors/GPIO_Motors.c **** #include "coordinates.h"
   9:Src/Motors/GPIO_Motors.c **** 
  10:Src/Motors/GPIO_Motors.c **** void EnableX_Motors(void)   {HAL_GPIO_WritePin(EN_X_GPIO_Port, EN_X_Pin, GPIO_PIN_RESET);       }
  27              		.loc 1 10 29 view -0
  28              		.cfi_startproc
  29              		@ args = 0, pretend = 0, frame = 0
  30              		@ frame_needed = 0, uses_anonymous_args = 0
  31 0000 08B5     		push	{r3, lr}
  32              	.LCFI0:
  33              		.cfi_def_cfa_offset 8
  34              		.cfi_offset 3, -8
  35              		.cfi_offset 14, -4
  36              		.loc 1 10 30 view .LVU1
  37 0002 0022     		movs	r2, #0
  38 0004 4FF40041 		mov	r1, #32768
  39 0008 0148     		ldr	r0, .L3
  40 000a FFF7FEFF 		bl	HAL_GPIO_WritePin
  41              	.LVL0:
  42              		.loc 1 10 1 is_stmt 0 view .LVU2
  43 000e 08BD     		pop	{r3, pc}
  44              	.L4:
  45              		.align	2
  46              	.L3:
  47 0010 000C0140 		.word	1073810432
  48              		.cfi_endproc
ARM GAS  /tmp/cciXzEoc.s 			page 2


  49              	.LFE65:
  51              		.section	.text.DisableX_Motors,"ax",%progbits
  52              		.align	1
  53              		.global	DisableX_Motors
  54              		.syntax unified
  55              		.thumb
  56              		.thumb_func
  57              		.fpu softvfp
  59              	DisableX_Motors:
  60              	.LFB66:
  11:Src/Motors/GPIO_Motors.c **** void DisableX_Motors(void)  {HAL_GPIO_WritePin(EN_X_GPIO_Port, EN_X_Pin, GPIO_PIN_SET);         }
  61              		.loc 1 11 29 is_stmt 1 view -0
  62              		.cfi_startproc
  63              		@ args = 0, pretend = 0, frame = 0
  64              		@ frame_needed = 0, uses_anonymous_args = 0
  65 0000 08B5     		push	{r3, lr}
  66              	.LCFI1:
  67              		.cfi_def_cfa_offset 8
  68              		.cfi_offset 3, -8
  69              		.cfi_offset 14, -4
  70              		.loc 1 11 30 view .LVU4
  71 0002 0122     		movs	r2, #1
  72 0004 4FF40041 		mov	r1, #32768
  73 0008 0148     		ldr	r0, .L7
  74 000a FFF7FEFF 		bl	HAL_GPIO_WritePin
  75              	.LVL1:
  76              		.loc 1 11 1 is_stmt 0 view .LVU5
  77 000e 08BD     		pop	{r3, pc}
  78              	.L8:
  79              		.align	2
  80              	.L7:
  81 0010 000C0140 		.word	1073810432
  82              		.cfi_endproc
  83              	.LFE66:
  85              		.section	.text.ForwardX_Motors,"ax",%progbits
  86              		.align	1
  87              		.global	ForwardX_Motors
  88              		.syntax unified
  89              		.thumb
  90              		.thumb_func
  91              		.fpu softvfp
  93              	ForwardX_Motors:
  94              	.LFB67:
  12:Src/Motors/GPIO_Motors.c **** void ForwardX_Motors(void)  {HAL_GPIO_WritePin(DIR_X_GPIO_Port, DIR_X_Pin, GPIO_PIN_SET);       inc
  95              		.loc 1 12 29 is_stmt 1 view -0
  96              		.cfi_startproc
  97              		@ args = 0, pretend = 0, frame = 0
  98              		@ frame_needed = 0, uses_anonymous_args = 0
  99 0000 08B5     		push	{r3, lr}
 100              	.LCFI2:
 101              		.cfi_def_cfa_offset 8
 102              		.cfi_offset 3, -8
 103              		.cfi_offset 14, -4
 104              		.loc 1 12 30 view .LVU7
 105 0002 0122     		movs	r2, #1
 106 0004 4FF40051 		mov	r1, #8192
 107 0008 0248     		ldr	r0, .L11
ARM GAS  /tmp/cciXzEoc.s 			page 3


 108 000a FFF7FEFF 		bl	HAL_GPIO_WritePin
 109              	.LVL2:
 110              		.loc 1 12 97 view .LVU8
 111 000e FFF7FEFF 		bl	incX_coordinates
 112              	.LVL3:
 113              		.loc 1 12 1 is_stmt 0 view .LVU9
 114 0012 08BD     		pop	{r3, pc}
 115              	.L12:
 116              		.align	2
 117              	.L11:
 118 0014 000C0140 		.word	1073810432
 119              		.cfi_endproc
 120              	.LFE67:
 122              		.section	.text.BackwardX_Motors,"ax",%progbits
 123              		.align	1
 124              		.global	BackwardX_Motors
 125              		.syntax unified
 126              		.thumb
 127              		.thumb_func
 128              		.fpu softvfp
 130              	BackwardX_Motors:
 131              	.LFB68:
  13:Src/Motors/GPIO_Motors.c **** void BackwardX_Motors(void) {HAL_GPIO_WritePin(DIR_X_GPIO_Port, DIR_X_Pin, GPIO_PIN_RESET);     dec
 132              		.loc 1 13 29 is_stmt 1 view -0
 133              		.cfi_startproc
 134              		@ args = 0, pretend = 0, frame = 0
 135              		@ frame_needed = 0, uses_anonymous_args = 0
 136 0000 08B5     		push	{r3, lr}
 137              	.LCFI3:
 138              		.cfi_def_cfa_offset 8
 139              		.cfi_offset 3, -8
 140              		.cfi_offset 14, -4
 141              		.loc 1 13 30 view .LVU11
 142 0002 0022     		movs	r2, #0
 143 0004 4FF40051 		mov	r1, #8192
 144 0008 0248     		ldr	r0, .L15
 145 000a FFF7FEFF 		bl	HAL_GPIO_WritePin
 146              	.LVL4:
 147              		.loc 1 13 97 view .LVU12
 148 000e FFF7FEFF 		bl	decX_coordinates
 149              	.LVL5:
 150              		.loc 1 13 1 is_stmt 0 view .LVU13
 151 0012 08BD     		pop	{r3, pc}
 152              	.L16:
 153              		.align	2
 154              	.L15:
 155 0014 000C0140 		.word	1073810432
 156              		.cfi_endproc
 157              	.LFE68:
 159              		.section	.text.StepOnX_Motors,"ax",%progbits
 160              		.align	1
 161              		.global	StepOnX_Motors
 162              		.syntax unified
 163              		.thumb
 164              		.thumb_func
 165              		.fpu softvfp
 167              	StepOnX_Motors:
ARM GAS  /tmp/cciXzEoc.s 			page 4


 168              	.LFB69:
  14:Src/Motors/GPIO_Motors.c **** void StepOnX_Motors(void)   {HAL_GPIO_WritePin(STEP_X_GPIO_Port, STEP_X_Pin, GPIO_PIN_SET);     }
 169              		.loc 1 14 29 is_stmt 1 view -0
 170              		.cfi_startproc
 171              		@ args = 0, pretend = 0, frame = 0
 172              		@ frame_needed = 0, uses_anonymous_args = 0
 173 0000 08B5     		push	{r3, lr}
 174              	.LCFI4:
 175              		.cfi_def_cfa_offset 8
 176              		.cfi_offset 3, -8
 177              		.cfi_offset 14, -4
 178              		.loc 1 14 30 view .LVU15
 179 0002 0122     		movs	r2, #1
 180 0004 4FF48041 		mov	r1, #16384
 181 0008 0148     		ldr	r0, .L19
 182 000a FFF7FEFF 		bl	HAL_GPIO_WritePin
 183              	.LVL6:
 184              		.loc 1 14 1 is_stmt 0 view .LVU16
 185 000e 08BD     		pop	{r3, pc}
 186              	.L20:
 187              		.align	2
 188              	.L19:
 189 0010 000C0140 		.word	1073810432
 190              		.cfi_endproc
 191              	.LFE69:
 193              		.section	.text.StepOffX_Motors,"ax",%progbits
 194              		.align	1
 195              		.global	StepOffX_Motors
 196              		.syntax unified
 197              		.thumb
 198              		.thumb_func
 199              		.fpu softvfp
 201              	StepOffX_Motors:
 202              	.LFB70:
  15:Src/Motors/GPIO_Motors.c **** void StepOffX_Motors(void)  {HAL_GPIO_WritePin(STEP_X_GPIO_Port, STEP_X_Pin, GPIO_PIN_RESET);   }
 203              		.loc 1 15 29 is_stmt 1 view -0
 204              		.cfi_startproc
 205              		@ args = 0, pretend = 0, frame = 0
 206              		@ frame_needed = 0, uses_anonymous_args = 0
 207 0000 08B5     		push	{r3, lr}
 208              	.LCFI5:
 209              		.cfi_def_cfa_offset 8
 210              		.cfi_offset 3, -8
 211              		.cfi_offset 14, -4
 212              		.loc 1 15 30 view .LVU18
 213 0002 0022     		movs	r2, #0
 214 0004 4FF48041 		mov	r1, #16384
 215 0008 0148     		ldr	r0, .L23
 216 000a FFF7FEFF 		bl	HAL_GPIO_WritePin
 217              	.LVL7:
 218              		.loc 1 15 1 is_stmt 0 view .LVU19
 219 000e 08BD     		pop	{r3, pc}
 220              	.L24:
 221              		.align	2
 222              	.L23:
 223 0010 000C0140 		.word	1073810432
 224              		.cfi_endproc
ARM GAS  /tmp/cciXzEoc.s 			page 5


 225              	.LFE70:
 227              		.section	.text.EnableY_Motors,"ax",%progbits
 228              		.align	1
 229              		.global	EnableY_Motors
 230              		.syntax unified
 231              		.thumb
 232              		.thumb_func
 233              		.fpu softvfp
 235              	EnableY_Motors:
 236              	.LFB71:
  16:Src/Motors/GPIO_Motors.c **** void EnableY_Motors(void)   {HAL_GPIO_WritePin(EN_Y_GPIO_Port, EN_Y_Pin, GPIO_PIN_RESET);       }
 237              		.loc 1 16 29 is_stmt 1 view -0
 238              		.cfi_startproc
 239              		@ args = 0, pretend = 0, frame = 0
 240              		@ frame_needed = 0, uses_anonymous_args = 0
 241 0000 08B5     		push	{r3, lr}
 242              	.LCFI6:
 243              		.cfi_def_cfa_offset 8
 244              		.cfi_offset 3, -8
 245              		.cfi_offset 14, -4
 246              		.loc 1 16 30 view .LVU21
 247 0002 0022     		movs	r2, #0
 248 0004 4FF48061 		mov	r1, #1024
 249 0008 0148     		ldr	r0, .L27
 250 000a FFF7FEFF 		bl	HAL_GPIO_WritePin
 251              	.LVL8:
 252              		.loc 1 16 1 is_stmt 0 view .LVU22
 253 000e 08BD     		pop	{r3, pc}
 254              	.L28:
 255              		.align	2
 256              	.L27:
 257 0010 000C0140 		.word	1073810432
 258              		.cfi_endproc
 259              	.LFE71:
 261              		.section	.text.DisableY_Motors,"ax",%progbits
 262              		.align	1
 263              		.global	DisableY_Motors
 264              		.syntax unified
 265              		.thumb
 266              		.thumb_func
 267              		.fpu softvfp
 269              	DisableY_Motors:
 270              	.LFB72:
  17:Src/Motors/GPIO_Motors.c **** void DisableY_Motors(void)  {HAL_GPIO_WritePin(EN_Y_GPIO_Port, EN_Y_Pin, GPIO_PIN_SET);         }
 271              		.loc 1 17 29 is_stmt 1 view -0
 272              		.cfi_startproc
 273              		@ args = 0, pretend = 0, frame = 0
 274              		@ frame_needed = 0, uses_anonymous_args = 0
 275 0000 08B5     		push	{r3, lr}
 276              	.LCFI7:
 277              		.cfi_def_cfa_offset 8
 278              		.cfi_offset 3, -8
 279              		.cfi_offset 14, -4
 280              		.loc 1 17 30 view .LVU24
 281 0002 0122     		movs	r2, #1
 282 0004 4FF48061 		mov	r1, #1024
 283 0008 0148     		ldr	r0, .L31
ARM GAS  /tmp/cciXzEoc.s 			page 6


 284 000a FFF7FEFF 		bl	HAL_GPIO_WritePin
 285              	.LVL9:
 286              		.loc 1 17 1 is_stmt 0 view .LVU25
 287 000e 08BD     		pop	{r3, pc}
 288              	.L32:
 289              		.align	2
 290              	.L31:
 291 0010 000C0140 		.word	1073810432
 292              		.cfi_endproc
 293              	.LFE72:
 295              		.section	.text.ForwardY_Motors,"ax",%progbits
 296              		.align	1
 297              		.global	ForwardY_Motors
 298              		.syntax unified
 299              		.thumb
 300              		.thumb_func
 301              		.fpu softvfp
 303              	ForwardY_Motors:
 304              	.LFB73:
  18:Src/Motors/GPIO_Motors.c **** void ForwardY_Motors(void)  {HAL_GPIO_WritePin(DIR_Y_GPIO_Port, DIR_Y_Pin, GPIO_PIN_SET);       inc
 305              		.loc 1 18 29 is_stmt 1 view -0
 306              		.cfi_startproc
 307              		@ args = 0, pretend = 0, frame = 0
 308              		@ frame_needed = 0, uses_anonymous_args = 0
 309 0000 08B5     		push	{r3, lr}
 310              	.LCFI8:
 311              		.cfi_def_cfa_offset 8
 312              		.cfi_offset 3, -8
 313              		.cfi_offset 14, -4
 314              		.loc 1 18 30 view .LVU27
 315 0002 0122     		movs	r2, #1
 316 0004 4FF48051 		mov	r1, #4096
 317 0008 0248     		ldr	r0, .L35
 318 000a FFF7FEFF 		bl	HAL_GPIO_WritePin
 319              	.LVL10:
 320              		.loc 1 18 97 view .LVU28
 321 000e FFF7FEFF 		bl	incY_coordinates
 322              	.LVL11:
 323              		.loc 1 18 1 is_stmt 0 view .LVU29
 324 0012 08BD     		pop	{r3, pc}
 325              	.L36:
 326              		.align	2
 327              	.L35:
 328 0014 000C0140 		.word	1073810432
 329              		.cfi_endproc
 330              	.LFE73:
 332              		.section	.text.BackwardY_Motors,"ax",%progbits
 333              		.align	1
 334              		.global	BackwardY_Motors
 335              		.syntax unified
 336              		.thumb
 337              		.thumb_func
 338              		.fpu softvfp
 340              	BackwardY_Motors:
 341              	.LFB74:
  19:Src/Motors/GPIO_Motors.c **** void BackwardY_Motors(void) {HAL_GPIO_WritePin(DIR_Y_GPIO_Port, DIR_Y_Pin, GPIO_PIN_RESET);     dec
 342              		.loc 1 19 29 is_stmt 1 view -0
ARM GAS  /tmp/cciXzEoc.s 			page 7


 343              		.cfi_startproc
 344              		@ args = 0, pretend = 0, frame = 0
 345              		@ frame_needed = 0, uses_anonymous_args = 0
 346 0000 08B5     		push	{r3, lr}
 347              	.LCFI9:
 348              		.cfi_def_cfa_offset 8
 349              		.cfi_offset 3, -8
 350              		.cfi_offset 14, -4
 351              		.loc 1 19 30 view .LVU31
 352 0002 0022     		movs	r2, #0
 353 0004 4FF48051 		mov	r1, #4096
 354 0008 0248     		ldr	r0, .L39
 355 000a FFF7FEFF 		bl	HAL_GPIO_WritePin
 356              	.LVL12:
 357              		.loc 1 19 97 view .LVU32
 358 000e FFF7FEFF 		bl	decY_coordinates
 359              	.LVL13:
 360              		.loc 1 19 1 is_stmt 0 view .LVU33
 361 0012 08BD     		pop	{r3, pc}
 362              	.L40:
 363              		.align	2
 364              	.L39:
 365 0014 000C0140 		.word	1073810432
 366              		.cfi_endproc
 367              	.LFE74:
 369              		.section	.text.StepOnY_Motors,"ax",%progbits
 370              		.align	1
 371              		.global	StepOnY_Motors
 372              		.syntax unified
 373              		.thumb
 374              		.thumb_func
 375              		.fpu softvfp
 377              	StepOnY_Motors:
 378              	.LFB75:
  20:Src/Motors/GPIO_Motors.c **** void StepOnY_Motors(void)   {HAL_GPIO_WritePin(STEP_Y_GPIO_Port, STEP_Y_Pin, GPIO_PIN_SET);     }
 379              		.loc 1 20 29 is_stmt 1 view -0
 380              		.cfi_startproc
 381              		@ args = 0, pretend = 0, frame = 0
 382              		@ frame_needed = 0, uses_anonymous_args = 0
 383 0000 08B5     		push	{r3, lr}
 384              	.LCFI10:
 385              		.cfi_def_cfa_offset 8
 386              		.cfi_offset 3, -8
 387              		.cfi_offset 14, -4
 388              		.loc 1 20 30 view .LVU35
 389 0002 0122     		movs	r2, #1
 390 0004 4FF40061 		mov	r1, #2048
 391 0008 0148     		ldr	r0, .L43
 392 000a FFF7FEFF 		bl	HAL_GPIO_WritePin
 393              	.LVL14:
 394              		.loc 1 20 1 is_stmt 0 view .LVU36
 395 000e 08BD     		pop	{r3, pc}
 396              	.L44:
 397              		.align	2
 398              	.L43:
 399 0010 000C0140 		.word	1073810432
 400              		.cfi_endproc
ARM GAS  /tmp/cciXzEoc.s 			page 8


 401              	.LFE75:
 403              		.section	.text.StepOffY_Motors,"ax",%progbits
 404              		.align	1
 405              		.global	StepOffY_Motors
 406              		.syntax unified
 407              		.thumb
 408              		.thumb_func
 409              		.fpu softvfp
 411              	StepOffY_Motors:
 412              	.LFB76:
  21:Src/Motors/GPIO_Motors.c **** void StepOffY_Motors(void)  {HAL_GPIO_WritePin(STEP_Y_GPIO_Port, STEP_Y_Pin, GPIO_PIN_RESET);   }
 413              		.loc 1 21 29 is_stmt 1 view -0
 414              		.cfi_startproc
 415              		@ args = 0, pretend = 0, frame = 0
 416              		@ frame_needed = 0, uses_anonymous_args = 0
 417 0000 08B5     		push	{r3, lr}
 418              	.LCFI11:
 419              		.cfi_def_cfa_offset 8
 420              		.cfi_offset 3, -8
 421              		.cfi_offset 14, -4
 422              		.loc 1 21 30 view .LVU38
 423 0002 0022     		movs	r2, #0
 424 0004 4FF40061 		mov	r1, #2048
 425 0008 0148     		ldr	r0, .L47
 426 000a FFF7FEFF 		bl	HAL_GPIO_WritePin
 427              	.LVL15:
 428              		.loc 1 21 1 is_stmt 0 view .LVU39
 429 000e 08BD     		pop	{r3, pc}
 430              	.L48:
 431              		.align	2
 432              	.L47:
 433 0010 000C0140 		.word	1073810432
 434              		.cfi_endproc
 435              	.LFE76:
 437              		.section	.text.EnableZ_Motors,"ax",%progbits
 438              		.align	1
 439              		.global	EnableZ_Motors
 440              		.syntax unified
 441              		.thumb
 442              		.thumb_func
 443              		.fpu softvfp
 445              	EnableZ_Motors:
 446              	.LFB77:
  22:Src/Motors/GPIO_Motors.c **** void EnableZ_Motors(void)   {HAL_GPIO_WritePin(EN_Z1_GPIO_Port, EN_Z1_Pin, GPIO_PIN_RESET);     HAL
 447              		.loc 1 22 29 is_stmt 1 view -0
 448              		.cfi_startproc
 449              		@ args = 0, pretend = 0, frame = 0
 450              		@ frame_needed = 0, uses_anonymous_args = 0
 451 0000 10B5     		push	{r4, lr}
 452              	.LCFI12:
 453              		.cfi_def_cfa_offset 8
 454              		.cfi_offset 4, -8
 455              		.cfi_offset 14, -4
 456              		.loc 1 22 30 view .LVU41
 457 0002 074C     		ldr	r4, .L51
 458 0004 0022     		movs	r2, #0
 459 0006 4FF40051 		mov	r1, #8192
ARM GAS  /tmp/cciXzEoc.s 			page 9


 460 000a 2046     		mov	r0, r4
 461 000c FFF7FEFF 		bl	HAL_GPIO_WritePin
 462              	.LVL16:
 463              		.loc 1 22 97 view .LVU42
 464 0010 0022     		movs	r2, #0
 465 0012 4FF48061 		mov	r1, #1024
 466 0016 2046     		mov	r0, r4
 467 0018 FFF7FEFF 		bl	HAL_GPIO_WritePin
 468              	.LVL17:
 469              		.loc 1 22 1 is_stmt 0 view .LVU43
 470 001c 10BD     		pop	{r4, pc}
 471              	.L52:
 472 001e 00BF     		.align	2
 473              	.L51:
 474 0020 00180140 		.word	1073813504
 475              		.cfi_endproc
 476              	.LFE77:
 478              		.section	.text.DisableZ_Motors,"ax",%progbits
 479              		.align	1
 480              		.global	DisableZ_Motors
 481              		.syntax unified
 482              		.thumb
 483              		.thumb_func
 484              		.fpu softvfp
 486              	DisableZ_Motors:
 487              	.LFB78:
  23:Src/Motors/GPIO_Motors.c **** void DisableZ_Motors(void)  {HAL_GPIO_WritePin(EN_Z1_GPIO_Port, EN_Z1_Pin, GPIO_PIN_SET);       HAL
 488              		.loc 1 23 29 is_stmt 1 view -0
 489              		.cfi_startproc
 490              		@ args = 0, pretend = 0, frame = 0
 491              		@ frame_needed = 0, uses_anonymous_args = 0
 492 0000 10B5     		push	{r4, lr}
 493              	.LCFI13:
 494              		.cfi_def_cfa_offset 8
 495              		.cfi_offset 4, -8
 496              		.cfi_offset 14, -4
 497              		.loc 1 23 30 view .LVU45
 498 0002 074C     		ldr	r4, .L55
 499 0004 0122     		movs	r2, #1
 500 0006 4FF40051 		mov	r1, #8192
 501 000a 2046     		mov	r0, r4
 502 000c FFF7FEFF 		bl	HAL_GPIO_WritePin
 503              	.LVL18:
 504              		.loc 1 23 97 view .LVU46
 505 0010 0122     		movs	r2, #1
 506 0012 4FF48061 		mov	r1, #1024
 507 0016 2046     		mov	r0, r4
 508 0018 FFF7FEFF 		bl	HAL_GPIO_WritePin
 509              	.LVL19:
 510              		.loc 1 23 1 is_stmt 0 view .LVU47
 511 001c 10BD     		pop	{r4, pc}
 512              	.L56:
 513 001e 00BF     		.align	2
 514              	.L55:
 515 0020 00180140 		.word	1073813504
 516              		.cfi_endproc
 517              	.LFE78:
ARM GAS  /tmp/cciXzEoc.s 			page 10


 519              		.section	.text.ForwardZ_Motors,"ax",%progbits
 520              		.align	1
 521              		.global	ForwardZ_Motors
 522              		.syntax unified
 523              		.thumb
 524              		.thumb_func
 525              		.fpu softvfp
 527              	ForwardZ_Motors:
 528              	.LFB79:
  24:Src/Motors/GPIO_Motors.c **** void ForwardZ_Motors(void)  {HAL_GPIO_WritePin(DIR_Z1_GPIO_Port, DIR_Z1_Pin, GPIO_PIN_SET);     HAL
 529              		.loc 1 24 29 is_stmt 1 view -0
 530              		.cfi_startproc
 531              		@ args = 0, pretend = 0, frame = 0
 532              		@ frame_needed = 0, uses_anonymous_args = 0
 533 0000 10B5     		push	{r4, lr}
 534              	.LCFI14:
 535              		.cfi_def_cfa_offset 8
 536              		.cfi_offset 4, -8
 537              		.cfi_offset 14, -4
 538              		.loc 1 24 30 view .LVU49
 539 0002 084C     		ldr	r4, .L59
 540 0004 0122     		movs	r2, #1
 541 0006 4FF40041 		mov	r1, #32768
 542 000a 2046     		mov	r0, r4
 543 000c FFF7FEFF 		bl	HAL_GPIO_WritePin
 544              	.LVL20:
 545              		.loc 1 24 97 view .LVU50
 546 0010 0122     		movs	r2, #1
 547 0012 4FF48051 		mov	r1, #4096
 548 0016 2046     		mov	r0, r4
 549 0018 FFF7FEFF 		bl	HAL_GPIO_WritePin
 550              	.LVL21:
 551              		.loc 1 24 165 view .LVU51
 552 001c FFF7FEFF 		bl	incZ_coordinates
 553              	.LVL22:
 554              		.loc 1 24 1 is_stmt 0 view .LVU52
 555 0020 10BD     		pop	{r4, pc}
 556              	.L60:
 557 0022 00BF     		.align	2
 558              	.L59:
 559 0024 00180140 		.word	1073813504
 560              		.cfi_endproc
 561              	.LFE79:
 563              		.section	.text.BackwardZ_Motors,"ax",%progbits
 564              		.align	1
 565              		.global	BackwardZ_Motors
 566              		.syntax unified
 567              		.thumb
 568              		.thumb_func
 569              		.fpu softvfp
 571              	BackwardZ_Motors:
 572              	.LFB80:
  25:Src/Motors/GPIO_Motors.c **** void BackwardZ_Motors(void) {HAL_GPIO_WritePin(DIR_Z1_GPIO_Port, DIR_Z1_Pin, GPIO_PIN_RESET);   HAL
 573              		.loc 1 25 29 is_stmt 1 view -0
 574              		.cfi_startproc
 575              		@ args = 0, pretend = 0, frame = 0
 576              		@ frame_needed = 0, uses_anonymous_args = 0
ARM GAS  /tmp/cciXzEoc.s 			page 11


 577 0000 10B5     		push	{r4, lr}
 578              	.LCFI15:
 579              		.cfi_def_cfa_offset 8
 580              		.cfi_offset 4, -8
 581              		.cfi_offset 14, -4
 582              		.loc 1 25 30 view .LVU54
 583 0002 084C     		ldr	r4, .L63
 584 0004 0022     		movs	r2, #0
 585 0006 4FF40041 		mov	r1, #32768
 586 000a 2046     		mov	r0, r4
 587 000c FFF7FEFF 		bl	HAL_GPIO_WritePin
 588              	.LVL23:
 589              		.loc 1 25 97 view .LVU55
 590 0010 0022     		movs	r2, #0
 591 0012 4FF48051 		mov	r1, #4096
 592 0016 2046     		mov	r0, r4
 593 0018 FFF7FEFF 		bl	HAL_GPIO_WritePin
 594              	.LVL24:
 595              		.loc 1 25 165 view .LVU56
 596 001c FFF7FEFF 		bl	decZ_coordinates
 597              	.LVL25:
 598              		.loc 1 25 1 is_stmt 0 view .LVU57
 599 0020 10BD     		pop	{r4, pc}
 600              	.L64:
 601 0022 00BF     		.align	2
 602              	.L63:
 603 0024 00180140 		.word	1073813504
 604              		.cfi_endproc
 605              	.LFE80:
 607              		.section	.text.StepOnZ_Motors,"ax",%progbits
 608              		.align	1
 609              		.global	StepOnZ_Motors
 610              		.syntax unified
 611              		.thumb
 612              		.thumb_func
 613              		.fpu softvfp
 615              	StepOnZ_Motors:
 616              	.LFB81:
  26:Src/Motors/GPIO_Motors.c **** void StepOnZ_Motors(void)   {HAL_GPIO_WritePin(STEP_Z1_GPIO_Port, STEP_Z1_Pin, GPIO_PIN_SET);   HAL
 617              		.loc 1 26 29 is_stmt 1 view -0
 618              		.cfi_startproc
 619              		@ args = 0, pretend = 0, frame = 0
 620              		@ frame_needed = 0, uses_anonymous_args = 0
 621 0000 10B5     		push	{r4, lr}
 622              	.LCFI16:
 623              		.cfi_def_cfa_offset 8
 624              		.cfi_offset 4, -8
 625              		.cfi_offset 14, -4
 626              		.loc 1 26 30 view .LVU59
 627 0002 074C     		ldr	r4, .L67
 628 0004 0122     		movs	r2, #1
 629 0006 4FF48041 		mov	r1, #16384
 630 000a 2046     		mov	r0, r4
 631 000c FFF7FEFF 		bl	HAL_GPIO_WritePin
 632              	.LVL26:
 633              		.loc 1 26 97 view .LVU60
 634 0010 0122     		movs	r2, #1
ARM GAS  /tmp/cciXzEoc.s 			page 12


 635 0012 4FF40061 		mov	r1, #2048
 636 0016 2046     		mov	r0, r4
 637 0018 FFF7FEFF 		bl	HAL_GPIO_WritePin
 638              	.LVL27:
 639              		.loc 1 26 1 is_stmt 0 view .LVU61
 640 001c 10BD     		pop	{r4, pc}
 641              	.L68:
 642 001e 00BF     		.align	2
 643              	.L67:
 644 0020 00180140 		.word	1073813504
 645              		.cfi_endproc
 646              	.LFE81:
 648              		.section	.text.StepOffZ_Motors,"ax",%progbits
 649              		.align	1
 650              		.global	StepOffZ_Motors
 651              		.syntax unified
 652              		.thumb
 653              		.thumb_func
 654              		.fpu softvfp
 656              	StepOffZ_Motors:
 657              	.LFB82:
  27:Src/Motors/GPIO_Motors.c **** void StepOffZ_Motors(void)  {HAL_GPIO_WritePin(STEP_Z1_GPIO_Port, STEP_Z1_Pin, GPIO_PIN_RESET); HAL
 658              		.loc 1 27 29 is_stmt 1 view -0
 659              		.cfi_startproc
 660              		@ args = 0, pretend = 0, frame = 0
 661              		@ frame_needed = 0, uses_anonymous_args = 0
 662 0000 10B5     		push	{r4, lr}
 663              	.LCFI17:
 664              		.cfi_def_cfa_offset 8
 665              		.cfi_offset 4, -8
 666              		.cfi_offset 14, -4
 667              		.loc 1 27 30 view .LVU63
 668 0002 074C     		ldr	r4, .L71
 669 0004 0022     		movs	r2, #0
 670 0006 4FF48041 		mov	r1, #16384
 671 000a 2046     		mov	r0, r4
 672 000c FFF7FEFF 		bl	HAL_GPIO_WritePin
 673              	.LVL28:
 674              		.loc 1 27 97 view .LVU64
 675 0010 0022     		movs	r2, #0
 676 0012 4FF40061 		mov	r1, #2048
 677 0016 2046     		mov	r0, r4
 678 0018 FFF7FEFF 		bl	HAL_GPIO_WritePin
 679              	.LVL29:
 680              		.loc 1 27 1 is_stmt 0 view .LVU65
 681 001c 10BD     		pop	{r4, pc}
 682              	.L72:
 683 001e 00BF     		.align	2
 684              	.L71:
 685 0020 00180140 		.word	1073813504
 686              		.cfi_endproc
 687              	.LFE82:
 689              		.section	.text.EnableE_Motors,"ax",%progbits
 690              		.align	1
 691              		.global	EnableE_Motors
 692              		.syntax unified
 693              		.thumb
ARM GAS  /tmp/cciXzEoc.s 			page 13


 694              		.thumb_func
 695              		.fpu softvfp
 697              	EnableE_Motors:
 698              	.LFB83:
  28:Src/Motors/GPIO_Motors.c **** void EnableE_Motors(void)   {HAL_GPIO_WritePin(EN_E1_GPIO_Port, EN_E1_Pin, GPIO_PIN_RESET);     HAL
 699              		.loc 1 28 29 is_stmt 1 view -0
 700              		.cfi_startproc
 701              		@ args = 0, pretend = 0, frame = 0
 702              		@ frame_needed = 0, uses_anonymous_args = 0
 703 0000 08B5     		push	{r3, lr}
 704              	.LCFI18:
 705              		.cfi_def_cfa_offset 8
 706              		.cfi_offset 3, -8
 707              		.cfi_offset 14, -4
 708              		.loc 1 28 30 view .LVU67
 709 0002 0022     		movs	r2, #0
 710 0004 8021     		movs	r1, #128
 711 0006 0448     		ldr	r0, .L75
 712 0008 FFF7FEFF 		bl	HAL_GPIO_WritePin
 713              	.LVL30:
 714              		.loc 1 28 97 view .LVU68
 715 000c 0022     		movs	r2, #0
 716 000e 8021     		movs	r1, #128
 717 0010 0248     		ldr	r0, .L75+4
 718 0012 FFF7FEFF 		bl	HAL_GPIO_WritePin
 719              	.LVL31:
 720              		.loc 1 28 1 is_stmt 0 view .LVU69
 721 0016 08BD     		pop	{r3, pc}
 722              	.L76:
 723              		.align	2
 724              	.L75:
 725 0018 00180140 		.word	1073813504
 726 001c 00080140 		.word	1073809408
 727              		.cfi_endproc
 728              	.LFE83:
 730              		.section	.text.DisableE_Motors,"ax",%progbits
 731              		.align	1
 732              		.global	DisableE_Motors
 733              		.syntax unified
 734              		.thumb
 735              		.thumb_func
 736              		.fpu softvfp
 738              	DisableE_Motors:
 739              	.LFB84:
  29:Src/Motors/GPIO_Motors.c **** void DisableE_Motors(void)  {HAL_GPIO_WritePin(EN_E1_GPIO_Port, EN_E1_Pin, GPIO_PIN_SET);       HAL
 740              		.loc 1 29 29 is_stmt 1 view -0
 741              		.cfi_startproc
 742              		@ args = 0, pretend = 0, frame = 0
 743              		@ frame_needed = 0, uses_anonymous_args = 0
 744 0000 08B5     		push	{r3, lr}
 745              	.LCFI19:
 746              		.cfi_def_cfa_offset 8
 747              		.cfi_offset 3, -8
 748              		.cfi_offset 14, -4
 749              		.loc 1 29 30 view .LVU71
 750 0002 0122     		movs	r2, #1
 751 0004 8021     		movs	r1, #128
ARM GAS  /tmp/cciXzEoc.s 			page 14


 752 0006 0448     		ldr	r0, .L79
 753 0008 FFF7FEFF 		bl	HAL_GPIO_WritePin
 754              	.LVL32:
 755              		.loc 1 29 97 view .LVU72
 756 000c 0122     		movs	r2, #1
 757 000e 8021     		movs	r1, #128
 758 0010 0248     		ldr	r0, .L79+4
 759 0012 FFF7FEFF 		bl	HAL_GPIO_WritePin
 760              	.LVL33:
 761              		.loc 1 29 1 is_stmt 0 view .LVU73
 762 0016 08BD     		pop	{r3, pc}
 763              	.L80:
 764              		.align	2
 765              	.L79:
 766 0018 00180140 		.word	1073813504
 767 001c 00080140 		.word	1073809408
 768              		.cfi_endproc
 769              	.LFE84:
 771              		.section	.text.ForwardE_Motors,"ax",%progbits
 772              		.align	1
 773              		.global	ForwardE_Motors
 774              		.syntax unified
 775              		.thumb
 776              		.thumb_func
 777              		.fpu softvfp
 779              	ForwardE_Motors:
 780              	.LFB85:
  30:Src/Motors/GPIO_Motors.c **** void ForwardE_Motors(void)  {HAL_GPIO_WritePin(DIR_E1_GPIO_Port, DIR_E1_Pin, GPIO_PIN_SET);     HAL
 781              		.loc 1 30 29 is_stmt 1 view -0
 782              		.cfi_startproc
 783              		@ args = 0, pretend = 0, frame = 0
 784              		@ frame_needed = 0, uses_anonymous_args = 0
 785 0000 08B5     		push	{r3, lr}
 786              	.LCFI20:
 787              		.cfi_def_cfa_offset 8
 788              		.cfi_offset 3, -8
 789              		.cfi_offset 14, -4
 790              		.loc 1 30 30 view .LVU75
 791 0002 0122     		movs	r2, #1
 792 0004 4FF40071 		mov	r1, #512
 793 0008 0548     		ldr	r0, .L83
 794 000a FFF7FEFF 		bl	HAL_GPIO_WritePin
 795              	.LVL34:
 796              		.loc 1 30 97 view .LVU76
 797 000e 0122     		movs	r2, #1
 798 0010 2021     		movs	r1, #32
 799 0012 0448     		ldr	r0, .L83+4
 800 0014 FFF7FEFF 		bl	HAL_GPIO_WritePin
 801              	.LVL35:
 802              		.loc 1 30 165 view .LVU77
 803 0018 FFF7FEFF 		bl	incE_coordinates
 804              	.LVL36:
 805              		.loc 1 30 1 is_stmt 0 view .LVU78
 806 001c 08BD     		pop	{r3, pc}
 807              	.L84:
 808 001e 00BF     		.align	2
 809              	.L83:
ARM GAS  /tmp/cciXzEoc.s 			page 15


 810 0020 00180140 		.word	1073813504
 811 0024 00100140 		.word	1073811456
 812              		.cfi_endproc
 813              	.LFE85:
 815              		.section	.text.BackwardE_Motors,"ax",%progbits
 816              		.align	1
 817              		.global	BackwardE_Motors
 818              		.syntax unified
 819              		.thumb
 820              		.thumb_func
 821              		.fpu softvfp
 823              	BackwardE_Motors:
 824              	.LFB86:
  31:Src/Motors/GPIO_Motors.c **** void BackwardE_Motors(void) {HAL_GPIO_WritePin(DIR_E1_GPIO_Port, DIR_E1_Pin, GPIO_PIN_RESET);   HAL
 825              		.loc 1 31 29 is_stmt 1 view -0
 826              		.cfi_startproc
 827              		@ args = 0, pretend = 0, frame = 0
 828              		@ frame_needed = 0, uses_anonymous_args = 0
 829 0000 08B5     		push	{r3, lr}
 830              	.LCFI21:
 831              		.cfi_def_cfa_offset 8
 832              		.cfi_offset 3, -8
 833              		.cfi_offset 14, -4
 834              		.loc 1 31 30 view .LVU80
 835 0002 0022     		movs	r2, #0
 836 0004 4FF40071 		mov	r1, #512
 837 0008 0548     		ldr	r0, .L87
 838 000a FFF7FEFF 		bl	HAL_GPIO_WritePin
 839              	.LVL37:
 840              		.loc 1 31 97 view .LVU81
 841 000e 0022     		movs	r2, #0
 842 0010 2021     		movs	r1, #32
 843 0012 0448     		ldr	r0, .L87+4
 844 0014 FFF7FEFF 		bl	HAL_GPIO_WritePin
 845              	.LVL38:
 846              		.loc 1 31 165 view .LVU82
 847 0018 FFF7FEFF 		bl	decE_coordinates
 848              	.LVL39:
 849              		.loc 1 31 1 is_stmt 0 view .LVU83
 850 001c 08BD     		pop	{r3, pc}
 851              	.L88:
 852 001e 00BF     		.align	2
 853              	.L87:
 854 0020 00180140 		.word	1073813504
 855 0024 00100140 		.word	1073811456
 856              		.cfi_endproc
 857              	.LFE86:
 859              		.section	.text.StepOnE_Motors,"ax",%progbits
 860              		.align	1
 861              		.global	StepOnE_Motors
 862              		.syntax unified
 863              		.thumb
 864              		.thumb_func
 865              		.fpu softvfp
 867              	StepOnE_Motors:
 868              	.LFB87:
  32:Src/Motors/GPIO_Motors.c **** void StepOnE_Motors(void)   {HAL_GPIO_WritePin(STEP_E1_GPIO_Port, STEP_E1_Pin, GPIO_PIN_SET);   HAL
ARM GAS  /tmp/cciXzEoc.s 			page 16


 869              		.loc 1 32 29 is_stmt 1 view -0
 870              		.cfi_startproc
 871              		@ args = 0, pretend = 0, frame = 0
 872              		@ frame_needed = 0, uses_anonymous_args = 0
 873 0000 08B5     		push	{r3, lr}
 874              	.LCFI22:
 875              		.cfi_def_cfa_offset 8
 876              		.cfi_offset 3, -8
 877              		.cfi_offset 14, -4
 878              		.loc 1 32 30 view .LVU85
 879 0002 0122     		movs	r2, #1
 880 0004 4FF48071 		mov	r1, #256
 881 0008 0448     		ldr	r0, .L91
 882 000a FFF7FEFF 		bl	HAL_GPIO_WritePin
 883              	.LVL40:
 884              		.loc 1 32 97 view .LVU86
 885 000e 0122     		movs	r2, #1
 886 0010 1021     		movs	r1, #16
 887 0012 0348     		ldr	r0, .L91+4
 888 0014 FFF7FEFF 		bl	HAL_GPIO_WritePin
 889              	.LVL41:
 890              		.loc 1 32 1 is_stmt 0 view .LVU87
 891 0018 08BD     		pop	{r3, pc}
 892              	.L92:
 893 001a 00BF     		.align	2
 894              	.L91:
 895 001c 00180140 		.word	1073813504
 896 0020 00100140 		.word	1073811456
 897              		.cfi_endproc
 898              	.LFE87:
 900              		.section	.text.StepOffE_Motors,"ax",%progbits
 901              		.align	1
 902              		.global	StepOffE_Motors
 903              		.syntax unified
 904              		.thumb
 905              		.thumb_func
 906              		.fpu softvfp
 908              	StepOffE_Motors:
 909              	.LFB88:
  33:Src/Motors/GPIO_Motors.c **** void StepOffE_Motors(void)  {HAL_GPIO_WritePin(STEP_E1_GPIO_Port, STEP_E1_Pin, GPIO_PIN_RESET); HAL
 910              		.loc 1 33 29 is_stmt 1 view -0
 911              		.cfi_startproc
 912              		@ args = 0, pretend = 0, frame = 0
 913              		@ frame_needed = 0, uses_anonymous_args = 0
 914 0000 08B5     		push	{r3, lr}
 915              	.LCFI23:
 916              		.cfi_def_cfa_offset 8
 917              		.cfi_offset 3, -8
 918              		.cfi_offset 14, -4
 919              		.loc 1 33 30 view .LVU89
 920 0002 0022     		movs	r2, #0
 921 0004 4FF48071 		mov	r1, #256
 922 0008 0448     		ldr	r0, .L95
 923 000a FFF7FEFF 		bl	HAL_GPIO_WritePin
 924              	.LVL42:
 925              		.loc 1 33 97 view .LVU90
 926 000e 0022     		movs	r2, #0
ARM GAS  /tmp/cciXzEoc.s 			page 17


 927 0010 1021     		movs	r1, #16
 928 0012 0348     		ldr	r0, .L95+4
 929 0014 FFF7FEFF 		bl	HAL_GPIO_WritePin
 930              	.LVL43:
 931              		.loc 1 33 1 is_stmt 0 view .LVU91
 932 0018 08BD     		pop	{r3, pc}
 933              	.L96:
 934 001a 00BF     		.align	2
 935              	.L95:
 936 001c 00180140 		.word	1073813504
 937 0020 00100140 		.word	1073811456
 938              		.cfi_endproc
 939              	.LFE88:
 941              		.text
 942              	.Letext0:
 943              		.file 2 "/usr/lib/gcc/arm-none-eabi/9.2.1/include/stdint.h"
 944              		.file 3 "Drivers/CMSIS/Include/core_cm3.h"
 945              		.file 4 "Drivers/CMSIS/Device/ST/STM32F1xx/Include/system_stm32f1xx.h"
 946              		.file 5 "Drivers/CMSIS/Device/ST/STM32F1xx/Include/stm32f105xc.h"
 947              		.file 6 "Drivers/STM32F1xx_HAL_Driver/Inc/stm32f1xx_hal_def.h"
 948              		.file 7 "Drivers/STM32F1xx_HAL_Driver/Inc/stm32f1xx_hal_gpio.h"
 949              		.file 8 "Drivers/STM32F1xx_HAL_Driver/Inc/stm32f1xx_hal_dma.h"
 950              		.file 9 "Drivers/STM32F1xx_HAL_Driver/Inc/stm32f1xx_hal_tim.h"
 951              		.file 10 "Drivers/STM32F1xx_HAL_Driver/Inc/stm32f1xx_hal.h"
 952              		.file 11 "Inc/tim.h"
 953              		.file 12 "Inc/coordinates.h"
ARM GAS  /tmp/cciXzEoc.s 			page 18

