ARM GAS  /tmp/ccb5ddER.s 			page 1


   1              		.cpu cortex-m3
   2              		.eabi_attribute 20, 1
   3              		.eabi_attribute 21, 1
   4              		.eabi_attribute 23, 3
   5              		.eabi_attribute 24, 1
   6              		.eabi_attribute 25, 1
   7              		.eabi_attribute 26, 1
   8              		.eabi_attribute 30, 1
   9              		.eabi_attribute 34, 1
  10              		.eabi_attribute 18, 4
  11              		.file	"GPIOandTIM_LCD.c"
  12              		.text
  13              	.Ltext0:
  14              		.cfi_sections	.debug_frame
  15              		.section	.text.RS_high_LCD,"ax",%progbits
  16              		.align	1
  17              		.global	RS_high_LCD
  18              		.arch armv7-m
  19              		.syntax unified
  20              		.thumb
  21              		.thumb_func
  22              		.fpu softvfp
  24              	RS_high_LCD:
  25              	.LFB65:
  26              		.file 1 "Src/LCD/GPIOandTIM_LCD.c"
   1:Src/LCD/GPIOandTIM_LCD.c **** #include "GPIOandTIM_LCD.h"
   2:Src/LCD/GPIOandTIM_LCD.c **** #include "Driver_LCD.h"
   3:Src/LCD/GPIOandTIM_LCD.c **** 
   4:Src/LCD/GPIOandTIM_LCD.c **** #include "main.h"
   5:Src/LCD/GPIOandTIM_LCD.c **** #include "tim.h"
   6:Src/LCD/GPIOandTIM_LCD.c **** #include "gpio.h"
   7:Src/LCD/GPIOandTIM_LCD.c **** #include "stdbool.h"
   8:Src/LCD/GPIOandTIM_LCD.c **** #include "stm32f1xx_hal.h"
   9:Src/LCD/GPIOandTIM_LCD.c **** 
  10:Src/LCD/GPIOandTIM_LCD.c **** void RS_high_LCD(void)  {HAL_GPIO_WritePin(LCD_RS_GPIO_Port, LCD_RS_Pin, GPIO_PIN_SET);}
  27              		.loc 1 10 25 view -0
  28              		.cfi_startproc
  29              		@ args = 0, pretend = 0, frame = 0
  30              		@ frame_needed = 0, uses_anonymous_args = 0
  31 0000 08B5     		push	{r3, lr}
  32              	.LCFI0:
  33              		.cfi_def_cfa_offset 8
  34              		.cfi_offset 3, -8
  35              		.cfi_offset 14, -4
  36              		.loc 1 10 26 view .LVU1
  37 0002 0122     		movs	r2, #1
  38 0004 4FF40071 		mov	r1, #512
  39 0008 0148     		ldr	r0, .L3
  40 000a FFF7FEFF 		bl	HAL_GPIO_WritePin
  41              	.LVL0:
  42              		.loc 1 10 1 is_stmt 0 view .LVU2
  43 000e 08BD     		pop	{r3, pc}
  44              	.L4:
  45              		.align	2
  46              	.L3:
  47 0010 00140140 		.word	1073812480
  48              		.cfi_endproc
ARM GAS  /tmp/ccb5ddER.s 			page 2


  49              	.LFE65:
  51              		.section	.text.RS_low_LCD,"ax",%progbits
  52              		.align	1
  53              		.global	RS_low_LCD
  54              		.syntax unified
  55              		.thumb
  56              		.thumb_func
  57              		.fpu softvfp
  59              	RS_low_LCD:
  60              	.LFB66:
  11:Src/LCD/GPIOandTIM_LCD.c **** void RS_low_LCD(void)   {HAL_GPIO_WritePin(LCD_RS_GPIO_Port, LCD_RS_Pin, GPIO_PIN_RESET);}
  61              		.loc 1 11 25 is_stmt 1 view -0
  62              		.cfi_startproc
  63              		@ args = 0, pretend = 0, frame = 0
  64              		@ frame_needed = 0, uses_anonymous_args = 0
  65 0000 08B5     		push	{r3, lr}
  66              	.LCFI1:
  67              		.cfi_def_cfa_offset 8
  68              		.cfi_offset 3, -8
  69              		.cfi_offset 14, -4
  70              		.loc 1 11 26 view .LVU4
  71 0002 0022     		movs	r2, #0
  72 0004 4FF40071 		mov	r1, #512
  73 0008 0148     		ldr	r0, .L7
  74 000a FFF7FEFF 		bl	HAL_GPIO_WritePin
  75              	.LVL1:
  76              		.loc 1 11 1 is_stmt 0 view .LVU5
  77 000e 08BD     		pop	{r3, pc}
  78              	.L8:
  79              		.align	2
  80              	.L7:
  81 0010 00140140 		.word	1073812480
  82              		.cfi_endproc
  83              	.LFE66:
  85              		.section	.text.RW_high_LCD,"ax",%progbits
  86              		.align	1
  87              		.global	RW_high_LCD
  88              		.syntax unified
  89              		.thumb
  90              		.thumb_func
  91              		.fpu softvfp
  93              	RW_high_LCD:
  94              	.LFB67:
  12:Src/LCD/GPIOandTIM_LCD.c **** void RW_high_LCD(void)  {HAL_GPIO_WritePin(LCD_RW_GPIO_Port, LCD_RW_Pin, GPIO_PIN_SET);}
  95              		.loc 1 12 25 is_stmt 1 view -0
  96              		.cfi_startproc
  97              		@ args = 0, pretend = 0, frame = 0
  98              		@ frame_needed = 0, uses_anonymous_args = 0
  99 0000 08B5     		push	{r3, lr}
 100              	.LCFI2:
 101              		.cfi_def_cfa_offset 8
 102              		.cfi_offset 3, -8
 103              		.cfi_offset 14, -4
 104              		.loc 1 12 26 view .LVU7
 105 0002 0122     		movs	r2, #1
 106 0004 4FF48061 		mov	r1, #1024
 107 0008 0148     		ldr	r0, .L11
ARM GAS  /tmp/ccb5ddER.s 			page 3


 108 000a FFF7FEFF 		bl	HAL_GPIO_WritePin
 109              	.LVL2:
 110              		.loc 1 12 1 is_stmt 0 view .LVU8
 111 000e 08BD     		pop	{r3, pc}
 112              	.L12:
 113              		.align	2
 114              	.L11:
 115 0010 00140140 		.word	1073812480
 116              		.cfi_endproc
 117              	.LFE67:
 119              		.section	.text.RW_low_LCD,"ax",%progbits
 120              		.align	1
 121              		.global	RW_low_LCD
 122              		.syntax unified
 123              		.thumb
 124              		.thumb_func
 125              		.fpu softvfp
 127              	RW_low_LCD:
 128              	.LFB68:
  13:Src/LCD/GPIOandTIM_LCD.c **** void RW_low_LCD(void)   {HAL_GPIO_WritePin(LCD_RW_GPIO_Port, LCD_RW_Pin, GPIO_PIN_RESET);}
 129              		.loc 1 13 25 is_stmt 1 view -0
 130              		.cfi_startproc
 131              		@ args = 0, pretend = 0, frame = 0
 132              		@ frame_needed = 0, uses_anonymous_args = 0
 133 0000 08B5     		push	{r3, lr}
 134              	.LCFI3:
 135              		.cfi_def_cfa_offset 8
 136              		.cfi_offset 3, -8
 137              		.cfi_offset 14, -4
 138              		.loc 1 13 26 view .LVU10
 139 0002 0022     		movs	r2, #0
 140 0004 4FF48061 		mov	r1, #1024
 141 0008 0148     		ldr	r0, .L15
 142 000a FFF7FEFF 		bl	HAL_GPIO_WritePin
 143              	.LVL3:
 144              		.loc 1 13 1 is_stmt 0 view .LVU11
 145 000e 08BD     		pop	{r3, pc}
 146              	.L16:
 147              		.align	2
 148              	.L15:
 149 0010 00140140 		.word	1073812480
 150              		.cfi_endproc
 151              	.LFE68:
 153              		.section	.text.E_high_LCD,"ax",%progbits
 154              		.align	1
 155              		.global	E_high_LCD
 156              		.syntax unified
 157              		.thumb
 158              		.thumb_func
 159              		.fpu softvfp
 161              	E_high_LCD:
 162              	.LFB69:
  14:Src/LCD/GPIOandTIM_LCD.c **** void E_high_LCD(void)   {HAL_GPIO_WritePin(LCD_EN_GPIO_Port, LCD_EN_Pin, GPIO_PIN_SET);}
 163              		.loc 1 14 25 is_stmt 1 view -0
 164              		.cfi_startproc
 165              		@ args = 0, pretend = 0, frame = 0
 166              		@ frame_needed = 0, uses_anonymous_args = 0
ARM GAS  /tmp/ccb5ddER.s 			page 4


 167 0000 08B5     		push	{r3, lr}
 168              	.LCFI4:
 169              		.cfi_def_cfa_offset 8
 170              		.cfi_offset 3, -8
 171              		.cfi_offset 14, -4
 172              		.loc 1 14 26 view .LVU13
 173 0002 0122     		movs	r2, #1
 174 0004 4FF40061 		mov	r1, #2048
 175 0008 0148     		ldr	r0, .L19
 176 000a FFF7FEFF 		bl	HAL_GPIO_WritePin
 177              	.LVL4:
 178              		.loc 1 14 1 is_stmt 0 view .LVU14
 179 000e 08BD     		pop	{r3, pc}
 180              	.L20:
 181              		.align	2
 182              	.L19:
 183 0010 00140140 		.word	1073812480
 184              		.cfi_endproc
 185              	.LFE69:
 187              		.section	.text.E_low_LCD,"ax",%progbits
 188              		.align	1
 189              		.global	E_low_LCD
 190              		.syntax unified
 191              		.thumb
 192              		.thumb_func
 193              		.fpu softvfp
 195              	E_low_LCD:
 196              	.LFB70:
  15:Src/LCD/GPIOandTIM_LCD.c **** void E_low_LCD(void)    {HAL_GPIO_WritePin(LCD_EN_GPIO_Port, LCD_EN_Pin, GPIO_PIN_RESET);}
 197              		.loc 1 15 25 is_stmt 1 view -0
 198              		.cfi_startproc
 199              		@ args = 0, pretend = 0, frame = 0
 200              		@ frame_needed = 0, uses_anonymous_args = 0
 201 0000 08B5     		push	{r3, lr}
 202              	.LCFI5:
 203              		.cfi_def_cfa_offset 8
 204              		.cfi_offset 3, -8
 205              		.cfi_offset 14, -4
 206              		.loc 1 15 26 view .LVU16
 207 0002 0022     		movs	r2, #0
 208 0004 4FF40061 		mov	r1, #2048
 209 0008 0148     		ldr	r0, .L23
 210 000a FFF7FEFF 		bl	HAL_GPIO_WritePin
 211              	.LVL5:
 212              		.loc 1 15 1 is_stmt 0 view .LVU17
 213 000e 08BD     		pop	{r3, pc}
 214              	.L24:
 215              		.align	2
 216              	.L23:
 217 0010 00140140 		.word	1073812480
 218              		.cfi_endproc
 219              	.LFE70:
 221              		.section	.text.DB0_high_LCD,"ax",%progbits
 222              		.align	1
 223              		.global	DB0_high_LCD
 224              		.syntax unified
 225              		.thumb
ARM GAS  /tmp/ccb5ddER.s 			page 5


 226              		.thumb_func
 227              		.fpu softvfp
 229              	DB0_high_LCD:
 230              	.LFB71:
  16:Src/LCD/GPIOandTIM_LCD.c **** void DB0_high_LCD(void) {HAL_GPIO_WritePin(LCD_DB0_GPIO_Port, LCD_DB0_Pin, GPIO_PIN_SET);}
 231              		.loc 1 16 25 is_stmt 1 view -0
 232              		.cfi_startproc
 233              		@ args = 0, pretend = 0, frame = 0
 234              		@ frame_needed = 0, uses_anonymous_args = 0
 235 0000 08B5     		push	{r3, lr}
 236              	.LCFI6:
 237              		.cfi_def_cfa_offset 8
 238              		.cfi_offset 3, -8
 239              		.cfi_offset 14, -4
 240              		.loc 1 16 26 view .LVU19
 241 0002 0122     		movs	r2, #1
 242 0004 4FF48051 		mov	r1, #4096
 243 0008 0148     		ldr	r0, .L27
 244 000a FFF7FEFF 		bl	HAL_GPIO_WritePin
 245              	.LVL6:
 246              		.loc 1 16 1 is_stmt 0 view .LVU20
 247 000e 08BD     		pop	{r3, pc}
 248              	.L28:
 249              		.align	2
 250              	.L27:
 251 0010 00140140 		.word	1073812480
 252              		.cfi_endproc
 253              	.LFE71:
 255              		.section	.text.DB0_low_LCD,"ax",%progbits
 256              		.align	1
 257              		.global	DB0_low_LCD
 258              		.syntax unified
 259              		.thumb
 260              		.thumb_func
 261              		.fpu softvfp
 263              	DB0_low_LCD:
 264              	.LFB72:
  17:Src/LCD/GPIOandTIM_LCD.c **** void DB0_low_LCD(void)  {HAL_GPIO_WritePin(LCD_DB0_GPIO_Port, LCD_DB0_Pin, GPIO_PIN_RESET);}
 265              		.loc 1 17 25 is_stmt 1 view -0
 266              		.cfi_startproc
 267              		@ args = 0, pretend = 0, frame = 0
 268              		@ frame_needed = 0, uses_anonymous_args = 0
 269 0000 08B5     		push	{r3, lr}
 270              	.LCFI7:
 271              		.cfi_def_cfa_offset 8
 272              		.cfi_offset 3, -8
 273              		.cfi_offset 14, -4
 274              		.loc 1 17 26 view .LVU22
 275 0002 0022     		movs	r2, #0
 276 0004 4FF48051 		mov	r1, #4096
 277 0008 0148     		ldr	r0, .L31
 278 000a FFF7FEFF 		bl	HAL_GPIO_WritePin
 279              	.LVL7:
 280              		.loc 1 17 1 is_stmt 0 view .LVU23
 281 000e 08BD     		pop	{r3, pc}
 282              	.L32:
 283              		.align	2
ARM GAS  /tmp/ccb5ddER.s 			page 6


 284              	.L31:
 285 0010 00140140 		.word	1073812480
 286              		.cfi_endproc
 287              	.LFE72:
 289              		.section	.text.DB1_high_LCD,"ax",%progbits
 290              		.align	1
 291              		.global	DB1_high_LCD
 292              		.syntax unified
 293              		.thumb
 294              		.thumb_func
 295              		.fpu softvfp
 297              	DB1_high_LCD:
 298              	.LFB73:
  18:Src/LCD/GPIOandTIM_LCD.c **** void DB1_high_LCD(void) {HAL_GPIO_WritePin(LCD_DB1_GPIO_Port, LCD_DB1_Pin, GPIO_PIN_SET);}
 299              		.loc 1 18 25 is_stmt 1 view -0
 300              		.cfi_startproc
 301              		@ args = 0, pretend = 0, frame = 0
 302              		@ frame_needed = 0, uses_anonymous_args = 0
 303 0000 08B5     		push	{r3, lr}
 304              	.LCFI8:
 305              		.cfi_def_cfa_offset 8
 306              		.cfi_offset 3, -8
 307              		.cfi_offset 14, -4
 308              		.loc 1 18 26 view .LVU25
 309 0002 0122     		movs	r2, #1
 310 0004 4FF40051 		mov	r1, #8192
 311 0008 0148     		ldr	r0, .L35
 312 000a FFF7FEFF 		bl	HAL_GPIO_WritePin
 313              	.LVL8:
 314              		.loc 1 18 1 is_stmt 0 view .LVU26
 315 000e 08BD     		pop	{r3, pc}
 316              	.L36:
 317              		.align	2
 318              	.L35:
 319 0010 00140140 		.word	1073812480
 320              		.cfi_endproc
 321              	.LFE73:
 323              		.section	.text.DB1_low_LCD,"ax",%progbits
 324              		.align	1
 325              		.global	DB1_low_LCD
 326              		.syntax unified
 327              		.thumb
 328              		.thumb_func
 329              		.fpu softvfp
 331              	DB1_low_LCD:
 332              	.LFB74:
  19:Src/LCD/GPIOandTIM_LCD.c **** void DB1_low_LCD(void)  {HAL_GPIO_WritePin(LCD_DB1_GPIO_Port, LCD_DB1_Pin, GPIO_PIN_RESET);}
 333              		.loc 1 19 25 is_stmt 1 view -0
 334              		.cfi_startproc
 335              		@ args = 0, pretend = 0, frame = 0
 336              		@ frame_needed = 0, uses_anonymous_args = 0
 337 0000 08B5     		push	{r3, lr}
 338              	.LCFI9:
 339              		.cfi_def_cfa_offset 8
 340              		.cfi_offset 3, -8
 341              		.cfi_offset 14, -4
 342              		.loc 1 19 26 view .LVU28
ARM GAS  /tmp/ccb5ddER.s 			page 7


 343 0002 0022     		movs	r2, #0
 344 0004 4FF40051 		mov	r1, #8192
 345 0008 0148     		ldr	r0, .L39
 346 000a FFF7FEFF 		bl	HAL_GPIO_WritePin
 347              	.LVL9:
 348              		.loc 1 19 1 is_stmt 0 view .LVU29
 349 000e 08BD     		pop	{r3, pc}
 350              	.L40:
 351              		.align	2
 352              	.L39:
 353 0010 00140140 		.word	1073812480
 354              		.cfi_endproc
 355              	.LFE74:
 357              		.section	.text.DB2_high_LCD,"ax",%progbits
 358              		.align	1
 359              		.global	DB2_high_LCD
 360              		.syntax unified
 361              		.thumb
 362              		.thumb_func
 363              		.fpu softvfp
 365              	DB2_high_LCD:
 366              	.LFB75:
  20:Src/LCD/GPIOandTIM_LCD.c **** void DB2_high_LCD(void) {HAL_GPIO_WritePin(LCD_DB2_GPIO_Port, LCD_DB2_Pin, GPIO_PIN_SET);}
 367              		.loc 1 20 25 is_stmt 1 view -0
 368              		.cfi_startproc
 369              		@ args = 0, pretend = 0, frame = 0
 370              		@ frame_needed = 0, uses_anonymous_args = 0
 371 0000 08B5     		push	{r3, lr}
 372              	.LCFI10:
 373              		.cfi_def_cfa_offset 8
 374              		.cfi_offset 3, -8
 375              		.cfi_offset 14, -4
 376              		.loc 1 20 26 view .LVU31
 377 0002 0122     		movs	r2, #1
 378 0004 4FF48041 		mov	r1, #16384
 379 0008 0148     		ldr	r0, .L43
 380 000a FFF7FEFF 		bl	HAL_GPIO_WritePin
 381              	.LVL10:
 382              		.loc 1 20 1 is_stmt 0 view .LVU32
 383 000e 08BD     		pop	{r3, pc}
 384              	.L44:
 385              		.align	2
 386              	.L43:
 387 0010 00140140 		.word	1073812480
 388              		.cfi_endproc
 389              	.LFE75:
 391              		.section	.text.DB2_low_LCD,"ax",%progbits
 392              		.align	1
 393              		.global	DB2_low_LCD
 394              		.syntax unified
 395              		.thumb
 396              		.thumb_func
 397              		.fpu softvfp
 399              	DB2_low_LCD:
 400              	.LFB76:
  21:Src/LCD/GPIOandTIM_LCD.c **** void DB2_low_LCD(void)  {HAL_GPIO_WritePin(LCD_DB2_GPIO_Port, LCD_DB2_Pin, GPIO_PIN_RESET);}
 401              		.loc 1 21 25 is_stmt 1 view -0
ARM GAS  /tmp/ccb5ddER.s 			page 8


 402              		.cfi_startproc
 403              		@ args = 0, pretend = 0, frame = 0
 404              		@ frame_needed = 0, uses_anonymous_args = 0
 405 0000 08B5     		push	{r3, lr}
 406              	.LCFI11:
 407              		.cfi_def_cfa_offset 8
 408              		.cfi_offset 3, -8
 409              		.cfi_offset 14, -4
 410              		.loc 1 21 26 view .LVU34
 411 0002 0022     		movs	r2, #0
 412 0004 4FF48041 		mov	r1, #16384
 413 0008 0148     		ldr	r0, .L47
 414 000a FFF7FEFF 		bl	HAL_GPIO_WritePin
 415              	.LVL11:
 416              		.loc 1 21 1 is_stmt 0 view .LVU35
 417 000e 08BD     		pop	{r3, pc}
 418              	.L48:
 419              		.align	2
 420              	.L47:
 421 0010 00140140 		.word	1073812480
 422              		.cfi_endproc
 423              	.LFE76:
 425              		.section	.text.DB3_high_LCD,"ax",%progbits
 426              		.align	1
 427              		.global	DB3_high_LCD
 428              		.syntax unified
 429              		.thumb
 430              		.thumb_func
 431              		.fpu softvfp
 433              	DB3_high_LCD:
 434              	.LFB77:
  22:Src/LCD/GPIOandTIM_LCD.c **** void DB3_high_LCD(void) {HAL_GPIO_WritePin(LCD_DB3_GPIO_Port, LCD_DB3_Pin, GPIO_PIN_SET);}
 435              		.loc 1 22 25 is_stmt 1 view -0
 436              		.cfi_startproc
 437              		@ args = 0, pretend = 0, frame = 0
 438              		@ frame_needed = 0, uses_anonymous_args = 0
 439 0000 08B5     		push	{r3, lr}
 440              	.LCFI12:
 441              		.cfi_def_cfa_offset 8
 442              		.cfi_offset 3, -8
 443              		.cfi_offset 14, -4
 444              		.loc 1 22 26 view .LVU37
 445 0002 0122     		movs	r2, #1
 446 0004 4FF40041 		mov	r1, #32768
 447 0008 0148     		ldr	r0, .L51
 448 000a FFF7FEFF 		bl	HAL_GPIO_WritePin
 449              	.LVL12:
 450              		.loc 1 22 1 is_stmt 0 view .LVU38
 451 000e 08BD     		pop	{r3, pc}
 452              	.L52:
 453              		.align	2
 454              	.L51:
 455 0010 00140140 		.word	1073812480
 456              		.cfi_endproc
 457              	.LFE77:
 459              		.section	.text.DB3_low_LCD,"ax",%progbits
 460              		.align	1
ARM GAS  /tmp/ccb5ddER.s 			page 9


 461              		.global	DB3_low_LCD
 462              		.syntax unified
 463              		.thumb
 464              		.thumb_func
 465              		.fpu softvfp
 467              	DB3_low_LCD:
 468              	.LFB78:
  23:Src/LCD/GPIOandTIM_LCD.c **** void DB3_low_LCD(void)  {HAL_GPIO_WritePin(LCD_DB3_GPIO_Port, LCD_DB3_Pin, GPIO_PIN_RESET);}
 469              		.loc 1 23 25 is_stmt 1 view -0
 470              		.cfi_startproc
 471              		@ args = 0, pretend = 0, frame = 0
 472              		@ frame_needed = 0, uses_anonymous_args = 0
 473 0000 08B5     		push	{r3, lr}
 474              	.LCFI13:
 475              		.cfi_def_cfa_offset 8
 476              		.cfi_offset 3, -8
 477              		.cfi_offset 14, -4
 478              		.loc 1 23 26 view .LVU40
 479 0002 0022     		movs	r2, #0
 480 0004 4FF40041 		mov	r1, #32768
 481 0008 0148     		ldr	r0, .L55
 482 000a FFF7FEFF 		bl	HAL_GPIO_WritePin
 483              	.LVL13:
 484              		.loc 1 23 1 is_stmt 0 view .LVU41
 485 000e 08BD     		pop	{r3, pc}
 486              	.L56:
 487              		.align	2
 488              	.L55:
 489 0010 00140140 		.word	1073812480
 490              		.cfi_endproc
 491              	.LFE78:
 493              		.section	.text.DB4_high_LCD,"ax",%progbits
 494              		.align	1
 495              		.global	DB4_high_LCD
 496              		.syntax unified
 497              		.thumb
 498              		.thumb_func
 499              		.fpu softvfp
 501              	DB4_high_LCD:
 502              	.LFB79:
  24:Src/LCD/GPIOandTIM_LCD.c **** void DB4_high_LCD(void) {HAL_GPIO_WritePin(LCD_DB4_GPIO_Port, LCD_DB4_Pin, GPIO_PIN_SET);}
 503              		.loc 1 24 25 is_stmt 1 view -0
 504              		.cfi_startproc
 505              		@ args = 0, pretend = 0, frame = 0
 506              		@ frame_needed = 0, uses_anonymous_args = 0
 507 0000 08B5     		push	{r3, lr}
 508              	.LCFI14:
 509              		.cfi_def_cfa_offset 8
 510              		.cfi_offset 3, -8
 511              		.cfi_offset 14, -4
 512              		.loc 1 24 26 view .LVU43
 513 0002 0122     		movs	r2, #1
 514 0004 4021     		movs	r1, #64
 515 0006 0248     		ldr	r0, .L59
 516 0008 FFF7FEFF 		bl	HAL_GPIO_WritePin
 517              	.LVL14:
 518              		.loc 1 24 1 is_stmt 0 view .LVU44
ARM GAS  /tmp/ccb5ddER.s 			page 10


 519 000c 08BD     		pop	{r3, pc}
 520              	.L60:
 521 000e 00BF     		.align	2
 522              	.L59:
 523 0010 00100140 		.word	1073811456
 524              		.cfi_endproc
 525              	.LFE79:
 527              		.section	.text.DB4_low_LCD,"ax",%progbits
 528              		.align	1
 529              		.global	DB4_low_LCD
 530              		.syntax unified
 531              		.thumb
 532              		.thumb_func
 533              		.fpu softvfp
 535              	DB4_low_LCD:
 536              	.LFB80:
  25:Src/LCD/GPIOandTIM_LCD.c **** void DB4_low_LCD(void)  {HAL_GPIO_WritePin(LCD_DB4_GPIO_Port, LCD_DB4_Pin, GPIO_PIN_RESET);}
 537              		.loc 1 25 25 is_stmt 1 view -0
 538              		.cfi_startproc
 539              		@ args = 0, pretend = 0, frame = 0
 540              		@ frame_needed = 0, uses_anonymous_args = 0
 541 0000 08B5     		push	{r3, lr}
 542              	.LCFI15:
 543              		.cfi_def_cfa_offset 8
 544              		.cfi_offset 3, -8
 545              		.cfi_offset 14, -4
 546              		.loc 1 25 26 view .LVU46
 547 0002 0022     		movs	r2, #0
 548 0004 4021     		movs	r1, #64
 549 0006 0248     		ldr	r0, .L63
 550 0008 FFF7FEFF 		bl	HAL_GPIO_WritePin
 551              	.LVL15:
 552              		.loc 1 25 1 is_stmt 0 view .LVU47
 553 000c 08BD     		pop	{r3, pc}
 554              	.L64:
 555 000e 00BF     		.align	2
 556              	.L63:
 557 0010 00100140 		.word	1073811456
 558              		.cfi_endproc
 559              	.LFE80:
 561              		.section	.text.DB5_high_LCD,"ax",%progbits
 562              		.align	1
 563              		.global	DB5_high_LCD
 564              		.syntax unified
 565              		.thumb
 566              		.thumb_func
 567              		.fpu softvfp
 569              	DB5_high_LCD:
 570              	.LFB81:
  26:Src/LCD/GPIOandTIM_LCD.c **** void DB5_high_LCD(void) {HAL_GPIO_WritePin(LCD_DB5_GPIO_Port, LCD_DB5_Pin, GPIO_PIN_SET);}
 571              		.loc 1 26 25 is_stmt 1 view -0
 572              		.cfi_startproc
 573              		@ args = 0, pretend = 0, frame = 0
 574              		@ frame_needed = 0, uses_anonymous_args = 0
 575 0000 08B5     		push	{r3, lr}
 576              	.LCFI16:
 577              		.cfi_def_cfa_offset 8
ARM GAS  /tmp/ccb5ddER.s 			page 11


 578              		.cfi_offset 3, -8
 579              		.cfi_offset 14, -4
 580              		.loc 1 26 26 view .LVU49
 581 0002 0122     		movs	r2, #1
 582 0004 8021     		movs	r1, #128
 583 0006 0248     		ldr	r0, .L67
 584 0008 FFF7FEFF 		bl	HAL_GPIO_WritePin
 585              	.LVL16:
 586              		.loc 1 26 1 is_stmt 0 view .LVU50
 587 000c 08BD     		pop	{r3, pc}
 588              	.L68:
 589 000e 00BF     		.align	2
 590              	.L67:
 591 0010 00100140 		.word	1073811456
 592              		.cfi_endproc
 593              	.LFE81:
 595              		.section	.text.DB5_low_LCD,"ax",%progbits
 596              		.align	1
 597              		.global	DB5_low_LCD
 598              		.syntax unified
 599              		.thumb
 600              		.thumb_func
 601              		.fpu softvfp
 603              	DB5_low_LCD:
 604              	.LFB82:
  27:Src/LCD/GPIOandTIM_LCD.c **** void DB5_low_LCD(void)  {HAL_GPIO_WritePin(LCD_DB5_GPIO_Port, LCD_DB5_Pin, GPIO_PIN_RESET);}
 605              		.loc 1 27 25 is_stmt 1 view -0
 606              		.cfi_startproc
 607              		@ args = 0, pretend = 0, frame = 0
 608              		@ frame_needed = 0, uses_anonymous_args = 0
 609 0000 08B5     		push	{r3, lr}
 610              	.LCFI17:
 611              		.cfi_def_cfa_offset 8
 612              		.cfi_offset 3, -8
 613              		.cfi_offset 14, -4
 614              		.loc 1 27 26 view .LVU52
 615 0002 0022     		movs	r2, #0
 616 0004 8021     		movs	r1, #128
 617 0006 0248     		ldr	r0, .L71
 618 0008 FFF7FEFF 		bl	HAL_GPIO_WritePin
 619              	.LVL17:
 620              		.loc 1 27 1 is_stmt 0 view .LVU53
 621 000c 08BD     		pop	{r3, pc}
 622              	.L72:
 623 000e 00BF     		.align	2
 624              	.L71:
 625 0010 00100140 		.word	1073811456
 626              		.cfi_endproc
 627              	.LFE82:
 629              		.section	.text.DB6_high_LCD,"ax",%progbits
 630              		.align	1
 631              		.global	DB6_high_LCD
 632              		.syntax unified
 633              		.thumb
 634              		.thumb_func
 635              		.fpu softvfp
 637              	DB6_high_LCD:
ARM GAS  /tmp/ccb5ddER.s 			page 12


 638              	.LFB83:
  28:Src/LCD/GPIOandTIM_LCD.c **** void DB6_high_LCD(void) {HAL_GPIO_WritePin(LCD_DB6_GPIO_Port, LCD_DB6_Pin, GPIO_PIN_SET);}
 639              		.loc 1 28 25 is_stmt 1 view -0
 640              		.cfi_startproc
 641              		@ args = 0, pretend = 0, frame = 0
 642              		@ frame_needed = 0, uses_anonymous_args = 0
 643 0000 08B5     		push	{r3, lr}
 644              	.LCFI18:
 645              		.cfi_def_cfa_offset 8
 646              		.cfi_offset 3, -8
 647              		.cfi_offset 14, -4
 648              		.loc 1 28 26 view .LVU55
 649 0002 0122     		movs	r2, #1
 650 0004 4FF48071 		mov	r1, #256
 651 0008 0148     		ldr	r0, .L75
 652 000a FFF7FEFF 		bl	HAL_GPIO_WritePin
 653              	.LVL18:
 654              		.loc 1 28 1 is_stmt 0 view .LVU56
 655 000e 08BD     		pop	{r3, pc}
 656              	.L76:
 657              		.align	2
 658              	.L75:
 659 0010 00100140 		.word	1073811456
 660              		.cfi_endproc
 661              	.LFE83:
 663              		.section	.text.DB6_low_LCD,"ax",%progbits
 664              		.align	1
 665              		.global	DB6_low_LCD
 666              		.syntax unified
 667              		.thumb
 668              		.thumb_func
 669              		.fpu softvfp
 671              	DB6_low_LCD:
 672              	.LFB84:
  29:Src/LCD/GPIOandTIM_LCD.c **** void DB6_low_LCD(void)  {HAL_GPIO_WritePin(LCD_DB6_GPIO_Port, LCD_DB6_Pin, GPIO_PIN_RESET);}
 673              		.loc 1 29 25 is_stmt 1 view -0
 674              		.cfi_startproc
 675              		@ args = 0, pretend = 0, frame = 0
 676              		@ frame_needed = 0, uses_anonymous_args = 0
 677 0000 08B5     		push	{r3, lr}
 678              	.LCFI19:
 679              		.cfi_def_cfa_offset 8
 680              		.cfi_offset 3, -8
 681              		.cfi_offset 14, -4
 682              		.loc 1 29 26 view .LVU58
 683 0002 0022     		movs	r2, #0
 684 0004 4FF48071 		mov	r1, #256
 685 0008 0148     		ldr	r0, .L79
 686 000a FFF7FEFF 		bl	HAL_GPIO_WritePin
 687              	.LVL19:
 688              		.loc 1 29 1 is_stmt 0 view .LVU59
 689 000e 08BD     		pop	{r3, pc}
 690              	.L80:
 691              		.align	2
 692              	.L79:
 693 0010 00100140 		.word	1073811456
 694              		.cfi_endproc
ARM GAS  /tmp/ccb5ddER.s 			page 13


 695              	.LFE84:
 697              		.section	.text.DB7_high_LCD,"ax",%progbits
 698              		.align	1
 699              		.global	DB7_high_LCD
 700              		.syntax unified
 701              		.thumb
 702              		.thumb_func
 703              		.fpu softvfp
 705              	DB7_high_LCD:
 706              	.LFB85:
  30:Src/LCD/GPIOandTIM_LCD.c **** void DB7_high_LCD(void) {HAL_GPIO_WritePin(LCD_DB7_GPIO_Port, LCD_DB7_Pin, GPIO_PIN_SET);}
 707              		.loc 1 30 25 is_stmt 1 view -0
 708              		.cfi_startproc
 709              		@ args = 0, pretend = 0, frame = 0
 710              		@ frame_needed = 0, uses_anonymous_args = 0
 711 0000 08B5     		push	{r3, lr}
 712              	.LCFI20:
 713              		.cfi_def_cfa_offset 8
 714              		.cfi_offset 3, -8
 715              		.cfi_offset 14, -4
 716              		.loc 1 30 26 view .LVU61
 717 0002 0122     		movs	r2, #1
 718 0004 4FF40071 		mov	r1, #512
 719 0008 0148     		ldr	r0, .L83
 720 000a FFF7FEFF 		bl	HAL_GPIO_WritePin
 721              	.LVL20:
 722              		.loc 1 30 1 is_stmt 0 view .LVU62
 723 000e 08BD     		pop	{r3, pc}
 724              	.L84:
 725              		.align	2
 726              	.L83:
 727 0010 00100140 		.word	1073811456
 728              		.cfi_endproc
 729              	.LFE85:
 731              		.section	.text.DB7_low_LCD,"ax",%progbits
 732              		.align	1
 733              		.global	DB7_low_LCD
 734              		.syntax unified
 735              		.thumb
 736              		.thumb_func
 737              		.fpu softvfp
 739              	DB7_low_LCD:
 740              	.LFB86:
  31:Src/LCD/GPIOandTIM_LCD.c **** void DB7_low_LCD(void)  {HAL_GPIO_WritePin(LCD_DB7_GPIO_Port, LCD_DB7_Pin, GPIO_PIN_RESET);}
 741              		.loc 1 31 25 is_stmt 1 view -0
 742              		.cfi_startproc
 743              		@ args = 0, pretend = 0, frame = 0
 744              		@ frame_needed = 0, uses_anonymous_args = 0
 745 0000 08B5     		push	{r3, lr}
 746              	.LCFI21:
 747              		.cfi_def_cfa_offset 8
 748              		.cfi_offset 3, -8
 749              		.cfi_offset 14, -4
 750              		.loc 1 31 26 view .LVU64
 751 0002 0022     		movs	r2, #0
 752 0004 4FF40071 		mov	r1, #512
 753 0008 0148     		ldr	r0, .L87
ARM GAS  /tmp/ccb5ddER.s 			page 14


 754 000a FFF7FEFF 		bl	HAL_GPIO_WritePin
 755              	.LVL21:
 756              		.loc 1 31 1 is_stmt 0 view .LVU65
 757 000e 08BD     		pop	{r3, pc}
 758              	.L88:
 759              		.align	2
 760              	.L87:
 761 0010 00100140 		.word	1073811456
 762              		.cfi_endproc
 763              	.LFE86:
 765              		.section	.text.Ready_LCD,"ax",%progbits
 766              		.align	1
 767              		.global	Ready_LCD
 768              		.syntax unified
 769              		.thumb
 770              		.thumb_func
 771              		.fpu softvfp
 773              	Ready_LCD:
 774              	.LFB87:
  32:Src/LCD/GPIOandTIM_LCD.c **** 
  33:Src/LCD/GPIOandTIM_LCD.c **** int Ready_LCD(void)
  34:Src/LCD/GPIOandTIM_LCD.c **** {
 775              		.loc 1 34 1 is_stmt 1 view -0
 776              		.cfi_startproc
 777              		@ args = 0, pretend = 0, frame = 0
 778              		@ frame_needed = 0, uses_anonymous_args = 0
 779 0000 08B5     		push	{r3, lr}
 780              	.LCFI22:
 781              		.cfi_def_cfa_offset 8
 782              		.cfi_offset 3, -8
 783              		.cfi_offset 14, -4
  35:Src/LCD/GPIOandTIM_LCD.c ****     HAL_Delay(1);
 784              		.loc 1 35 5 view .LVU67
 785 0002 0120     		movs	r0, #1
 786 0004 FFF7FEFF 		bl	HAL_Delay
 787              	.LVL22:
  36:Src/LCD/GPIOandTIM_LCD.c ****     return READY_LCD;
 788              		.loc 1 36 5 view .LVU68
  37:Src/LCD/GPIOandTIM_LCD.c **** 
  38:Src/LCD/GPIOandTIM_LCD.c ****     /*
  39:Src/LCD/GPIOandTIM_LCD.c ****     static _Bool wait = true;
  40:Src/LCD/GPIOandTIM_LCD.c **** 
  41:Src/LCD/GPIOandTIM_LCD.c ****     if (wait)
  42:Src/LCD/GPIOandTIM_LCD.c ****     {
  43:Src/LCD/GPIOandTIM_LCD.c ****         HAL_TIM_Base_Start_IT(&htim2);
  44:Src/LCD/GPIOandTIM_LCD.c ****         wait = false;
  45:Src/LCD/GPIOandTIM_LCD.c ****         return NOT_READY_LCD;
  46:Src/LCD/GPIOandTIM_LCD.c ****     }
  47:Src/LCD/GPIOandTIM_LCD.c **** 
  48:Src/LCD/GPIOandTIM_LCD.c **** 
  49:Src/LCD/GPIOandTIM_LCD.c ****     if (!wait && (__HAL_TIM_GET_COUNTER(&htim2) == 0))
  50:Src/LCD/GPIOandTIM_LCD.c ****     {
  51:Src/LCD/GPIOandTIM_LCD.c ****         wait = true;
  52:Src/LCD/GPIOandTIM_LCD.c ****         return READY_LCD;
  53:Src/LCD/GPIOandTIM_LCD.c ****     }
  54:Src/LCD/GPIOandTIM_LCD.c **** 
  55:Src/LCD/GPIOandTIM_LCD.c ****     return NOT_READY_LCD;
ARM GAS  /tmp/ccb5ddER.s 			page 15


  56:Src/LCD/GPIOandTIM_LCD.c ****     */
  57:Src/LCD/GPIOandTIM_LCD.c **** }
 789              		.loc 1 57 1 is_stmt 0 view .LVU69
 790 0008 0120     		movs	r0, #1
 791 000a 08BD     		pop	{r3, pc}
 792              		.cfi_endproc
 793              	.LFE87:
 795              		.text
 796              	.Letext0:
 797              		.file 2 "/usr/lib/gcc/arm-none-eabi/9.2.1/include/stdint.h"
 798              		.file 3 "Drivers/CMSIS/Include/core_cm3.h"
 799              		.file 4 "Drivers/CMSIS/Device/ST/STM32F1xx/Include/system_stm32f1xx.h"
 800              		.file 5 "Drivers/CMSIS/Device/ST/STM32F1xx/Include/stm32f105xc.h"
 801              		.file 6 "Inc/LCD/Driver_LCD.h"
 802              		.file 7 "Drivers/STM32F1xx_HAL_Driver/Inc/stm32f1xx_hal_def.h"
 803              		.file 8 "Drivers/STM32F1xx_HAL_Driver/Inc/stm32f1xx_hal_gpio.h"
 804              		.file 9 "Drivers/STM32F1xx_HAL_Driver/Inc/stm32f1xx_hal_dma.h"
 805              		.file 10 "Drivers/STM32F1xx_HAL_Driver/Inc/stm32f1xx_hal_tim.h"
 806              		.file 11 "Drivers/STM32F1xx_HAL_Driver/Inc/stm32f1xx_hal.h"
 807              		.file 12 "Inc/tim.h"
ARM GAS  /tmp/ccb5ddER.s 			page 16

