ARM GAS  /tmp/ccHgNLmb.s 			page 1


   1              		.cpu cortex-m3
   2              		.eabi_attribute 20, 1
   3              		.eabi_attribute 21, 1
   4              		.eabi_attribute 23, 3
   5              		.eabi_attribute 24, 1
   6              		.eabi_attribute 25, 1
   7              		.eabi_attribute 26, 1
   8              		.eabi_attribute 30, 1
   9              		.eabi_attribute 34, 1
  10              		.eabi_attribute 18, 4
  11              		.file	"Interface_LCD.c"
  12              		.text
  13              	.Ltext0:
  14              		.cfi_sections	.debug_frame
  15              		.section	.text.wrongInterfaceLine_LCD,"ax",%progbits
  16              		.align	1
  17              		.arch armv7-m
  18              		.syntax unified
  19              		.thumb
  20              		.thumb_func
  21              		.fpu softvfp
  23              	wrongInterfaceLine_LCD:
  24              	.LVL0:
  25              	.LFB1:
  26              		.file 1 "Src/LCD/Interface_LCD.c"
   1:Src/LCD/Interface_LCD.c **** #include "Interface_LCD.h"
   2:Src/LCD/Interface_LCD.c **** #include "Driver_LCD.h"
   3:Src/LCD/Interface_LCD.c **** #include "CharacterConverter_LCD.h"
   4:Src/LCD/Interface_LCD.c **** #include "stdint.h"
   5:Src/LCD/Interface_LCD.c **** #include <wchar.h>
   6:Src/LCD/Interface_LCD.c **** #include "stdbool.h"
   7:Src/LCD/Interface_LCD.c **** 
   8:Src/LCD/Interface_LCD.c **** void create_LCD(void)
   9:Src/LCD/Interface_LCD.c **** {
  10:Src/LCD/Interface_LCD.c ****     return_home_LCD();
  11:Src/LCD/Interface_LCD.c ****     clear_display_LCD();
  12:Src/LCD/Interface_LCD.c ****     set_dataLenght_numberOfLines_fontType_LCD();
  13:Src/LCD/Interface_LCD.c ****     set_do_not_display_cursor_LCD();
  14:Src/LCD/Interface_LCD.c ****     set_cursor_moving_to_the_right_LCD();
  15:Src/LCD/Interface_LCD.c **** }
  16:Src/LCD/Interface_LCD.c **** 
  17:Src/LCD/Interface_LCD.c **** static _Bool wrongInterfaceLine_LCD(int line)
  18:Src/LCD/Interface_LCD.c **** {
  27              		.loc 1 18 1 view -0
  28              		.cfi_startproc
  29              		@ args = 0, pretend = 0, frame = 0
  30              		@ frame_needed = 0, uses_anonymous_args = 0
  31              		@ link register save eliminated.
  19:Src/LCD/Interface_LCD.c ****     if(line > NUMBEROFLINES_INTERFACE_LCD)
  32              		.loc 1 19 5 view .LVU1
  33              		.loc 1 19 7 is_stmt 0 view .LVU2
  34 0000 0428     		cmp	r0, #4
  35 0002 03DC     		bgt	.L3
  20:Src/LCD/Interface_LCD.c ****         return true;
  21:Src/LCD/Interface_LCD.c ****     if(line < 1)
  36              		.loc 1 21 5 is_stmt 1 view .LVU3
  37              		.loc 1 21 7 is_stmt 0 view .LVU4
ARM GAS  /tmp/ccHgNLmb.s 			page 2


  38 0004 0028     		cmp	r0, #0
  39 0006 03DD     		ble	.L4
  22:Src/LCD/Interface_LCD.c ****         return true;
  23:Src/LCD/Interface_LCD.c ****     return false;
  40              		.loc 1 23 12 view .LVU5
  41 0008 0020     		movs	r0, #0
  42              	.LVL1:
  43              		.loc 1 23 12 view .LVU6
  44 000a 7047     		bx	lr
  45              	.LVL2:
  46              	.L3:
  20:Src/LCD/Interface_LCD.c ****         return true;
  47              		.loc 1 20 16 view .LVU7
  48 000c 0120     		movs	r0, #1
  49              	.LVL3:
  20:Src/LCD/Interface_LCD.c ****         return true;
  50              		.loc 1 20 16 view .LVU8
  51 000e 7047     		bx	lr
  52              	.LVL4:
  53              	.L4:
  22:Src/LCD/Interface_LCD.c ****         return true;
  54              		.loc 1 22 16 view .LVU9
  55 0010 0120     		movs	r0, #1
  56              	.LVL5:
  24:Src/LCD/Interface_LCD.c **** }
  57              		.loc 1 24 1 view .LVU10
  58 0012 7047     		bx	lr
  59              		.cfi_endproc
  60              	.LFE1:
  62              		.section	.text.create_LCD,"ax",%progbits
  63              		.align	1
  64              		.global	create_LCD
  65              		.syntax unified
  66              		.thumb
  67              		.thumb_func
  68              		.fpu softvfp
  70              	create_LCD:
  71              	.LFB0:
   9:Src/LCD/Interface_LCD.c ****     return_home_LCD();
  72              		.loc 1 9 1 is_stmt 1 view -0
  73              		.cfi_startproc
  74              		@ args = 0, pretend = 0, frame = 0
  75              		@ frame_needed = 0, uses_anonymous_args = 0
  76 0000 08B5     		push	{r3, lr}
  77              	.LCFI0:
  78              		.cfi_def_cfa_offset 8
  79              		.cfi_offset 3, -8
  80              		.cfi_offset 14, -4
  10:Src/LCD/Interface_LCD.c ****     clear_display_LCD();
  81              		.loc 1 10 5 view .LVU12
  82 0002 FFF7FEFF 		bl	return_home_LCD
  83              	.LVL6:
  11:Src/LCD/Interface_LCD.c ****     set_dataLenght_numberOfLines_fontType_LCD();
  84              		.loc 1 11 5 view .LVU13
  85 0006 FFF7FEFF 		bl	clear_display_LCD
  86              	.LVL7:
  12:Src/LCD/Interface_LCD.c ****     set_do_not_display_cursor_LCD();
ARM GAS  /tmp/ccHgNLmb.s 			page 3


  87              		.loc 1 12 5 view .LVU14
  88 000a FFF7FEFF 		bl	set_dataLenght_numberOfLines_fontType_LCD
  89              	.LVL8:
  13:Src/LCD/Interface_LCD.c ****     set_cursor_moving_to_the_right_LCD();
  90              		.loc 1 13 5 view .LVU15
  91 000e FFF7FEFF 		bl	set_do_not_display_cursor_LCD
  92              	.LVL9:
  14:Src/LCD/Interface_LCD.c **** }
  93              		.loc 1 14 5 view .LVU16
  94 0012 FFF7FEFF 		bl	set_cursor_moving_to_the_right_LCD
  95              	.LVL10:
  15:Src/LCD/Interface_LCD.c **** 
  96              		.loc 1 15 1 is_stmt 0 view .LVU17
  97 0016 08BD     		pop	{r3, pc}
  98              		.cfi_endproc
  99              	.LFE0:
 101              		.section	.text.printLine_LCD,"ax",%progbits
 102              		.align	1
 103              		.global	printLine_LCD
 104              		.syntax unified
 105              		.thumb
 106              		.thumb_func
 107              		.fpu softvfp
 109              	printLine_LCD:
 110              	.LVL11:
 111              	.LFB2:
  25:Src/LCD/Interface_LCD.c **** 
  26:Src/LCD/Interface_LCD.c **** void printLine_LCD(int line, const wchar_t* textToPrint)
  27:Src/LCD/Interface_LCD.c **** {
 112              		.loc 1 27 1 is_stmt 1 view -0
 113              		.cfi_startproc
 114              		@ args = 0, pretend = 0, frame = 0
 115              		@ frame_needed = 0, uses_anonymous_args = 0
 116              		.loc 1 27 1 is_stmt 0 view .LVU19
 117 0000 38B5     		push	{r3, r4, r5, lr}
 118              	.LCFI1:
 119              		.cfi_def_cfa_offset 16
 120              		.cfi_offset 3, -16
 121              		.cfi_offset 4, -12
 122              		.cfi_offset 5, -8
 123              		.cfi_offset 14, -4
 124 0002 0446     		mov	r4, r0
 125 0004 0D46     		mov	r5, r1
  28:Src/LCD/Interface_LCD.c ****     if(wrongInterfaceLine_LCD(line))
 126              		.loc 1 28 5 is_stmt 1 view .LVU20
 127              		.loc 1 28 8 is_stmt 0 view .LVU21
 128 0006 FFF7FEFF 		bl	wrongInterfaceLine_LCD
 129              	.LVL12:
 130              		.loc 1 28 7 view .LVU22
 131 000a 00B1     		cbz	r0, .L12
 132              	.LVL13:
 133              	.L7:
  29:Src/LCD/Interface_LCD.c ****         return;
  30:Src/LCD/Interface_LCD.c **** 
  31:Src/LCD/Interface_LCD.c ****     move_to_line_LCD(line);
  32:Src/LCD/Interface_LCD.c **** 
  33:Src/LCD/Interface_LCD.c ****     int colomn;
ARM GAS  /tmp/ccHgNLmb.s 			page 4


  34:Src/LCD/Interface_LCD.c ****     for(colomn = 1; colomn <= LINELENGTH_INTERFACE_LCD; colomn++)
  35:Src/LCD/Interface_LCD.c ****     {
  36:Src/LCD/Interface_LCD.c ****         write_character(convertCharacter_LCD(textToPrint[colomn-1]));
  37:Src/LCD/Interface_LCD.c ****     }
  38:Src/LCD/Interface_LCD.c **** }
 134              		.loc 1 38 1 view .LVU23
 135 000c 38BD     		pop	{r3, r4, r5, pc}
 136              	.LVL14:
 137              	.L12:
  31:Src/LCD/Interface_LCD.c **** 
 138              		.loc 1 31 5 is_stmt 1 view .LVU24
 139 000e 2046     		mov	r0, r4
 140 0010 FFF7FEFF 		bl	move_to_line_LCD
 141              	.LVL15:
  33:Src/LCD/Interface_LCD.c ****     for(colomn = 1; colomn <= LINELENGTH_INTERFACE_LCD; colomn++)
 142              		.loc 1 33 5 view .LVU25
  34:Src/LCD/Interface_LCD.c ****     {
 143              		.loc 1 34 5 view .LVU26
  34:Src/LCD/Interface_LCD.c ****     {
 144              		.loc 1 34 16 is_stmt 0 view .LVU27
 145 0014 0124     		movs	r4, #1
 146              	.LVL16:
  34:Src/LCD/Interface_LCD.c ****     {
 147              		.loc 1 34 5 view .LVU28
 148 0016 09E0     		b	.L9
 149              	.LVL17:
 150              	.L10:
  36:Src/LCD/Interface_LCD.c ****     }
 151              		.loc 1 36 9 is_stmt 1 discriminator 3 view .LVU29
  36:Src/LCD/Interface_LCD.c ****     }
 152              		.loc 1 36 57 is_stmt 0 discriminator 3 view .LVU30
 153 0018 04F18043 		add	r3, r4, #1073741824
 154 001c 013B     		subs	r3, r3, #1
  36:Src/LCD/Interface_LCD.c ****     }
 155              		.loc 1 36 9 discriminator 3 view .LVU31
 156 001e 55F82300 		ldr	r0, [r5, r3, lsl #2]
 157 0022 FFF7FEFF 		bl	convertCharacter_LCD
 158              	.LVL18:
 159 0026 FFF7FEFF 		bl	write_character
 160              	.LVL19:
  34:Src/LCD/Interface_LCD.c ****     {
 161              		.loc 1 34 57 is_stmt 1 discriminator 3 view .LVU32
  34:Src/LCD/Interface_LCD.c ****     {
 162              		.loc 1 34 63 is_stmt 0 discriminator 3 view .LVU33
 163 002a 0134     		adds	r4, r4, #1
 164              	.LVL20:
 165              	.L9:
  34:Src/LCD/Interface_LCD.c ****     {
 166              		.loc 1 34 21 is_stmt 1 discriminator 1 view .LVU34
  34:Src/LCD/Interface_LCD.c ****     {
 167              		.loc 1 34 5 is_stmt 0 discriminator 1 view .LVU35
 168 002c 142C     		cmp	r4, #20
 169 002e F3DD     		ble	.L10
 170 0030 ECE7     		b	.L7
 171              		.cfi_endproc
 172              	.LFE2:
 174              		.text
ARM GAS  /tmp/ccHgNLmb.s 			page 5


 175              	.Letext0:
 176              		.file 2 "/usr/lib/gcc/arm-none-eabi/9.2.1/include/stddef.h"
 177              		.file 3 "/usr/include/newlib/sys/_types.h"
 178              		.file 4 "/usr/include/newlib/sys/reent.h"
 179              		.file 5 "/usr/include/newlib/sys/lock.h"
 180              		.file 6 "Inc/LCD/Driver_LCD.h"
 181              		.file 7 "Inc/LCD/CharacterConverter_LCD.h"
 182              		.file 8 "Inc/LCD/Interface_LCD.h"
ARM GAS  /tmp/ccHgNLmb.s 			page 6

