ARM GAS  /tmp/ccVe8Vz2.s 			page 1


   1              		.cpu cortex-m3
   2              		.eabi_attribute 20, 1
   3              		.eabi_attribute 21, 1
   4              		.eabi_attribute 23, 3
   5              		.eabi_attribute 24, 1
   6              		.eabi_attribute 25, 1
   7              		.eabi_attribute 26, 1
   8              		.eabi_attribute 30, 1
   9              		.eabi_attribute 34, 1
  10              		.eabi_attribute 18, 4
  11              		.file	"MainMenu_Menu.c"
  12              		.text
  13              	.Ltext0:
  14              		.cfi_sections	.debug_frame
  15              		.section	.text.setMainMenu_Menu,"ax",%progbits
  16              		.align	1
  17              		.global	setMainMenu_Menu
  18              		.syntax unified
  19              		.thumb
  20              		.thumb_func
  21              		.fpu softvfp
  23              	setMainMenu_Menu:
  24              	.LFB3:
  25              		.file 1 "Src/Menu/MainMenu_Menu.c"
   1:Src/Menu/MainMenu_Menu.c **** #include "MainMenu_Menu.h"
   2:Src/Menu/MainMenu_Menu.c **** 
   3:Src/Menu/MainMenu_Menu.c **** #include "Constructor_Menu.h"
   4:Src/Menu/MainMenu_Menu.c **** #include "FunctionsForButtons.h"
   5:Src/Menu/MainMenu_Menu.c **** 
   6:Src/Menu/MainMenu_Menu.c **** #include "stdint.h"
   7:Src/Menu/MainMenu_Menu.c **** #include "stdio.h"
   8:Src/Menu/MainMenu_Menu.c **** #include <wchar.h>
   9:Src/Menu/MainMenu_Menu.c **** #include "stdbool.h"
  10:Src/Menu/MainMenu_Menu.c **** 
  11:Src/Menu/MainMenu_Menu.c **** 
  12:Src/Menu/MainMenu_Menu.c **** 
  13:Src/Menu/MainMenu_Menu.c **** 
  14:Src/Menu/MainMenu_Menu.c **** void setMainMenu_Menu(void)
  15:Src/Menu/MainMenu_Menu.c **** {
  26              		.loc 1 15 0
  27              		.cfi_startproc
  28              		@ args = 0, pretend = 0, frame = 0
  29              		@ frame_needed = 0, uses_anonymous_args = 0
  30 0000 F8B5     		push	{r3, r4, r5, r6, r7, lr}
  31              	.LCFI0:
  32              		.cfi_def_cfa_offset 24
  33              		.cfi_offset 3, -24
  34              		.cfi_offset 4, -20
  35              		.cfi_offset 5, -16
  36              		.cfi_offset 6, -12
  37              		.cfi_offset 7, -8
  38              		.cfi_offset 14, -4
  16:Src/Menu/MainMenu_Menu.c ****     createFirstNode_Menu(L"MAIN MENU", L" Print");
  39              		.loc 1 16 0
  40 0002 4149     		ldr	r1, .L3
  41 0004 4148     		ldr	r0, .L3+4
  42 0006 FFF7FEFF 		bl	createFirstNode_Menu
ARM GAS  /tmp/ccVe8Vz2.s 			page 2


  43              	.LVL0:
  17:Src/Menu/MainMenu_Menu.c ****     setFunctionUp(&simpleNavigationUp_Menu);
  44              		.loc 1 17 0
  45 000a 414D     		ldr	r5, .L3+8
  46 000c 2846     		mov	r0, r5
  47 000e FFF7FEFF 		bl	setFunctionUp
  48              	.LVL1:
  18:Src/Menu/MainMenu_Menu.c ****     setFunctionDown(&simpleNavigationDown_Menu);
  49              		.loc 1 18 0
  50 0012 404C     		ldr	r4, .L3+12
  51 0014 2046     		mov	r0, r4
  52 0016 FFF7FEFF 		bl	setFunctionDown
  53              	.LVL2:
  19:Src/Menu/MainMenu_Menu.c ****     setFunctionOk(&printOk_Menu);
  54              		.loc 1 19 0
  55 001a 3F48     		ldr	r0, .L3+16
  56 001c FFF7FEFF 		bl	setFunctionOk
  57              	.LVL3:
  20:Src/Menu/MainMenu_Menu.c ****     setFunctionBack(&emptyFunction_Menu);
  58              		.loc 1 20 0
  59 0020 3E4E     		ldr	r6, .L3+20
  60 0022 3046     		mov	r0, r6
  61 0024 FFF7FEFF 		bl	setFunctionBack
  62              	.LVL4:
  21:Src/Menu/MainMenu_Menu.c **** 
  22:Src/Menu/MainMenu_Menu.c **** 
  23:Src/Menu/MainMenu_Menu.c ****     createDownNode_Menu(L" Change filament");
  63              		.loc 1 23 0
  64 0028 3D48     		ldr	r0, .L3+24
  65 002a FFF7FEFF 		bl	createDownNode_Menu
  66              	.LVL5:
  24:Src/Menu/MainMenu_Menu.c ****     moveDown_Menu();
  67              		.loc 1 24 0
  68 002e FFF7FEFF 		bl	moveDown_Menu
  69              	.LVL6:
  25:Src/Menu/MainMenu_Menu.c ****     setFunctionUp(&simpleNavigationUp_Menu);
  70              		.loc 1 25 0
  71 0032 2846     		mov	r0, r5
  72 0034 FFF7FEFF 		bl	setFunctionUp
  73              	.LVL7:
  26:Src/Menu/MainMenu_Menu.c ****     setFunctionDown(&simpleNavigationDown_Menu);
  74              		.loc 1 26 0
  75 0038 2046     		mov	r0, r4
  76 003a FFF7FEFF 		bl	setFunctionDown
  77              	.LVL8:
  27:Src/Menu/MainMenu_Menu.c ****     setFunctionOk(&changeFilamentOk_Menu);
  78              		.loc 1 27 0
  79 003e 3948     		ldr	r0, .L3+28
  80 0040 FFF7FEFF 		bl	setFunctionOk
  81              	.LVL9:
  28:Src/Menu/MainMenu_Menu.c ****     setFunctionBack(&emptyFunction_Menu);
  82              		.loc 1 28 0
  83 0044 3046     		mov	r0, r6
  84 0046 FFF7FEFF 		bl	setFunctionBack
  85              	.LVL10:
  29:Src/Menu/MainMenu_Menu.c **** 
  30:Src/Menu/MainMenu_Menu.c ****         createRightNode_Menu(L"CHANGE FILAMENT", L" Set the temperature");
ARM GAS  /tmp/ccVe8Vz2.s 			page 3


  86              		.loc 1 30 0
  87 004a 3749     		ldr	r1, .L3+32
  88 004c 3748     		ldr	r0, .L3+36
  89 004e FFF7FEFF 		bl	createRightNode_Menu
  90              	.LVL11:
  31:Src/Menu/MainMenu_Menu.c ****         moveRight_Menu();
  91              		.loc 1 31 0
  92 0052 FFF7FEFF 		bl	moveRight_Menu
  93              	.LVL12:
  32:Src/Menu/MainMenu_Menu.c ****         setFunctionUp(&setTheTemperatureUp_Menu);
  94              		.loc 1 32 0
  95 0056 3648     		ldr	r0, .L3+40
  96 0058 FFF7FEFF 		bl	setFunctionUp
  97              	.LVL13:
  33:Src/Menu/MainMenu_Menu.c ****         setFunctionDown(&setTheTemperatureDown_Menu);
  98              		.loc 1 33 0
  99 005c 3548     		ldr	r0, .L3+44
 100 005e FFF7FEFF 		bl	setFunctionDown
 101              	.LVL14:
  34:Src/Menu/MainMenu_Menu.c ****         setFunctionOk(&setTheTemperatureOk_Menu);
 102              		.loc 1 34 0
 103 0062 3548     		ldr	r0, .L3+48
 104 0064 FFF7FEFF 		bl	setFunctionOk
 105              	.LVL15:
  35:Src/Menu/MainMenu_Menu.c ****         setFunctionBack(&setTheTemperatureBack_Menu);
 106              		.loc 1 35 0
 107 0068 3448     		ldr	r0, .L3+52
 108 006a FFF7FEFF 		bl	setFunctionBack
 109              	.LVL16:
  36:Src/Menu/MainMenu_Menu.c **** 
  37:Src/Menu/MainMenu_Menu.c ****         moveLeft_Menu();
 110              		.loc 1 37 0
 111 006e FFF7FEFF 		bl	moveLeft_Menu
 112              	.LVL17:
  38:Src/Menu/MainMenu_Menu.c **** 
  39:Src/Menu/MainMenu_Menu.c ****     createDownNode_Menu(L" Language");
 113              		.loc 1 39 0
 114 0072 3348     		ldr	r0, .L3+56
 115 0074 FFF7FEFF 		bl	createDownNode_Menu
 116              	.LVL18:
  40:Src/Menu/MainMenu_Menu.c ****     moveDown_Menu();
 117              		.loc 1 40 0
 118 0078 FFF7FEFF 		bl	moveDown_Menu
 119              	.LVL19:
  41:Src/Menu/MainMenu_Menu.c ****     setFunctionUp(&simpleNavigationUp_Menu);
 120              		.loc 1 41 0
 121 007c 2846     		mov	r0, r5
 122 007e FFF7FEFF 		bl	setFunctionUp
 123              	.LVL20:
  42:Src/Menu/MainMenu_Menu.c ****     setFunctionDown(&simpleNavigationDown_Menu);
 124              		.loc 1 42 0
 125 0082 2046     		mov	r0, r4
 126 0084 FFF7FEFF 		bl	setFunctionDown
 127              	.LVL21:
  43:Src/Menu/MainMenu_Menu.c ****     setFunctionOk(&simpleNavigationOk_Menu);
 128              		.loc 1 43 0
 129 0088 2E48     		ldr	r0, .L3+60
ARM GAS  /tmp/ccVe8Vz2.s 			page 4


 130 008a FFF7FEFF 		bl	setFunctionOk
 131              	.LVL22:
  44:Src/Menu/MainMenu_Menu.c ****     setFunctionBack(&emptyFunction_Menu);
 132              		.loc 1 44 0
 133 008e 3046     		mov	r0, r6
 134 0090 FFF7FEFF 		bl	setFunctionBack
 135              	.LVL23:
  45:Src/Menu/MainMenu_Menu.c **** 
  46:Src/Menu/MainMenu_Menu.c ****         createRightNode_Menu(L"LANGUAGE", L" English");
 136              		.loc 1 46 0
 137 0094 2C49     		ldr	r1, .L3+64
 138 0096 2D48     		ldr	r0, .L3+68
 139 0098 FFF7FEFF 		bl	createRightNode_Menu
 140              	.LVL24:
  47:Src/Menu/MainMenu_Menu.c ****         moveRight_Menu();
 141              		.loc 1 47 0
 142 009c FFF7FEFF 		bl	moveRight_Menu
 143              	.LVL25:
  48:Src/Menu/MainMenu_Menu.c ****         setFunctionUp(&emptyFunction_Menu);
 144              		.loc 1 48 0
 145 00a0 3046     		mov	r0, r6
 146 00a2 FFF7FEFF 		bl	setFunctionUp
 147              	.LVL26:
  49:Src/Menu/MainMenu_Menu.c ****         setFunctionDown(&simpleNavigationDown_Menu);
 148              		.loc 1 49 0
 149 00a6 2046     		mov	r0, r4
 150 00a8 FFF7FEFF 		bl	setFunctionDown
 151              	.LVL27:
  50:Src/Menu/MainMenu_Menu.c ****         setFunctionOk(&englishOk_Menu);
 152              		.loc 1 50 0
 153 00ac 2848     		ldr	r0, .L3+72
 154 00ae FFF7FEFF 		bl	setFunctionOk
 155              	.LVL28:
  51:Src/Menu/MainMenu_Menu.c ****         setFunctionBack(&simpleNavigationBack_Menu);
 156              		.loc 1 51 0
 157 00b2 284F     		ldr	r7, .L3+76
 158 00b4 3846     		mov	r0, r7
 159 00b6 FFF7FEFF 		bl	setFunctionBack
 160              	.LVL29:
  52:Src/Menu/MainMenu_Menu.c **** 
  53:Src/Menu/MainMenu_Menu.c ****         createDownNode_Menu(L" Russian");
 161              		.loc 1 53 0
 162 00ba 2748     		ldr	r0, .L3+80
 163 00bc FFF7FEFF 		bl	createDownNode_Menu
 164              	.LVL30:
  54:Src/Menu/MainMenu_Menu.c ****         moveDown_Menu();
 165              		.loc 1 54 0
 166 00c0 FFF7FEFF 		bl	moveDown_Menu
 167              	.LVL31:
  55:Src/Menu/MainMenu_Menu.c ****         setFunctionUp(&simpleNavigationUp_Menu);
 168              		.loc 1 55 0
 169 00c4 2846     		mov	r0, r5
 170 00c6 FFF7FEFF 		bl	setFunctionUp
 171              	.LVL32:
  56:Src/Menu/MainMenu_Menu.c ****         setFunctionDown(&emptyFunction_Menu);
 172              		.loc 1 56 0
 173 00ca 3046     		mov	r0, r6
ARM GAS  /tmp/ccVe8Vz2.s 			page 5


 174 00cc FFF7FEFF 		bl	setFunctionDown
 175              	.LVL33:
  57:Src/Menu/MainMenu_Menu.c ****         setFunctionOk(&russianOk_Menu);
 176              		.loc 1 57 0
 177 00d0 2248     		ldr	r0, .L3+84
 178 00d2 FFF7FEFF 		bl	setFunctionOk
 179              	.LVL34:
  58:Src/Menu/MainMenu_Menu.c ****         setFunctionBack(&simpleNavigationBack_Menu);
 180              		.loc 1 58 0
 181 00d6 3846     		mov	r0, r7
 182 00d8 FFF7FEFF 		bl	setFunctionBack
 183              	.LVL35:
  59:Src/Menu/MainMenu_Menu.c **** 
  60:Src/Menu/MainMenu_Menu.c ****         moveLeft_Menu();
 184              		.loc 1 60 0
 185 00dc FFF7FEFF 		bl	moveLeft_Menu
 186              	.LVL36:
  61:Src/Menu/MainMenu_Menu.c **** 
  62:Src/Menu/MainMenu_Menu.c ****     createDownNode_Menu(L" Help");
 187              		.loc 1 62 0
 188 00e0 1F48     		ldr	r0, .L3+88
 189 00e2 FFF7FEFF 		bl	createDownNode_Menu
 190              	.LVL37:
  63:Src/Menu/MainMenu_Menu.c ****     moveDown_Menu();
 191              		.loc 1 63 0
 192 00e6 FFF7FEFF 		bl	moveDown_Menu
 193              	.LVL38:
  64:Src/Menu/MainMenu_Menu.c ****     setFunctionUp(&simpleNavigationUp_Menu);
 194              		.loc 1 64 0
 195 00ea 2846     		mov	r0, r5
 196 00ec FFF7FEFF 		bl	setFunctionUp
 197              	.LVL39:
  65:Src/Menu/MainMenu_Menu.c ****     setFunctionDown(&simpleNavigationDown_Menu);
 198              		.loc 1 65 0
 199 00f0 2046     		mov	r0, r4
 200 00f2 FFF7FEFF 		bl	setFunctionDown
 201              	.LVL40:
  66:Src/Menu/MainMenu_Menu.c ****     setFunctionOk(&helpOk_Menu);
 202              		.loc 1 66 0
 203 00f6 1B48     		ldr	r0, .L3+92
 204 00f8 FFF7FEFF 		bl	setFunctionOk
 205              	.LVL41:
  67:Src/Menu/MainMenu_Menu.c ****     setFunctionBack(&helpBack_Menu);
 206              		.loc 1 67 0
 207 00fc 1A48     		ldr	r0, .L3+96
 208 00fe FFF7FEFF 		bl	setFunctionBack
 209              	.LVL42:
  68:Src/Menu/MainMenu_Menu.c **** 
  69:Src/Menu/MainMenu_Menu.c ****     moveToTheFirstNode_Menu();
 210              		.loc 1 69 0
 211 0102 FFF7FEFF 		bl	moveToTheFirstNode_Menu
 212              	.LVL43:
  70:Src/Menu/MainMenu_Menu.c **** }
 213              		.loc 1 70 0
 214 0106 F8BD     		pop	{r3, r4, r5, r6, r7, pc}
 215              	.L4:
 216              		.align	2
ARM GAS  /tmp/ccVe8Vz2.s 			page 6


 217              	.L3:
 218 0108 00000000 		.word	.LC0
 219 010c 1C000000 		.word	.LC1
 220 0110 00000000 		.word	simpleNavigationUp_Menu
 221 0114 00000000 		.word	simpleNavigationDown_Menu
 222 0118 00000000 		.word	printOk_Menu
 223 011c 00000000 		.word	emptyFunction_Menu
 224 0120 44000000 		.word	.LC2
 225 0124 00000000 		.word	changeFilamentOk_Menu
 226 0128 88000000 		.word	.LC3
 227 012c DC000000 		.word	.LC4
 228 0130 00000000 		.word	setTheTemperatureUp_Menu
 229 0134 00000000 		.word	setTheTemperatureDown_Menu
 230 0138 00000000 		.word	setTheTemperatureOk_Menu
 231 013c 00000000 		.word	setTheTemperatureBack_Menu
 232 0140 1C010000 		.word	.LC5
 233 0144 00000000 		.word	simpleNavigationOk_Menu
 234 0148 44010000 		.word	.LC6
 235 014c 68010000 		.word	.LC7
 236 0150 00000000 		.word	englishOk_Menu
 237 0154 00000000 		.word	simpleNavigationBack_Menu
 238 0158 8C010000 		.word	.LC8
 239 015c 00000000 		.word	russianOk_Menu
 240 0160 B0010000 		.word	.LC9
 241 0164 00000000 		.word	helpOk_Menu
 242 0168 00000000 		.word	helpBack_Menu
 243              		.cfi_endproc
 244              	.LFE3:
 246              		.section	.rodata.setMainMenu_Menu.str4.4,"aMS",%progbits,4
 247              		.align	2
 248              	.LC0:
 249 0000 20000000 		.ascii	" \000\000\000P\000\000\000r\000\000\000i\000\000\000"
 249      50000000 
 249      72000000 
 249      69000000 
 250 0010 6E000000 		.ascii	"n\000\000\000t\000\000\000\000\000\000\000"
 250      74000000 
 250      00000000 
 251              	.LC1:
 252 001c 4D000000 		.ascii	"M\000\000\000A\000\000\000I\000\000\000N\000\000\000"
 252      41000000 
 252      49000000 
 252      4E000000 
 253 002c 20000000 		.ascii	" \000\000\000M\000\000\000E\000\000\000N\000\000\000"
 253      4D000000 
 253      45000000 
 253      4E000000 
 254 003c 55000000 		.ascii	"U\000\000\000\000\000\000\000"
 254      00000000 
 255              	.LC2:
 256 0044 20000000 		.ascii	" \000\000\000C\000\000\000h\000\000\000a\000\000\000"
 256      43000000 
 256      68000000 
 256      61000000 
 257 0054 6E000000 		.ascii	"n\000\000\000g\000\000\000e\000\000\000 \000\000\000"
 257      67000000 
 257      65000000 
ARM GAS  /tmp/ccVe8Vz2.s 			page 7


 257      20000000 
 258 0064 66000000 		.ascii	"f\000\000\000i\000\000\000l\000\000\000a\000\000\000"
 258      69000000 
 258      6C000000 
 258      61000000 
 259 0074 6D000000 		.ascii	"m\000\000\000e\000\000\000n\000\000\000t\000\000\000"
 259      65000000 
 259      6E000000 
 259      74000000 
 260 0084 00000000 		.ascii	"\000\000\000\000"
 261              	.LC3:
 262 0088 20000000 		.ascii	" \000\000\000S\000\000\000e\000\000\000t\000\000\000"
 262      53000000 
 262      65000000 
 262      74000000 
 263 0098 20000000 		.ascii	" \000\000\000t\000\000\000h\000\000\000e\000\000\000"
 263      74000000 
 263      68000000 
 263      65000000 
 264 00a8 20000000 		.ascii	" \000\000\000t\000\000\000e\000\000\000m\000\000\000"
 264      74000000 
 264      65000000 
 264      6D000000 
 265 00b8 70000000 		.ascii	"p\000\000\000e\000\000\000r\000\000\000a\000\000\000"
 265      65000000 
 265      72000000 
 265      61000000 
 266 00c8 74000000 		.ascii	"t\000\000\000u\000\000\000r\000\000\000e\000\000\000"
 266      75000000 
 266      72000000 
 266      65000000 
 267 00d8 00000000 		.ascii	"\000\000\000\000"
 268              	.LC4:
 269 00dc 43000000 		.ascii	"C\000\000\000H\000\000\000A\000\000\000N\000\000\000"
 269      48000000 
 269      41000000 
 269      4E000000 
 270 00ec 47000000 		.ascii	"G\000\000\000E\000\000\000 \000\000\000F\000\000\000"
 270      45000000 
 270      20000000 
 270      46000000 
 271 00fc 49000000 		.ascii	"I\000\000\000L\000\000\000A\000\000\000M\000\000\000"
 271      4C000000 
 271      41000000 
 271      4D000000 
 272 010c 45000000 		.ascii	"E\000\000\000N\000\000\000T\000\000\000\000\000\000"
 272      4E000000 
 272      54000000 
 272      000000
 273 011b 00       		.ascii	"\000"
 274              	.LC5:
 275 011c 20000000 		.ascii	" \000\000\000L\000\000\000a\000\000\000n\000\000\000"
 275      4C000000 
 275      61000000 
 275      6E000000 
 276 012c 67000000 		.ascii	"g\000\000\000u\000\000\000a\000\000\000g\000\000\000"
 276      75000000 
ARM GAS  /tmp/ccVe8Vz2.s 			page 8


 276      61000000 
 276      67000000 
 277 013c 65000000 		.ascii	"e\000\000\000\000\000\000\000"
 277      00000000 
 278              	.LC6:
 279 0144 20000000 		.ascii	" \000\000\000E\000\000\000n\000\000\000g\000\000\000"
 279      45000000 
 279      6E000000 
 279      67000000 
 280 0154 6C000000 		.ascii	"l\000\000\000i\000\000\000s\000\000\000h\000\000\000"
 280      69000000 
 280      73000000 
 280      68000000 
 281 0164 00000000 		.ascii	"\000\000\000\000"
 282              	.LC7:
 283 0168 4C000000 		.ascii	"L\000\000\000A\000\000\000N\000\000\000G\000\000\000"
 283      41000000 
 283      4E000000 
 283      47000000 
 284 0178 55000000 		.ascii	"U\000\000\000A\000\000\000G\000\000\000E\000\000\000"
 284      41000000 
 284      47000000 
 284      45000000 
 285 0188 00000000 		.ascii	"\000\000\000\000"
 286              	.LC8:
 287 018c 20000000 		.ascii	" \000\000\000R\000\000\000u\000\000\000s\000\000\000"
 287      52000000 
 287      75000000 
 287      73000000 
 288 019c 73000000 		.ascii	"s\000\000\000i\000\000\000a\000\000\000n\000\000\000"
 288      69000000 
 288      61000000 
 288      6E000000 
 289 01ac 00000000 		.ascii	"\000\000\000\000"
 290              	.LC9:
 291 01b0 20000000 		.ascii	" \000\000\000H\000\000\000e\000\000\000l\000\000\000"
 291      48000000 
 291      65000000 
 291      6C000000 
 292 01c0 70000000 		.ascii	"p\000\000\000\000\000\000\000"
 292      00000000 
 293              		.text
 294              	.Letext0:
 295              		.file 2 "/usr/arm-none-eabi/include/sys/lock.h"
 296              		.file 3 "/usr/arm-none-eabi/include/sys/_types.h"
 297              		.file 4 "/usr/lib/gcc/arm-none-eabi/7.3.1/include/stddef.h"
 298              		.file 5 "/usr/arm-none-eabi/include/sys/reent.h"
 299              		.file 6 "Inc/Menu/Constructor_Menu.h"
ARM GAS  /tmp/ccVe8Vz2.s 			page 9

