ARM GAS  /tmp/ccUPxtVD.s 			page 1


   1              		.cpu cortex-m3
   2              		.eabi_attribute 20, 1
   3              		.eabi_attribute 21, 1
   4              		.eabi_attribute 23, 3
   5              		.eabi_attribute 24, 1
   6              		.eabi_attribute 25, 1
   7              		.eabi_attribute 26, 1
   8              		.eabi_attribute 30, 1
   9              		.eabi_attribute 34, 1
  10              		.eabi_attribute 18, 4
  11              		.file	"State_USBdrive.c"
  12              		.text
  13              	.Ltext0:
  14              		.cfi_sections	.debug_frame
  15              		.section	.text.createState_USBdrive,"ax",%progbits
  16              		.align	1
  17              		.global	createState_USBdrive
  18              		.syntax unified
  19              		.thumb
  20              		.thumb_func
  21              		.fpu softvfp
  23              	createState_USBdrive:
  24              	.LFB0:
  25              		.file 1 "Src/USB/State_USBdrive.c"
   1:Src/USB/State_USBdrive.c **** #include "State_USBdrive.h"
   2:Src/USB/State_USBdrive.c **** 
   3:Src/USB/State_USBdrive.c **** static usbstates state_USBdrive = NOT_READY_USBDRIVE;
   4:Src/USB/State_USBdrive.c **** 
   5:Src/USB/State_USBdrive.c **** void createState_USBdrive(void) {state_USBdrive = NOT_READY_USBDRIVE;}
  26              		.loc 1 5 0
  27              		.cfi_startproc
  28              		@ args = 0, pretend = 0, frame = 0
  29              		@ frame_needed = 0, uses_anonymous_args = 0
  30              		@ link register save eliminated.
  31              		.loc 1 5 0
  32 0000 014B     		ldr	r3, .L2
  33 0002 0022     		movs	r2, #0
  34 0004 1A70     		strb	r2, [r3]
  35 0006 7047     		bx	lr
  36              	.L3:
  37              		.align	2
  38              	.L2:
  39 0008 00000000 		.word	.LANCHOR0
  40              		.cfi_endproc
  41              	.LFE0:
  43              		.section	.text.setState_USBdrive,"ax",%progbits
  44              		.align	1
  45              		.global	setState_USBdrive
  46              		.syntax unified
  47              		.thumb
  48              		.thumb_func
  49              		.fpu softvfp
  51              	setState_USBdrive:
  52              	.LFB1:
   6:Src/USB/State_USBdrive.c **** void setState_USBdrive(usbstates state) {state_USBdrive = state;}
  53              		.loc 1 6 0
  54              		.cfi_startproc
ARM GAS  /tmp/ccUPxtVD.s 			page 2


  55              		@ args = 0, pretend = 0, frame = 0
  56              		@ frame_needed = 0, uses_anonymous_args = 0
  57              		@ link register save eliminated.
  58              	.LVL0:
  59              		.loc 1 6 0
  60 0000 014B     		ldr	r3, .L5
  61 0002 1870     		strb	r0, [r3]
  62 0004 7047     		bx	lr
  63              	.L6:
  64 0006 00BF     		.align	2
  65              	.L5:
  66 0008 00000000 		.word	.LANCHOR0
  67              		.cfi_endproc
  68              	.LFE1:
  70              		.section	.text.getState_USBdrive,"ax",%progbits
  71              		.align	1
  72              		.global	getState_USBdrive
  73              		.syntax unified
  74              		.thumb
  75              		.thumb_func
  76              		.fpu softvfp
  78              	getState_USBdrive:
  79              	.LFB2:
   7:Src/USB/State_USBdrive.c **** usbstates getState_USBdrive(void){return state_USBdrive;}
  80              		.loc 1 7 0
  81              		.cfi_startproc
  82              		@ args = 0, pretend = 0, frame = 0
  83              		@ frame_needed = 0, uses_anonymous_args = 0
  84              		@ link register save eliminated.
  85              		.loc 1 7 0
  86 0000 014B     		ldr	r3, .L8
  87 0002 1878     		ldrb	r0, [r3]	@ zero_extendqisi2
  88 0004 7047     		bx	lr
  89              	.L9:
  90 0006 00BF     		.align	2
  91              	.L8:
  92 0008 00000000 		.word	.LANCHOR0
  93              		.cfi_endproc
  94              	.LFE2:
  96              		.section	.bss.state_USBdrive,"aw",%nobits
  97              		.set	.LANCHOR0,. + 0
 100              	state_USBdrive:
 101 0000 00       		.space	1
 102              		.text
 103              	.Letext0:
 104              		.file 2 "Inc/USB/State_USBdrive.h"
ARM GAS  /tmp/ccUPxtVD.s 			page 3

