ARM GAS  /tmp/ccG7BdKF.s 			page 1


   1              		.cpu cortex-m3
   2              		.eabi_attribute 20, 1
   3              		.eabi_attribute 21, 1
   4              		.eabi_attribute 23, 3
   5              		.eabi_attribute 24, 1
   6              		.eabi_attribute 25, 1
   7              		.eabi_attribute 26, 1
   8              		.eabi_attribute 30, 1
   9              		.eabi_attribute 34, 1
  10              		.eabi_attribute 18, 4
  11              		.file	"stm32f1xx_ll_usb.c"
  12              		.text
  13              	.Ltext0:
  14              		.cfi_sections	.debug_frame
  15              		.section	.text.USB_CoreInit,"ax",%progbits
  16              		.align	1
  17              		.global	USB_CoreInit
  18              		.syntax unified
  19              		.thumb
  20              		.thumb_func
  21              		.fpu softvfp
  23              	USB_CoreInit:
  24              	.LFB66:
  25              		.file 1 "Drivers/STM32F1xx_HAL_Driver/Src/stm32f1xx_ll_usb.c"
   1:Drivers/STM32F1xx_HAL_Driver/Src/stm32f1xx_ll_usb.c **** /**
   2:Drivers/STM32F1xx_HAL_Driver/Src/stm32f1xx_ll_usb.c ****   ******************************************************************************
   3:Drivers/STM32F1xx_HAL_Driver/Src/stm32f1xx_ll_usb.c ****   * @file    stm32f1xx_ll_usb.c
   4:Drivers/STM32F1xx_HAL_Driver/Src/stm32f1xx_ll_usb.c ****   * @author  MCD Application Team
   5:Drivers/STM32F1xx_HAL_Driver/Src/stm32f1xx_ll_usb.c ****   * @brief   USB Low Layer HAL module driver.
   6:Drivers/STM32F1xx_HAL_Driver/Src/stm32f1xx_ll_usb.c ****   *
   7:Drivers/STM32F1xx_HAL_Driver/Src/stm32f1xx_ll_usb.c ****   *          This file provides firmware functions to manage the following 
   8:Drivers/STM32F1xx_HAL_Driver/Src/stm32f1xx_ll_usb.c ****   *          functionalities of the USB Peripheral Controller:
   9:Drivers/STM32F1xx_HAL_Driver/Src/stm32f1xx_ll_usb.c ****   *           + Initialization/de-initialization functions
  10:Drivers/STM32F1xx_HAL_Driver/Src/stm32f1xx_ll_usb.c ****   *           + I/O operation functions
  11:Drivers/STM32F1xx_HAL_Driver/Src/stm32f1xx_ll_usb.c ****   *           + Peripheral Control functions 
  12:Drivers/STM32F1xx_HAL_Driver/Src/stm32f1xx_ll_usb.c ****   *           + Peripheral State functions
  13:Drivers/STM32F1xx_HAL_Driver/Src/stm32f1xx_ll_usb.c ****   *
  14:Drivers/STM32F1xx_HAL_Driver/Src/stm32f1xx_ll_usb.c ****   @verbatim
  15:Drivers/STM32F1xx_HAL_Driver/Src/stm32f1xx_ll_usb.c ****   ==============================================================================
  16:Drivers/STM32F1xx_HAL_Driver/Src/stm32f1xx_ll_usb.c ****                     ##### How to use this driver #####
  17:Drivers/STM32F1xx_HAL_Driver/Src/stm32f1xx_ll_usb.c ****   ==============================================================================
  18:Drivers/STM32F1xx_HAL_Driver/Src/stm32f1xx_ll_usb.c ****     [..]
  19:Drivers/STM32F1xx_HAL_Driver/Src/stm32f1xx_ll_usb.c ****       (#) Fill parameters of Init structure in USB_OTG_CfgTypeDef structure.
  20:Drivers/STM32F1xx_HAL_Driver/Src/stm32f1xx_ll_usb.c ****   
  21:Drivers/STM32F1xx_HAL_Driver/Src/stm32f1xx_ll_usb.c ****       (#) Call USB_CoreInit() API to initialize the USB Core peripheral.
  22:Drivers/STM32F1xx_HAL_Driver/Src/stm32f1xx_ll_usb.c **** 
  23:Drivers/STM32F1xx_HAL_Driver/Src/stm32f1xx_ll_usb.c ****       (#) The upper HAL HCD/PCD driver will call the right routines for its internal processes.
  24:Drivers/STM32F1xx_HAL_Driver/Src/stm32f1xx_ll_usb.c **** 
  25:Drivers/STM32F1xx_HAL_Driver/Src/stm32f1xx_ll_usb.c ****   @endverbatim
  26:Drivers/STM32F1xx_HAL_Driver/Src/stm32f1xx_ll_usb.c ****   ******************************************************************************
  27:Drivers/STM32F1xx_HAL_Driver/Src/stm32f1xx_ll_usb.c ****   * @attention
  28:Drivers/STM32F1xx_HAL_Driver/Src/stm32f1xx_ll_usb.c ****   *
  29:Drivers/STM32F1xx_HAL_Driver/Src/stm32f1xx_ll_usb.c ****   * <h2><center>&copy; COPYRIGHT(c) 2016 STMicroelectronics</center></h2>
  30:Drivers/STM32F1xx_HAL_Driver/Src/stm32f1xx_ll_usb.c ****   *
  31:Drivers/STM32F1xx_HAL_Driver/Src/stm32f1xx_ll_usb.c ****   * Redistribution and use in source and binary forms, with or without modification,
  32:Drivers/STM32F1xx_HAL_Driver/Src/stm32f1xx_ll_usb.c ****   * are permitted provided that the following conditions are met:
  33:Drivers/STM32F1xx_HAL_Driver/Src/stm32f1xx_ll_usb.c ****   *   1. Redistributions of source code must retain the above copyright notice,
ARM GAS  /tmp/ccG7BdKF.s 			page 2


  34:Drivers/STM32F1xx_HAL_Driver/Src/stm32f1xx_ll_usb.c ****   *      this list of conditions and the following disclaimer.
  35:Drivers/STM32F1xx_HAL_Driver/Src/stm32f1xx_ll_usb.c ****   *   2. Redistributions in binary form must reproduce the above copyright notice,
  36:Drivers/STM32F1xx_HAL_Driver/Src/stm32f1xx_ll_usb.c ****   *      this list of conditions and the following disclaimer in the documentation
  37:Drivers/STM32F1xx_HAL_Driver/Src/stm32f1xx_ll_usb.c ****   *      and/or other materials provided with the distribution.
  38:Drivers/STM32F1xx_HAL_Driver/Src/stm32f1xx_ll_usb.c ****   *   3. Neither the name of STMicroelectronics nor the names of its contributors
  39:Drivers/STM32F1xx_HAL_Driver/Src/stm32f1xx_ll_usb.c ****   *      may be used to endorse or promote products derived from this software
  40:Drivers/STM32F1xx_HAL_Driver/Src/stm32f1xx_ll_usb.c ****   *      without specific prior written permission.
  41:Drivers/STM32F1xx_HAL_Driver/Src/stm32f1xx_ll_usb.c ****   *
  42:Drivers/STM32F1xx_HAL_Driver/Src/stm32f1xx_ll_usb.c ****   * THIS SOFTWARE IS PROVIDED BY THE COPYRIGHT HOLDERS AND CONTRIBUTORS "AS IS"
  43:Drivers/STM32F1xx_HAL_Driver/Src/stm32f1xx_ll_usb.c ****   * AND ANY EXPRESS OR IMPLIED WARRANTIES, INCLUDING, BUT NOT LIMITED TO, THE
  44:Drivers/STM32F1xx_HAL_Driver/Src/stm32f1xx_ll_usb.c ****   * IMPLIED WARRANTIES OF MERCHANTABILITY AND FITNESS FOR A PARTICULAR PURPOSE ARE
  45:Drivers/STM32F1xx_HAL_Driver/Src/stm32f1xx_ll_usb.c ****   * DISCLAIMED. IN NO EVENT SHALL THE COPYRIGHT HOLDER OR CONTRIBUTORS BE LIABLE
  46:Drivers/STM32F1xx_HAL_Driver/Src/stm32f1xx_ll_usb.c ****   * FOR ANY DIRECT, INDIRECT, INCIDENTAL, SPECIAL, EXEMPLARY, OR CONSEQUENTIAL
  47:Drivers/STM32F1xx_HAL_Driver/Src/stm32f1xx_ll_usb.c ****   * DAMAGES (INCLUDING, BUT NOT LIMITED TO, PROCUREMENT OF SUBSTITUTE GOODS OR
  48:Drivers/STM32F1xx_HAL_Driver/Src/stm32f1xx_ll_usb.c ****   * SERVICES; LOSS OF USE, DATA, OR PROFITS; OR BUSINESS INTERRUPTION) HOWEVER
  49:Drivers/STM32F1xx_HAL_Driver/Src/stm32f1xx_ll_usb.c ****   * CAUSED AND ON ANY THEORY OF LIABILITY, WHETHER IN CONTRACT, STRICT LIABILITY,
  50:Drivers/STM32F1xx_HAL_Driver/Src/stm32f1xx_ll_usb.c ****   * OR TORT (INCLUDING NEGLIGENCE OR OTHERWISE) ARISING IN ANY WAY OUT OF THE USE
  51:Drivers/STM32F1xx_HAL_Driver/Src/stm32f1xx_ll_usb.c ****   * OF THIS SOFTWARE, EVEN IF ADVISED OF THE POSSIBILITY OF SUCH DAMAGE.
  52:Drivers/STM32F1xx_HAL_Driver/Src/stm32f1xx_ll_usb.c ****   *
  53:Drivers/STM32F1xx_HAL_Driver/Src/stm32f1xx_ll_usb.c ****   ******************************************************************************
  54:Drivers/STM32F1xx_HAL_Driver/Src/stm32f1xx_ll_usb.c ****   */ 
  55:Drivers/STM32F1xx_HAL_Driver/Src/stm32f1xx_ll_usb.c **** 
  56:Drivers/STM32F1xx_HAL_Driver/Src/stm32f1xx_ll_usb.c **** /* Includes ------------------------------------------------------------------*/
  57:Drivers/STM32F1xx_HAL_Driver/Src/stm32f1xx_ll_usb.c **** #include "stm32f1xx_hal.h"
  58:Drivers/STM32F1xx_HAL_Driver/Src/stm32f1xx_ll_usb.c **** 
  59:Drivers/STM32F1xx_HAL_Driver/Src/stm32f1xx_ll_usb.c **** /** @addtogroup STM32F1xx_HAL_Driver
  60:Drivers/STM32F1xx_HAL_Driver/Src/stm32f1xx_ll_usb.c ****   * @{
  61:Drivers/STM32F1xx_HAL_Driver/Src/stm32f1xx_ll_usb.c ****   */
  62:Drivers/STM32F1xx_HAL_Driver/Src/stm32f1xx_ll_usb.c **** 
  63:Drivers/STM32F1xx_HAL_Driver/Src/stm32f1xx_ll_usb.c **** /** @defgroup USB_LL USB Low Layer
  64:Drivers/STM32F1xx_HAL_Driver/Src/stm32f1xx_ll_usb.c ****   * @brief Low layer module for USB_FS and USB_OTG_FS drivers
  65:Drivers/STM32F1xx_HAL_Driver/Src/stm32f1xx_ll_usb.c ****   * @{
  66:Drivers/STM32F1xx_HAL_Driver/Src/stm32f1xx_ll_usb.c ****   */
  67:Drivers/STM32F1xx_HAL_Driver/Src/stm32f1xx_ll_usb.c **** 
  68:Drivers/STM32F1xx_HAL_Driver/Src/stm32f1xx_ll_usb.c **** #if defined (HAL_PCD_MODULE_ENABLED) || defined (HAL_HCD_MODULE_ENABLED)
  69:Drivers/STM32F1xx_HAL_Driver/Src/stm32f1xx_ll_usb.c **** 
  70:Drivers/STM32F1xx_HAL_Driver/Src/stm32f1xx_ll_usb.c **** #if defined(STM32F102x6) || defined(STM32F102xB) || \
  71:Drivers/STM32F1xx_HAL_Driver/Src/stm32f1xx_ll_usb.c ****     defined(STM32F103x6) || defined(STM32F103xB) || \
  72:Drivers/STM32F1xx_HAL_Driver/Src/stm32f1xx_ll_usb.c ****     defined(STM32F103xE) || defined(STM32F103xG) || \
  73:Drivers/STM32F1xx_HAL_Driver/Src/stm32f1xx_ll_usb.c ****     defined(STM32F105xC) || defined(STM32F107xC)
  74:Drivers/STM32F1xx_HAL_Driver/Src/stm32f1xx_ll_usb.c ****  
  75:Drivers/STM32F1xx_HAL_Driver/Src/stm32f1xx_ll_usb.c **** /* Private types -------------------------------------------------------------*/
  76:Drivers/STM32F1xx_HAL_Driver/Src/stm32f1xx_ll_usb.c **** /* Private variables ---------------------------------------------------------*/
  77:Drivers/STM32F1xx_HAL_Driver/Src/stm32f1xx_ll_usb.c **** /* Private constants ---------------------------------------------------------*/
  78:Drivers/STM32F1xx_HAL_Driver/Src/stm32f1xx_ll_usb.c **** /* Private macros ------------------------------------------------------------*/
  79:Drivers/STM32F1xx_HAL_Driver/Src/stm32f1xx_ll_usb.c **** /* Private functions ---------------------------------------------------------*/
  80:Drivers/STM32F1xx_HAL_Driver/Src/stm32f1xx_ll_usb.c **** #if defined (USB_OTG_FS)
  81:Drivers/STM32F1xx_HAL_Driver/Src/stm32f1xx_ll_usb.c **** /** @defgroup USB_LL_Private_Functions USB Low Layer Private Functions
  82:Drivers/STM32F1xx_HAL_Driver/Src/stm32f1xx_ll_usb.c ****   * @{
  83:Drivers/STM32F1xx_HAL_Driver/Src/stm32f1xx_ll_usb.c ****   */
  84:Drivers/STM32F1xx_HAL_Driver/Src/stm32f1xx_ll_usb.c **** static HAL_StatusTypeDef USB_CoreReset(USB_OTG_GlobalTypeDef *USBx);
  85:Drivers/STM32F1xx_HAL_Driver/Src/stm32f1xx_ll_usb.c **** /**
  86:Drivers/STM32F1xx_HAL_Driver/Src/stm32f1xx_ll_usb.c ****   * @}
  87:Drivers/STM32F1xx_HAL_Driver/Src/stm32f1xx_ll_usb.c ****   */
  88:Drivers/STM32F1xx_HAL_Driver/Src/stm32f1xx_ll_usb.c **** #endif /* USB_OTG_FS */
  89:Drivers/STM32F1xx_HAL_Driver/Src/stm32f1xx_ll_usb.c **** 
  90:Drivers/STM32F1xx_HAL_Driver/Src/stm32f1xx_ll_usb.c **** /* Exported functions --------------------------------------------------------*/
ARM GAS  /tmp/ccG7BdKF.s 			page 3


  91:Drivers/STM32F1xx_HAL_Driver/Src/stm32f1xx_ll_usb.c **** /** @defgroup USB_LL_Exported_Functions USB Low Layer Exported Functions
  92:Drivers/STM32F1xx_HAL_Driver/Src/stm32f1xx_ll_usb.c ****   * @{
  93:Drivers/STM32F1xx_HAL_Driver/Src/stm32f1xx_ll_usb.c ****   */
  94:Drivers/STM32F1xx_HAL_Driver/Src/stm32f1xx_ll_usb.c **** 
  95:Drivers/STM32F1xx_HAL_Driver/Src/stm32f1xx_ll_usb.c **** /** @defgroup USB_LL_Exported_Functions_Group1 Peripheral Control functions
  96:Drivers/STM32F1xx_HAL_Driver/Src/stm32f1xx_ll_usb.c ****  *  @brief   management functions
  97:Drivers/STM32F1xx_HAL_Driver/Src/stm32f1xx_ll_usb.c ****  *
  98:Drivers/STM32F1xx_HAL_Driver/Src/stm32f1xx_ll_usb.c **** @verbatim
  99:Drivers/STM32F1xx_HAL_Driver/Src/stm32f1xx_ll_usb.c ****  ===============================================================================
 100:Drivers/STM32F1xx_HAL_Driver/Src/stm32f1xx_ll_usb.c ****                       ##### Peripheral Control functions #####
 101:Drivers/STM32F1xx_HAL_Driver/Src/stm32f1xx_ll_usb.c ****  ===============================================================================  
 102:Drivers/STM32F1xx_HAL_Driver/Src/stm32f1xx_ll_usb.c ****     [..]
 103:Drivers/STM32F1xx_HAL_Driver/Src/stm32f1xx_ll_usb.c ****     This subsection provides a set of functions allowing to control the PCD data 
 104:Drivers/STM32F1xx_HAL_Driver/Src/stm32f1xx_ll_usb.c ****     transfers.
 105:Drivers/STM32F1xx_HAL_Driver/Src/stm32f1xx_ll_usb.c ****  
 106:Drivers/STM32F1xx_HAL_Driver/Src/stm32f1xx_ll_usb.c **** @endverbatim
 107:Drivers/STM32F1xx_HAL_Driver/Src/stm32f1xx_ll_usb.c ****   * @{
 108:Drivers/STM32F1xx_HAL_Driver/Src/stm32f1xx_ll_usb.c ****   */
 109:Drivers/STM32F1xx_HAL_Driver/Src/stm32f1xx_ll_usb.c ****   
 110:Drivers/STM32F1xx_HAL_Driver/Src/stm32f1xx_ll_usb.c **** /*==============================================================================
 111:Drivers/STM32F1xx_HAL_Driver/Src/stm32f1xx_ll_usb.c ****     USB OTG FS peripheral available on STM32F105xx and STM32F107xx devices 
 112:Drivers/STM32F1xx_HAL_Driver/Src/stm32f1xx_ll_usb.c **** ==============================================================================*/
 113:Drivers/STM32F1xx_HAL_Driver/Src/stm32f1xx_ll_usb.c **** #if defined (USB_OTG_FS)
 114:Drivers/STM32F1xx_HAL_Driver/Src/stm32f1xx_ll_usb.c **** 
 115:Drivers/STM32F1xx_HAL_Driver/Src/stm32f1xx_ll_usb.c **** /**
 116:Drivers/STM32F1xx_HAL_Driver/Src/stm32f1xx_ll_usb.c ****   * @brief  Initializes the USB Core
 117:Drivers/STM32F1xx_HAL_Driver/Src/stm32f1xx_ll_usb.c ****   * @param  USBx: USB Instance
 118:Drivers/STM32F1xx_HAL_Driver/Src/stm32f1xx_ll_usb.c ****   * @param  cfg : pointer to a USB_OTG_CfgTypeDef structure that contains
 119:Drivers/STM32F1xx_HAL_Driver/Src/stm32f1xx_ll_usb.c ****   *         the configuration information for the specified USBx peripheral.
 120:Drivers/STM32F1xx_HAL_Driver/Src/stm32f1xx_ll_usb.c ****   * @retval HAL status
 121:Drivers/STM32F1xx_HAL_Driver/Src/stm32f1xx_ll_usb.c ****   */
 122:Drivers/STM32F1xx_HAL_Driver/Src/stm32f1xx_ll_usb.c **** HAL_StatusTypeDef USB_CoreInit(USB_OTG_GlobalTypeDef *USBx, USB_OTG_CfgTypeDef cfg)
 123:Drivers/STM32F1xx_HAL_Driver/Src/stm32f1xx_ll_usb.c **** {
  26              		.loc 1 123 0
  27              		.cfi_startproc
  28              		@ args = 36, pretend = 16, frame = 0
  29              		@ frame_needed = 0, uses_anonymous_args = 0
  30              	.LVL0:
  31 0000 84B0     		sub	sp, sp, #16
  32              	.LCFI0:
  33              		.cfi_def_cfa_offset 16
  34 0002 38B5     		push	{r3, r4, r5, lr}
  35              	.LCFI1:
  36              		.cfi_def_cfa_offset 32
  37              		.cfi_offset 3, -32
  38              		.cfi_offset 4, -28
  39              		.cfi_offset 5, -24
  40              		.cfi_offset 14, -20
  41 0004 0446     		mov	r4, r0
  42 0006 05AD     		add	r5, sp, #20
  43 0008 85E80E00 		stm	r5, {r1, r2, r3}
 124:Drivers/STM32F1xx_HAL_Driver/Src/stm32f1xx_ll_usb.c ****   /* Prevent unused argument(s) compilation warning */
 125:Drivers/STM32F1xx_HAL_Driver/Src/stm32f1xx_ll_usb.c ****   UNUSED(cfg);
 126:Drivers/STM32F1xx_HAL_Driver/Src/stm32f1xx_ll_usb.c **** 
 127:Drivers/STM32F1xx_HAL_Driver/Src/stm32f1xx_ll_usb.c ****   /* Select FS Embedded PHY */
 128:Drivers/STM32F1xx_HAL_Driver/Src/stm32f1xx_ll_usb.c ****   USBx->GUSBCFG |= USB_OTG_GUSBCFG_PHYSEL;
  44              		.loc 1 128 0
ARM GAS  /tmp/ccG7BdKF.s 			page 4


  45 000c C368     		ldr	r3, [r0, #12]
  46 000e 43F04003 		orr	r3, r3, #64
  47 0012 C360     		str	r3, [r0, #12]
 129:Drivers/STM32F1xx_HAL_Driver/Src/stm32f1xx_ll_usb.c ****   
 130:Drivers/STM32F1xx_HAL_Driver/Src/stm32f1xx_ll_usb.c ****   /* Reset after a PHY select and set Host mode */
 131:Drivers/STM32F1xx_HAL_Driver/Src/stm32f1xx_ll_usb.c ****   USB_CoreReset(USBx);
  48              		.loc 1 131 0
  49 0014 FFF7FEFF 		bl	USB_CoreReset
  50              	.LVL1:
 132:Drivers/STM32F1xx_HAL_Driver/Src/stm32f1xx_ll_usb.c ****   
 133:Drivers/STM32F1xx_HAL_Driver/Src/stm32f1xx_ll_usb.c ****   /* Deactivate the power down*/
 134:Drivers/STM32F1xx_HAL_Driver/Src/stm32f1xx_ll_usb.c ****   USBx->GCCFG = USB_OTG_GCCFG_PWRDWN;
  51              		.loc 1 134 0
  52 0018 4FF48033 		mov	r3, #65536
  53 001c A363     		str	r3, [r4, #56]
 135:Drivers/STM32F1xx_HAL_Driver/Src/stm32f1xx_ll_usb.c ****   
 136:Drivers/STM32F1xx_HAL_Driver/Src/stm32f1xx_ll_usb.c ****   return HAL_OK;
 137:Drivers/STM32F1xx_HAL_Driver/Src/stm32f1xx_ll_usb.c **** }
  54              		.loc 1 137 0
  55 001e 0020     		movs	r0, #0
  56 0020 BDE83840 		pop	{r3, r4, r5, lr}
  57              	.LCFI2:
  58              		.cfi_restore 14
  59              		.cfi_restore 5
  60              		.cfi_restore 4
  61              		.cfi_restore 3
  62              		.cfi_def_cfa_offset 16
  63              	.LVL2:
  64 0024 04B0     		add	sp, sp, #16
  65              	.LCFI3:
  66              		.cfi_def_cfa_offset 0
  67 0026 7047     		bx	lr
  68              		.cfi_endproc
  69              	.LFE66:
  71              		.section	.text.USB_EnableGlobalInt,"ax",%progbits
  72              		.align	1
  73              		.global	USB_EnableGlobalInt
  74              		.syntax unified
  75              		.thumb
  76              		.thumb_func
  77              		.fpu softvfp
  79              	USB_EnableGlobalInt:
  80              	.LFB67:
 138:Drivers/STM32F1xx_HAL_Driver/Src/stm32f1xx_ll_usb.c **** 
 139:Drivers/STM32F1xx_HAL_Driver/Src/stm32f1xx_ll_usb.c **** /**
 140:Drivers/STM32F1xx_HAL_Driver/Src/stm32f1xx_ll_usb.c ****   * @brief  USB_EnableGlobalInt
 141:Drivers/STM32F1xx_HAL_Driver/Src/stm32f1xx_ll_usb.c ****   *         Enables the controller's Global Int in the AHB Config reg
 142:Drivers/STM32F1xx_HAL_Driver/Src/stm32f1xx_ll_usb.c ****   * @param  USBx : Selected device
 143:Drivers/STM32F1xx_HAL_Driver/Src/stm32f1xx_ll_usb.c ****   * @retval HAL status
 144:Drivers/STM32F1xx_HAL_Driver/Src/stm32f1xx_ll_usb.c ****   */
 145:Drivers/STM32F1xx_HAL_Driver/Src/stm32f1xx_ll_usb.c **** HAL_StatusTypeDef USB_EnableGlobalInt(USB_OTG_GlobalTypeDef *USBx)
 146:Drivers/STM32F1xx_HAL_Driver/Src/stm32f1xx_ll_usb.c **** {
  81              		.loc 1 146 0
  82              		.cfi_startproc
  83              		@ args = 0, pretend = 0, frame = 0
  84              		@ frame_needed = 0, uses_anonymous_args = 0
  85              		@ link register save eliminated.
ARM GAS  /tmp/ccG7BdKF.s 			page 5


  86              	.LVL3:
 147:Drivers/STM32F1xx_HAL_Driver/Src/stm32f1xx_ll_usb.c ****   USBx->GAHBCFG |= USB_OTG_GAHBCFG_GINT;
  87              		.loc 1 147 0
  88 0000 8368     		ldr	r3, [r0, #8]
  89 0002 43F00103 		orr	r3, r3, #1
  90 0006 8360     		str	r3, [r0, #8]
 148:Drivers/STM32F1xx_HAL_Driver/Src/stm32f1xx_ll_usb.c ****   return HAL_OK;
 149:Drivers/STM32F1xx_HAL_Driver/Src/stm32f1xx_ll_usb.c **** }
  91              		.loc 1 149 0
  92 0008 0020     		movs	r0, #0
  93              	.LVL4:
  94 000a 7047     		bx	lr
  95              		.cfi_endproc
  96              	.LFE67:
  98              		.section	.text.USB_DisableGlobalInt,"ax",%progbits
  99              		.align	1
 100              		.global	USB_DisableGlobalInt
 101              		.syntax unified
 102              		.thumb
 103              		.thumb_func
 104              		.fpu softvfp
 106              	USB_DisableGlobalInt:
 107              	.LFB68:
 150:Drivers/STM32F1xx_HAL_Driver/Src/stm32f1xx_ll_usb.c **** 
 151:Drivers/STM32F1xx_HAL_Driver/Src/stm32f1xx_ll_usb.c **** /**
 152:Drivers/STM32F1xx_HAL_Driver/Src/stm32f1xx_ll_usb.c ****   * @brief  USB_DisableGlobalInt
 153:Drivers/STM32F1xx_HAL_Driver/Src/stm32f1xx_ll_usb.c ****   *         Disable the controller's Global Int in the AHB Config reg
 154:Drivers/STM32F1xx_HAL_Driver/Src/stm32f1xx_ll_usb.c ****   * @param  USBx : Selected device
 155:Drivers/STM32F1xx_HAL_Driver/Src/stm32f1xx_ll_usb.c ****   * @retval HAL status
 156:Drivers/STM32F1xx_HAL_Driver/Src/stm32f1xx_ll_usb.c **** */
 157:Drivers/STM32F1xx_HAL_Driver/Src/stm32f1xx_ll_usb.c **** HAL_StatusTypeDef USB_DisableGlobalInt(USB_OTG_GlobalTypeDef *USBx)
 158:Drivers/STM32F1xx_HAL_Driver/Src/stm32f1xx_ll_usb.c **** {
 108              		.loc 1 158 0
 109              		.cfi_startproc
 110              		@ args = 0, pretend = 0, frame = 0
 111              		@ frame_needed = 0, uses_anonymous_args = 0
 112              		@ link register save eliminated.
 113              	.LVL5:
 159:Drivers/STM32F1xx_HAL_Driver/Src/stm32f1xx_ll_usb.c ****   USBx->GAHBCFG &= ~USB_OTG_GAHBCFG_GINT;
 114              		.loc 1 159 0
 115 0000 8368     		ldr	r3, [r0, #8]
 116 0002 23F00103 		bic	r3, r3, #1
 117 0006 8360     		str	r3, [r0, #8]
 160:Drivers/STM32F1xx_HAL_Driver/Src/stm32f1xx_ll_usb.c ****   return HAL_OK;
 161:Drivers/STM32F1xx_HAL_Driver/Src/stm32f1xx_ll_usb.c **** }
 118              		.loc 1 161 0
 119 0008 0020     		movs	r0, #0
 120              	.LVL6:
 121 000a 7047     		bx	lr
 122              		.cfi_endproc
 123              	.LFE68:
 125              		.section	.text.USB_SetCurrentMode,"ax",%progbits
 126              		.align	1
 127              		.global	USB_SetCurrentMode
 128              		.syntax unified
 129              		.thumb
 130              		.thumb_func
ARM GAS  /tmp/ccG7BdKF.s 			page 6


 131              		.fpu softvfp
 133              	USB_SetCurrentMode:
 134              	.LFB69:
 162:Drivers/STM32F1xx_HAL_Driver/Src/stm32f1xx_ll_usb.c **** 
 163:Drivers/STM32F1xx_HAL_Driver/Src/stm32f1xx_ll_usb.c **** /**
 164:Drivers/STM32F1xx_HAL_Driver/Src/stm32f1xx_ll_usb.c ****   * @brief  USB_SetCurrentMode : Set functional mode
 165:Drivers/STM32F1xx_HAL_Driver/Src/stm32f1xx_ll_usb.c ****   * @param  USBx : Selected device
 166:Drivers/STM32F1xx_HAL_Driver/Src/stm32f1xx_ll_usb.c ****   * @param  mode :  current core mode
 167:Drivers/STM32F1xx_HAL_Driver/Src/stm32f1xx_ll_usb.c ****   *          This parameter can be one of the these values:
 168:Drivers/STM32F1xx_HAL_Driver/Src/stm32f1xx_ll_usb.c ****   *            @arg USB_DEVICE_MODE: Peripheral mode mode
 169:Drivers/STM32F1xx_HAL_Driver/Src/stm32f1xx_ll_usb.c ****   *            @arg USB_HOST_MODE: Host mode
 170:Drivers/STM32F1xx_HAL_Driver/Src/stm32f1xx_ll_usb.c ****   *            @arg USB_DRD_MODE: Dual Role Device mode  
 171:Drivers/STM32F1xx_HAL_Driver/Src/stm32f1xx_ll_usb.c ****   * @retval HAL status
 172:Drivers/STM32F1xx_HAL_Driver/Src/stm32f1xx_ll_usb.c ****   */
 173:Drivers/STM32F1xx_HAL_Driver/Src/stm32f1xx_ll_usb.c **** HAL_StatusTypeDef USB_SetCurrentMode(USB_OTG_GlobalTypeDef *USBx , USB_ModeTypeDef mode)
 174:Drivers/STM32F1xx_HAL_Driver/Src/stm32f1xx_ll_usb.c **** {
 135              		.loc 1 174 0
 136              		.cfi_startproc
 137              		@ args = 0, pretend = 0, frame = 0
 138              		@ frame_needed = 0, uses_anonymous_args = 0
 139              	.LVL7:
 140 0000 08B5     		push	{r3, lr}
 141              	.LCFI4:
 142              		.cfi_def_cfa_offset 8
 143              		.cfi_offset 3, -8
 144              		.cfi_offset 14, -4
 175:Drivers/STM32F1xx_HAL_Driver/Src/stm32f1xx_ll_usb.c ****   USBx->GUSBCFG &= ~(USB_OTG_GUSBCFG_FHMOD | USB_OTG_GUSBCFG_FDMOD); 
 145              		.loc 1 175 0
 146 0002 C368     		ldr	r3, [r0, #12]
 147 0004 23F0C043 		bic	r3, r3, #1610612736
 148 0008 C360     		str	r3, [r0, #12]
 176:Drivers/STM32F1xx_HAL_Driver/Src/stm32f1xx_ll_usb.c ****   
 177:Drivers/STM32F1xx_HAL_Driver/Src/stm32f1xx_ll_usb.c ****   if ( mode == USB_HOST_MODE)
 149              		.loc 1 177 0
 150 000a 0129     		cmp	r1, #1
 151 000c 09D0     		beq	.L9
 178:Drivers/STM32F1xx_HAL_Driver/Src/stm32f1xx_ll_usb.c ****   {
 179:Drivers/STM32F1xx_HAL_Driver/Src/stm32f1xx_ll_usb.c ****     USBx->GUSBCFG |= USB_OTG_GUSBCFG_FHMOD;
 180:Drivers/STM32F1xx_HAL_Driver/Src/stm32f1xx_ll_usb.c ****   }
 181:Drivers/STM32F1xx_HAL_Driver/Src/stm32f1xx_ll_usb.c ****   else if (mode == USB_DEVICE_MODE)
 152              		.loc 1 181 0
 153 000e 19B9     		cbnz	r1, .L7
 182:Drivers/STM32F1xx_HAL_Driver/Src/stm32f1xx_ll_usb.c ****   {
 183:Drivers/STM32F1xx_HAL_Driver/Src/stm32f1xx_ll_usb.c ****     USBx->GUSBCFG |= USB_OTG_GUSBCFG_FDMOD; 
 154              		.loc 1 183 0
 155 0010 C368     		ldr	r3, [r0, #12]
 156 0012 43F08043 		orr	r3, r3, #1073741824
 157 0016 C360     		str	r3, [r0, #12]
 158              	.L7:
 184:Drivers/STM32F1xx_HAL_Driver/Src/stm32f1xx_ll_usb.c ****   }
 185:Drivers/STM32F1xx_HAL_Driver/Src/stm32f1xx_ll_usb.c ****   HAL_Delay(50);
 159              		.loc 1 185 0
 160 0018 3220     		movs	r0, #50
 161              	.LVL8:
 162 001a FFF7FEFF 		bl	HAL_Delay
 163              	.LVL9:
 186:Drivers/STM32F1xx_HAL_Driver/Src/stm32f1xx_ll_usb.c ****   
ARM GAS  /tmp/ccG7BdKF.s 			page 7


 187:Drivers/STM32F1xx_HAL_Driver/Src/stm32f1xx_ll_usb.c ****   return HAL_OK;
 188:Drivers/STM32F1xx_HAL_Driver/Src/stm32f1xx_ll_usb.c **** }
 164              		.loc 1 188 0
 165 001e 0020     		movs	r0, #0
 166 0020 08BD     		pop	{r3, pc}
 167              	.LVL10:
 168              	.L9:
 179:Drivers/STM32F1xx_HAL_Driver/Src/stm32f1xx_ll_usb.c ****   }
 169              		.loc 1 179 0
 170 0022 C368     		ldr	r3, [r0, #12]
 171 0024 43F00053 		orr	r3, r3, #536870912
 172 0028 C360     		str	r3, [r0, #12]
 173 002a F5E7     		b	.L7
 174              		.cfi_endproc
 175              	.LFE69:
 177              		.section	.text.USB_DevInit,"ax",%progbits
 178              		.align	1
 179              		.global	USB_DevInit
 180              		.syntax unified
 181              		.thumb
 182              		.thumb_func
 183              		.fpu softvfp
 185              	USB_DevInit:
 186              	.LFB70:
 189:Drivers/STM32F1xx_HAL_Driver/Src/stm32f1xx_ll_usb.c **** 
 190:Drivers/STM32F1xx_HAL_Driver/Src/stm32f1xx_ll_usb.c **** /**
 191:Drivers/STM32F1xx_HAL_Driver/Src/stm32f1xx_ll_usb.c ****   * @brief  USB_DevInit : Initializes the USB_OTG controller registers 
 192:Drivers/STM32F1xx_HAL_Driver/Src/stm32f1xx_ll_usb.c ****   *         for device mode
 193:Drivers/STM32F1xx_HAL_Driver/Src/stm32f1xx_ll_usb.c ****   * @param  USBx : Selected device
 194:Drivers/STM32F1xx_HAL_Driver/Src/stm32f1xx_ll_usb.c ****   * @param  cfg  : pointer to a USB_OTG_CfgTypeDef structure that contains
 195:Drivers/STM32F1xx_HAL_Driver/Src/stm32f1xx_ll_usb.c ****   *         the configuration information for the specified USBx peripheral.
 196:Drivers/STM32F1xx_HAL_Driver/Src/stm32f1xx_ll_usb.c ****   * @retval HAL status
 197:Drivers/STM32F1xx_HAL_Driver/Src/stm32f1xx_ll_usb.c ****   */
 198:Drivers/STM32F1xx_HAL_Driver/Src/stm32f1xx_ll_usb.c **** HAL_StatusTypeDef USB_DevInit (USB_OTG_GlobalTypeDef *USBx, USB_OTG_CfgTypeDef cfg)
 199:Drivers/STM32F1xx_HAL_Driver/Src/stm32f1xx_ll_usb.c **** {
 187              		.loc 1 199 0
 188              		.cfi_startproc
 189              		@ args = 36, pretend = 16, frame = 0
 190              		@ frame_needed = 0, uses_anonymous_args = 0
 191              	.LVL11:
 192 0000 84B0     		sub	sp, sp, #16
 193              	.LCFI5:
 194              		.cfi_def_cfa_offset 16
 195 0002 F8B5     		push	{r3, r4, r5, r6, r7, lr}
 196              	.LCFI6:
 197              		.cfi_def_cfa_offset 40
 198              		.cfi_offset 3, -40
 199              		.cfi_offset 4, -36
 200              		.cfi_offset 5, -32
 201              		.cfi_offset 6, -28
 202              		.cfi_offset 7, -24
 203              		.cfi_offset 14, -20
 204 0004 0446     		mov	r4, r0
 205 0006 07A8     		add	r0, sp, #28
 206              	.LVL12:
 207 0008 80E80E00 		stm	r0, {r1, r2, r3}
 208              	.LVL13:
ARM GAS  /tmp/ccG7BdKF.s 			page 8


 200:Drivers/STM32F1xx_HAL_Driver/Src/stm32f1xx_ll_usb.c ****   uint32_t index = 0;
 201:Drivers/STM32F1xx_HAL_Driver/Src/stm32f1xx_ll_usb.c ****   
 202:Drivers/STM32F1xx_HAL_Driver/Src/stm32f1xx_ll_usb.c ****   for (index = 0; index < 15 ; index++)
 209              		.loc 1 202 0
 210 000c 0023     		movs	r3, #0
 211 000e 06E0     		b	.L11
 212              	.LVL14:
 213              	.L12:
 203:Drivers/STM32F1xx_HAL_Driver/Src/stm32f1xx_ll_usb.c ****   {
 204:Drivers/STM32F1xx_HAL_Driver/Src/stm32f1xx_ll_usb.c ****     USBx->DIEPTXF[index] = 0;
 214              		.loc 1 204 0 discriminator 3
 215 0010 03F14002 		add	r2, r3, #64
 216 0014 04EB8202 		add	r2, r4, r2, lsl #2
 217 0018 0021     		movs	r1, #0
 218 001a 5160     		str	r1, [r2, #4]
 202:Drivers/STM32F1xx_HAL_Driver/Src/stm32f1xx_ll_usb.c ****   {
 219              		.loc 1 202 0 discriminator 3
 220 001c 0133     		adds	r3, r3, #1
 221              	.LVL15:
 222              	.L11:
 202:Drivers/STM32F1xx_HAL_Driver/Src/stm32f1xx_ll_usb.c ****   {
 223              		.loc 1 202 0 is_stmt 0 discriminator 1
 224 001e 0E2B     		cmp	r3, #14
 225 0020 F6D9     		bls	.L12
 205:Drivers/STM32F1xx_HAL_Driver/Src/stm32f1xx_ll_usb.c ****   }
 206:Drivers/STM32F1xx_HAL_Driver/Src/stm32f1xx_ll_usb.c ****   
 207:Drivers/STM32F1xx_HAL_Driver/Src/stm32f1xx_ll_usb.c ****   /*Activate VBUS Sensing B */
 208:Drivers/STM32F1xx_HAL_Driver/Src/stm32f1xx_ll_usb.c ****   USBx->GCCFG |= USB_OTG_GCCFG_VBUSBSEN;
 226              		.loc 1 208 0 is_stmt 1
 227 0022 A36B     		ldr	r3, [r4, #56]
 228              	.LVL16:
 229 0024 43F40023 		orr	r3, r3, #524288
 230 0028 A363     		str	r3, [r4, #56]
 209:Drivers/STM32F1xx_HAL_Driver/Src/stm32f1xx_ll_usb.c **** 
 210:Drivers/STM32F1xx_HAL_Driver/Src/stm32f1xx_ll_usb.c ****   /* Restart the Phy Clock */
 211:Drivers/STM32F1xx_HAL_Driver/Src/stm32f1xx_ll_usb.c ****   USBx_PCGCCTL = 0;
 231              		.loc 1 211 0
 232 002a 2646     		mov	r6, r4
 233 002c 0025     		movs	r5, #0
 234 002e C4F8005E 		str	r5, [r4, #3584]
 212:Drivers/STM32F1xx_HAL_Driver/Src/stm32f1xx_ll_usb.c ****   
 213:Drivers/STM32F1xx_HAL_Driver/Src/stm32f1xx_ll_usb.c ****   /* Device mode configuration */
 214:Drivers/STM32F1xx_HAL_Driver/Src/stm32f1xx_ll_usb.c ****   USBx_DEVICE->DCFG |= DCFG_FRAME_INTERVAL_80;
 235              		.loc 1 214 0
 236 0032 04F50067 		add	r7, r4, #2048
 237 0036 D4F80038 		ldr	r3, [r4, #2048]
 238 003a C4F80038 		str	r3, [r4, #2048]
 215:Drivers/STM32F1xx_HAL_Driver/Src/stm32f1xx_ll_usb.c ****   
 216:Drivers/STM32F1xx_HAL_Driver/Src/stm32f1xx_ll_usb.c ****   /* Set Full speed phy */
 217:Drivers/STM32F1xx_HAL_Driver/Src/stm32f1xx_ll_usb.c ****   USB_SetDevSpeed (USBx , USB_OTG_SPEED_FULL);
 239              		.loc 1 217 0
 240 003e 0321     		movs	r1, #3
 241 0040 2046     		mov	r0, r4
 242 0042 FFF7FEFF 		bl	USB_SetDevSpeed
 243              	.LVL17:
 218:Drivers/STM32F1xx_HAL_Driver/Src/stm32f1xx_ll_usb.c ****   
 219:Drivers/STM32F1xx_HAL_Driver/Src/stm32f1xx_ll_usb.c ****   /* Flush the FIFOs */
ARM GAS  /tmp/ccG7BdKF.s 			page 9


 220:Drivers/STM32F1xx_HAL_Driver/Src/stm32f1xx_ll_usb.c ****   USB_FlushTxFifo(USBx , 0x10); /* all Tx FIFOs */
 244              		.loc 1 220 0
 245 0046 1021     		movs	r1, #16
 246 0048 2046     		mov	r0, r4
 247 004a FFF7FEFF 		bl	USB_FlushTxFifo
 248              	.LVL18:
 221:Drivers/STM32F1xx_HAL_Driver/Src/stm32f1xx_ll_usb.c ****   USB_FlushRxFifo(USBx);
 249              		.loc 1 221 0
 250 004e 2046     		mov	r0, r4
 251 0050 FFF7FEFF 		bl	USB_FlushRxFifo
 252              	.LVL19:
 222:Drivers/STM32F1xx_HAL_Driver/Src/stm32f1xx_ll_usb.c ****   
 223:Drivers/STM32F1xx_HAL_Driver/Src/stm32f1xx_ll_usb.c ****   /* Clear all pending Device Interrupts */
 224:Drivers/STM32F1xx_HAL_Driver/Src/stm32f1xx_ll_usb.c ****   USBx_DEVICE->DIEPMSK = 0;
 253              		.loc 1 224 0
 254 0054 3D61     		str	r5, [r7, #16]
 225:Drivers/STM32F1xx_HAL_Driver/Src/stm32f1xx_ll_usb.c ****   USBx_DEVICE->DOEPMSK = 0;
 255              		.loc 1 225 0
 256 0056 7D61     		str	r5, [r7, #20]
 226:Drivers/STM32F1xx_HAL_Driver/Src/stm32f1xx_ll_usb.c ****   USBx_DEVICE->DAINT = 0xFFFFFFFF;
 257              		.loc 1 226 0
 258 0058 4FF0FF33 		mov	r3, #-1
 259 005c BB61     		str	r3, [r7, #24]
 227:Drivers/STM32F1xx_HAL_Driver/Src/stm32f1xx_ll_usb.c ****   USBx_DEVICE->DAINTMSK = 0;
 260              		.loc 1 227 0
 261 005e FD61     		str	r5, [r7, #28]
 262              	.LVL20:
 228:Drivers/STM32F1xx_HAL_Driver/Src/stm32f1xx_ll_usb.c ****   
 229:Drivers/STM32F1xx_HAL_Driver/Src/stm32f1xx_ll_usb.c ****   for (index = 0; index < cfg.dev_endpoints; index++)
 263              		.loc 1 229 0
 264 0060 2B46     		mov	r3, r5
 265 0062 08E0     		b	.L13
 266              	.LVL21:
 267              	.L25:
 230:Drivers/STM32F1xx_HAL_Driver/Src/stm32f1xx_ll_usb.c ****   {
 231:Drivers/STM32F1xx_HAL_Driver/Src/stm32f1xx_ll_usb.c ****     if ((USBx_INEP(index)->DIEPCTL & USB_OTG_DIEPCTL_EPENA) == USB_OTG_DIEPCTL_EPENA)
 232:Drivers/STM32F1xx_HAL_Driver/Src/stm32f1xx_ll_usb.c ****     {
 233:Drivers/STM32F1xx_HAL_Driver/Src/stm32f1xx_ll_usb.c ****       USBx_INEP(index)->DIEPCTL = (USB_OTG_DIEPCTL_EPDIS | USB_OTG_DIEPCTL_SNAK);
 268              		.loc 1 233 0
 269 0064 4FF09040 		mov	r0, #1207959552
 270 0068 C2F80009 		str	r0, [r2, #2304]
 271              	.L15:
 234:Drivers/STM32F1xx_HAL_Driver/Src/stm32f1xx_ll_usb.c ****     }
 235:Drivers/STM32F1xx_HAL_Driver/Src/stm32f1xx_ll_usb.c ****     else
 236:Drivers/STM32F1xx_HAL_Driver/Src/stm32f1xx_ll_usb.c ****     {
 237:Drivers/STM32F1xx_HAL_Driver/Src/stm32f1xx_ll_usb.c ****       USBx_INEP(index)->DIEPCTL = 0;
 238:Drivers/STM32F1xx_HAL_Driver/Src/stm32f1xx_ll_usb.c ****     }
 239:Drivers/STM32F1xx_HAL_Driver/Src/stm32f1xx_ll_usb.c ****     
 240:Drivers/STM32F1xx_HAL_Driver/Src/stm32f1xx_ll_usb.c ****     USBx_INEP(index)->DIEPTSIZ = 0;
 272              		.loc 1 240 0 discriminator 2
 273 006c 0022     		movs	r2, #0
 274 006e 0A61     		str	r2, [r1, #16]
 241:Drivers/STM32F1xx_HAL_Driver/Src/stm32f1xx_ll_usb.c ****     USBx_INEP(index)->DIEPINT  = 0xFF;
 275              		.loc 1 241 0 discriminator 2
 276 0070 FF22     		movs	r2, #255
 277 0072 8A60     		str	r2, [r1, #8]
 229:Drivers/STM32F1xx_HAL_Driver/Src/stm32f1xx_ll_usb.c ****   {
ARM GAS  /tmp/ccG7BdKF.s 			page 10


 278              		.loc 1 229 0 discriminator 2
 279 0074 0133     		adds	r3, r3, #1
 280              	.LVL22:
 281              	.L13:
 229:Drivers/STM32F1xx_HAL_Driver/Src/stm32f1xx_ll_usb.c ****   {
 282              		.loc 1 229 0 is_stmt 0 discriminator 1
 283 0076 0799     		ldr	r1, [sp, #28]
 284 0078 9942     		cmp	r1, r3
 285 007a 0BD9     		bls	.L24
 231:Drivers/STM32F1xx_HAL_Driver/Src/stm32f1xx_ll_usb.c ****     {
 286              		.loc 1 231 0 is_stmt 1
 287 007c 06EB4312 		add	r2, r6, r3, lsl #5
 288 0080 02F51061 		add	r1, r2, #2304
 289 0084 D2F80009 		ldr	r0, [r2, #2304]
 290 0088 0028     		cmp	r0, #0
 291 008a EBDB     		blt	.L25
 237:Drivers/STM32F1xx_HAL_Driver/Src/stm32f1xx_ll_usb.c ****     }
 292              		.loc 1 237 0
 293 008c 0020     		movs	r0, #0
 294 008e C2F80009 		str	r0, [r2, #2304]
 295 0092 EBE7     		b	.L15
 296              	.L24:
 242:Drivers/STM32F1xx_HAL_Driver/Src/stm32f1xx_ll_usb.c ****   }
 243:Drivers/STM32F1xx_HAL_Driver/Src/stm32f1xx_ll_usb.c ****   
 244:Drivers/STM32F1xx_HAL_Driver/Src/stm32f1xx_ll_usb.c ****   for (index = 0; index < cfg.dev_endpoints; index++)
 297              		.loc 1 244 0
 298 0094 0023     		movs	r3, #0
 299              	.LVL23:
 300 0096 08E0     		b	.L17
 301              	.LVL24:
 302              	.L27:
 245:Drivers/STM32F1xx_HAL_Driver/Src/stm32f1xx_ll_usb.c ****   {
 246:Drivers/STM32F1xx_HAL_Driver/Src/stm32f1xx_ll_usb.c ****     if ((USBx_OUTEP(index)->DOEPCTL & USB_OTG_DOEPCTL_EPENA) == USB_OTG_DOEPCTL_EPENA)
 247:Drivers/STM32F1xx_HAL_Driver/Src/stm32f1xx_ll_usb.c ****     {
 248:Drivers/STM32F1xx_HAL_Driver/Src/stm32f1xx_ll_usb.c ****       USBx_OUTEP(index)->DOEPCTL = (USB_OTG_DOEPCTL_EPDIS | USB_OTG_DOEPCTL_SNAK);
 303              		.loc 1 248 0
 304 0098 4FF09045 		mov	r5, #1207959552
 305 009c C2F8005B 		str	r5, [r2, #2816]
 306              	.L19:
 249:Drivers/STM32F1xx_HAL_Driver/Src/stm32f1xx_ll_usb.c ****     }
 250:Drivers/STM32F1xx_HAL_Driver/Src/stm32f1xx_ll_usb.c ****     else
 251:Drivers/STM32F1xx_HAL_Driver/Src/stm32f1xx_ll_usb.c ****     {
 252:Drivers/STM32F1xx_HAL_Driver/Src/stm32f1xx_ll_usb.c ****       USBx_OUTEP(index)->DOEPCTL = 0;
 253:Drivers/STM32F1xx_HAL_Driver/Src/stm32f1xx_ll_usb.c ****     }
 254:Drivers/STM32F1xx_HAL_Driver/Src/stm32f1xx_ll_usb.c ****     
 255:Drivers/STM32F1xx_HAL_Driver/Src/stm32f1xx_ll_usb.c ****     USBx_OUTEP(index)->DOEPTSIZ = 0;
 307              		.loc 1 255 0 discriminator 2
 308 00a0 0022     		movs	r2, #0
 309 00a2 0261     		str	r2, [r0, #16]
 256:Drivers/STM32F1xx_HAL_Driver/Src/stm32f1xx_ll_usb.c ****     USBx_OUTEP(index)->DOEPINT  = 0xFF;
 310              		.loc 1 256 0 discriminator 2
 311 00a4 FF22     		movs	r2, #255
 312 00a6 8260     		str	r2, [r0, #8]
 244:Drivers/STM32F1xx_HAL_Driver/Src/stm32f1xx_ll_usb.c ****   {
 313              		.loc 1 244 0 discriminator 2
 314 00a8 0133     		adds	r3, r3, #1
 315              	.LVL25:
ARM GAS  /tmp/ccG7BdKF.s 			page 11


 316              	.L17:
 244:Drivers/STM32F1xx_HAL_Driver/Src/stm32f1xx_ll_usb.c ****   {
 317              		.loc 1 244 0 is_stmt 0 discriminator 1
 318 00aa 9942     		cmp	r1, r3
 319 00ac 0BD9     		bls	.L26
 246:Drivers/STM32F1xx_HAL_Driver/Src/stm32f1xx_ll_usb.c ****     {
 320              		.loc 1 246 0 is_stmt 1
 321 00ae 06EB4312 		add	r2, r6, r3, lsl #5
 322 00b2 02F53060 		add	r0, r2, #2816
 323 00b6 D2F8005B 		ldr	r5, [r2, #2816]
 324 00ba 002D     		cmp	r5, #0
 325 00bc ECDB     		blt	.L27
 252:Drivers/STM32F1xx_HAL_Driver/Src/stm32f1xx_ll_usb.c ****     }
 326              		.loc 1 252 0
 327 00be 0025     		movs	r5, #0
 328 00c0 C2F8005B 		str	r5, [r2, #2816]
 329 00c4 ECE7     		b	.L19
 330              	.L26:
 257:Drivers/STM32F1xx_HAL_Driver/Src/stm32f1xx_ll_usb.c ****   }
 258:Drivers/STM32F1xx_HAL_Driver/Src/stm32f1xx_ll_usb.c ****   
 259:Drivers/STM32F1xx_HAL_Driver/Src/stm32f1xx_ll_usb.c ****   USBx_DEVICE->DIEPMSK &= ~(USB_OTG_DIEPMSK_TXFURM);
 331              		.loc 1 259 0
 332 00c6 3B69     		ldr	r3, [r7, #16]
 333              	.LVL26:
 334 00c8 23F48073 		bic	r3, r3, #256
 335 00cc 3B61     		str	r3, [r7, #16]
 260:Drivers/STM32F1xx_HAL_Driver/Src/stm32f1xx_ll_usb.c ****   
 261:Drivers/STM32F1xx_HAL_Driver/Src/stm32f1xx_ll_usb.c ****   /* Disable all interrupts. */
 262:Drivers/STM32F1xx_HAL_Driver/Src/stm32f1xx_ll_usb.c ****   USBx->GINTMSK = 0;
 336              		.loc 1 262 0
 337 00ce 0023     		movs	r3, #0
 338 00d0 A361     		str	r3, [r4, #24]
 263:Drivers/STM32F1xx_HAL_Driver/Src/stm32f1xx_ll_usb.c ****   
 264:Drivers/STM32F1xx_HAL_Driver/Src/stm32f1xx_ll_usb.c ****   /* Clear any pending interrupts */
 265:Drivers/STM32F1xx_HAL_Driver/Src/stm32f1xx_ll_usb.c ****   USBx->GINTSTS = 0xBFFFFFFF;
 339              		.loc 1 265 0
 340 00d2 6FF08043 		mvn	r3, #1073741824
 341 00d6 6361     		str	r3, [r4, #20]
 266:Drivers/STM32F1xx_HAL_Driver/Src/stm32f1xx_ll_usb.c ****   
 267:Drivers/STM32F1xx_HAL_Driver/Src/stm32f1xx_ll_usb.c ****   /* Enable the common interrupts */
 268:Drivers/STM32F1xx_HAL_Driver/Src/stm32f1xx_ll_usb.c ****   USBx->GINTMSK |= USB_OTG_GINTMSK_RXFLVLM;
 342              		.loc 1 268 0
 343 00d8 A369     		ldr	r3, [r4, #24]
 344 00da 43F01003 		orr	r3, r3, #16
 345 00de A361     		str	r3, [r4, #24]
 269:Drivers/STM32F1xx_HAL_Driver/Src/stm32f1xx_ll_usb.c ****   
 270:Drivers/STM32F1xx_HAL_Driver/Src/stm32f1xx_ll_usb.c ****   /* Enable interrupts matching to the Device mode ONLY */
 271:Drivers/STM32F1xx_HAL_Driver/Src/stm32f1xx_ll_usb.c ****   USBx->GINTMSK |= (USB_OTG_GINTMSK_USBSUSPM | USB_OTG_GINTMSK_USBRST |\
 346              		.loc 1 271 0
 347 00e0 A269     		ldr	r2, [r4, #24]
 348 00e2 0C4B     		ldr	r3, .L29
 349 00e4 1343     		orrs	r3, r3, r2
 350 00e6 A361     		str	r3, [r4, #24]
 272:Drivers/STM32F1xx_HAL_Driver/Src/stm32f1xx_ll_usb.c ****                     USB_OTG_GINTMSK_ENUMDNEM | USB_OTG_GINTMSK_IEPINT |\
 273:Drivers/STM32F1xx_HAL_Driver/Src/stm32f1xx_ll_usb.c ****                     USB_OTG_GINTMSK_OEPINT   | USB_OTG_GINTMSK_IISOIXFRM|\
 274:Drivers/STM32F1xx_HAL_Driver/Src/stm32f1xx_ll_usb.c ****                     USB_OTG_GINTMSK_PXFRM_IISOOXFRM | USB_OTG_GINTMSK_WUIM);
 275:Drivers/STM32F1xx_HAL_Driver/Src/stm32f1xx_ll_usb.c ****   
ARM GAS  /tmp/ccG7BdKF.s 			page 12


 276:Drivers/STM32F1xx_HAL_Driver/Src/stm32f1xx_ll_usb.c ****   if(cfg.Sof_enable)
 351              		.loc 1 276 0
 352 00e8 0B9B     		ldr	r3, [sp, #44]
 353 00ea 1BB1     		cbz	r3, .L21
 277:Drivers/STM32F1xx_HAL_Driver/Src/stm32f1xx_ll_usb.c ****   {
 278:Drivers/STM32F1xx_HAL_Driver/Src/stm32f1xx_ll_usb.c ****     USBx->GINTMSK |= USB_OTG_GINTMSK_SOFM;
 354              		.loc 1 278 0
 355 00ec A369     		ldr	r3, [r4, #24]
 356 00ee 43F00803 		orr	r3, r3, #8
 357 00f2 A361     		str	r3, [r4, #24]
 358              	.L21:
 279:Drivers/STM32F1xx_HAL_Driver/Src/stm32f1xx_ll_usb.c ****   }
 280:Drivers/STM32F1xx_HAL_Driver/Src/stm32f1xx_ll_usb.c **** 
 281:Drivers/STM32F1xx_HAL_Driver/Src/stm32f1xx_ll_usb.c ****   if (cfg.vbus_sensing_enable == ENABLE)
 359              		.loc 1 281 0
 360 00f4 0D9B     		ldr	r3, [sp, #52]
 361 00f6 012B     		cmp	r3, #1
 362 00f8 04D0     		beq	.L28
 363              	.L22:
 282:Drivers/STM32F1xx_HAL_Driver/Src/stm32f1xx_ll_usb.c ****   {
 283:Drivers/STM32F1xx_HAL_Driver/Src/stm32f1xx_ll_usb.c ****     USBx->GINTMSK |= (USB_OTG_GINTMSK_SRQIM | USB_OTG_GINTMSK_OTGINT); 
 284:Drivers/STM32F1xx_HAL_Driver/Src/stm32f1xx_ll_usb.c ****   }
 285:Drivers/STM32F1xx_HAL_Driver/Src/stm32f1xx_ll_usb.c ****   
 286:Drivers/STM32F1xx_HAL_Driver/Src/stm32f1xx_ll_usb.c ****   return HAL_OK;
 287:Drivers/STM32F1xx_HAL_Driver/Src/stm32f1xx_ll_usb.c **** }
 364              		.loc 1 287 0
 365 00fa 0020     		movs	r0, #0
 366 00fc BDE8F840 		pop	{r3, r4, r5, r6, r7, lr}
 367              	.LCFI7:
 368              		.cfi_remember_state
 369              		.cfi_restore 14
 370              		.cfi_restore 7
 371              		.cfi_restore 6
 372              		.cfi_restore 5
 373              		.cfi_restore 4
 374              		.cfi_restore 3
 375              		.cfi_def_cfa_offset 16
 376              	.LVL27:
 377 0100 04B0     		add	sp, sp, #16
 378              	.LCFI8:
 379              		.cfi_def_cfa_offset 0
 380 0102 7047     		bx	lr
 381              	.LVL28:
 382              	.L28:
 383              	.LCFI9:
 384              		.cfi_restore_state
 283:Drivers/STM32F1xx_HAL_Driver/Src/stm32f1xx_ll_usb.c ****   }
 385              		.loc 1 283 0
 386 0104 A369     		ldr	r3, [r4, #24]
 387 0106 43F08043 		orr	r3, r3, #1073741824
 388 010a 43F00403 		orr	r3, r3, #4
 389 010e A361     		str	r3, [r4, #24]
 390 0110 F3E7     		b	.L22
 391              	.L30:
 392 0112 00BF     		.align	2
 393              	.L29:
 394 0114 00383C80 		.word	-2143537152
ARM GAS  /tmp/ccG7BdKF.s 			page 13


 395              		.cfi_endproc
 396              	.LFE70:
 398              		.section	.text.USB_FlushTxFifo,"ax",%progbits
 399              		.align	1
 400              		.global	USB_FlushTxFifo
 401              		.syntax unified
 402              		.thumb
 403              		.thumb_func
 404              		.fpu softvfp
 406              	USB_FlushTxFifo:
 407              	.LFB71:
 288:Drivers/STM32F1xx_HAL_Driver/Src/stm32f1xx_ll_usb.c **** 
 289:Drivers/STM32F1xx_HAL_Driver/Src/stm32f1xx_ll_usb.c **** /**
 290:Drivers/STM32F1xx_HAL_Driver/Src/stm32f1xx_ll_usb.c ****   * @brief  USB_OTG_FlushTxFifo : Flush a Tx FIFO
 291:Drivers/STM32F1xx_HAL_Driver/Src/stm32f1xx_ll_usb.c ****   * @param  USBx : Selected device
 292:Drivers/STM32F1xx_HAL_Driver/Src/stm32f1xx_ll_usb.c ****   * @param  num : FIFO number
 293:Drivers/STM32F1xx_HAL_Driver/Src/stm32f1xx_ll_usb.c ****   *         This parameter can be a value from 1 to 15
 294:Drivers/STM32F1xx_HAL_Driver/Src/stm32f1xx_ll_usb.c ****             15 means Flush all Tx FIFOs
 295:Drivers/STM32F1xx_HAL_Driver/Src/stm32f1xx_ll_usb.c ****   * @retval HAL status
 296:Drivers/STM32F1xx_HAL_Driver/Src/stm32f1xx_ll_usb.c ****   */
 297:Drivers/STM32F1xx_HAL_Driver/Src/stm32f1xx_ll_usb.c **** HAL_StatusTypeDef USB_FlushTxFifo (USB_OTG_GlobalTypeDef *USBx, uint32_t num )
 298:Drivers/STM32F1xx_HAL_Driver/Src/stm32f1xx_ll_usb.c **** {
 408              		.loc 1 298 0
 409              		.cfi_startproc
 410              		@ args = 0, pretend = 0, frame = 0
 411              		@ frame_needed = 0, uses_anonymous_args = 0
 412              		@ link register save eliminated.
 413              	.LVL29:
 299:Drivers/STM32F1xx_HAL_Driver/Src/stm32f1xx_ll_usb.c ****   uint32_t count = 0;
 300:Drivers/STM32F1xx_HAL_Driver/Src/stm32f1xx_ll_usb.c ****   
 301:Drivers/STM32F1xx_HAL_Driver/Src/stm32f1xx_ll_usb.c ****   USBx->GRSTCTL = (USB_OTG_GRSTCTL_TXFFLSH |(uint32_t)(num << 6)); 
 414              		.loc 1 301 0
 415 0000 8901     		lsls	r1, r1, #6
 416              	.LVL30:
 417 0002 41F02001 		orr	r1, r1, #32
 418 0006 0161     		str	r1, [r0, #16]
 299:Drivers/STM32F1xx_HAL_Driver/Src/stm32f1xx_ll_usb.c ****   uint32_t count = 0;
 419              		.loc 1 299 0
 420 0008 0023     		movs	r3, #0
 421              	.LVL31:
 422              	.L33:
 302:Drivers/STM32F1xx_HAL_Driver/Src/stm32f1xx_ll_usb.c ****   
 303:Drivers/STM32F1xx_HAL_Driver/Src/stm32f1xx_ll_usb.c ****   do
 304:Drivers/STM32F1xx_HAL_Driver/Src/stm32f1xx_ll_usb.c ****   {
 305:Drivers/STM32F1xx_HAL_Driver/Src/stm32f1xx_ll_usb.c ****     if (++count > 200000)
 423              		.loc 1 305 0
 424 000a 0133     		adds	r3, r3, #1
 425              	.LVL32:
 426 000c 054A     		ldr	r2, .L35
 427 000e 9342     		cmp	r3, r2
 428 0010 05D8     		bhi	.L34
 306:Drivers/STM32F1xx_HAL_Driver/Src/stm32f1xx_ll_usb.c ****     {
 307:Drivers/STM32F1xx_HAL_Driver/Src/stm32f1xx_ll_usb.c ****       return HAL_TIMEOUT;
 308:Drivers/STM32F1xx_HAL_Driver/Src/stm32f1xx_ll_usb.c ****     }
 309:Drivers/STM32F1xx_HAL_Driver/Src/stm32f1xx_ll_usb.c ****   }
 310:Drivers/STM32F1xx_HAL_Driver/Src/stm32f1xx_ll_usb.c ****   while ((USBx->GRSTCTL & USB_OTG_GRSTCTL_TXFFLSH) == USB_OTG_GRSTCTL_TXFFLSH);
 429              		.loc 1 310 0
ARM GAS  /tmp/ccG7BdKF.s 			page 14


 430 0012 0269     		ldr	r2, [r0, #16]
 431 0014 12F0200F 		tst	r2, #32
 432 0018 F7D1     		bne	.L33
 311:Drivers/STM32F1xx_HAL_Driver/Src/stm32f1xx_ll_usb.c ****   
 312:Drivers/STM32F1xx_HAL_Driver/Src/stm32f1xx_ll_usb.c ****   return HAL_OK;
 433              		.loc 1 312 0
 434 001a 0020     		movs	r0, #0
 435              	.LVL33:
 436 001c 7047     		bx	lr
 437              	.LVL34:
 438              	.L34:
 307:Drivers/STM32F1xx_HAL_Driver/Src/stm32f1xx_ll_usb.c ****     }
 439              		.loc 1 307 0
 440 001e 0320     		movs	r0, #3
 441              	.LVL35:
 313:Drivers/STM32F1xx_HAL_Driver/Src/stm32f1xx_ll_usb.c **** }
 442              		.loc 1 313 0
 443 0020 7047     		bx	lr
 444              	.L36:
 445 0022 00BF     		.align	2
 446              	.L35:
 447 0024 400D0300 		.word	200000
 448              		.cfi_endproc
 449              	.LFE71:
 451              		.section	.text.USB_FlushRxFifo,"ax",%progbits
 452              		.align	1
 453              		.global	USB_FlushRxFifo
 454              		.syntax unified
 455              		.thumb
 456              		.thumb_func
 457              		.fpu softvfp
 459              	USB_FlushRxFifo:
 460              	.LFB72:
 314:Drivers/STM32F1xx_HAL_Driver/Src/stm32f1xx_ll_usb.c **** 
 315:Drivers/STM32F1xx_HAL_Driver/Src/stm32f1xx_ll_usb.c **** /**
 316:Drivers/STM32F1xx_HAL_Driver/Src/stm32f1xx_ll_usb.c ****   * @brief  USB_FlushRxFifo : Flush Rx FIFO
 317:Drivers/STM32F1xx_HAL_Driver/Src/stm32f1xx_ll_usb.c ****   * @param  USBx : Selected device
 318:Drivers/STM32F1xx_HAL_Driver/Src/stm32f1xx_ll_usb.c ****   * @retval HAL status
 319:Drivers/STM32F1xx_HAL_Driver/Src/stm32f1xx_ll_usb.c ****   */
 320:Drivers/STM32F1xx_HAL_Driver/Src/stm32f1xx_ll_usb.c **** HAL_StatusTypeDef USB_FlushRxFifo(USB_OTG_GlobalTypeDef *USBx)
 321:Drivers/STM32F1xx_HAL_Driver/Src/stm32f1xx_ll_usb.c **** {
 461              		.loc 1 321 0
 462              		.cfi_startproc
 463              		@ args = 0, pretend = 0, frame = 0
 464              		@ frame_needed = 0, uses_anonymous_args = 0
 465              		@ link register save eliminated.
 466              	.LVL36:
 322:Drivers/STM32F1xx_HAL_Driver/Src/stm32f1xx_ll_usb.c ****   uint32_t count = 0;
 323:Drivers/STM32F1xx_HAL_Driver/Src/stm32f1xx_ll_usb.c ****   
 324:Drivers/STM32F1xx_HAL_Driver/Src/stm32f1xx_ll_usb.c ****   USBx->GRSTCTL = USB_OTG_GRSTCTL_RXFFLSH;
 467              		.loc 1 324 0
 468 0000 1023     		movs	r3, #16
 469 0002 0361     		str	r3, [r0, #16]
 322:Drivers/STM32F1xx_HAL_Driver/Src/stm32f1xx_ll_usb.c ****   uint32_t count = 0;
 470              		.loc 1 322 0
 471 0004 0023     		movs	r3, #0
 472              	.LVL37:
ARM GAS  /tmp/ccG7BdKF.s 			page 15


 473              	.L39:
 325:Drivers/STM32F1xx_HAL_Driver/Src/stm32f1xx_ll_usb.c ****   
 326:Drivers/STM32F1xx_HAL_Driver/Src/stm32f1xx_ll_usb.c ****   do
 327:Drivers/STM32F1xx_HAL_Driver/Src/stm32f1xx_ll_usb.c ****   {
 328:Drivers/STM32F1xx_HAL_Driver/Src/stm32f1xx_ll_usb.c ****     if (++count > 200000)
 474              		.loc 1 328 0
 475 0006 0133     		adds	r3, r3, #1
 476              	.LVL38:
 477 0008 054A     		ldr	r2, .L41
 478 000a 9342     		cmp	r3, r2
 479 000c 05D8     		bhi	.L40
 329:Drivers/STM32F1xx_HAL_Driver/Src/stm32f1xx_ll_usb.c ****     {
 330:Drivers/STM32F1xx_HAL_Driver/Src/stm32f1xx_ll_usb.c ****       return HAL_TIMEOUT;
 331:Drivers/STM32F1xx_HAL_Driver/Src/stm32f1xx_ll_usb.c ****     }
 332:Drivers/STM32F1xx_HAL_Driver/Src/stm32f1xx_ll_usb.c ****   }
 333:Drivers/STM32F1xx_HAL_Driver/Src/stm32f1xx_ll_usb.c ****   while ((USBx->GRSTCTL & USB_OTG_GRSTCTL_RXFFLSH) == USB_OTG_GRSTCTL_RXFFLSH);
 480              		.loc 1 333 0
 481 000e 0269     		ldr	r2, [r0, #16]
 482 0010 12F0100F 		tst	r2, #16
 483 0014 F7D1     		bne	.L39
 334:Drivers/STM32F1xx_HAL_Driver/Src/stm32f1xx_ll_usb.c ****   
 335:Drivers/STM32F1xx_HAL_Driver/Src/stm32f1xx_ll_usb.c ****   return HAL_OK;
 484              		.loc 1 335 0
 485 0016 0020     		movs	r0, #0
 486              	.LVL39:
 487 0018 7047     		bx	lr
 488              	.LVL40:
 489              	.L40:
 330:Drivers/STM32F1xx_HAL_Driver/Src/stm32f1xx_ll_usb.c ****     }
 490              		.loc 1 330 0
 491 001a 0320     		movs	r0, #3
 492              	.LVL41:
 336:Drivers/STM32F1xx_HAL_Driver/Src/stm32f1xx_ll_usb.c **** }
 493              		.loc 1 336 0
 494 001c 7047     		bx	lr
 495              	.L42:
 496 001e 00BF     		.align	2
 497              	.L41:
 498 0020 400D0300 		.word	200000
 499              		.cfi_endproc
 500              	.LFE72:
 502              		.section	.text.USB_SetDevSpeed,"ax",%progbits
 503              		.align	1
 504              		.global	USB_SetDevSpeed
 505              		.syntax unified
 506              		.thumb
 507              		.thumb_func
 508              		.fpu softvfp
 510              	USB_SetDevSpeed:
 511              	.LFB73:
 337:Drivers/STM32F1xx_HAL_Driver/Src/stm32f1xx_ll_usb.c **** 
 338:Drivers/STM32F1xx_HAL_Driver/Src/stm32f1xx_ll_usb.c **** /**
 339:Drivers/STM32F1xx_HAL_Driver/Src/stm32f1xx_ll_usb.c ****   * @brief  USB_SetDevSpeed :Initializes the DevSpd field of DCFG register 
 340:Drivers/STM32F1xx_HAL_Driver/Src/stm32f1xx_ll_usb.c ****   *         depending the PHY type and the enumeration speed of the device.
 341:Drivers/STM32F1xx_HAL_Driver/Src/stm32f1xx_ll_usb.c ****   * @param  USBx : Selected device
 342:Drivers/STM32F1xx_HAL_Driver/Src/stm32f1xx_ll_usb.c ****   * @param  speed : device speed
 343:Drivers/STM32F1xx_HAL_Driver/Src/stm32f1xx_ll_usb.c ****   *          This parameter can be one of the these values:
ARM GAS  /tmp/ccG7BdKF.s 			page 16


 344:Drivers/STM32F1xx_HAL_Driver/Src/stm32f1xx_ll_usb.c ****   *            @arg USB_OTG_SPEED_FULL: Full speed mode
 345:Drivers/STM32F1xx_HAL_Driver/Src/stm32f1xx_ll_usb.c ****   *            @arg USB_OTG_SPEED_LOW: Low speed mode
 346:Drivers/STM32F1xx_HAL_Driver/Src/stm32f1xx_ll_usb.c ****   * @retval  Hal status
 347:Drivers/STM32F1xx_HAL_Driver/Src/stm32f1xx_ll_usb.c ****   */
 348:Drivers/STM32F1xx_HAL_Driver/Src/stm32f1xx_ll_usb.c **** HAL_StatusTypeDef USB_SetDevSpeed(USB_OTG_GlobalTypeDef *USBx , uint8_t speed)
 349:Drivers/STM32F1xx_HAL_Driver/Src/stm32f1xx_ll_usb.c **** {
 512              		.loc 1 349 0
 513              		.cfi_startproc
 514              		@ args = 0, pretend = 0, frame = 0
 515              		@ frame_needed = 0, uses_anonymous_args = 0
 516              		@ link register save eliminated.
 517              	.LVL42:
 350:Drivers/STM32F1xx_HAL_Driver/Src/stm32f1xx_ll_usb.c ****   /* Prevent unused argument(s) compilation warning */
 351:Drivers/STM32F1xx_HAL_Driver/Src/stm32f1xx_ll_usb.c ****   UNUSED(USBx);
 352:Drivers/STM32F1xx_HAL_Driver/Src/stm32f1xx_ll_usb.c **** 
 353:Drivers/STM32F1xx_HAL_Driver/Src/stm32f1xx_ll_usb.c ****   USBx_DEVICE->DCFG |= speed;
 518              		.loc 1 353 0
 519 0000 D0F80038 		ldr	r3, [r0, #2048]
 520 0004 1943     		orrs	r1, r1, r3
 521              	.LVL43:
 522 0006 C0F80018 		str	r1, [r0, #2048]
 354:Drivers/STM32F1xx_HAL_Driver/Src/stm32f1xx_ll_usb.c ****   return HAL_OK;
 355:Drivers/STM32F1xx_HAL_Driver/Src/stm32f1xx_ll_usb.c **** }
 523              		.loc 1 355 0
 524 000a 0020     		movs	r0, #0
 525              	.LVL44:
 526 000c 7047     		bx	lr
 527              		.cfi_endproc
 528              	.LFE73:
 530              		.section	.text.USB_GetDevSpeed,"ax",%progbits
 531              		.align	1
 532              		.global	USB_GetDevSpeed
 533              		.syntax unified
 534              		.thumb
 535              		.thumb_func
 536              		.fpu softvfp
 538              	USB_GetDevSpeed:
 539              	.LFB74:
 356:Drivers/STM32F1xx_HAL_Driver/Src/stm32f1xx_ll_usb.c **** 
 357:Drivers/STM32F1xx_HAL_Driver/Src/stm32f1xx_ll_usb.c **** /**
 358:Drivers/STM32F1xx_HAL_Driver/Src/stm32f1xx_ll_usb.c ****   * @brief  USB_GetDevSpeed :Return the  Dev Speed 
 359:Drivers/STM32F1xx_HAL_Driver/Src/stm32f1xx_ll_usb.c ****   * @param  USBx : Selected device
 360:Drivers/STM32F1xx_HAL_Driver/Src/stm32f1xx_ll_usb.c ****   * @retval speed : device speed
 361:Drivers/STM32F1xx_HAL_Driver/Src/stm32f1xx_ll_usb.c ****   *          This parameter can be one of the these values:
 362:Drivers/STM32F1xx_HAL_Driver/Src/stm32f1xx_ll_usb.c ****   *            @arg USB_OTG_SPEED_FULL: Full speed mode
 363:Drivers/STM32F1xx_HAL_Driver/Src/stm32f1xx_ll_usb.c ****   *            @arg USB_OTG_SPEED_LOW: Low speed mode
 364:Drivers/STM32F1xx_HAL_Driver/Src/stm32f1xx_ll_usb.c ****   */
 365:Drivers/STM32F1xx_HAL_Driver/Src/stm32f1xx_ll_usb.c **** uint8_t USB_GetDevSpeed(USB_OTG_GlobalTypeDef *USBx)
 366:Drivers/STM32F1xx_HAL_Driver/Src/stm32f1xx_ll_usb.c **** {
 540              		.loc 1 366 0
 541              		.cfi_startproc
 542              		@ args = 0, pretend = 0, frame = 0
 543              		@ frame_needed = 0, uses_anonymous_args = 0
 544              		@ link register save eliminated.
 545              	.LVL45:
 367:Drivers/STM32F1xx_HAL_Driver/Src/stm32f1xx_ll_usb.c ****   uint8_t speed = 0;
 368:Drivers/STM32F1xx_HAL_Driver/Src/stm32f1xx_ll_usb.c ****   /* Prevent unused argument(s) compilation warning */
ARM GAS  /tmp/ccG7BdKF.s 			page 17


 369:Drivers/STM32F1xx_HAL_Driver/Src/stm32f1xx_ll_usb.c ****   UNUSED(USBx);
 370:Drivers/STM32F1xx_HAL_Driver/Src/stm32f1xx_ll_usb.c **** 
 371:Drivers/STM32F1xx_HAL_Driver/Src/stm32f1xx_ll_usb.c ****   if (((USBx_DEVICE->DSTS & USB_OTG_DSTS_ENUMSPD) == DSTS_ENUMSPD_FS_PHY_30MHZ_OR_60MHZ)||
 546              		.loc 1 371 0
 547 0000 D0F80838 		ldr	r3, [r0, #2056]
 548 0004 00F50060 		add	r0, r0, #2048
 549              	.LVL46:
 550 0008 03F00603 		and	r3, r3, #6
 551 000c 022B     		cmp	r3, #2
 552 000e 0BD0     		beq	.L46
 372:Drivers/STM32F1xx_HAL_Driver/Src/stm32f1xx_ll_usb.c ****       ((USBx_DEVICE->DSTS & USB_OTG_DSTS_ENUMSPD) == DSTS_ENUMSPD_FS_PHY_48MHZ))
 553              		.loc 1 372 0 discriminator 1
 554 0010 8368     		ldr	r3, [r0, #8]
 555 0012 03F00603 		and	r3, r3, #6
 371:Drivers/STM32F1xx_HAL_Driver/Src/stm32f1xx_ll_usb.c ****       ((USBx_DEVICE->DSTS & USB_OTG_DSTS_ENUMSPD) == DSTS_ENUMSPD_FS_PHY_48MHZ))
 556              		.loc 1 371 0 discriminator 1
 557 0016 062B     		cmp	r3, #6
 558 0018 08D0     		beq	.L47
 373:Drivers/STM32F1xx_HAL_Driver/Src/stm32f1xx_ll_usb.c ****   {
 374:Drivers/STM32F1xx_HAL_Driver/Src/stm32f1xx_ll_usb.c ****     speed = USB_OTG_SPEED_FULL;
 375:Drivers/STM32F1xx_HAL_Driver/Src/stm32f1xx_ll_usb.c ****   }
 376:Drivers/STM32F1xx_HAL_Driver/Src/stm32f1xx_ll_usb.c ****   else if((USBx_DEVICE->DSTS & USB_OTG_DSTS_ENUMSPD) == DSTS_ENUMSPD_LS_PHY_6MHZ)
 559              		.loc 1 376 0
 560 001a 8368     		ldr	r3, [r0, #8]
 561 001c 03F00603 		and	r3, r3, #6
 562 0020 042B     		cmp	r3, #4
 563 0022 05D0     		beq	.L48
 367:Drivers/STM32F1xx_HAL_Driver/Src/stm32f1xx_ll_usb.c ****   /* Prevent unused argument(s) compilation warning */
 564              		.loc 1 367 0
 565 0024 0020     		movs	r0, #0
 566              	.LVL47:
 567 0026 7047     		bx	lr
 568              	.L46:
 374:Drivers/STM32F1xx_HAL_Driver/Src/stm32f1xx_ll_usb.c ****   }
 569              		.loc 1 374 0
 570 0028 0320     		movs	r0, #3
 571 002a 7047     		bx	lr
 572              	.L47:
 573 002c 0320     		movs	r0, #3
 574 002e 7047     		bx	lr
 575              	.L48:
 377:Drivers/STM32F1xx_HAL_Driver/Src/stm32f1xx_ll_usb.c ****   {
 378:Drivers/STM32F1xx_HAL_Driver/Src/stm32f1xx_ll_usb.c ****     speed = USB_OTG_SPEED_LOW;
 576              		.loc 1 378 0
 577 0030 0220     		movs	r0, #2
 578              	.LVL48:
 379:Drivers/STM32F1xx_HAL_Driver/Src/stm32f1xx_ll_usb.c ****   }
 380:Drivers/STM32F1xx_HAL_Driver/Src/stm32f1xx_ll_usb.c ****   
 381:Drivers/STM32F1xx_HAL_Driver/Src/stm32f1xx_ll_usb.c ****   return speed;
 382:Drivers/STM32F1xx_HAL_Driver/Src/stm32f1xx_ll_usb.c **** }
 579              		.loc 1 382 0
 580 0032 7047     		bx	lr
 581              		.cfi_endproc
 582              	.LFE74:
 584              		.section	.text.USB_ActivateEndpoint,"ax",%progbits
 585              		.align	1
 586              		.global	USB_ActivateEndpoint
ARM GAS  /tmp/ccG7BdKF.s 			page 18


 587              		.syntax unified
 588              		.thumb
 589              		.thumb_func
 590              		.fpu softvfp
 592              	USB_ActivateEndpoint:
 593              	.LFB75:
 383:Drivers/STM32F1xx_HAL_Driver/Src/stm32f1xx_ll_usb.c **** 
 384:Drivers/STM32F1xx_HAL_Driver/Src/stm32f1xx_ll_usb.c **** /**
 385:Drivers/STM32F1xx_HAL_Driver/Src/stm32f1xx_ll_usb.c ****   * @brief  Activate and configure an endpoint
 386:Drivers/STM32F1xx_HAL_Driver/Src/stm32f1xx_ll_usb.c ****   * @param  USBx : Selected device
 387:Drivers/STM32F1xx_HAL_Driver/Src/stm32f1xx_ll_usb.c ****   * @param  ep: pointer to endpoint structure
 388:Drivers/STM32F1xx_HAL_Driver/Src/stm32f1xx_ll_usb.c ****   * @retval HAL status
 389:Drivers/STM32F1xx_HAL_Driver/Src/stm32f1xx_ll_usb.c ****   */
 390:Drivers/STM32F1xx_HAL_Driver/Src/stm32f1xx_ll_usb.c **** HAL_StatusTypeDef USB_ActivateEndpoint(USB_OTG_GlobalTypeDef *USBx, USB_OTG_EPTypeDef *ep)
 391:Drivers/STM32F1xx_HAL_Driver/Src/stm32f1xx_ll_usb.c **** {
 594              		.loc 1 391 0
 595              		.cfi_startproc
 596              		@ args = 0, pretend = 0, frame = 0
 597              		@ frame_needed = 0, uses_anonymous_args = 0
 598              		@ link register save eliminated.
 599              	.LVL49:
 600 0000 30B4     		push	{r4, r5}
 601              	.LCFI10:
 602              		.cfi_def_cfa_offset 8
 603              		.cfi_offset 4, -8
 604              		.cfi_offset 5, -4
 392:Drivers/STM32F1xx_HAL_Driver/Src/stm32f1xx_ll_usb.c ****   /* Prevent unused argument(s) compilation warning */
 393:Drivers/STM32F1xx_HAL_Driver/Src/stm32f1xx_ll_usb.c ****   UNUSED(USBx);
 394:Drivers/STM32F1xx_HAL_Driver/Src/stm32f1xx_ll_usb.c **** 
 395:Drivers/STM32F1xx_HAL_Driver/Src/stm32f1xx_ll_usb.c ****   if (ep->is_in)
 605              		.loc 1 395 0
 606 0002 4B78     		ldrb	r3, [r1, #1]	@ zero_extendqisi2
 607 0004 0BB1     		cbz	r3, .L50
 396:Drivers/STM32F1xx_HAL_Driver/Src/stm32f1xx_ll_usb.c ****   {
 397:Drivers/STM32F1xx_HAL_Driver/Src/stm32f1xx_ll_usb.c ****     /* Assign a Tx FIFO */
 398:Drivers/STM32F1xx_HAL_Driver/Src/stm32f1xx_ll_usb.c ****     ep->tx_fifo_num = ep->num;
 608              		.loc 1 398 0
 609 0006 0A78     		ldrb	r2, [r1]	@ zero_extendqisi2
 610 0008 CA80     		strh	r2, [r1, #6]	@ movhi
 611              	.L50:
 399:Drivers/STM32F1xx_HAL_Driver/Src/stm32f1xx_ll_usb.c ****   }
 400:Drivers/STM32F1xx_HAL_Driver/Src/stm32f1xx_ll_usb.c ****   /* Set initial data PID. */
 401:Drivers/STM32F1xx_HAL_Driver/Src/stm32f1xx_ll_usb.c ****   if (ep->type == EP_TYPE_BULK )
 612              		.loc 1 401 0
 613 000a CA78     		ldrb	r2, [r1, #3]	@ zero_extendqisi2
 614 000c 022A     		cmp	r2, #2
 615 000e 24D0     		beq	.L55
 616              	.L51:
 402:Drivers/STM32F1xx_HAL_Driver/Src/stm32f1xx_ll_usb.c ****   {
 403:Drivers/STM32F1xx_HAL_Driver/Src/stm32f1xx_ll_usb.c ****     ep->data_pid_start = 0;
 404:Drivers/STM32F1xx_HAL_Driver/Src/stm32f1xx_ll_usb.c ****   }
 405:Drivers/STM32F1xx_HAL_Driver/Src/stm32f1xx_ll_usb.c ****   
 406:Drivers/STM32F1xx_HAL_Driver/Src/stm32f1xx_ll_usb.c ****   if (ep->is_in == 1)
 617              		.loc 1 406 0
 618 0010 012B     		cmp	r3, #1
 619 0012 25D0     		beq	.L56
 407:Drivers/STM32F1xx_HAL_Driver/Src/stm32f1xx_ll_usb.c ****   {
ARM GAS  /tmp/ccG7BdKF.s 			page 19


 408:Drivers/STM32F1xx_HAL_Driver/Src/stm32f1xx_ll_usb.c ****    USBx_DEVICE->DAINTMSK |= USB_OTG_DAINTMSK_IEPM & ((1 << (ep->num)));
 409:Drivers/STM32F1xx_HAL_Driver/Src/stm32f1xx_ll_usb.c **** 
 410:Drivers/STM32F1xx_HAL_Driver/Src/stm32f1xx_ll_usb.c ****     if (((USBx_INEP(ep->num)->DIEPCTL) & USB_OTG_DIEPCTL_USBAEP) == 0)
 411:Drivers/STM32F1xx_HAL_Driver/Src/stm32f1xx_ll_usb.c ****     {
 412:Drivers/STM32F1xx_HAL_Driver/Src/stm32f1xx_ll_usb.c ****       USBx_INEP(ep->num)->DIEPCTL |= ((ep->maxpacket & USB_OTG_DIEPCTL_MPSIZ ) | (ep->type << 18 ) 
 413:Drivers/STM32F1xx_HAL_Driver/Src/stm32f1xx_ll_usb.c ****         ((ep->num) << 22 ) | (USB_OTG_DIEPCTL_SD0PID_SEVNFRM) | (USB_OTG_DIEPCTL_USBAEP)); 
 414:Drivers/STM32F1xx_HAL_Driver/Src/stm32f1xx_ll_usb.c ****     }
 415:Drivers/STM32F1xx_HAL_Driver/Src/stm32f1xx_ll_usb.c ****   }
 416:Drivers/STM32F1xx_HAL_Driver/Src/stm32f1xx_ll_usb.c ****   else
 417:Drivers/STM32F1xx_HAL_Driver/Src/stm32f1xx_ll_usb.c ****   {
 418:Drivers/STM32F1xx_HAL_Driver/Src/stm32f1xx_ll_usb.c ****      USBx_DEVICE->DAINTMSK |= USB_OTG_DAINTMSK_OEPM & ((1 << (ep->num)) << 16);
 620              		.loc 1 418 0
 621 0014 D0F81C38 		ldr	r3, [r0, #2076]
 622 0018 0D78     		ldrb	r5, [r1]	@ zero_extendqisi2
 623 001a 0122     		movs	r2, #1
 624 001c AA40     		lsls	r2, r2, r5
 625 001e 43EA0243 		orr	r3, r3, r2, lsl #16
 626 0022 C0F81C38 		str	r3, [r0, #2076]
 419:Drivers/STM32F1xx_HAL_Driver/Src/stm32f1xx_ll_usb.c ****      
 420:Drivers/STM32F1xx_HAL_Driver/Src/stm32f1xx_ll_usb.c ****     if (((USBx_OUTEP(ep->num)->DOEPCTL) & USB_OTG_DOEPCTL_USBAEP) == 0)
 627              		.loc 1 420 0
 628 0026 0B78     		ldrb	r3, [r1]	@ zero_extendqisi2
 629 0028 00EB4310 		add	r0, r0, r3, lsl #5
 630              	.LVL50:
 631 002c D0F8003B 		ldr	r3, [r0, #2816]
 632 0030 13F4004F 		tst	r3, #32768
 633 0034 0ED1     		bne	.L53
 421:Drivers/STM32F1xx_HAL_Driver/Src/stm32f1xx_ll_usb.c ****     {
 422:Drivers/STM32F1xx_HAL_Driver/Src/stm32f1xx_ll_usb.c ****       USBx_OUTEP(ep->num)->DOEPCTL |= ((ep->maxpacket & USB_OTG_DOEPCTL_MPSIZ ) | (ep->type << 18 )
 634              		.loc 1 422 0
 635 0036 D0F8003B 		ldr	r3, [r0, #2816]
 636 003a 8A68     		ldr	r2, [r1, #8]
 637 003c C2F30A02 		ubfx	r2, r2, #0, #11
 638 0040 C978     		ldrb	r1, [r1, #3]	@ zero_extendqisi2
 639              	.LVL51:
 640 0042 42EA8142 		orr	r2, r2, r1, lsl #18
 641 0046 1343     		orrs	r3, r3, r2
 642 0048 43F08053 		orr	r3, r3, #268435456
 643 004c 43F40043 		orr	r3, r3, #32768
 644 0050 C0F8003B 		str	r3, [r0, #2816]
 645              	.L53:
 423:Drivers/STM32F1xx_HAL_Driver/Src/stm32f1xx_ll_usb.c ****        (USB_OTG_DIEPCTL_SD0PID_SEVNFRM)| (USB_OTG_DOEPCTL_USBAEP));
 424:Drivers/STM32F1xx_HAL_Driver/Src/stm32f1xx_ll_usb.c ****     }
 425:Drivers/STM32F1xx_HAL_Driver/Src/stm32f1xx_ll_usb.c ****   }
 426:Drivers/STM32F1xx_HAL_Driver/Src/stm32f1xx_ll_usb.c ****   
 427:Drivers/STM32F1xx_HAL_Driver/Src/stm32f1xx_ll_usb.c ****   return HAL_OK;
 428:Drivers/STM32F1xx_HAL_Driver/Src/stm32f1xx_ll_usb.c **** }
 646              		.loc 1 428 0
 647 0054 0020     		movs	r0, #0
 648 0056 30BC     		pop	{r4, r5}
 649              	.LCFI11:
 650              		.cfi_remember_state
 651              		.cfi_restore 5
 652              		.cfi_restore 4
 653              		.cfi_def_cfa_offset 0
 654 0058 7047     		bx	lr
 655              	.LVL52:
ARM GAS  /tmp/ccG7BdKF.s 			page 20


 656              	.L55:
 657              	.LCFI12:
 658              		.cfi_restore_state
 403:Drivers/STM32F1xx_HAL_Driver/Src/stm32f1xx_ll_usb.c ****   }
 659              		.loc 1 403 0
 660 005a 0022     		movs	r2, #0
 661 005c 0A71     		strb	r2, [r1, #4]
 662 005e D7E7     		b	.L51
 663              	.L56:
 408:Drivers/STM32F1xx_HAL_Driver/Src/stm32f1xx_ll_usb.c **** 
 664              		.loc 1 408 0
 665 0060 D0F81C28 		ldr	r2, [r0, #2076]
 666 0064 0D78     		ldrb	r5, [r1]	@ zero_extendqisi2
 667 0066 AB40     		lsls	r3, r3, r5
 668 0068 9BB2     		uxth	r3, r3
 669 006a 1343     		orrs	r3, r3, r2
 670 006c C0F81C38 		str	r3, [r0, #2076]
 410:Drivers/STM32F1xx_HAL_Driver/Src/stm32f1xx_ll_usb.c ****     {
 671              		.loc 1 410 0
 672 0070 0C78     		ldrb	r4, [r1]	@ zero_extendqisi2
 673 0072 00EB4410 		add	r0, r0, r4, lsl #5
 674              	.LVL53:
 675 0076 D0F80039 		ldr	r3, [r0, #2304]
 676 007a 13F4004F 		tst	r3, #32768
 677 007e E9D1     		bne	.L53
 412:Drivers/STM32F1xx_HAL_Driver/Src/stm32f1xx_ll_usb.c ****         ((ep->num) << 22 ) | (USB_OTG_DIEPCTL_SD0PID_SEVNFRM) | (USB_OTG_DIEPCTL_USBAEP)); 
 678              		.loc 1 412 0
 679 0080 D0F80039 		ldr	r3, [r0, #2304]
 680 0084 8A68     		ldr	r2, [r1, #8]
 681 0086 C2F30A02 		ubfx	r2, r2, #0, #11
 682 008a C978     		ldrb	r1, [r1, #3]	@ zero_extendqisi2
 683              	.LVL54:
 684 008c 42EA8142 		orr	r2, r2, r1, lsl #18
 685 0090 42EA8452 		orr	r2, r2, r4, lsl #22
 686 0094 1343     		orrs	r3, r3, r2
 687 0096 43F08053 		orr	r3, r3, #268435456
 688 009a 43F40043 		orr	r3, r3, #32768
 689 009e C0F80039 		str	r3, [r0, #2304]
 690 00a2 D7E7     		b	.L53
 691              		.cfi_endproc
 692              	.LFE75:
 694              		.section	.text.USB_DeactivateEndpoint,"ax",%progbits
 695              		.align	1
 696              		.global	USB_DeactivateEndpoint
 697              		.syntax unified
 698              		.thumb
 699              		.thumb_func
 700              		.fpu softvfp
 702              	USB_DeactivateEndpoint:
 703              	.LFB76:
 429:Drivers/STM32F1xx_HAL_Driver/Src/stm32f1xx_ll_usb.c **** 
 430:Drivers/STM32F1xx_HAL_Driver/Src/stm32f1xx_ll_usb.c **** /**
 431:Drivers/STM32F1xx_HAL_Driver/Src/stm32f1xx_ll_usb.c ****   * @brief  De-activate and de-initialize an endpoint
 432:Drivers/STM32F1xx_HAL_Driver/Src/stm32f1xx_ll_usb.c ****   * @param  USBx : Selected device
 433:Drivers/STM32F1xx_HAL_Driver/Src/stm32f1xx_ll_usb.c ****   * @param  ep: pointer to endpoint structure
 434:Drivers/STM32F1xx_HAL_Driver/Src/stm32f1xx_ll_usb.c ****   * @retval HAL status
 435:Drivers/STM32F1xx_HAL_Driver/Src/stm32f1xx_ll_usb.c ****   */
ARM GAS  /tmp/ccG7BdKF.s 			page 21


 436:Drivers/STM32F1xx_HAL_Driver/Src/stm32f1xx_ll_usb.c **** HAL_StatusTypeDef USB_DeactivateEndpoint(USB_OTG_GlobalTypeDef *USBx, USB_OTG_EPTypeDef *ep)
 437:Drivers/STM32F1xx_HAL_Driver/Src/stm32f1xx_ll_usb.c **** {
 704              		.loc 1 437 0
 705              		.cfi_startproc
 706              		@ args = 0, pretend = 0, frame = 0
 707              		@ frame_needed = 0, uses_anonymous_args = 0
 708              		@ link register save eliminated.
 709              	.LVL55:
 710 0000 30B4     		push	{r4, r5}
 711              	.LCFI13:
 712              		.cfi_def_cfa_offset 8
 713              		.cfi_offset 4, -8
 714              		.cfi_offset 5, -4
 438:Drivers/STM32F1xx_HAL_Driver/Src/stm32f1xx_ll_usb.c ****   /* Prevent unused argument(s) compilation warning */
 439:Drivers/STM32F1xx_HAL_Driver/Src/stm32f1xx_ll_usb.c ****   UNUSED(USBx);
 440:Drivers/STM32F1xx_HAL_Driver/Src/stm32f1xx_ll_usb.c **** 
 441:Drivers/STM32F1xx_HAL_Driver/Src/stm32f1xx_ll_usb.c ****   /* Read DEPCTLn register */
 442:Drivers/STM32F1xx_HAL_Driver/Src/stm32f1xx_ll_usb.c ****   if (ep->is_in == 1)
 715              		.loc 1 442 0
 716 0002 4B78     		ldrb	r3, [r1, #1]	@ zero_extendqisi2
 717 0004 012B     		cmp	r3, #1
 718 0006 1DD0     		beq	.L61
 443:Drivers/STM32F1xx_HAL_Driver/Src/stm32f1xx_ll_usb.c ****   {
 444:Drivers/STM32F1xx_HAL_Driver/Src/stm32f1xx_ll_usb.c ****     USBx_DEVICE->DEACHMSK &= ~(USB_OTG_DAINTMSK_IEPM & ((1 << (ep->num))));
 445:Drivers/STM32F1xx_HAL_Driver/Src/stm32f1xx_ll_usb.c ****     USBx_DEVICE->DAINTMSK &= ~(USB_OTG_DAINTMSK_IEPM & ((1 << (ep->num))));
 446:Drivers/STM32F1xx_HAL_Driver/Src/stm32f1xx_ll_usb.c ****     USBx_INEP(ep->num)->DIEPCTL &= ~ USB_OTG_DIEPCTL_USBAEP;
 447:Drivers/STM32F1xx_HAL_Driver/Src/stm32f1xx_ll_usb.c ****   }
 448:Drivers/STM32F1xx_HAL_Driver/Src/stm32f1xx_ll_usb.c ****   else
 449:Drivers/STM32F1xx_HAL_Driver/Src/stm32f1xx_ll_usb.c ****   {
 450:Drivers/STM32F1xx_HAL_Driver/Src/stm32f1xx_ll_usb.c ****     USBx_DEVICE->DEACHMSK &= ~(USB_OTG_DAINTMSK_OEPM & ((1 << (ep->num)) << 16));
 719              		.loc 1 450 0
 720 0008 D0F83C48 		ldr	r4, [r0, #2108]
 721 000c 0D78     		ldrb	r5, [r1]	@ zero_extendqisi2
 722 000e 0122     		movs	r2, #1
 723 0010 02FA05F5 		lsl	r5, r2, r5
 724 0014 24EA0544 		bic	r4, r4, r5, lsl #16
 725 0018 C0F83C48 		str	r4, [r0, #2108]
 451:Drivers/STM32F1xx_HAL_Driver/Src/stm32f1xx_ll_usb.c ****     USBx_DEVICE->DAINTMSK &= ~(USB_OTG_DAINTMSK_OEPM & ((1 << (ep->num)) << 16));
 726              		.loc 1 451 0
 727 001c D0F81C48 		ldr	r4, [r0, #2076]
 728 0020 0D78     		ldrb	r5, [r1]	@ zero_extendqisi2
 729 0022 AA40     		lsls	r2, r2, r5
 730 0024 24EA0242 		bic	r2, r4, r2, lsl #16
 731 0028 C0F81C28 		str	r2, [r0, #2076]
 452:Drivers/STM32F1xx_HAL_Driver/Src/stm32f1xx_ll_usb.c ****     USBx_OUTEP(ep->num)->DOEPCTL &= ~USB_OTG_DOEPCTL_USBAEP;
 732              		.loc 1 452 0
 733 002c 0B78     		ldrb	r3, [r1]	@ zero_extendqisi2
 734 002e 00EB4310 		add	r0, r0, r3, lsl #5
 735              	.LVL56:
 736 0032 D0F8003B 		ldr	r3, [r0, #2816]
 737 0036 23F40043 		bic	r3, r3, #32768
 738 003a C0F8003B 		str	r3, [r0, #2816]
 739              	.L59:
 453:Drivers/STM32F1xx_HAL_Driver/Src/stm32f1xx_ll_usb.c ****   }
 454:Drivers/STM32F1xx_HAL_Driver/Src/stm32f1xx_ll_usb.c ****   return HAL_OK;
 455:Drivers/STM32F1xx_HAL_Driver/Src/stm32f1xx_ll_usb.c **** }
 740              		.loc 1 455 0
ARM GAS  /tmp/ccG7BdKF.s 			page 22


 741 003e 0020     		movs	r0, #0
 742 0040 30BC     		pop	{r4, r5}
 743              	.LCFI14:
 744              		.cfi_remember_state
 745              		.cfi_restore 5
 746              		.cfi_restore 4
 747              		.cfi_def_cfa_offset 0
 748 0042 7047     		bx	lr
 749              	.LVL57:
 750              	.L61:
 751              	.LCFI15:
 752              		.cfi_restore_state
 444:Drivers/STM32F1xx_HAL_Driver/Src/stm32f1xx_ll_usb.c ****     USBx_DEVICE->DAINTMSK &= ~(USB_OTG_DAINTMSK_IEPM & ((1 << (ep->num))));
 753              		.loc 1 444 0
 754 0044 D0F83C58 		ldr	r5, [r0, #2108]
 755 0048 0A78     		ldrb	r2, [r1]	@ zero_extendqisi2
 756 004a 03FA02F2 		lsl	r2, r3, r2
 757 004e 92B2     		uxth	r2, r2
 758 0050 25EA0202 		bic	r2, r5, r2
 759 0054 C0F83C28 		str	r2, [r0, #2108]
 445:Drivers/STM32F1xx_HAL_Driver/Src/stm32f1xx_ll_usb.c ****     USBx_INEP(ep->num)->DIEPCTL &= ~ USB_OTG_DIEPCTL_USBAEP;
 760              		.loc 1 445 0
 761 0058 D0F81C28 		ldr	r2, [r0, #2076]
 762 005c 0D78     		ldrb	r5, [r1]	@ zero_extendqisi2
 763 005e AB40     		lsls	r3, r3, r5
 764 0060 9BB2     		uxth	r3, r3
 765 0062 22EA0303 		bic	r3, r2, r3
 766 0066 C0F81C38 		str	r3, [r0, #2076]
 446:Drivers/STM32F1xx_HAL_Driver/Src/stm32f1xx_ll_usb.c ****   }
 767              		.loc 1 446 0
 768 006a 0B78     		ldrb	r3, [r1]	@ zero_extendqisi2
 769 006c 00EB4310 		add	r0, r0, r3, lsl #5
 770              	.LVL58:
 771 0070 D0F80039 		ldr	r3, [r0, #2304]
 772 0074 23F40043 		bic	r3, r3, #32768
 773 0078 C0F80039 		str	r3, [r0, #2304]
 774 007c DFE7     		b	.L59
 775              		.cfi_endproc
 776              	.LFE76:
 778              		.section	.text.USB_EPStartXfer,"ax",%progbits
 779              		.align	1
 780              		.global	USB_EPStartXfer
 781              		.syntax unified
 782              		.thumb
 783              		.thumb_func
 784              		.fpu softvfp
 786              	USB_EPStartXfer:
 787              	.LFB77:
 456:Drivers/STM32F1xx_HAL_Driver/Src/stm32f1xx_ll_usb.c **** 
 457:Drivers/STM32F1xx_HAL_Driver/Src/stm32f1xx_ll_usb.c **** /**
 458:Drivers/STM32F1xx_HAL_Driver/Src/stm32f1xx_ll_usb.c ****   * @brief  USB_EPStartXfer : setup and starts a transfer over an EP
 459:Drivers/STM32F1xx_HAL_Driver/Src/stm32f1xx_ll_usb.c ****   * @param  USBx : Selected device
 460:Drivers/STM32F1xx_HAL_Driver/Src/stm32f1xx_ll_usb.c ****   * @param  ep: pointer to endpoint structure
 461:Drivers/STM32F1xx_HAL_Driver/Src/stm32f1xx_ll_usb.c ****   * @retval HAL status
 462:Drivers/STM32F1xx_HAL_Driver/Src/stm32f1xx_ll_usb.c ****   */
 463:Drivers/STM32F1xx_HAL_Driver/Src/stm32f1xx_ll_usb.c **** HAL_StatusTypeDef USB_EPStartXfer(USB_OTG_GlobalTypeDef *USBx , USB_OTG_EPTypeDef *ep)
 464:Drivers/STM32F1xx_HAL_Driver/Src/stm32f1xx_ll_usb.c **** {
ARM GAS  /tmp/ccG7BdKF.s 			page 23


 788              		.loc 1 464 0
 789              		.cfi_startproc
 790              		@ args = 0, pretend = 0, frame = 0
 791              		@ frame_needed = 0, uses_anonymous_args = 0
 792              	.LVL59:
 793 0000 38B5     		push	{r3, r4, r5, lr}
 794              	.LCFI16:
 795              		.cfi_def_cfa_offset 16
 796              		.cfi_offset 3, -16
 797              		.cfi_offset 4, -12
 798              		.cfi_offset 5, -8
 799              		.cfi_offset 14, -4
 800              	.LVL60:
 465:Drivers/STM32F1xx_HAL_Driver/Src/stm32f1xx_ll_usb.c ****   uint16_t pktcnt = 0;
 466:Drivers/STM32F1xx_HAL_Driver/Src/stm32f1xx_ll_usb.c ****   /* Prevent unused argument(s) compilation warning */
 467:Drivers/STM32F1xx_HAL_Driver/Src/stm32f1xx_ll_usb.c ****   UNUSED(USBx);
 468:Drivers/STM32F1xx_HAL_Driver/Src/stm32f1xx_ll_usb.c **** 
 469:Drivers/STM32F1xx_HAL_Driver/Src/stm32f1xx_ll_usb.c ****   /* IN endpoint */
 470:Drivers/STM32F1xx_HAL_Driver/Src/stm32f1xx_ll_usb.c ****   if (ep->is_in == 1)
 801              		.loc 1 470 0
 802 0002 4B78     		ldrb	r3, [r1, #1]	@ zero_extendqisi2
 803 0004 012B     		cmp	r3, #1
 804 0006 3AD0     		beq	.L75
 471:Drivers/STM32F1xx_HAL_Driver/Src/stm32f1xx_ll_usb.c ****   {
 472:Drivers/STM32F1xx_HAL_Driver/Src/stm32f1xx_ll_usb.c ****     /* Zero Length Packet? */
 473:Drivers/STM32F1xx_HAL_Driver/Src/stm32f1xx_ll_usb.c ****     if (ep->xfer_len == 0)
 474:Drivers/STM32F1xx_HAL_Driver/Src/stm32f1xx_ll_usb.c ****     {
 475:Drivers/STM32F1xx_HAL_Driver/Src/stm32f1xx_ll_usb.c ****       USBx_INEP(ep->num)->DIEPTSIZ &= ~(USB_OTG_DIEPTSIZ_PKTCNT); 
 476:Drivers/STM32F1xx_HAL_Driver/Src/stm32f1xx_ll_usb.c ****       USBx_INEP(ep->num)->DIEPTSIZ |= (USB_OTG_DIEPTSIZ_PKTCNT & (1 << 19)) ;
 477:Drivers/STM32F1xx_HAL_Driver/Src/stm32f1xx_ll_usb.c ****       USBx_INEP(ep->num)->DIEPTSIZ &= ~(USB_OTG_DIEPTSIZ_XFRSIZ); 
 478:Drivers/STM32F1xx_HAL_Driver/Src/stm32f1xx_ll_usb.c ****     }
 479:Drivers/STM32F1xx_HAL_Driver/Src/stm32f1xx_ll_usb.c ****     else
 480:Drivers/STM32F1xx_HAL_Driver/Src/stm32f1xx_ll_usb.c ****     {
 481:Drivers/STM32F1xx_HAL_Driver/Src/stm32f1xx_ll_usb.c ****       /* Program the transfer size and packet count
 482:Drivers/STM32F1xx_HAL_Driver/Src/stm32f1xx_ll_usb.c ****       * as follows: xfersize = N * maxpacket +
 483:Drivers/STM32F1xx_HAL_Driver/Src/stm32f1xx_ll_usb.c ****       * short_packet pktcnt = N + (short_packet
 484:Drivers/STM32F1xx_HAL_Driver/Src/stm32f1xx_ll_usb.c ****       * exist ? 1 : 0)
 485:Drivers/STM32F1xx_HAL_Driver/Src/stm32f1xx_ll_usb.c ****       */
 486:Drivers/STM32F1xx_HAL_Driver/Src/stm32f1xx_ll_usb.c ****       USBx_INEP(ep->num)->DIEPTSIZ &= ~(USB_OTG_DIEPTSIZ_XFRSIZ);
 487:Drivers/STM32F1xx_HAL_Driver/Src/stm32f1xx_ll_usb.c ****       USBx_INEP(ep->num)->DIEPTSIZ &= ~(USB_OTG_DIEPTSIZ_PKTCNT); 
 488:Drivers/STM32F1xx_HAL_Driver/Src/stm32f1xx_ll_usb.c ****       USBx_INEP(ep->num)->DIEPTSIZ |= (USB_OTG_DIEPTSIZ_PKTCNT & (((ep->xfer_len + ep->maxpacket -1
 489:Drivers/STM32F1xx_HAL_Driver/Src/stm32f1xx_ll_usb.c ****       USBx_INEP(ep->num)->DIEPTSIZ |= (USB_OTG_DIEPTSIZ_XFRSIZ & ep->xfer_len); 
 490:Drivers/STM32F1xx_HAL_Driver/Src/stm32f1xx_ll_usb.c ****       
 491:Drivers/STM32F1xx_HAL_Driver/Src/stm32f1xx_ll_usb.c ****       if (ep->type == EP_TYPE_ISOC)
 492:Drivers/STM32F1xx_HAL_Driver/Src/stm32f1xx_ll_usb.c ****       {
 493:Drivers/STM32F1xx_HAL_Driver/Src/stm32f1xx_ll_usb.c ****         USBx_INEP(ep->num)->DIEPTSIZ &= ~(USB_OTG_DIEPTSIZ_MULCNT); 
 494:Drivers/STM32F1xx_HAL_Driver/Src/stm32f1xx_ll_usb.c ****         USBx_INEP(ep->num)->DIEPTSIZ |= (USB_OTG_DIEPTSIZ_MULCNT & (1 << 29)); 
 495:Drivers/STM32F1xx_HAL_Driver/Src/stm32f1xx_ll_usb.c ****       }
 496:Drivers/STM32F1xx_HAL_Driver/Src/stm32f1xx_ll_usb.c ****     }
 497:Drivers/STM32F1xx_HAL_Driver/Src/stm32f1xx_ll_usb.c ****     
 498:Drivers/STM32F1xx_HAL_Driver/Src/stm32f1xx_ll_usb.c ****     if (ep->type != EP_TYPE_ISOC)
 499:Drivers/STM32F1xx_HAL_Driver/Src/stm32f1xx_ll_usb.c ****     {
 500:Drivers/STM32F1xx_HAL_Driver/Src/stm32f1xx_ll_usb.c ****       /* Enable the Tx FIFO Empty Interrupt for this EP */
 501:Drivers/STM32F1xx_HAL_Driver/Src/stm32f1xx_ll_usb.c ****       if (ep->xfer_len > 0)
 502:Drivers/STM32F1xx_HAL_Driver/Src/stm32f1xx_ll_usb.c ****       {
 503:Drivers/STM32F1xx_HAL_Driver/Src/stm32f1xx_ll_usb.c ****         USBx_DEVICE->DIEPEMPMSK |= 1 << ep->num;
 504:Drivers/STM32F1xx_HAL_Driver/Src/stm32f1xx_ll_usb.c ****       }
ARM GAS  /tmp/ccG7BdKF.s 			page 24


 505:Drivers/STM32F1xx_HAL_Driver/Src/stm32f1xx_ll_usb.c ****     }
 506:Drivers/STM32F1xx_HAL_Driver/Src/stm32f1xx_ll_usb.c ****     
 507:Drivers/STM32F1xx_HAL_Driver/Src/stm32f1xx_ll_usb.c ****     if (ep->type == EP_TYPE_ISOC)
 508:Drivers/STM32F1xx_HAL_Driver/Src/stm32f1xx_ll_usb.c ****     {
 509:Drivers/STM32F1xx_HAL_Driver/Src/stm32f1xx_ll_usb.c ****       if ((USBx_DEVICE->DSTS & ( 1 << 8 )) == 0)
 510:Drivers/STM32F1xx_HAL_Driver/Src/stm32f1xx_ll_usb.c ****       {
 511:Drivers/STM32F1xx_HAL_Driver/Src/stm32f1xx_ll_usb.c ****         USBx_INEP(ep->num)->DIEPCTL |= USB_OTG_DIEPCTL_SODDFRM;
 512:Drivers/STM32F1xx_HAL_Driver/Src/stm32f1xx_ll_usb.c ****       }
 513:Drivers/STM32F1xx_HAL_Driver/Src/stm32f1xx_ll_usb.c ****       else
 514:Drivers/STM32F1xx_HAL_Driver/Src/stm32f1xx_ll_usb.c ****       {
 515:Drivers/STM32F1xx_HAL_Driver/Src/stm32f1xx_ll_usb.c ****         USBx_INEP(ep->num)->DIEPCTL |= USB_OTG_DIEPCTL_SD0PID_SEVNFRM;
 516:Drivers/STM32F1xx_HAL_Driver/Src/stm32f1xx_ll_usb.c ****       }
 517:Drivers/STM32F1xx_HAL_Driver/Src/stm32f1xx_ll_usb.c ****     } 
 518:Drivers/STM32F1xx_HAL_Driver/Src/stm32f1xx_ll_usb.c ****     
 519:Drivers/STM32F1xx_HAL_Driver/Src/stm32f1xx_ll_usb.c ****     /* EP enable, IN data in FIFO */
 520:Drivers/STM32F1xx_HAL_Driver/Src/stm32f1xx_ll_usb.c ****     USBx_INEP(ep->num)->DIEPCTL |= (USB_OTG_DIEPCTL_CNAK | USB_OTG_DIEPCTL_EPENA);
 521:Drivers/STM32F1xx_HAL_Driver/Src/stm32f1xx_ll_usb.c ****     
 522:Drivers/STM32F1xx_HAL_Driver/Src/stm32f1xx_ll_usb.c ****     if (ep->type == EP_TYPE_ISOC)
 523:Drivers/STM32F1xx_HAL_Driver/Src/stm32f1xx_ll_usb.c ****     {
 524:Drivers/STM32F1xx_HAL_Driver/Src/stm32f1xx_ll_usb.c ****       USB_WritePacket(USBx, ep->xfer_buff, ep->num, ep->xfer_len);
 525:Drivers/STM32F1xx_HAL_Driver/Src/stm32f1xx_ll_usb.c ****     }
 526:Drivers/STM32F1xx_HAL_Driver/Src/stm32f1xx_ll_usb.c ****   }
 527:Drivers/STM32F1xx_HAL_Driver/Src/stm32f1xx_ll_usb.c ****   else /* OUT endpoint */
 528:Drivers/STM32F1xx_HAL_Driver/Src/stm32f1xx_ll_usb.c ****   {
 529:Drivers/STM32F1xx_HAL_Driver/Src/stm32f1xx_ll_usb.c ****     /* Program the transfer size and packet count as follows:
 530:Drivers/STM32F1xx_HAL_Driver/Src/stm32f1xx_ll_usb.c ****     * pktcnt = N
 531:Drivers/STM32F1xx_HAL_Driver/Src/stm32f1xx_ll_usb.c ****     * xfersize = N * maxpacket
 532:Drivers/STM32F1xx_HAL_Driver/Src/stm32f1xx_ll_usb.c ****     */
 533:Drivers/STM32F1xx_HAL_Driver/Src/stm32f1xx_ll_usb.c ****     USBx_OUTEP(ep->num)->DOEPTSIZ &= ~(USB_OTG_DOEPTSIZ_XFRSIZ); 
 805              		.loc 1 533 0
 806 0008 0B78     		ldrb	r3, [r1]	@ zero_extendqisi2
 807 000a 00EB4313 		add	r3, r0, r3, lsl #5
 808 000e D3F8102B 		ldr	r2, [r3, #2832]
 809 0012 D20C     		lsrs	r2, r2, #19
 810 0014 D204     		lsls	r2, r2, #19
 811 0016 C3F8102B 		str	r2, [r3, #2832]
 534:Drivers/STM32F1xx_HAL_Driver/Src/stm32f1xx_ll_usb.c ****     USBx_OUTEP(ep->num)->DOEPTSIZ &= ~(USB_OTG_DOEPTSIZ_PKTCNT); 
 812              		.loc 1 534 0
 813 001a 0B78     		ldrb	r3, [r1]	@ zero_extendqisi2
 814 001c 00EB4313 		add	r3, r0, r3, lsl #5
 815 0020 D3F8102B 		ldr	r2, [r3, #2832]
 816 0024 22F0FF52 		bic	r2, r2, #534773760
 817 0028 22F4C012 		bic	r2, r2, #1572864
 818 002c C3F8102B 		str	r2, [r3, #2832]
 535:Drivers/STM32F1xx_HAL_Driver/Src/stm32f1xx_ll_usb.c ****     
 536:Drivers/STM32F1xx_HAL_Driver/Src/stm32f1xx_ll_usb.c ****     if (ep->xfer_len == 0)
 819              		.loc 1 536 0
 820 0030 4B69     		ldr	r3, [r1, #20]
 821 0032 002B     		cmp	r3, #0
 822 0034 40F0C480 		bne	.L70
 537:Drivers/STM32F1xx_HAL_Driver/Src/stm32f1xx_ll_usb.c ****     {
 538:Drivers/STM32F1xx_HAL_Driver/Src/stm32f1xx_ll_usb.c ****       USBx_OUTEP(ep->num)->DOEPTSIZ |= (USB_OTG_DOEPTSIZ_XFRSIZ & ep->maxpacket);
 823              		.loc 1 538 0
 824 0038 0B78     		ldrb	r3, [r1]	@ zero_extendqisi2
 825 003a 00EB4313 		add	r3, r0, r3, lsl #5
 826 003e D3F8102B 		ldr	r2, [r3, #2832]
 827 0042 8C68     		ldr	r4, [r1, #8]
ARM GAS  /tmp/ccG7BdKF.s 			page 25


 828 0044 C4F31204 		ubfx	r4, r4, #0, #19
 829 0048 2243     		orrs	r2, r2, r4
 830 004a C3F8102B 		str	r2, [r3, #2832]
 539:Drivers/STM32F1xx_HAL_Driver/Src/stm32f1xx_ll_usb.c ****       USBx_OUTEP(ep->num)->DOEPTSIZ |= (USB_OTG_DOEPTSIZ_PKTCNT & (1 << 19));
 831              		.loc 1 539 0
 832 004e 0B78     		ldrb	r3, [r1]	@ zero_extendqisi2
 833 0050 00EB4313 		add	r3, r0, r3, lsl #5
 834 0054 D3F8102B 		ldr	r2, [r3, #2832]
 835 0058 42F40022 		orr	r2, r2, #524288
 836 005c C3F8102B 		str	r2, [r3, #2832]
 837              	.LVL61:
 838              	.L71:
 540:Drivers/STM32F1xx_HAL_Driver/Src/stm32f1xx_ll_usb.c ****     }
 541:Drivers/STM32F1xx_HAL_Driver/Src/stm32f1xx_ll_usb.c ****     else
 542:Drivers/STM32F1xx_HAL_Driver/Src/stm32f1xx_ll_usb.c ****     {
 543:Drivers/STM32F1xx_HAL_Driver/Src/stm32f1xx_ll_usb.c ****       pktcnt = (ep->xfer_len + ep->maxpacket -1)/ ep->maxpacket;
 544:Drivers/STM32F1xx_HAL_Driver/Src/stm32f1xx_ll_usb.c ****       USBx_OUTEP(ep->num)->DOEPTSIZ |= (USB_OTG_DOEPTSIZ_PKTCNT & (pktcnt << 19));
 545:Drivers/STM32F1xx_HAL_Driver/Src/stm32f1xx_ll_usb.c ****       USBx_OUTEP(ep->num)->DOEPTSIZ |= (USB_OTG_DOEPTSIZ_XFRSIZ & (ep->maxpacket * pktcnt));
 546:Drivers/STM32F1xx_HAL_Driver/Src/stm32f1xx_ll_usb.c ****     }
 547:Drivers/STM32F1xx_HAL_Driver/Src/stm32f1xx_ll_usb.c ****     
 548:Drivers/STM32F1xx_HAL_Driver/Src/stm32f1xx_ll_usb.c ****     if (ep->type == EP_TYPE_ISOC)
 839              		.loc 1 548 0
 840 0060 CB78     		ldrb	r3, [r1, #3]	@ zero_extendqisi2
 841 0062 012B     		cmp	r3, #1
 842 0064 00F0CB80 		beq	.L76
 843              	.L72:
 549:Drivers/STM32F1xx_HAL_Driver/Src/stm32f1xx_ll_usb.c ****     {
 550:Drivers/STM32F1xx_HAL_Driver/Src/stm32f1xx_ll_usb.c ****       if ((USBx_DEVICE->DSTS & ( 1 << 8 )) == 0)
 551:Drivers/STM32F1xx_HAL_Driver/Src/stm32f1xx_ll_usb.c ****       {
 552:Drivers/STM32F1xx_HAL_Driver/Src/stm32f1xx_ll_usb.c ****         USBx_OUTEP(ep->num)->DOEPCTL |= USB_OTG_DOEPCTL_SODDFRM;
 553:Drivers/STM32F1xx_HAL_Driver/Src/stm32f1xx_ll_usb.c ****       }
 554:Drivers/STM32F1xx_HAL_Driver/Src/stm32f1xx_ll_usb.c ****       else
 555:Drivers/STM32F1xx_HAL_Driver/Src/stm32f1xx_ll_usb.c ****       {
 556:Drivers/STM32F1xx_HAL_Driver/Src/stm32f1xx_ll_usb.c ****         USBx_OUTEP(ep->num)->DOEPCTL |= USB_OTG_DOEPCTL_SD0PID_SEVNFRM;
 557:Drivers/STM32F1xx_HAL_Driver/Src/stm32f1xx_ll_usb.c ****       }
 558:Drivers/STM32F1xx_HAL_Driver/Src/stm32f1xx_ll_usb.c ****     }
 559:Drivers/STM32F1xx_HAL_Driver/Src/stm32f1xx_ll_usb.c ****     /* EP enable */
 560:Drivers/STM32F1xx_HAL_Driver/Src/stm32f1xx_ll_usb.c ****     USBx_OUTEP(ep->num)->DOEPCTL |= (USB_OTG_DOEPCTL_CNAK | USB_OTG_DOEPCTL_EPENA);
 844              		.loc 1 560 0
 845 0068 0B78     		ldrb	r3, [r1]	@ zero_extendqisi2
 846 006a 00EB4310 		add	r0, r0, r3, lsl #5
 847              	.LVL62:
 848 006e D0F8003B 		ldr	r3, [r0, #2816]
 849 0072 43F00443 		orr	r3, r3, #-2080374784
 850 0076 C0F8003B 		str	r3, [r0, #2816]
 851              	.LVL63:
 852              	.L69:
 561:Drivers/STM32F1xx_HAL_Driver/Src/stm32f1xx_ll_usb.c ****   }
 562:Drivers/STM32F1xx_HAL_Driver/Src/stm32f1xx_ll_usb.c ****   
 563:Drivers/STM32F1xx_HAL_Driver/Src/stm32f1xx_ll_usb.c ****   return HAL_OK;
 564:Drivers/STM32F1xx_HAL_Driver/Src/stm32f1xx_ll_usb.c **** }
 853              		.loc 1 564 0
 854 007a 0020     		movs	r0, #0
 855 007c 38BD     		pop	{r3, r4, r5, pc}
 856              	.LVL64:
 857              	.L75:
 473:Drivers/STM32F1xx_HAL_Driver/Src/stm32f1xx_ll_usb.c ****     {
ARM GAS  /tmp/ccG7BdKF.s 			page 26


 858              		.loc 1 473 0
 859 007e 4B69     		ldr	r3, [r1, #20]
 860 0080 002B     		cmp	r3, #0
 861 0082 3ED1     		bne	.L64
 475:Drivers/STM32F1xx_HAL_Driver/Src/stm32f1xx_ll_usb.c ****       USBx_INEP(ep->num)->DIEPTSIZ |= (USB_OTG_DIEPTSIZ_PKTCNT & (1 << 19)) ;
 862              		.loc 1 475 0
 863 0084 0B78     		ldrb	r3, [r1]	@ zero_extendqisi2
 864 0086 00EB4313 		add	r3, r0, r3, lsl #5
 865 008a D3F81029 		ldr	r2, [r3, #2320]
 866 008e 22F0FF52 		bic	r2, r2, #534773760
 867 0092 22F4C012 		bic	r2, r2, #1572864
 868 0096 C3F81029 		str	r2, [r3, #2320]
 476:Drivers/STM32F1xx_HAL_Driver/Src/stm32f1xx_ll_usb.c ****       USBx_INEP(ep->num)->DIEPTSIZ &= ~(USB_OTG_DIEPTSIZ_XFRSIZ); 
 869              		.loc 1 476 0
 870 009a 0B78     		ldrb	r3, [r1]	@ zero_extendqisi2
 871 009c 00EB4313 		add	r3, r0, r3, lsl #5
 872 00a0 D3F81029 		ldr	r2, [r3, #2320]
 873 00a4 42F40022 		orr	r2, r2, #524288
 874 00a8 C3F81029 		str	r2, [r3, #2320]
 477:Drivers/STM32F1xx_HAL_Driver/Src/stm32f1xx_ll_usb.c ****     }
 875              		.loc 1 477 0
 876 00ac 0B78     		ldrb	r3, [r1]	@ zero_extendqisi2
 877 00ae 00EB4313 		add	r3, r0, r3, lsl #5
 878 00b2 D3F81029 		ldr	r2, [r3, #2320]
 879 00b6 D20C     		lsrs	r2, r2, #19
 880 00b8 D204     		lsls	r2, r2, #19
 881 00ba C3F81029 		str	r2, [r3, #2320]
 882              	.L65:
 498:Drivers/STM32F1xx_HAL_Driver/Src/stm32f1xx_ll_usb.c ****     {
 883              		.loc 1 498 0
 884 00be CB78     		ldrb	r3, [r1, #3]	@ zero_extendqisi2
 885 00c0 012B     		cmp	r3, #1
 886 00c2 09D0     		beq	.L66
 501:Drivers/STM32F1xx_HAL_Driver/Src/stm32f1xx_ll_usb.c ****       {
 887              		.loc 1 501 0
 888 00c4 4B69     		ldr	r3, [r1, #20]
 889 00c6 3BB1     		cbz	r3, .L66
 503:Drivers/STM32F1xx_HAL_Driver/Src/stm32f1xx_ll_usb.c ****       }
 890              		.loc 1 503 0
 891 00c8 D0F83438 		ldr	r3, [r0, #2100]
 892 00cc 0D78     		ldrb	r5, [r1]	@ zero_extendqisi2
 893 00ce 0122     		movs	r2, #1
 894 00d0 AA40     		lsls	r2, r2, r5
 895 00d2 1343     		orrs	r3, r3, r2
 896 00d4 C0F83438 		str	r3, [r0, #2100]
 897              	.L66:
 507:Drivers/STM32F1xx_HAL_Driver/Src/stm32f1xx_ll_usb.c ****     {
 898              		.loc 1 507 0
 899 00d8 CB78     		ldrb	r3, [r1, #3]	@ zero_extendqisi2
 900 00da 012B     		cmp	r3, #1
 901 00dc 57D0     		beq	.L77
 902              	.L67:
 520:Drivers/STM32F1xx_HAL_Driver/Src/stm32f1xx_ll_usb.c ****     
 903              		.loc 1 520 0
 904 00de 0B78     		ldrb	r3, [r1]	@ zero_extendqisi2
 905 00e0 00EB4313 		add	r3, r0, r3, lsl #5
 906 00e4 D3F80029 		ldr	r2, [r3, #2304]
ARM GAS  /tmp/ccG7BdKF.s 			page 27


 907 00e8 42F00442 		orr	r2, r2, #-2080374784
 908 00ec C3F80029 		str	r2, [r3, #2304]
 522:Drivers/STM32F1xx_HAL_Driver/Src/stm32f1xx_ll_usb.c ****     {
 909              		.loc 1 522 0
 910 00f0 CB78     		ldrb	r3, [r1, #3]	@ zero_extendqisi2
 911 00f2 012B     		cmp	r3, #1
 912 00f4 C1D1     		bne	.L69
 524:Drivers/STM32F1xx_HAL_Driver/Src/stm32f1xx_ll_usb.c ****     }
 913              		.loc 1 524 0
 914 00f6 8B8A     		ldrh	r3, [r1, #20]
 915 00f8 0A78     		ldrb	r2, [r1]	@ zero_extendqisi2
 916 00fa C968     		ldr	r1, [r1, #12]
 917              	.LVL65:
 918 00fc FFF7FEFF 		bl	USB_WritePacket
 919              	.LVL66:
 920 0100 BBE7     		b	.L69
 921              	.LVL67:
 922              	.L64:
 486:Drivers/STM32F1xx_HAL_Driver/Src/stm32f1xx_ll_usb.c ****       USBx_INEP(ep->num)->DIEPTSIZ &= ~(USB_OTG_DIEPTSIZ_PKTCNT); 
 923              		.loc 1 486 0
 924 0102 0B78     		ldrb	r3, [r1]	@ zero_extendqisi2
 925 0104 00EB4313 		add	r3, r0, r3, lsl #5
 926 0108 D3F81029 		ldr	r2, [r3, #2320]
 927 010c D20C     		lsrs	r2, r2, #19
 928 010e D204     		lsls	r2, r2, #19
 929 0110 C3F81029 		str	r2, [r3, #2320]
 487:Drivers/STM32F1xx_HAL_Driver/Src/stm32f1xx_ll_usb.c ****       USBx_INEP(ep->num)->DIEPTSIZ |= (USB_OTG_DIEPTSIZ_PKTCNT & (((ep->xfer_len + ep->maxpacket -1
 930              		.loc 1 487 0
 931 0114 0B78     		ldrb	r3, [r1]	@ zero_extendqisi2
 932 0116 00EB4313 		add	r3, r0, r3, lsl #5
 933 011a D3F81029 		ldr	r2, [r3, #2320]
 934 011e 22F0FF52 		bic	r2, r2, #534773760
 935 0122 22F4C012 		bic	r2, r2, #1572864
 936 0126 C3F81029 		str	r2, [r3, #2320]
 488:Drivers/STM32F1xx_HAL_Driver/Src/stm32f1xx_ll_usb.c ****       USBx_INEP(ep->num)->DIEPTSIZ |= (USB_OTG_DIEPTSIZ_XFRSIZ & ep->xfer_len); 
 937              		.loc 1 488 0
 938 012a 0A78     		ldrb	r2, [r1]	@ zero_extendqisi2
 939 012c 00EB4212 		add	r2, r0, r2, lsl #5
 940 0130 D2F81049 		ldr	r4, [r2, #2320]
 941 0134 4B69     		ldr	r3, [r1, #20]
 942 0136 8D68     		ldr	r5, [r1, #8]
 943 0138 2B44     		add	r3, r3, r5
 944 013a 013B     		subs	r3, r3, #1
 945 013c B3FBF5F3 		udiv	r3, r3, r5
 946 0140 3B4D     		ldr	r5, .L78
 947 0142 05EAC343 		and	r3, r5, r3, lsl #19
 948 0146 2343     		orrs	r3, r3, r4
 949 0148 C2F81039 		str	r3, [r2, #2320]
 489:Drivers/STM32F1xx_HAL_Driver/Src/stm32f1xx_ll_usb.c ****       
 950              		.loc 1 489 0
 951 014c 0B78     		ldrb	r3, [r1]	@ zero_extendqisi2
 952 014e 00EB4313 		add	r3, r0, r3, lsl #5
 953 0152 D3F81029 		ldr	r2, [r3, #2320]
 954 0156 4C69     		ldr	r4, [r1, #20]
 955 0158 C4F31204 		ubfx	r4, r4, #0, #19
 956 015c 2243     		orrs	r2, r2, r4
 957 015e C3F81029 		str	r2, [r3, #2320]
ARM GAS  /tmp/ccG7BdKF.s 			page 28


 491:Drivers/STM32F1xx_HAL_Driver/Src/stm32f1xx_ll_usb.c ****       {
 958              		.loc 1 491 0
 959 0162 CB78     		ldrb	r3, [r1, #3]	@ zero_extendqisi2
 960 0164 012B     		cmp	r3, #1
 961 0166 AAD1     		bne	.L65
 493:Drivers/STM32F1xx_HAL_Driver/Src/stm32f1xx_ll_usb.c ****         USBx_INEP(ep->num)->DIEPTSIZ |= (USB_OTG_DIEPTSIZ_MULCNT & (1 << 29)); 
 962              		.loc 1 493 0
 963 0168 0B78     		ldrb	r3, [r1]	@ zero_extendqisi2
 964 016a 00EB4313 		add	r3, r0, r3, lsl #5
 965 016e D3F81029 		ldr	r2, [r3, #2320]
 966 0172 22F0C042 		bic	r2, r2, #1610612736
 967 0176 C3F81029 		str	r2, [r3, #2320]
 494:Drivers/STM32F1xx_HAL_Driver/Src/stm32f1xx_ll_usb.c ****       }
 968              		.loc 1 494 0
 969 017a 0B78     		ldrb	r3, [r1]	@ zero_extendqisi2
 970 017c 00EB4313 		add	r3, r0, r3, lsl #5
 971 0180 D3F81029 		ldr	r2, [r3, #2320]
 972 0184 42F00052 		orr	r2, r2, #536870912
 973 0188 C3F81029 		str	r2, [r3, #2320]
 974 018c 97E7     		b	.L65
 975              	.L77:
 509:Drivers/STM32F1xx_HAL_Driver/Src/stm32f1xx_ll_usb.c ****       {
 976              		.loc 1 509 0
 977 018e D0F80838 		ldr	r3, [r0, #2056]
 978 0192 13F4807F 		tst	r3, #256
 979 0196 09D1     		bne	.L68
 511:Drivers/STM32F1xx_HAL_Driver/Src/stm32f1xx_ll_usb.c ****       }
 980              		.loc 1 511 0
 981 0198 0B78     		ldrb	r3, [r1]	@ zero_extendqisi2
 982 019a 00EB4313 		add	r3, r0, r3, lsl #5
 983 019e D3F80029 		ldr	r2, [r3, #2304]
 984 01a2 42F00052 		orr	r2, r2, #536870912
 985 01a6 C3F80029 		str	r2, [r3, #2304]
 986 01aa 98E7     		b	.L67
 987              	.L68:
 515:Drivers/STM32F1xx_HAL_Driver/Src/stm32f1xx_ll_usb.c ****       }
 988              		.loc 1 515 0
 989 01ac 0B78     		ldrb	r3, [r1]	@ zero_extendqisi2
 990 01ae 00EB4313 		add	r3, r0, r3, lsl #5
 991 01b2 D3F80029 		ldr	r2, [r3, #2304]
 992 01b6 42F08052 		orr	r2, r2, #268435456
 993 01ba C3F80029 		str	r2, [r3, #2304]
 994 01be 8EE7     		b	.L67
 995              	.L70:
 543:Drivers/STM32F1xx_HAL_Driver/Src/stm32f1xx_ll_usb.c ****       USBx_OUTEP(ep->num)->DOEPTSIZ |= (USB_OTG_DOEPTSIZ_PKTCNT & (pktcnt << 19));
 996              		.loc 1 543 0
 997 01c0 8A68     		ldr	r2, [r1, #8]
 998 01c2 1344     		add	r3, r3, r2
 999 01c4 013B     		subs	r3, r3, #1
 1000 01c6 B3FBF2F3 		udiv	r3, r3, r2
 1001              	.LVL68:
 544:Drivers/STM32F1xx_HAL_Driver/Src/stm32f1xx_ll_usb.c ****       USBx_OUTEP(ep->num)->DOEPTSIZ |= (USB_OTG_DOEPTSIZ_XFRSIZ & (ep->maxpacket * pktcnt));
 1002              		.loc 1 544 0
 1003 01ca 0A78     		ldrb	r2, [r1]	@ zero_extendqisi2
 1004 01cc 00EB4212 		add	r2, r0, r2, lsl #5
 1005 01d0 D2F8104B 		ldr	r4, [r2, #2832]
 1006 01d4 164D     		ldr	r5, .L78
ARM GAS  /tmp/ccG7BdKF.s 			page 29


 1007 01d6 05EAC345 		and	r5, r5, r3, lsl #19
 1008 01da 2C43     		orrs	r4, r4, r5
 1009 01dc C2F8104B 		str	r4, [r2, #2832]
 545:Drivers/STM32F1xx_HAL_Driver/Src/stm32f1xx_ll_usb.c ****     }
 1010              		.loc 1 545 0
 1011 01e0 0A78     		ldrb	r2, [r1]	@ zero_extendqisi2
 1012 01e2 00EB4212 		add	r2, r0, r2, lsl #5
 1013 01e6 D2F8105B 		ldr	r5, [r2, #2832]
 1014 01ea 8C68     		ldr	r4, [r1, #8]
 1015 01ec 9BB2     		uxth	r3, r3
 1016 01ee 04FB03F4 		mul	r4, r4, r3
 1017 01f2 C4F31204 		ubfx	r4, r4, #0, #19
 1018 01f6 2C43     		orrs	r4, r4, r5
 1019 01f8 C2F8104B 		str	r4, [r2, #2832]
 1020 01fc 30E7     		b	.L71
 1021              	.LVL69:
 1022              	.L76:
 550:Drivers/STM32F1xx_HAL_Driver/Src/stm32f1xx_ll_usb.c ****       {
 1023              		.loc 1 550 0
 1024 01fe D0F80838 		ldr	r3, [r0, #2056]
 1025 0202 13F4807F 		tst	r3, #256
 1026 0206 09D1     		bne	.L73
 552:Drivers/STM32F1xx_HAL_Driver/Src/stm32f1xx_ll_usb.c ****       }
 1027              		.loc 1 552 0
 1028 0208 0B78     		ldrb	r3, [r1]	@ zero_extendqisi2
 1029 020a 00EB4313 		add	r3, r0, r3, lsl #5
 1030 020e D3F8002B 		ldr	r2, [r3, #2816]
 1031 0212 42F00052 		orr	r2, r2, #536870912
 1032 0216 C3F8002B 		str	r2, [r3, #2816]
 1033 021a 25E7     		b	.L72
 1034              	.L73:
 556:Drivers/STM32F1xx_HAL_Driver/Src/stm32f1xx_ll_usb.c ****       }
 1035              		.loc 1 556 0
 1036 021c 0B78     		ldrb	r3, [r1]	@ zero_extendqisi2
 1037 021e 00EB4313 		add	r3, r0, r3, lsl #5
 1038 0222 D3F8002B 		ldr	r2, [r3, #2816]
 1039 0226 42F08052 		orr	r2, r2, #268435456
 1040 022a C3F8002B 		str	r2, [r3, #2816]
 1041 022e 1BE7     		b	.L72
 1042              	.L79:
 1043              		.align	2
 1044              	.L78:
 1045 0230 0000F81F 		.word	536346624
 1046              		.cfi_endproc
 1047              	.LFE77:
 1049              		.section	.text.USB_EP0StartXfer,"ax",%progbits
 1050              		.align	1
 1051              		.global	USB_EP0StartXfer
 1052              		.syntax unified
 1053              		.thumb
 1054              		.thumb_func
 1055              		.fpu softvfp
 1057              	USB_EP0StartXfer:
 1058              	.LFB78:
 565:Drivers/STM32F1xx_HAL_Driver/Src/stm32f1xx_ll_usb.c **** 
 566:Drivers/STM32F1xx_HAL_Driver/Src/stm32f1xx_ll_usb.c **** /**
 567:Drivers/STM32F1xx_HAL_Driver/Src/stm32f1xx_ll_usb.c ****   * @brief  USB_EP0StartXfer : setup and starts a transfer over the EP  0
ARM GAS  /tmp/ccG7BdKF.s 			page 30


 568:Drivers/STM32F1xx_HAL_Driver/Src/stm32f1xx_ll_usb.c ****   * @param  USBx : Selected device
 569:Drivers/STM32F1xx_HAL_Driver/Src/stm32f1xx_ll_usb.c ****   * @param  ep: pointer to endpoint structure
 570:Drivers/STM32F1xx_HAL_Driver/Src/stm32f1xx_ll_usb.c ****   * @retval HAL status
 571:Drivers/STM32F1xx_HAL_Driver/Src/stm32f1xx_ll_usb.c ****   */
 572:Drivers/STM32F1xx_HAL_Driver/Src/stm32f1xx_ll_usb.c **** HAL_StatusTypeDef USB_EP0StartXfer(USB_OTG_GlobalTypeDef *USBx , USB_OTG_EPTypeDef *ep)
 573:Drivers/STM32F1xx_HAL_Driver/Src/stm32f1xx_ll_usb.c **** {
 1059              		.loc 1 573 0
 1060              		.cfi_startproc
 1061              		@ args = 0, pretend = 0, frame = 0
 1062              		@ frame_needed = 0, uses_anonymous_args = 0
 1063              		@ link register save eliminated.
 1064              	.LVL70:
 1065 0000 30B4     		push	{r4, r5}
 1066              	.LCFI17:
 1067              		.cfi_def_cfa_offset 8
 1068              		.cfi_offset 4, -8
 1069              		.cfi_offset 5, -4
 574:Drivers/STM32F1xx_HAL_Driver/Src/stm32f1xx_ll_usb.c ****   /* Prevent unused argument(s) compilation warning */
 575:Drivers/STM32F1xx_HAL_Driver/Src/stm32f1xx_ll_usb.c ****   UNUSED(USBx);
 576:Drivers/STM32F1xx_HAL_Driver/Src/stm32f1xx_ll_usb.c **** 
 577:Drivers/STM32F1xx_HAL_Driver/Src/stm32f1xx_ll_usb.c ****   /* IN endpoint */
 578:Drivers/STM32F1xx_HAL_Driver/Src/stm32f1xx_ll_usb.c ****   if (ep->is_in == 1)
 1070              		.loc 1 578 0
 1071 0002 4B78     		ldrb	r3, [r1, #1]	@ zero_extendqisi2
 1072 0004 012B     		cmp	r3, #1
 1073 0006 37D0     		beq	.L89
 579:Drivers/STM32F1xx_HAL_Driver/Src/stm32f1xx_ll_usb.c ****   {
 580:Drivers/STM32F1xx_HAL_Driver/Src/stm32f1xx_ll_usb.c ****     /* Zero Length Packet? */
 581:Drivers/STM32F1xx_HAL_Driver/Src/stm32f1xx_ll_usb.c ****     if (ep->xfer_len == 0)
 582:Drivers/STM32F1xx_HAL_Driver/Src/stm32f1xx_ll_usb.c ****     {
 583:Drivers/STM32F1xx_HAL_Driver/Src/stm32f1xx_ll_usb.c ****       USBx_INEP(ep->num)->DIEPTSIZ &= ~(USB_OTG_DIEPTSIZ_PKTCNT);
 584:Drivers/STM32F1xx_HAL_Driver/Src/stm32f1xx_ll_usb.c ****       USBx_INEP(ep->num)->DIEPTSIZ |= (USB_OTG_DIEPTSIZ_PKTCNT & (1 << 19));
 585:Drivers/STM32F1xx_HAL_Driver/Src/stm32f1xx_ll_usb.c ****       USBx_INEP(ep->num)->DIEPTSIZ &= ~(USB_OTG_DIEPTSIZ_XFRSIZ);
 586:Drivers/STM32F1xx_HAL_Driver/Src/stm32f1xx_ll_usb.c ****     }
 587:Drivers/STM32F1xx_HAL_Driver/Src/stm32f1xx_ll_usb.c ****     else
 588:Drivers/STM32F1xx_HAL_Driver/Src/stm32f1xx_ll_usb.c ****     {
 589:Drivers/STM32F1xx_HAL_Driver/Src/stm32f1xx_ll_usb.c ****       /* Program the transfer size and packet count
 590:Drivers/STM32F1xx_HAL_Driver/Src/stm32f1xx_ll_usb.c ****       * as follows: xfersize = N * maxpacket +
 591:Drivers/STM32F1xx_HAL_Driver/Src/stm32f1xx_ll_usb.c ****       * short_packet pktcnt = N + (short_packet
 592:Drivers/STM32F1xx_HAL_Driver/Src/stm32f1xx_ll_usb.c ****       * exist ? 1 : 0)
 593:Drivers/STM32F1xx_HAL_Driver/Src/stm32f1xx_ll_usb.c ****       */
 594:Drivers/STM32F1xx_HAL_Driver/Src/stm32f1xx_ll_usb.c ****       USBx_INEP(ep->num)->DIEPTSIZ &= ~(USB_OTG_DIEPTSIZ_XFRSIZ);
 595:Drivers/STM32F1xx_HAL_Driver/Src/stm32f1xx_ll_usb.c ****       USBx_INEP(ep->num)->DIEPTSIZ &= ~(USB_OTG_DIEPTSIZ_PKTCNT);
 596:Drivers/STM32F1xx_HAL_Driver/Src/stm32f1xx_ll_usb.c ****       
 597:Drivers/STM32F1xx_HAL_Driver/Src/stm32f1xx_ll_usb.c ****       if(ep->xfer_len > ep->maxpacket)
 598:Drivers/STM32F1xx_HAL_Driver/Src/stm32f1xx_ll_usb.c ****       {
 599:Drivers/STM32F1xx_HAL_Driver/Src/stm32f1xx_ll_usb.c ****         ep->xfer_len = ep->maxpacket;
 600:Drivers/STM32F1xx_HAL_Driver/Src/stm32f1xx_ll_usb.c ****       }
 601:Drivers/STM32F1xx_HAL_Driver/Src/stm32f1xx_ll_usb.c ****       USBx_INEP(ep->num)->DIEPTSIZ |= (USB_OTG_DIEPTSIZ_PKTCNT & (1 << 19));
 602:Drivers/STM32F1xx_HAL_Driver/Src/stm32f1xx_ll_usb.c ****       USBx_INEP(ep->num)->DIEPTSIZ |= (USB_OTG_DIEPTSIZ_XFRSIZ & ep->xfer_len);
 603:Drivers/STM32F1xx_HAL_Driver/Src/stm32f1xx_ll_usb.c ****     }
 604:Drivers/STM32F1xx_HAL_Driver/Src/stm32f1xx_ll_usb.c ****     
 605:Drivers/STM32F1xx_HAL_Driver/Src/stm32f1xx_ll_usb.c ****     /* Enable the Tx FIFO Empty Interrupt for this EP */
 606:Drivers/STM32F1xx_HAL_Driver/Src/stm32f1xx_ll_usb.c ****     if (ep->xfer_len > 0)
 607:Drivers/STM32F1xx_HAL_Driver/Src/stm32f1xx_ll_usb.c ****     {
 608:Drivers/STM32F1xx_HAL_Driver/Src/stm32f1xx_ll_usb.c ****       USBx_DEVICE->DIEPEMPMSK |= 1 << (ep->num);
 609:Drivers/STM32F1xx_HAL_Driver/Src/stm32f1xx_ll_usb.c ****     }
ARM GAS  /tmp/ccG7BdKF.s 			page 31


 610:Drivers/STM32F1xx_HAL_Driver/Src/stm32f1xx_ll_usb.c ****     
 611:Drivers/STM32F1xx_HAL_Driver/Src/stm32f1xx_ll_usb.c ****     /* EP enable, IN data in FIFO */
 612:Drivers/STM32F1xx_HAL_Driver/Src/stm32f1xx_ll_usb.c ****     USBx_INEP(ep->num)->DIEPCTL |= (USB_OTG_DIEPCTL_CNAK | USB_OTG_DIEPCTL_EPENA);   
 613:Drivers/STM32F1xx_HAL_Driver/Src/stm32f1xx_ll_usb.c ****   }
 614:Drivers/STM32F1xx_HAL_Driver/Src/stm32f1xx_ll_usb.c ****   else /* OUT endpoint */
 615:Drivers/STM32F1xx_HAL_Driver/Src/stm32f1xx_ll_usb.c ****   {
 616:Drivers/STM32F1xx_HAL_Driver/Src/stm32f1xx_ll_usb.c ****     /* Program the transfer size and packet count as follows:
 617:Drivers/STM32F1xx_HAL_Driver/Src/stm32f1xx_ll_usb.c ****     * pktcnt = N
 618:Drivers/STM32F1xx_HAL_Driver/Src/stm32f1xx_ll_usb.c ****     * xfersize = N * maxpacket
 619:Drivers/STM32F1xx_HAL_Driver/Src/stm32f1xx_ll_usb.c ****     */
 620:Drivers/STM32F1xx_HAL_Driver/Src/stm32f1xx_ll_usb.c ****     USBx_OUTEP(ep->num)->DOEPTSIZ &= ~(USB_OTG_DOEPTSIZ_XFRSIZ);
 1074              		.loc 1 620 0
 1075 0008 0B78     		ldrb	r3, [r1]	@ zero_extendqisi2
 1076 000a 00EB4313 		add	r3, r0, r3, lsl #5
 1077 000e D3F8102B 		ldr	r2, [r3, #2832]
 1078 0012 D20C     		lsrs	r2, r2, #19
 1079 0014 D204     		lsls	r2, r2, #19
 1080 0016 C3F8102B 		str	r2, [r3, #2832]
 621:Drivers/STM32F1xx_HAL_Driver/Src/stm32f1xx_ll_usb.c ****     USBx_OUTEP(ep->num)->DOEPTSIZ &= ~(USB_OTG_DOEPTSIZ_PKTCNT);
 1081              		.loc 1 621 0
 1082 001a 0B78     		ldrb	r3, [r1]	@ zero_extendqisi2
 1083 001c 00EB4313 		add	r3, r0, r3, lsl #5
 1084 0020 D3F8102B 		ldr	r2, [r3, #2832]
 1085 0024 22F0FF52 		bic	r2, r2, #534773760
 1086 0028 22F4C012 		bic	r2, r2, #1572864
 1087 002c C3F8102B 		str	r2, [r3, #2832]
 622:Drivers/STM32F1xx_HAL_Driver/Src/stm32f1xx_ll_usb.c ****     
 623:Drivers/STM32F1xx_HAL_Driver/Src/stm32f1xx_ll_usb.c ****     if (ep->xfer_len > 0)
 1088              		.loc 1 623 0
 1089 0030 4B69     		ldr	r3, [r1, #20]
 1090 0032 0BB1     		cbz	r3, .L87
 624:Drivers/STM32F1xx_HAL_Driver/Src/stm32f1xx_ll_usb.c ****     {
 625:Drivers/STM32F1xx_HAL_Driver/Src/stm32f1xx_ll_usb.c ****       ep->xfer_len = ep->maxpacket;
 1091              		.loc 1 625 0
 1092 0034 8B68     		ldr	r3, [r1, #8]
 1093 0036 4B61     		str	r3, [r1, #20]
 1094              	.L87:
 626:Drivers/STM32F1xx_HAL_Driver/Src/stm32f1xx_ll_usb.c ****     }
 627:Drivers/STM32F1xx_HAL_Driver/Src/stm32f1xx_ll_usb.c ****     
 628:Drivers/STM32F1xx_HAL_Driver/Src/stm32f1xx_ll_usb.c ****     USBx_OUTEP(ep->num)->DOEPTSIZ |= (USB_OTG_DOEPTSIZ_PKTCNT & (1 << 19));
 1095              		.loc 1 628 0
 1096 0038 0B78     		ldrb	r3, [r1]	@ zero_extendqisi2
 1097 003a 00EB4313 		add	r3, r0, r3, lsl #5
 1098 003e D3F8102B 		ldr	r2, [r3, #2832]
 1099 0042 42F40022 		orr	r2, r2, #524288
 1100 0046 C3F8102B 		str	r2, [r3, #2832]
 629:Drivers/STM32F1xx_HAL_Driver/Src/stm32f1xx_ll_usb.c ****     USBx_OUTEP(ep->num)->DOEPTSIZ |= (USB_OTG_DOEPTSIZ_XFRSIZ & (ep->maxpacket));
 1101              		.loc 1 629 0
 1102 004a 0B78     		ldrb	r3, [r1]	@ zero_extendqisi2
 1103 004c 00EB4313 		add	r3, r0, r3, lsl #5
 1104 0050 D3F8102B 		ldr	r2, [r3, #2832]
 1105 0054 8C68     		ldr	r4, [r1, #8]
 1106 0056 C4F31204 		ubfx	r4, r4, #0, #19
 1107 005a 2243     		orrs	r2, r2, r4
 1108 005c C3F8102B 		str	r2, [r3, #2832]
 630:Drivers/STM32F1xx_HAL_Driver/Src/stm32f1xx_ll_usb.c ****     
 631:Drivers/STM32F1xx_HAL_Driver/Src/stm32f1xx_ll_usb.c ****     /* EP enable */
ARM GAS  /tmp/ccG7BdKF.s 			page 32


 632:Drivers/STM32F1xx_HAL_Driver/Src/stm32f1xx_ll_usb.c ****     USBx_OUTEP(ep->num)->DOEPCTL |= (USB_OTG_DOEPCTL_CNAK | USB_OTG_DOEPCTL_EPENA);
 1109              		.loc 1 632 0
 1110 0060 0B78     		ldrb	r3, [r1]	@ zero_extendqisi2
 1111 0062 00EB4310 		add	r0, r0, r3, lsl #5
 1112              	.LVL71:
 1113 0066 D0F8003B 		ldr	r3, [r0, #2816]
 1114 006a 43F00443 		orr	r3, r3, #-2080374784
 1115 006e C0F8003B 		str	r3, [r0, #2816]
 1116              	.L86:
 633:Drivers/STM32F1xx_HAL_Driver/Src/stm32f1xx_ll_usb.c ****   }
 634:Drivers/STM32F1xx_HAL_Driver/Src/stm32f1xx_ll_usb.c ****   
 635:Drivers/STM32F1xx_HAL_Driver/Src/stm32f1xx_ll_usb.c ****   return HAL_OK;
 636:Drivers/STM32F1xx_HAL_Driver/Src/stm32f1xx_ll_usb.c **** }
 1117              		.loc 1 636 0
 1118 0072 0020     		movs	r0, #0
 1119 0074 30BC     		pop	{r4, r5}
 1120              	.LCFI18:
 1121              		.cfi_remember_state
 1122              		.cfi_restore 5
 1123              		.cfi_restore 4
 1124              		.cfi_def_cfa_offset 0
 1125 0076 7047     		bx	lr
 1126              	.LVL72:
 1127              	.L89:
 1128              	.LCFI19:
 1129              		.cfi_restore_state
 581:Drivers/STM32F1xx_HAL_Driver/Src/stm32f1xx_ll_usb.c ****     {
 1130              		.loc 1 581 0
 1131 0078 4B69     		ldr	r3, [r1, #20]
 1132 007a 83BB     		cbnz	r3, .L82
 583:Drivers/STM32F1xx_HAL_Driver/Src/stm32f1xx_ll_usb.c ****       USBx_INEP(ep->num)->DIEPTSIZ |= (USB_OTG_DIEPTSIZ_PKTCNT & (1 << 19));
 1133              		.loc 1 583 0
 1134 007c 0B78     		ldrb	r3, [r1]	@ zero_extendqisi2
 1135 007e 00EB4313 		add	r3, r0, r3, lsl #5
 1136 0082 D3F81029 		ldr	r2, [r3, #2320]
 1137 0086 22F0FF52 		bic	r2, r2, #534773760
 1138 008a 22F4C012 		bic	r2, r2, #1572864
 1139 008e C3F81029 		str	r2, [r3, #2320]
 584:Drivers/STM32F1xx_HAL_Driver/Src/stm32f1xx_ll_usb.c ****       USBx_INEP(ep->num)->DIEPTSIZ &= ~(USB_OTG_DIEPTSIZ_XFRSIZ);
 1140              		.loc 1 584 0
 1141 0092 0B78     		ldrb	r3, [r1]	@ zero_extendqisi2
 1142 0094 00EB4313 		add	r3, r0, r3, lsl #5
 1143 0098 D3F81029 		ldr	r2, [r3, #2320]
 1144 009c 42F40022 		orr	r2, r2, #524288
 1145 00a0 C3F81029 		str	r2, [r3, #2320]
 585:Drivers/STM32F1xx_HAL_Driver/Src/stm32f1xx_ll_usb.c ****     }
 1146              		.loc 1 585 0
 1147 00a4 0B78     		ldrb	r3, [r1]	@ zero_extendqisi2
 1148 00a6 00EB4313 		add	r3, r0, r3, lsl #5
 1149 00aa D3F81029 		ldr	r2, [r3, #2320]
 1150 00ae D20C     		lsrs	r2, r2, #19
 1151 00b0 D204     		lsls	r2, r2, #19
 1152 00b2 C3F81029 		str	r2, [r3, #2320]
 1153              	.L83:
 606:Drivers/STM32F1xx_HAL_Driver/Src/stm32f1xx_ll_usb.c ****     {
 1154              		.loc 1 606 0
 1155 00b6 4B69     		ldr	r3, [r1, #20]
ARM GAS  /tmp/ccG7BdKF.s 			page 33


 1156 00b8 3BB1     		cbz	r3, .L85
 608:Drivers/STM32F1xx_HAL_Driver/Src/stm32f1xx_ll_usb.c ****     }
 1157              		.loc 1 608 0
 1158 00ba D0F83438 		ldr	r3, [r0, #2100]
 1159 00be 0D78     		ldrb	r5, [r1]	@ zero_extendqisi2
 1160 00c0 0122     		movs	r2, #1
 1161 00c2 AA40     		lsls	r2, r2, r5
 1162 00c4 1343     		orrs	r3, r3, r2
 1163 00c6 C0F83438 		str	r3, [r0, #2100]
 1164              	.L85:
 612:Drivers/STM32F1xx_HAL_Driver/Src/stm32f1xx_ll_usb.c ****   }
 1165              		.loc 1 612 0
 1166 00ca 0B78     		ldrb	r3, [r1]	@ zero_extendqisi2
 1167 00cc 00EB4310 		add	r0, r0, r3, lsl #5
 1168              	.LVL73:
 1169 00d0 D0F80039 		ldr	r3, [r0, #2304]
 1170 00d4 43F00443 		orr	r3, r3, #-2080374784
 1171 00d8 C0F80039 		str	r3, [r0, #2304]
 1172 00dc C9E7     		b	.L86
 1173              	.LVL74:
 1174              	.L82:
 594:Drivers/STM32F1xx_HAL_Driver/Src/stm32f1xx_ll_usb.c ****       USBx_INEP(ep->num)->DIEPTSIZ &= ~(USB_OTG_DIEPTSIZ_PKTCNT);
 1175              		.loc 1 594 0
 1176 00de 0B78     		ldrb	r3, [r1]	@ zero_extendqisi2
 1177 00e0 00EB4313 		add	r3, r0, r3, lsl #5
 1178 00e4 D3F81029 		ldr	r2, [r3, #2320]
 1179 00e8 D20C     		lsrs	r2, r2, #19
 1180 00ea D204     		lsls	r2, r2, #19
 1181 00ec C3F81029 		str	r2, [r3, #2320]
 595:Drivers/STM32F1xx_HAL_Driver/Src/stm32f1xx_ll_usb.c ****       
 1182              		.loc 1 595 0
 1183 00f0 0B78     		ldrb	r3, [r1]	@ zero_extendqisi2
 1184 00f2 00EB4313 		add	r3, r0, r3, lsl #5
 1185 00f6 D3F81029 		ldr	r2, [r3, #2320]
 1186 00fa 22F0FF52 		bic	r2, r2, #534773760
 1187 00fe 22F4C012 		bic	r2, r2, #1572864
 1188 0102 C3F81029 		str	r2, [r3, #2320]
 597:Drivers/STM32F1xx_HAL_Driver/Src/stm32f1xx_ll_usb.c ****       {
 1189              		.loc 1 597 0
 1190 0106 4A69     		ldr	r2, [r1, #20]
 1191 0108 8B68     		ldr	r3, [r1, #8]
 1192 010a 9A42     		cmp	r2, r3
 1193 010c 00D9     		bls	.L84
 599:Drivers/STM32F1xx_HAL_Driver/Src/stm32f1xx_ll_usb.c ****       }
 1194              		.loc 1 599 0
 1195 010e 4B61     		str	r3, [r1, #20]
 1196              	.L84:
 601:Drivers/STM32F1xx_HAL_Driver/Src/stm32f1xx_ll_usb.c ****       USBx_INEP(ep->num)->DIEPTSIZ |= (USB_OTG_DIEPTSIZ_XFRSIZ & ep->xfer_len);
 1197              		.loc 1 601 0
 1198 0110 0B78     		ldrb	r3, [r1]	@ zero_extendqisi2
 1199 0112 00EB4313 		add	r3, r0, r3, lsl #5
 1200 0116 D3F81029 		ldr	r2, [r3, #2320]
 1201 011a 42F40022 		orr	r2, r2, #524288
 1202 011e C3F81029 		str	r2, [r3, #2320]
 602:Drivers/STM32F1xx_HAL_Driver/Src/stm32f1xx_ll_usb.c ****     }
 1203              		.loc 1 602 0
 1204 0122 0B78     		ldrb	r3, [r1]	@ zero_extendqisi2
ARM GAS  /tmp/ccG7BdKF.s 			page 34


 1205 0124 00EB4313 		add	r3, r0, r3, lsl #5
 1206 0128 D3F81029 		ldr	r2, [r3, #2320]
 1207 012c 4C69     		ldr	r4, [r1, #20]
 1208 012e C4F31204 		ubfx	r4, r4, #0, #19
 1209 0132 2243     		orrs	r2, r2, r4
 1210 0134 C3F81029 		str	r2, [r3, #2320]
 1211 0138 BDE7     		b	.L83
 1212              		.cfi_endproc
 1213              	.LFE78:
 1215              		.section	.text.USB_WritePacket,"ax",%progbits
 1216              		.align	1
 1217              		.global	USB_WritePacket
 1218              		.syntax unified
 1219              		.thumb
 1220              		.thumb_func
 1221              		.fpu softvfp
 1223              	USB_WritePacket:
 1224              	.LFB79:
 637:Drivers/STM32F1xx_HAL_Driver/Src/stm32f1xx_ll_usb.c **** 
 638:Drivers/STM32F1xx_HAL_Driver/Src/stm32f1xx_ll_usb.c **** /**
 639:Drivers/STM32F1xx_HAL_Driver/Src/stm32f1xx_ll_usb.c ****   * @brief  USB_WritePacket : Writes a packet into the Tx FIFO associated 
 640:Drivers/STM32F1xx_HAL_Driver/Src/stm32f1xx_ll_usb.c ****   *         with the EP/channel
 641:Drivers/STM32F1xx_HAL_Driver/Src/stm32f1xx_ll_usb.c ****   * @param  USBx : Selected device
 642:Drivers/STM32F1xx_HAL_Driver/Src/stm32f1xx_ll_usb.c ****   * @param  src :  pointer to source buffer
 643:Drivers/STM32F1xx_HAL_Driver/Src/stm32f1xx_ll_usb.c ****   * @param  ch_ep_num : endpoint or host channel number
 644:Drivers/STM32F1xx_HAL_Driver/Src/stm32f1xx_ll_usb.c ****   * @param  len : Number of bytes to write
 645:Drivers/STM32F1xx_HAL_Driver/Src/stm32f1xx_ll_usb.c ****   * @retval HAL status
 646:Drivers/STM32F1xx_HAL_Driver/Src/stm32f1xx_ll_usb.c ****   */
 647:Drivers/STM32F1xx_HAL_Driver/Src/stm32f1xx_ll_usb.c **** HAL_StatusTypeDef USB_WritePacket(USB_OTG_GlobalTypeDef *USBx, uint8_t *src, uint8_t ch_ep_num, uin
 648:Drivers/STM32F1xx_HAL_Driver/Src/stm32f1xx_ll_usb.c **** {
 1225              		.loc 1 648 0
 1226              		.cfi_startproc
 1227              		@ args = 0, pretend = 0, frame = 0
 1228              		@ frame_needed = 0, uses_anonymous_args = 0
 1229              		@ link register save eliminated.
 1230              	.LVL75:
 1231 0000 70B4     		push	{r4, r5, r6}
 1232              	.LCFI20:
 1233              		.cfi_def_cfa_offset 12
 1234              		.cfi_offset 4, -12
 1235              		.cfi_offset 5, -8
 1236              		.cfi_offset 6, -4
 1237              	.LVL76:
 649:Drivers/STM32F1xx_HAL_Driver/Src/stm32f1xx_ll_usb.c ****   uint32_t count32b = 0 , index = 0;
 650:Drivers/STM32F1xx_HAL_Driver/Src/stm32f1xx_ll_usb.c ****   /* Prevent unused argument(s) compilation warning */
 651:Drivers/STM32F1xx_HAL_Driver/Src/stm32f1xx_ll_usb.c ****   UNUSED(USBx);
 652:Drivers/STM32F1xx_HAL_Driver/Src/stm32f1xx_ll_usb.c **** 
 653:Drivers/STM32F1xx_HAL_Driver/Src/stm32f1xx_ll_usb.c ****   count32b =  (len + 3) / 4;
 1238              		.loc 1 653 0
 1239 0002 0333     		adds	r3, r3, #3
 1240              	.LVL77:
 1241 0004 9B10     		asrs	r3, r3, #2
 1242              	.LVL78:
 654:Drivers/STM32F1xx_HAL_Driver/Src/stm32f1xx_ll_usb.c ****   for (index = 0; index < count32b; index++, src += 4)
 1243              		.loc 1 654 0
 1244 0006 0025     		movs	r5, #0
 1245 0008 07E0     		b	.L92
ARM GAS  /tmp/ccG7BdKF.s 			page 35


 1246              	.LVL79:
 1247              	.L93:
 655:Drivers/STM32F1xx_HAL_Driver/Src/stm32f1xx_ll_usb.c ****   {
 656:Drivers/STM32F1xx_HAL_Driver/Src/stm32f1xx_ll_usb.c ****     USBx_DFIFO(ch_ep_num) = *((__packed uint32_t *)src);
 1248              		.loc 1 656 0 discriminator 3
 1249 000a 00EB0234 		add	r4, r0, r2, lsl #12
 1250 000e 04F58054 		add	r4, r4, #4096
 1251 0012 51F8046B 		ldr	r6, [r1], #4
 1252              	.LVL80:
 1253 0016 2660     		str	r6, [r4]
 654:Drivers/STM32F1xx_HAL_Driver/Src/stm32f1xx_ll_usb.c ****   for (index = 0; index < count32b; index++, src += 4)
 1254              		.loc 1 654 0 discriminator 3
 1255 0018 0135     		adds	r5, r5, #1
 1256              	.LVL81:
 1257              	.L92:
 654:Drivers/STM32F1xx_HAL_Driver/Src/stm32f1xx_ll_usb.c ****   for (index = 0; index < count32b; index++, src += 4)
 1258              		.loc 1 654 0 is_stmt 0 discriminator 1
 1259 001a 9D42     		cmp	r5, r3
 1260 001c F5D3     		bcc	.L93
 657:Drivers/STM32F1xx_HAL_Driver/Src/stm32f1xx_ll_usb.c ****   }
 658:Drivers/STM32F1xx_HAL_Driver/Src/stm32f1xx_ll_usb.c ****   return HAL_OK;
 659:Drivers/STM32F1xx_HAL_Driver/Src/stm32f1xx_ll_usb.c **** }
 1261              		.loc 1 659 0 is_stmt 1
 1262 001e 0020     		movs	r0, #0
 1263              	.LVL82:
 1264 0020 70BC     		pop	{r4, r5, r6}
 1265              	.LCFI21:
 1266              		.cfi_restore 6
 1267              		.cfi_restore 5
 1268              		.cfi_restore 4
 1269              		.cfi_def_cfa_offset 0
 1270              	.LVL83:
 1271 0022 7047     		bx	lr
 1272              		.cfi_endproc
 1273              	.LFE79:
 1275              		.section	.text.USB_ReadPacket,"ax",%progbits
 1276              		.align	1
 1277              		.global	USB_ReadPacket
 1278              		.syntax unified
 1279              		.thumb
 1280              		.thumb_func
 1281              		.fpu softvfp
 1283              	USB_ReadPacket:
 1284              	.LFB80:
 660:Drivers/STM32F1xx_HAL_Driver/Src/stm32f1xx_ll_usb.c **** 
 661:Drivers/STM32F1xx_HAL_Driver/Src/stm32f1xx_ll_usb.c **** /**
 662:Drivers/STM32F1xx_HAL_Driver/Src/stm32f1xx_ll_usb.c ****   * @brief  USB_ReadPacket : read a packet from the Tx FIFO associated 
 663:Drivers/STM32F1xx_HAL_Driver/Src/stm32f1xx_ll_usb.c ****   *         with the EP/channel
 664:Drivers/STM32F1xx_HAL_Driver/Src/stm32f1xx_ll_usb.c ****   * @param  USBx : Selected device
 665:Drivers/STM32F1xx_HAL_Driver/Src/stm32f1xx_ll_usb.c ****   * @param  dest : destination pointer
 666:Drivers/STM32F1xx_HAL_Driver/Src/stm32f1xx_ll_usb.c ****   * @param  len : Number of bytes to read
 667:Drivers/STM32F1xx_HAL_Driver/Src/stm32f1xx_ll_usb.c ****   * @retval pointer to destination buffer
 668:Drivers/STM32F1xx_HAL_Driver/Src/stm32f1xx_ll_usb.c ****   */
 669:Drivers/STM32F1xx_HAL_Driver/Src/stm32f1xx_ll_usb.c **** void *USB_ReadPacket(USB_OTG_GlobalTypeDef *USBx, uint8_t *dest, uint16_t len)
 670:Drivers/STM32F1xx_HAL_Driver/Src/stm32f1xx_ll_usb.c **** {
 1285              		.loc 1 670 0
 1286              		.cfi_startproc
ARM GAS  /tmp/ccG7BdKF.s 			page 36


 1287              		@ args = 0, pretend = 0, frame = 0
 1288              		@ frame_needed = 0, uses_anonymous_args = 0
 1289              		@ link register save eliminated.
 1290              	.LVL84:
 671:Drivers/STM32F1xx_HAL_Driver/Src/stm32f1xx_ll_usb.c ****   uint32_t index = 0;
 672:Drivers/STM32F1xx_HAL_Driver/Src/stm32f1xx_ll_usb.c ****   uint32_t count32b = (len + 3) / 4;
 1291              		.loc 1 672 0
 1292 0000 0332     		adds	r2, r2, #3
 1293              	.LVL85:
 1294 0002 9210     		asrs	r2, r2, #2
 1295              	.LVL86:
 673:Drivers/STM32F1xx_HAL_Driver/Src/stm32f1xx_ll_usb.c ****   /* Prevent unused argument(s) compilation warning */
 674:Drivers/STM32F1xx_HAL_Driver/Src/stm32f1xx_ll_usb.c ****   UNUSED(USBx);
 675:Drivers/STM32F1xx_HAL_Driver/Src/stm32f1xx_ll_usb.c **** 
 676:Drivers/STM32F1xx_HAL_Driver/Src/stm32f1xx_ll_usb.c ****   for ( index = 0; index < count32b; index++, dest += 4 )
 1296              		.loc 1 676 0
 1297 0004 0023     		movs	r3, #0
 1298              	.LVL87:
 1299 0006 9342     		cmp	r3, r2
 1300 0008 0BD2     		bcs	.L103
 670:Drivers/STM32F1xx_HAL_Driver/Src/stm32f1xx_ll_usb.c ****   uint32_t index = 0;
 1301              		.loc 1 670 0
 1302 000a 10B4     		push	{r4}
 1303              	.LCFI22:
 1304              		.cfi_def_cfa_offset 4
 1305              		.cfi_offset 4, -4
 1306              	.L98:
 677:Drivers/STM32F1xx_HAL_Driver/Src/stm32f1xx_ll_usb.c ****   {
 678:Drivers/STM32F1xx_HAL_Driver/Src/stm32f1xx_ll_usb.c ****     *(__packed uint32_t *)dest = USBx_DFIFO(0);
 1307              		.loc 1 678 0 discriminator 3
 1308 000c 00F58054 		add	r4, r0, #4096
 1309 0010 2468     		ldr	r4, [r4]
 1310 0012 41F8044B 		str	r4, [r1], #4
 1311              	.LVL88:
 676:Drivers/STM32F1xx_HAL_Driver/Src/stm32f1xx_ll_usb.c ****   {
 1312              		.loc 1 676 0 discriminator 3
 1313 0016 0133     		adds	r3, r3, #1
 1314              	.LVL89:
 1315 0018 9342     		cmp	r3, r2
 1316 001a F7D3     		bcc	.L98
 679:Drivers/STM32F1xx_HAL_Driver/Src/stm32f1xx_ll_usb.c ****     
 680:Drivers/STM32F1xx_HAL_Driver/Src/stm32f1xx_ll_usb.c ****   }
 681:Drivers/STM32F1xx_HAL_Driver/Src/stm32f1xx_ll_usb.c ****   return ((void *)dest);
 682:Drivers/STM32F1xx_HAL_Driver/Src/stm32f1xx_ll_usb.c **** }
 1317              		.loc 1 682 0
 1318 001c 0846     		mov	r0, r1
 1319              	.LVL90:
 1320 001e 10BC     		pop	{r4}
 1321              	.LCFI23:
 1322              		.cfi_restore 4
 1323              		.cfi_def_cfa_offset 0
 1324 0020 7047     		bx	lr
 1325              	.LVL91:
 1326              	.L103:
 1327 0022 0846     		mov	r0, r1
 1328              	.LVL92:
 1329 0024 7047     		bx	lr
ARM GAS  /tmp/ccG7BdKF.s 			page 37


 1330              		.cfi_endproc
 1331              	.LFE80:
 1333              		.section	.text.USB_EPSetStall,"ax",%progbits
 1334              		.align	1
 1335              		.global	USB_EPSetStall
 1336              		.syntax unified
 1337              		.thumb
 1338              		.thumb_func
 1339              		.fpu softvfp
 1341              	USB_EPSetStall:
 1342              	.LFB81:
 683:Drivers/STM32F1xx_HAL_Driver/Src/stm32f1xx_ll_usb.c **** 
 684:Drivers/STM32F1xx_HAL_Driver/Src/stm32f1xx_ll_usb.c **** /**
 685:Drivers/STM32F1xx_HAL_Driver/Src/stm32f1xx_ll_usb.c ****   * @brief  USB_EPSetStall : set a stall condition over an EP
 686:Drivers/STM32F1xx_HAL_Driver/Src/stm32f1xx_ll_usb.c ****   * @param  USBx : Selected device
 687:Drivers/STM32F1xx_HAL_Driver/Src/stm32f1xx_ll_usb.c ****   * @param  ep: pointer to endpoint structure   
 688:Drivers/STM32F1xx_HAL_Driver/Src/stm32f1xx_ll_usb.c ****   * @retval HAL status
 689:Drivers/STM32F1xx_HAL_Driver/Src/stm32f1xx_ll_usb.c ****   */
 690:Drivers/STM32F1xx_HAL_Driver/Src/stm32f1xx_ll_usb.c **** HAL_StatusTypeDef USB_EPSetStall(USB_OTG_GlobalTypeDef *USBx , USB_OTG_EPTypeDef *ep)
 691:Drivers/STM32F1xx_HAL_Driver/Src/stm32f1xx_ll_usb.c **** {
 1343              		.loc 1 691 0
 1344              		.cfi_startproc
 1345              		@ args = 0, pretend = 0, frame = 0
 1346              		@ frame_needed = 0, uses_anonymous_args = 0
 1347              		@ link register save eliminated.
 1348              	.LVL93:
 692:Drivers/STM32F1xx_HAL_Driver/Src/stm32f1xx_ll_usb.c ****   /* Prevent unused argument(s) compilation warning */
 693:Drivers/STM32F1xx_HAL_Driver/Src/stm32f1xx_ll_usb.c ****   UNUSED(USBx);
 694:Drivers/STM32F1xx_HAL_Driver/Src/stm32f1xx_ll_usb.c **** 
 695:Drivers/STM32F1xx_HAL_Driver/Src/stm32f1xx_ll_usb.c ****   if (ep->is_in == 1)
 1349              		.loc 1 695 0
 1350 0000 4B78     		ldrb	r3, [r1, #1]	@ zero_extendqisi2
 1351 0002 012B     		cmp	r3, #1
 1352 0004 17D0     		beq	.L109
 696:Drivers/STM32F1xx_HAL_Driver/Src/stm32f1xx_ll_usb.c ****   {
 697:Drivers/STM32F1xx_HAL_Driver/Src/stm32f1xx_ll_usb.c ****     if (((USBx_INEP(ep->num)->DIEPCTL) & USB_OTG_DIEPCTL_EPENA) == 0)
 698:Drivers/STM32F1xx_HAL_Driver/Src/stm32f1xx_ll_usb.c ****     {
 699:Drivers/STM32F1xx_HAL_Driver/Src/stm32f1xx_ll_usb.c ****       USBx_INEP(ep->num)->DIEPCTL &= ~(USB_OTG_DIEPCTL_EPDIS);
 700:Drivers/STM32F1xx_HAL_Driver/Src/stm32f1xx_ll_usb.c ****     } 
 701:Drivers/STM32F1xx_HAL_Driver/Src/stm32f1xx_ll_usb.c ****     USBx_INEP(ep->num)->DIEPCTL |= USB_OTG_DIEPCTL_STALL;
 702:Drivers/STM32F1xx_HAL_Driver/Src/stm32f1xx_ll_usb.c ****   }
 703:Drivers/STM32F1xx_HAL_Driver/Src/stm32f1xx_ll_usb.c ****   else
 704:Drivers/STM32F1xx_HAL_Driver/Src/stm32f1xx_ll_usb.c ****   {
 705:Drivers/STM32F1xx_HAL_Driver/Src/stm32f1xx_ll_usb.c ****     if (((USBx_OUTEP(ep->num)->DOEPCTL) & USB_OTG_DOEPCTL_EPENA) == 0)
 1353              		.loc 1 705 0
 1354 0006 0B78     		ldrb	r3, [r1]	@ zero_extendqisi2
 1355 0008 00EB4313 		add	r3, r0, r3, lsl #5
 1356 000c D3F8002B 		ldr	r2, [r3, #2816]
 1357 0010 002A     		cmp	r2, #0
 1358 0012 05DB     		blt	.L108
 706:Drivers/STM32F1xx_HAL_Driver/Src/stm32f1xx_ll_usb.c ****     {
 707:Drivers/STM32F1xx_HAL_Driver/Src/stm32f1xx_ll_usb.c ****       USBx_OUTEP(ep->num)->DOEPCTL &= ~(USB_OTG_DOEPCTL_EPDIS);
 1359              		.loc 1 707 0
 1360 0014 D3F8002B 		ldr	r2, [r3, #2816]
 1361 0018 22F08042 		bic	r2, r2, #1073741824
 1362 001c C3F8002B 		str	r2, [r3, #2816]
 1363              	.L108:
ARM GAS  /tmp/ccG7BdKF.s 			page 38


 708:Drivers/STM32F1xx_HAL_Driver/Src/stm32f1xx_ll_usb.c ****     } 
 709:Drivers/STM32F1xx_HAL_Driver/Src/stm32f1xx_ll_usb.c ****     USBx_OUTEP(ep->num)->DOEPCTL |= USB_OTG_DOEPCTL_STALL;
 1364              		.loc 1 709 0
 1365 0020 0B78     		ldrb	r3, [r1]	@ zero_extendqisi2
 1366 0022 00EB4310 		add	r0, r0, r3, lsl #5
 1367              	.LVL94:
 1368 0026 D0F8003B 		ldr	r3, [r0, #2816]
 1369 002a 43F40013 		orr	r3, r3, #2097152
 1370 002e C0F8003B 		str	r3, [r0, #2816]
 1371              	.L107:
 710:Drivers/STM32F1xx_HAL_Driver/Src/stm32f1xx_ll_usb.c ****   }
 711:Drivers/STM32F1xx_HAL_Driver/Src/stm32f1xx_ll_usb.c ****   return HAL_OK;
 712:Drivers/STM32F1xx_HAL_Driver/Src/stm32f1xx_ll_usb.c **** }
 1372              		.loc 1 712 0
 1373 0032 0020     		movs	r0, #0
 1374 0034 7047     		bx	lr
 1375              	.LVL95:
 1376              	.L109:
 697:Drivers/STM32F1xx_HAL_Driver/Src/stm32f1xx_ll_usb.c ****     {
 1377              		.loc 1 697 0
 1378 0036 0B78     		ldrb	r3, [r1]	@ zero_extendqisi2
 1379 0038 00EB4313 		add	r3, r0, r3, lsl #5
 1380 003c D3F80029 		ldr	r2, [r3, #2304]
 1381 0040 002A     		cmp	r2, #0
 1382 0042 05DB     		blt	.L106
 699:Drivers/STM32F1xx_HAL_Driver/Src/stm32f1xx_ll_usb.c ****     } 
 1383              		.loc 1 699 0
 1384 0044 D3F80029 		ldr	r2, [r3, #2304]
 1385 0048 22F08042 		bic	r2, r2, #1073741824
 1386 004c C3F80029 		str	r2, [r3, #2304]
 1387              	.L106:
 701:Drivers/STM32F1xx_HAL_Driver/Src/stm32f1xx_ll_usb.c ****   }
 1388              		.loc 1 701 0
 1389 0050 0B78     		ldrb	r3, [r1]	@ zero_extendqisi2
 1390 0052 00EB4310 		add	r0, r0, r3, lsl #5
 1391              	.LVL96:
 1392 0056 D0F80039 		ldr	r3, [r0, #2304]
 1393 005a 43F40013 		orr	r3, r3, #2097152
 1394 005e C0F80039 		str	r3, [r0, #2304]
 1395 0062 E6E7     		b	.L107
 1396              		.cfi_endproc
 1397              	.LFE81:
 1399              		.section	.text.USB_EPClearStall,"ax",%progbits
 1400              		.align	1
 1401              		.global	USB_EPClearStall
 1402              		.syntax unified
 1403              		.thumb
 1404              		.thumb_func
 1405              		.fpu softvfp
 1407              	USB_EPClearStall:
 1408              	.LFB82:
 713:Drivers/STM32F1xx_HAL_Driver/Src/stm32f1xx_ll_usb.c **** 
 714:Drivers/STM32F1xx_HAL_Driver/Src/stm32f1xx_ll_usb.c **** /**
 715:Drivers/STM32F1xx_HAL_Driver/Src/stm32f1xx_ll_usb.c ****   * @brief  USB_EPClearStall : Clear a stall condition over an EP
 716:Drivers/STM32F1xx_HAL_Driver/Src/stm32f1xx_ll_usb.c ****   * @param  USBx : Selected device
 717:Drivers/STM32F1xx_HAL_Driver/Src/stm32f1xx_ll_usb.c ****   * @param  ep: pointer to endpoint structure
 718:Drivers/STM32F1xx_HAL_Driver/Src/stm32f1xx_ll_usb.c ****   * @retval HAL status
ARM GAS  /tmp/ccG7BdKF.s 			page 39


 719:Drivers/STM32F1xx_HAL_Driver/Src/stm32f1xx_ll_usb.c ****   */
 720:Drivers/STM32F1xx_HAL_Driver/Src/stm32f1xx_ll_usb.c **** HAL_StatusTypeDef USB_EPClearStall(USB_OTG_GlobalTypeDef *USBx, USB_OTG_EPTypeDef *ep)
 721:Drivers/STM32F1xx_HAL_Driver/Src/stm32f1xx_ll_usb.c **** {
 1409              		.loc 1 721 0
 1410              		.cfi_startproc
 1411              		@ args = 0, pretend = 0, frame = 0
 1412              		@ frame_needed = 0, uses_anonymous_args = 0
 1413              		@ link register save eliminated.
 1414              	.LVL97:
 722:Drivers/STM32F1xx_HAL_Driver/Src/stm32f1xx_ll_usb.c ****   /* Prevent unused argument(s) compilation warning */
 723:Drivers/STM32F1xx_HAL_Driver/Src/stm32f1xx_ll_usb.c ****   UNUSED(USBx);
 724:Drivers/STM32F1xx_HAL_Driver/Src/stm32f1xx_ll_usb.c **** 
 725:Drivers/STM32F1xx_HAL_Driver/Src/stm32f1xx_ll_usb.c ****   if (ep->is_in == 1)
 1415              		.loc 1 725 0
 1416 0000 4B78     		ldrb	r3, [r1, #1]	@ zero_extendqisi2
 1417 0002 012B     		cmp	r3, #1
 1418 0004 0FD0     		beq	.L113
 726:Drivers/STM32F1xx_HAL_Driver/Src/stm32f1xx_ll_usb.c ****   {
 727:Drivers/STM32F1xx_HAL_Driver/Src/stm32f1xx_ll_usb.c ****     USBx_INEP(ep->num)->DIEPCTL &= ~USB_OTG_DIEPCTL_STALL;
 728:Drivers/STM32F1xx_HAL_Driver/Src/stm32f1xx_ll_usb.c ****     if (ep->type == EP_TYPE_INTR || ep->type == EP_TYPE_BULK)
 729:Drivers/STM32F1xx_HAL_Driver/Src/stm32f1xx_ll_usb.c ****     {
 730:Drivers/STM32F1xx_HAL_Driver/Src/stm32f1xx_ll_usb.c ****        USBx_INEP(ep->num)->DIEPCTL |= USB_OTG_DIEPCTL_SD0PID_SEVNFRM; /* DATA0 */
 731:Drivers/STM32F1xx_HAL_Driver/Src/stm32f1xx_ll_usb.c ****     }
 732:Drivers/STM32F1xx_HAL_Driver/Src/stm32f1xx_ll_usb.c ****   }
 733:Drivers/STM32F1xx_HAL_Driver/Src/stm32f1xx_ll_usb.c ****   else
 734:Drivers/STM32F1xx_HAL_Driver/Src/stm32f1xx_ll_usb.c ****   {
 735:Drivers/STM32F1xx_HAL_Driver/Src/stm32f1xx_ll_usb.c ****     USBx_OUTEP(ep->num)->DOEPCTL &= ~USB_OTG_DOEPCTL_STALL;
 1419              		.loc 1 735 0
 1420 0006 0B78     		ldrb	r3, [r1]	@ zero_extendqisi2
 1421 0008 00EB4313 		add	r3, r0, r3, lsl #5
 1422 000c D3F8002B 		ldr	r2, [r3, #2816]
 1423 0010 22F40012 		bic	r2, r2, #2097152
 1424 0014 C3F8002B 		str	r2, [r3, #2816]
 736:Drivers/STM32F1xx_HAL_Driver/Src/stm32f1xx_ll_usb.c ****     if (ep->type == EP_TYPE_INTR || ep->type == EP_TYPE_BULK)
 1425              		.loc 1 736 0
 1426 0018 CB78     		ldrb	r3, [r1, #3]	@ zero_extendqisi2
 1427 001a 023B     		subs	r3, r3, #2
 1428 001c DBB2     		uxtb	r3, r3
 1429 001e 012B     		cmp	r3, #1
 1430 0020 19D9     		bls	.L114
 1431              	.LVL98:
 1432              	.L112:
 737:Drivers/STM32F1xx_HAL_Driver/Src/stm32f1xx_ll_usb.c ****     {
 738:Drivers/STM32F1xx_HAL_Driver/Src/stm32f1xx_ll_usb.c ****       USBx_OUTEP(ep->num)->DOEPCTL |= USB_OTG_DOEPCTL_SD0PID_SEVNFRM; /* DATA0 */
 739:Drivers/STM32F1xx_HAL_Driver/Src/stm32f1xx_ll_usb.c ****     }
 740:Drivers/STM32F1xx_HAL_Driver/Src/stm32f1xx_ll_usb.c ****   }
 741:Drivers/STM32F1xx_HAL_Driver/Src/stm32f1xx_ll_usb.c ****   return HAL_OK;
 742:Drivers/STM32F1xx_HAL_Driver/Src/stm32f1xx_ll_usb.c **** }
 1433              		.loc 1 742 0
 1434 0022 0020     		movs	r0, #0
 1435 0024 7047     		bx	lr
 1436              	.LVL99:
 1437              	.L113:
 727:Drivers/STM32F1xx_HAL_Driver/Src/stm32f1xx_ll_usb.c ****     if (ep->type == EP_TYPE_INTR || ep->type == EP_TYPE_BULK)
 1438              		.loc 1 727 0
 1439 0026 0B78     		ldrb	r3, [r1]	@ zero_extendqisi2
 1440 0028 00EB4313 		add	r3, r0, r3, lsl #5
ARM GAS  /tmp/ccG7BdKF.s 			page 40


 1441 002c D3F80029 		ldr	r2, [r3, #2304]
 1442 0030 22F40012 		bic	r2, r2, #2097152
 1443 0034 C3F80029 		str	r2, [r3, #2304]
 728:Drivers/STM32F1xx_HAL_Driver/Src/stm32f1xx_ll_usb.c ****     {
 1444              		.loc 1 728 0
 1445 0038 CB78     		ldrb	r3, [r1, #3]	@ zero_extendqisi2
 1446 003a 023B     		subs	r3, r3, #2
 1447 003c DBB2     		uxtb	r3, r3
 1448 003e 012B     		cmp	r3, #1
 1449 0040 EFD8     		bhi	.L112
 730:Drivers/STM32F1xx_HAL_Driver/Src/stm32f1xx_ll_usb.c ****     }
 1450              		.loc 1 730 0
 1451 0042 0B78     		ldrb	r3, [r1]	@ zero_extendqisi2
 1452 0044 00EB4310 		add	r0, r0, r3, lsl #5
 1453              	.LVL100:
 1454 0048 D0F80039 		ldr	r3, [r0, #2304]
 1455 004c 43F08053 		orr	r3, r3, #268435456
 1456 0050 C0F80039 		str	r3, [r0, #2304]
 1457 0054 E5E7     		b	.L112
 1458              	.LVL101:
 1459              	.L114:
 738:Drivers/STM32F1xx_HAL_Driver/Src/stm32f1xx_ll_usb.c ****     }
 1460              		.loc 1 738 0
 1461 0056 0B78     		ldrb	r3, [r1]	@ zero_extendqisi2
 1462 0058 00EB4310 		add	r0, r0, r3, lsl #5
 1463              	.LVL102:
 1464 005c D0F8003B 		ldr	r3, [r0, #2816]
 1465 0060 43F08053 		orr	r3, r3, #268435456
 1466 0064 C0F8003B 		str	r3, [r0, #2816]
 1467 0068 DBE7     		b	.L112
 1468              		.cfi_endproc
 1469              	.LFE82:
 1471              		.section	.text.USB_StopDevice,"ax",%progbits
 1472              		.align	1
 1473              		.global	USB_StopDevice
 1474              		.syntax unified
 1475              		.thumb
 1476              		.thumb_func
 1477              		.fpu softvfp
 1479              	USB_StopDevice:
 1480              	.LFB83:
 743:Drivers/STM32F1xx_HAL_Driver/Src/stm32f1xx_ll_usb.c **** 
 744:Drivers/STM32F1xx_HAL_Driver/Src/stm32f1xx_ll_usb.c **** /**
 745:Drivers/STM32F1xx_HAL_Driver/Src/stm32f1xx_ll_usb.c ****   * @brief  USB_StopDevice : Stop the usb device mode
 746:Drivers/STM32F1xx_HAL_Driver/Src/stm32f1xx_ll_usb.c ****   * @param  USBx : Selected device
 747:Drivers/STM32F1xx_HAL_Driver/Src/stm32f1xx_ll_usb.c ****   * @retval HAL status
 748:Drivers/STM32F1xx_HAL_Driver/Src/stm32f1xx_ll_usb.c ****   */
 749:Drivers/STM32F1xx_HAL_Driver/Src/stm32f1xx_ll_usb.c **** HAL_StatusTypeDef USB_StopDevice(USB_OTG_GlobalTypeDef *USBx)
 750:Drivers/STM32F1xx_HAL_Driver/Src/stm32f1xx_ll_usb.c **** {
 1481              		.loc 1 750 0
 1482              		.cfi_startproc
 1483              		@ args = 0, pretend = 0, frame = 0
 1484              		@ frame_needed = 0, uses_anonymous_args = 0
 1485              	.LVL103:
 1486 0000 38B5     		push	{r3, r4, r5, lr}
 1487              	.LCFI24:
 1488              		.cfi_def_cfa_offset 16
ARM GAS  /tmp/ccG7BdKF.s 			page 41


 1489              		.cfi_offset 3, -16
 1490              		.cfi_offset 4, -12
 1491              		.cfi_offset 5, -8
 1492              		.cfi_offset 14, -4
 1493 0002 0446     		mov	r4, r0
 1494              	.LVL104:
 751:Drivers/STM32F1xx_HAL_Driver/Src/stm32f1xx_ll_usb.c ****   uint32_t index = 0;
 752:Drivers/STM32F1xx_HAL_Driver/Src/stm32f1xx_ll_usb.c ****   
 753:Drivers/STM32F1xx_HAL_Driver/Src/stm32f1xx_ll_usb.c ****   /* Clear Pending interrupt */
 754:Drivers/STM32F1xx_HAL_Driver/Src/stm32f1xx_ll_usb.c ****   for (index = 0; index < 15 ; index++)
 1495              		.loc 1 754 0
 1496 0004 0022     		movs	r2, #0
 1497 0006 07E0     		b	.L116
 1498              	.LVL105:
 1499              	.L117:
 755:Drivers/STM32F1xx_HAL_Driver/Src/stm32f1xx_ll_usb.c ****   {
 756:Drivers/STM32F1xx_HAL_Driver/Src/stm32f1xx_ll_usb.c ****     USBx_INEP(index)->DIEPINT  = 0xFF;
 1500              		.loc 1 756 0 discriminator 3
 1501 0008 04EB4213 		add	r3, r4, r2, lsl #5
 1502 000c FF21     		movs	r1, #255
 1503 000e C3F80819 		str	r1, [r3, #2312]
 757:Drivers/STM32F1xx_HAL_Driver/Src/stm32f1xx_ll_usb.c ****     USBx_OUTEP(index)->DOEPINT  = 0xFF;
 1504              		.loc 1 757 0 discriminator 3
 1505 0012 C3F8081B 		str	r1, [r3, #2824]
 754:Drivers/STM32F1xx_HAL_Driver/Src/stm32f1xx_ll_usb.c ****   {
 1506              		.loc 1 754 0 discriminator 3
 1507 0016 0132     		adds	r2, r2, #1
 1508              	.LVL106:
 1509              	.L116:
 754:Drivers/STM32F1xx_HAL_Driver/Src/stm32f1xx_ll_usb.c ****   {
 1510              		.loc 1 754 0 is_stmt 0 discriminator 1
 1511 0018 0E2A     		cmp	r2, #14
 1512 001a F5D9     		bls	.L117
 758:Drivers/STM32F1xx_HAL_Driver/Src/stm32f1xx_ll_usb.c ****   }
 759:Drivers/STM32F1xx_HAL_Driver/Src/stm32f1xx_ll_usb.c ****   USBx_DEVICE->DAINT = 0xFFFFFFFF;
 1513              		.loc 1 759 0 is_stmt 1
 1514 001c 4FF0FF32 		mov	r2, #-1
 1515              	.LVL107:
 1516 0020 C4F81828 		str	r2, [r4, #2072]
 760:Drivers/STM32F1xx_HAL_Driver/Src/stm32f1xx_ll_usb.c ****   
 761:Drivers/STM32F1xx_HAL_Driver/Src/stm32f1xx_ll_usb.c ****   /* Clear interrupt masks */
 762:Drivers/STM32F1xx_HAL_Driver/Src/stm32f1xx_ll_usb.c ****   USBx_DEVICE->DIEPMSK  = 0;
 1517              		.loc 1 762 0
 1518 0024 0025     		movs	r5, #0
 1519 0026 C4F81058 		str	r5, [r4, #2064]
 763:Drivers/STM32F1xx_HAL_Driver/Src/stm32f1xx_ll_usb.c ****   USBx_DEVICE->DOEPMSK  = 0;
 1520              		.loc 1 763 0
 1521 002a C4F81458 		str	r5, [r4, #2068]
 764:Drivers/STM32F1xx_HAL_Driver/Src/stm32f1xx_ll_usb.c ****   USBx_DEVICE->DAINTMSK = 0;
 1522              		.loc 1 764 0
 1523 002e C4F81C58 		str	r5, [r4, #2076]
 765:Drivers/STM32F1xx_HAL_Driver/Src/stm32f1xx_ll_usb.c ****   
 766:Drivers/STM32F1xx_HAL_Driver/Src/stm32f1xx_ll_usb.c ****   /* Flush the FIFO */
 767:Drivers/STM32F1xx_HAL_Driver/Src/stm32f1xx_ll_usb.c ****   USB_FlushRxFifo(USBx);
 1524              		.loc 1 767 0
 1525 0032 2046     		mov	r0, r4
 1526              	.LVL108:
ARM GAS  /tmp/ccG7BdKF.s 			page 42


 1527 0034 FFF7FEFF 		bl	USB_FlushRxFifo
 1528              	.LVL109:
 768:Drivers/STM32F1xx_HAL_Driver/Src/stm32f1xx_ll_usb.c ****   USB_FlushTxFifo(USBx ,  0x10 );
 1529              		.loc 1 768 0
 1530 0038 1021     		movs	r1, #16
 1531 003a 2046     		mov	r0, r4
 1532 003c FFF7FEFF 		bl	USB_FlushTxFifo
 1533              	.LVL110:
 769:Drivers/STM32F1xx_HAL_Driver/Src/stm32f1xx_ll_usb.c ****   
 770:Drivers/STM32F1xx_HAL_Driver/Src/stm32f1xx_ll_usb.c ****   return HAL_OK;
 771:Drivers/STM32F1xx_HAL_Driver/Src/stm32f1xx_ll_usb.c **** }
 1534              		.loc 1 771 0
 1535 0040 2846     		mov	r0, r5
 1536 0042 38BD     		pop	{r3, r4, r5, pc}
 1537              		.cfi_endproc
 1538              	.LFE83:
 1540              		.section	.text.USB_SetDevAddress,"ax",%progbits
 1541              		.align	1
 1542              		.global	USB_SetDevAddress
 1543              		.syntax unified
 1544              		.thumb
 1545              		.thumb_func
 1546              		.fpu softvfp
 1548              	USB_SetDevAddress:
 1549              	.LFB84:
 772:Drivers/STM32F1xx_HAL_Driver/Src/stm32f1xx_ll_usb.c **** 
 773:Drivers/STM32F1xx_HAL_Driver/Src/stm32f1xx_ll_usb.c **** /**
 774:Drivers/STM32F1xx_HAL_Driver/Src/stm32f1xx_ll_usb.c ****   * @brief  USB_SetDevAddress : Stop the usb device mode
 775:Drivers/STM32F1xx_HAL_Driver/Src/stm32f1xx_ll_usb.c ****   * @param  USBx : Selected device
 776:Drivers/STM32F1xx_HAL_Driver/Src/stm32f1xx_ll_usb.c ****   * @param  address : new device address to be assigned
 777:Drivers/STM32F1xx_HAL_Driver/Src/stm32f1xx_ll_usb.c ****   *          This parameter can be a value from 0 to 255
 778:Drivers/STM32F1xx_HAL_Driver/Src/stm32f1xx_ll_usb.c ****   * @retval HAL status
 779:Drivers/STM32F1xx_HAL_Driver/Src/stm32f1xx_ll_usb.c ****   */
 780:Drivers/STM32F1xx_HAL_Driver/Src/stm32f1xx_ll_usb.c **** HAL_StatusTypeDef  USB_SetDevAddress (USB_OTG_GlobalTypeDef *USBx, uint8_t address)
 781:Drivers/STM32F1xx_HAL_Driver/Src/stm32f1xx_ll_usb.c **** {
 1550              		.loc 1 781 0
 1551              		.cfi_startproc
 1552              		@ args = 0, pretend = 0, frame = 0
 1553              		@ frame_needed = 0, uses_anonymous_args = 0
 1554              		@ link register save eliminated.
 1555              	.LVL111:
 782:Drivers/STM32F1xx_HAL_Driver/Src/stm32f1xx_ll_usb.c ****   /* Prevent unused argument(s) compilation warning */
 783:Drivers/STM32F1xx_HAL_Driver/Src/stm32f1xx_ll_usb.c ****   UNUSED(USBx);
 784:Drivers/STM32F1xx_HAL_Driver/Src/stm32f1xx_ll_usb.c ****   UNUSED(address);
 785:Drivers/STM32F1xx_HAL_Driver/Src/stm32f1xx_ll_usb.c ****   USBx_DEVICE->DCFG &= ~ (USB_OTG_DCFG_DAD);
 1556              		.loc 1 785 0
 1557 0000 D0F80038 		ldr	r3, [r0, #2048]
 1558 0004 23F4FE63 		bic	r3, r3, #2032
 1559 0008 C0F80038 		str	r3, [r0, #2048]
 786:Drivers/STM32F1xx_HAL_Driver/Src/stm32f1xx_ll_usb.c ****   USBx_DEVICE->DCFG |= (address << 4) & USB_OTG_DCFG_DAD;
 1560              		.loc 1 786 0
 1561 000c D0F80038 		ldr	r3, [r0, #2048]
 1562 0010 0901     		lsls	r1, r1, #4
 1563              	.LVL112:
 1564 0012 01F4FE61 		and	r1, r1, #2032
 1565 0016 0B43     		orrs	r3, r3, r1
 1566 0018 C0F80038 		str	r3, [r0, #2048]
ARM GAS  /tmp/ccG7BdKF.s 			page 43


 787:Drivers/STM32F1xx_HAL_Driver/Src/stm32f1xx_ll_usb.c ****   
 788:Drivers/STM32F1xx_HAL_Driver/Src/stm32f1xx_ll_usb.c ****   return HAL_OK;
 789:Drivers/STM32F1xx_HAL_Driver/Src/stm32f1xx_ll_usb.c **** }
 1567              		.loc 1 789 0
 1568 001c 0020     		movs	r0, #0
 1569              	.LVL113:
 1570 001e 7047     		bx	lr
 1571              		.cfi_endproc
 1572              	.LFE84:
 1574              		.section	.text.USB_DevConnect,"ax",%progbits
 1575              		.align	1
 1576              		.global	USB_DevConnect
 1577              		.syntax unified
 1578              		.thumb
 1579              		.thumb_func
 1580              		.fpu softvfp
 1582              	USB_DevConnect:
 1583              	.LFB85:
 790:Drivers/STM32F1xx_HAL_Driver/Src/stm32f1xx_ll_usb.c **** 
 791:Drivers/STM32F1xx_HAL_Driver/Src/stm32f1xx_ll_usb.c **** /**
 792:Drivers/STM32F1xx_HAL_Driver/Src/stm32f1xx_ll_usb.c ****   * @brief  USB_DevConnect : Connect the USB device by enabling the pull-up/pull-down
 793:Drivers/STM32F1xx_HAL_Driver/Src/stm32f1xx_ll_usb.c ****   * @param  USBx : Selected device
 794:Drivers/STM32F1xx_HAL_Driver/Src/stm32f1xx_ll_usb.c ****   * @retval HAL status
 795:Drivers/STM32F1xx_HAL_Driver/Src/stm32f1xx_ll_usb.c ****   */
 796:Drivers/STM32F1xx_HAL_Driver/Src/stm32f1xx_ll_usb.c **** HAL_StatusTypeDef  USB_DevConnect (USB_OTG_GlobalTypeDef *USBx)
 797:Drivers/STM32F1xx_HAL_Driver/Src/stm32f1xx_ll_usb.c **** {
 1584              		.loc 1 797 0
 1585              		.cfi_startproc
 1586              		@ args = 0, pretend = 0, frame = 0
 1587              		@ frame_needed = 0, uses_anonymous_args = 0
 1588              	.LVL114:
 1589 0000 08B5     		push	{r3, lr}
 1590              	.LCFI25:
 1591              		.cfi_def_cfa_offset 8
 1592              		.cfi_offset 3, -8
 1593              		.cfi_offset 14, -4
 798:Drivers/STM32F1xx_HAL_Driver/Src/stm32f1xx_ll_usb.c ****   /* Prevent unused argument(s) compilation warning */
 799:Drivers/STM32F1xx_HAL_Driver/Src/stm32f1xx_ll_usb.c ****   UNUSED(USBx);
 800:Drivers/STM32F1xx_HAL_Driver/Src/stm32f1xx_ll_usb.c **** 
 801:Drivers/STM32F1xx_HAL_Driver/Src/stm32f1xx_ll_usb.c ****   USBx_DEVICE->DCTL &= ~USB_OTG_DCTL_SDIS ;
 1594              		.loc 1 801 0
 1595 0002 D0F80438 		ldr	r3, [r0, #2052]
 1596 0006 23F00203 		bic	r3, r3, #2
 1597 000a C0F80438 		str	r3, [r0, #2052]
 802:Drivers/STM32F1xx_HAL_Driver/Src/stm32f1xx_ll_usb.c ****   HAL_Delay(3);
 1598              		.loc 1 802 0
 1599 000e 0320     		movs	r0, #3
 1600              	.LVL115:
 1601 0010 FFF7FEFF 		bl	HAL_Delay
 1602              	.LVL116:
 803:Drivers/STM32F1xx_HAL_Driver/Src/stm32f1xx_ll_usb.c ****   
 804:Drivers/STM32F1xx_HAL_Driver/Src/stm32f1xx_ll_usb.c ****   return HAL_OK;
 805:Drivers/STM32F1xx_HAL_Driver/Src/stm32f1xx_ll_usb.c **** }
 1603              		.loc 1 805 0
 1604 0014 0020     		movs	r0, #0
 1605 0016 08BD     		pop	{r3, pc}
 1606              		.cfi_endproc
ARM GAS  /tmp/ccG7BdKF.s 			page 44


 1607              	.LFE85:
 1609              		.section	.text.USB_DevDisconnect,"ax",%progbits
 1610              		.align	1
 1611              		.global	USB_DevDisconnect
 1612              		.syntax unified
 1613              		.thumb
 1614              		.thumb_func
 1615              		.fpu softvfp
 1617              	USB_DevDisconnect:
 1618              	.LFB86:
 806:Drivers/STM32F1xx_HAL_Driver/Src/stm32f1xx_ll_usb.c **** 
 807:Drivers/STM32F1xx_HAL_Driver/Src/stm32f1xx_ll_usb.c **** /**
 808:Drivers/STM32F1xx_HAL_Driver/Src/stm32f1xx_ll_usb.c ****   * @brief  USB_DevDisconnect : Disconnect the USB device by disabling the pull-up/pull-down
 809:Drivers/STM32F1xx_HAL_Driver/Src/stm32f1xx_ll_usb.c ****   * @param  USBx : Selected device
 810:Drivers/STM32F1xx_HAL_Driver/Src/stm32f1xx_ll_usb.c ****   * @retval HAL status
 811:Drivers/STM32F1xx_HAL_Driver/Src/stm32f1xx_ll_usb.c ****   */
 812:Drivers/STM32F1xx_HAL_Driver/Src/stm32f1xx_ll_usb.c **** HAL_StatusTypeDef  USB_DevDisconnect (USB_OTG_GlobalTypeDef *USBx)
 813:Drivers/STM32F1xx_HAL_Driver/Src/stm32f1xx_ll_usb.c **** {
 1619              		.loc 1 813 0
 1620              		.cfi_startproc
 1621              		@ args = 0, pretend = 0, frame = 0
 1622              		@ frame_needed = 0, uses_anonymous_args = 0
 1623              	.LVL117:
 1624 0000 08B5     		push	{r3, lr}
 1625              	.LCFI26:
 1626              		.cfi_def_cfa_offset 8
 1627              		.cfi_offset 3, -8
 1628              		.cfi_offset 14, -4
 814:Drivers/STM32F1xx_HAL_Driver/Src/stm32f1xx_ll_usb.c ****   /* Prevent unused argument(s) compilation warning */
 815:Drivers/STM32F1xx_HAL_Driver/Src/stm32f1xx_ll_usb.c ****   UNUSED(USBx);
 816:Drivers/STM32F1xx_HAL_Driver/Src/stm32f1xx_ll_usb.c **** 
 817:Drivers/STM32F1xx_HAL_Driver/Src/stm32f1xx_ll_usb.c ****   USBx_DEVICE->DCTL |= USB_OTG_DCTL_SDIS;
 1629              		.loc 1 817 0
 1630 0002 D0F80438 		ldr	r3, [r0, #2052]
 1631 0006 43F00203 		orr	r3, r3, #2
 1632 000a C0F80438 		str	r3, [r0, #2052]
 818:Drivers/STM32F1xx_HAL_Driver/Src/stm32f1xx_ll_usb.c ****   HAL_Delay(3);
 1633              		.loc 1 818 0
 1634 000e 0320     		movs	r0, #3
 1635              	.LVL118:
 1636 0010 FFF7FEFF 		bl	HAL_Delay
 1637              	.LVL119:
 819:Drivers/STM32F1xx_HAL_Driver/Src/stm32f1xx_ll_usb.c ****   
 820:Drivers/STM32F1xx_HAL_Driver/Src/stm32f1xx_ll_usb.c ****   return HAL_OK;
 821:Drivers/STM32F1xx_HAL_Driver/Src/stm32f1xx_ll_usb.c **** }
 1638              		.loc 1 821 0
 1639 0014 0020     		movs	r0, #0
 1640 0016 08BD     		pop	{r3, pc}
 1641              		.cfi_endproc
 1642              	.LFE86:
 1644              		.section	.text.USB_ReadInterrupts,"ax",%progbits
 1645              		.align	1
 1646              		.global	USB_ReadInterrupts
 1647              		.syntax unified
 1648              		.thumb
 1649              		.thumb_func
 1650              		.fpu softvfp
ARM GAS  /tmp/ccG7BdKF.s 			page 45


 1652              	USB_ReadInterrupts:
 1653              	.LFB87:
 822:Drivers/STM32F1xx_HAL_Driver/Src/stm32f1xx_ll_usb.c **** 
 823:Drivers/STM32F1xx_HAL_Driver/Src/stm32f1xx_ll_usb.c **** /**
 824:Drivers/STM32F1xx_HAL_Driver/Src/stm32f1xx_ll_usb.c ****   * @brief  USB_ReadInterrupts: return the global USB interrupt status
 825:Drivers/STM32F1xx_HAL_Driver/Src/stm32f1xx_ll_usb.c ****   * @param  USBx : Selected device
 826:Drivers/STM32F1xx_HAL_Driver/Src/stm32f1xx_ll_usb.c ****   * @retval HAL status
 827:Drivers/STM32F1xx_HAL_Driver/Src/stm32f1xx_ll_usb.c ****   */
 828:Drivers/STM32F1xx_HAL_Driver/Src/stm32f1xx_ll_usb.c **** uint32_t  USB_ReadInterrupts (USB_OTG_GlobalTypeDef *USBx)
 829:Drivers/STM32F1xx_HAL_Driver/Src/stm32f1xx_ll_usb.c **** {
 1654              		.loc 1 829 0
 1655              		.cfi_startproc
 1656              		@ args = 0, pretend = 0, frame = 0
 1657              		@ frame_needed = 0, uses_anonymous_args = 0
 1658              		@ link register save eliminated.
 1659              	.LVL120:
 830:Drivers/STM32F1xx_HAL_Driver/Src/stm32f1xx_ll_usb.c ****   uint32_t tmpreg = 0;
 831:Drivers/STM32F1xx_HAL_Driver/Src/stm32f1xx_ll_usb.c ****   
 832:Drivers/STM32F1xx_HAL_Driver/Src/stm32f1xx_ll_usb.c ****   tmpreg = USBx->GINTSTS;
 1660              		.loc 1 832 0
 1661 0000 4269     		ldr	r2, [r0, #20]
 1662              	.LVL121:
 833:Drivers/STM32F1xx_HAL_Driver/Src/stm32f1xx_ll_usb.c ****   tmpreg &= USBx->GINTMSK;
 1663              		.loc 1 833 0
 1664 0002 8069     		ldr	r0, [r0, #24]
 1665              	.LVL122:
 834:Drivers/STM32F1xx_HAL_Driver/Src/stm32f1xx_ll_usb.c ****   return tmpreg;
 835:Drivers/STM32F1xx_HAL_Driver/Src/stm32f1xx_ll_usb.c **** }
 1666              		.loc 1 835 0
 1667 0004 1040     		ands	r0, r0, r2
 1668              	.LVL123:
 1669 0006 7047     		bx	lr
 1670              		.cfi_endproc
 1671              	.LFE87:
 1673              		.section	.text.USB_ReadDevAllOutEpInterrupt,"ax",%progbits
 1674              		.align	1
 1675              		.global	USB_ReadDevAllOutEpInterrupt
 1676              		.syntax unified
 1677              		.thumb
 1678              		.thumb_func
 1679              		.fpu softvfp
 1681              	USB_ReadDevAllOutEpInterrupt:
 1682              	.LFB88:
 836:Drivers/STM32F1xx_HAL_Driver/Src/stm32f1xx_ll_usb.c **** 
 837:Drivers/STM32F1xx_HAL_Driver/Src/stm32f1xx_ll_usb.c **** /**
 838:Drivers/STM32F1xx_HAL_Driver/Src/stm32f1xx_ll_usb.c ****   * @brief  USB_ReadDevAllOutEpInterrupt: return the USB device OUT endpoints interrupt status
 839:Drivers/STM32F1xx_HAL_Driver/Src/stm32f1xx_ll_usb.c ****   * @param  USBx : Selected device
 840:Drivers/STM32F1xx_HAL_Driver/Src/stm32f1xx_ll_usb.c ****   * @retval HAL status
 841:Drivers/STM32F1xx_HAL_Driver/Src/stm32f1xx_ll_usb.c ****   */
 842:Drivers/STM32F1xx_HAL_Driver/Src/stm32f1xx_ll_usb.c **** uint32_t USB_ReadDevAllOutEpInterrupt (USB_OTG_GlobalTypeDef *USBx)
 843:Drivers/STM32F1xx_HAL_Driver/Src/stm32f1xx_ll_usb.c **** {
 1683              		.loc 1 843 0
 1684              		.cfi_startproc
 1685              		@ args = 0, pretend = 0, frame = 0
 1686              		@ frame_needed = 0, uses_anonymous_args = 0
 1687              		@ link register save eliminated.
 1688              	.LVL124:
ARM GAS  /tmp/ccG7BdKF.s 			page 46


 844:Drivers/STM32F1xx_HAL_Driver/Src/stm32f1xx_ll_usb.c ****   uint32_t tmpreg = 0;
 845:Drivers/STM32F1xx_HAL_Driver/Src/stm32f1xx_ll_usb.c ****   /* Prevent unused argument(s) compilation warning */
 846:Drivers/STM32F1xx_HAL_Driver/Src/stm32f1xx_ll_usb.c ****   UNUSED(USBx);
 847:Drivers/STM32F1xx_HAL_Driver/Src/stm32f1xx_ll_usb.c **** 
 848:Drivers/STM32F1xx_HAL_Driver/Src/stm32f1xx_ll_usb.c ****   tmpreg  = USBx_DEVICE->DAINT;
 1689              		.loc 1 848 0
 1690 0000 D0F81838 		ldr	r3, [r0, #2072]
 1691              	.LVL125:
 1692 0004 00F50060 		add	r0, r0, #2048
 1693              	.LVL126:
 849:Drivers/STM32F1xx_HAL_Driver/Src/stm32f1xx_ll_usb.c ****   tmpreg &= USBx_DEVICE->DAINTMSK;
 1694              		.loc 1 849 0
 1695 0008 C069     		ldr	r0, [r0, #28]
 1696              	.LVL127:
 1697 000a 1840     		ands	r0, r0, r3
 1698              	.LVL128:
 850:Drivers/STM32F1xx_HAL_Driver/Src/stm32f1xx_ll_usb.c ****   return ((tmpreg & 0xffff0000) >> 16);
 851:Drivers/STM32F1xx_HAL_Driver/Src/stm32f1xx_ll_usb.c **** }
 1699              		.loc 1 851 0
 1700 000c 000C     		lsrs	r0, r0, #16
 1701              	.LVL129:
 1702 000e 7047     		bx	lr
 1703              		.cfi_endproc
 1704              	.LFE88:
 1706              		.section	.text.USB_ReadDevAllInEpInterrupt,"ax",%progbits
 1707              		.align	1
 1708              		.global	USB_ReadDevAllInEpInterrupt
 1709              		.syntax unified
 1710              		.thumb
 1711              		.thumb_func
 1712              		.fpu softvfp
 1714              	USB_ReadDevAllInEpInterrupt:
 1715              	.LFB89:
 852:Drivers/STM32F1xx_HAL_Driver/Src/stm32f1xx_ll_usb.c **** 
 853:Drivers/STM32F1xx_HAL_Driver/Src/stm32f1xx_ll_usb.c **** /**
 854:Drivers/STM32F1xx_HAL_Driver/Src/stm32f1xx_ll_usb.c ****   * @brief  USB_ReadDevAllInEpInterrupt: return the USB device IN endpoints interrupt status
 855:Drivers/STM32F1xx_HAL_Driver/Src/stm32f1xx_ll_usb.c ****   * @param  USBx : Selected device
 856:Drivers/STM32F1xx_HAL_Driver/Src/stm32f1xx_ll_usb.c ****   * @retval HAL status
 857:Drivers/STM32F1xx_HAL_Driver/Src/stm32f1xx_ll_usb.c ****   */
 858:Drivers/STM32F1xx_HAL_Driver/Src/stm32f1xx_ll_usb.c **** uint32_t USB_ReadDevAllInEpInterrupt (USB_OTG_GlobalTypeDef *USBx)
 859:Drivers/STM32F1xx_HAL_Driver/Src/stm32f1xx_ll_usb.c **** {
 1716              		.loc 1 859 0
 1717              		.cfi_startproc
 1718              		@ args = 0, pretend = 0, frame = 0
 1719              		@ frame_needed = 0, uses_anonymous_args = 0
 1720              		@ link register save eliminated.
 1721              	.LVL130:
 860:Drivers/STM32F1xx_HAL_Driver/Src/stm32f1xx_ll_usb.c ****   uint32_t tmpreg = 0;
 861:Drivers/STM32F1xx_HAL_Driver/Src/stm32f1xx_ll_usb.c ****   /* Prevent unused argument(s) compilation warning */
 862:Drivers/STM32F1xx_HAL_Driver/Src/stm32f1xx_ll_usb.c ****   UNUSED(USBx);
 863:Drivers/STM32F1xx_HAL_Driver/Src/stm32f1xx_ll_usb.c **** 
 864:Drivers/STM32F1xx_HAL_Driver/Src/stm32f1xx_ll_usb.c ****   tmpreg  = USBx_DEVICE->DAINT;
 1722              		.loc 1 864 0
 1723 0000 D0F81838 		ldr	r3, [r0, #2072]
 1724              	.LVL131:
 1725 0004 00F50060 		add	r0, r0, #2048
 1726              	.LVL132:
ARM GAS  /tmp/ccG7BdKF.s 			page 47


 865:Drivers/STM32F1xx_HAL_Driver/Src/stm32f1xx_ll_usb.c ****   tmpreg &= USBx_DEVICE->DAINTMSK;
 1727              		.loc 1 865 0
 1728 0008 C069     		ldr	r0, [r0, #28]
 1729              	.LVL133:
 1730 000a 1840     		ands	r0, r0, r3
 1731              	.LVL134:
 866:Drivers/STM32F1xx_HAL_Driver/Src/stm32f1xx_ll_usb.c ****   return ((tmpreg & 0xFFFF));
 867:Drivers/STM32F1xx_HAL_Driver/Src/stm32f1xx_ll_usb.c **** }
 1732              		.loc 1 867 0
 1733 000c 80B2     		uxth	r0, r0
 1734              	.LVL135:
 1735 000e 7047     		bx	lr
 1736              		.cfi_endproc
 1737              	.LFE89:
 1739              		.section	.text.USB_ReadDevOutEPInterrupt,"ax",%progbits
 1740              		.align	1
 1741              		.global	USB_ReadDevOutEPInterrupt
 1742              		.syntax unified
 1743              		.thumb
 1744              		.thumb_func
 1745              		.fpu softvfp
 1747              	USB_ReadDevOutEPInterrupt:
 1748              	.LFB90:
 868:Drivers/STM32F1xx_HAL_Driver/Src/stm32f1xx_ll_usb.c **** 
 869:Drivers/STM32F1xx_HAL_Driver/Src/stm32f1xx_ll_usb.c **** /**
 870:Drivers/STM32F1xx_HAL_Driver/Src/stm32f1xx_ll_usb.c ****   * @brief  Returns Device OUT EP Interrupt register
 871:Drivers/STM32F1xx_HAL_Driver/Src/stm32f1xx_ll_usb.c ****   * @param  USBx : Selected device
 872:Drivers/STM32F1xx_HAL_Driver/Src/stm32f1xx_ll_usb.c ****   * @param  epnum : endpoint number
 873:Drivers/STM32F1xx_HAL_Driver/Src/stm32f1xx_ll_usb.c ****   *          This parameter can be a value from 0 to 15
 874:Drivers/STM32F1xx_HAL_Driver/Src/stm32f1xx_ll_usb.c ****   * @retval Device OUT EP Interrupt register
 875:Drivers/STM32F1xx_HAL_Driver/Src/stm32f1xx_ll_usb.c ****   */
 876:Drivers/STM32F1xx_HAL_Driver/Src/stm32f1xx_ll_usb.c **** uint32_t USB_ReadDevOutEPInterrupt (USB_OTG_GlobalTypeDef *USBx , uint8_t epnum)
 877:Drivers/STM32F1xx_HAL_Driver/Src/stm32f1xx_ll_usb.c **** {
 1749              		.loc 1 877 0
 1750              		.cfi_startproc
 1751              		@ args = 0, pretend = 0, frame = 0
 1752              		@ frame_needed = 0, uses_anonymous_args = 0
 1753              		@ link register save eliminated.
 1754              	.LVL136:
 878:Drivers/STM32F1xx_HAL_Driver/Src/stm32f1xx_ll_usb.c ****   /* Prevent unused argument(s) compilation warning */
 879:Drivers/STM32F1xx_HAL_Driver/Src/stm32f1xx_ll_usb.c ****   UNUSED(USBx);
 880:Drivers/STM32F1xx_HAL_Driver/Src/stm32f1xx_ll_usb.c **** 
 881:Drivers/STM32F1xx_HAL_Driver/Src/stm32f1xx_ll_usb.c ****   uint32_t tmpreg = 0;
 882:Drivers/STM32F1xx_HAL_Driver/Src/stm32f1xx_ll_usb.c ****   tmpreg  = USBx_OUTEP(epnum)->DOEPINT;
 1755              		.loc 1 882 0
 1756 0000 00EB4111 		add	r1, r0, r1, lsl #5
 1757              	.LVL137:
 1758 0004 D1F8082B 		ldr	r2, [r1, #2824]
 1759              	.LVL138:
 883:Drivers/STM32F1xx_HAL_Driver/Src/stm32f1xx_ll_usb.c ****   tmpreg &= USBx_DEVICE->DOEPMSK;
 1760              		.loc 1 883 0
 1761 0008 00F50060 		add	r0, r0, #2048
 1762              	.LVL139:
 1763 000c 4069     		ldr	r0, [r0, #20]
 1764              	.LVL140:
 884:Drivers/STM32F1xx_HAL_Driver/Src/stm32f1xx_ll_usb.c ****   return tmpreg;
 885:Drivers/STM32F1xx_HAL_Driver/Src/stm32f1xx_ll_usb.c **** }
ARM GAS  /tmp/ccG7BdKF.s 			page 48


 1765              		.loc 1 885 0
 1766 000e 1040     		ands	r0, r0, r2
 1767              	.LVL141:
 1768 0010 7047     		bx	lr
 1769              		.cfi_endproc
 1770              	.LFE90:
 1772              		.section	.text.USB_ReadDevInEPInterrupt,"ax",%progbits
 1773              		.align	1
 1774              		.global	USB_ReadDevInEPInterrupt
 1775              		.syntax unified
 1776              		.thumb
 1777              		.thumb_func
 1778              		.fpu softvfp
 1780              	USB_ReadDevInEPInterrupt:
 1781              	.LFB91:
 886:Drivers/STM32F1xx_HAL_Driver/Src/stm32f1xx_ll_usb.c **** 
 887:Drivers/STM32F1xx_HAL_Driver/Src/stm32f1xx_ll_usb.c **** /**
 888:Drivers/STM32F1xx_HAL_Driver/Src/stm32f1xx_ll_usb.c ****   * @brief  Returns Device IN EP Interrupt register
 889:Drivers/STM32F1xx_HAL_Driver/Src/stm32f1xx_ll_usb.c ****   * @param  USBx : Selected device
 890:Drivers/STM32F1xx_HAL_Driver/Src/stm32f1xx_ll_usb.c ****   * @param  epnum : endpoint number
 891:Drivers/STM32F1xx_HAL_Driver/Src/stm32f1xx_ll_usb.c ****   *          This parameter can be a value from 0 to 15
 892:Drivers/STM32F1xx_HAL_Driver/Src/stm32f1xx_ll_usb.c ****   * @retval Device IN EP Interrupt register
 893:Drivers/STM32F1xx_HAL_Driver/Src/stm32f1xx_ll_usb.c ****   */
 894:Drivers/STM32F1xx_HAL_Driver/Src/stm32f1xx_ll_usb.c **** uint32_t USB_ReadDevInEPInterrupt (USB_OTG_GlobalTypeDef *USBx , uint8_t epnum)
 895:Drivers/STM32F1xx_HAL_Driver/Src/stm32f1xx_ll_usb.c **** {
 1782              		.loc 1 895 0
 1783              		.cfi_startproc
 1784              		@ args = 0, pretend = 0, frame = 0
 1785              		@ frame_needed = 0, uses_anonymous_args = 0
 1786              		@ link register save eliminated.
 1787              	.LVL142:
 1788 0000 10B4     		push	{r4}
 1789              	.LCFI27:
 1790              		.cfi_def_cfa_offset 4
 1791              		.cfi_offset 4, -4
 1792              	.LVL143:
 896:Drivers/STM32F1xx_HAL_Driver/Src/stm32f1xx_ll_usb.c ****   uint32_t tmpreg = 0, msk = 0, emp = 0;
 897:Drivers/STM32F1xx_HAL_Driver/Src/stm32f1xx_ll_usb.c ****   /* Prevent unused argument(s) compilation warning */
 898:Drivers/STM32F1xx_HAL_Driver/Src/stm32f1xx_ll_usb.c ****   UNUSED(USBx);
 899:Drivers/STM32F1xx_HAL_Driver/Src/stm32f1xx_ll_usb.c **** 
 900:Drivers/STM32F1xx_HAL_Driver/Src/stm32f1xx_ll_usb.c ****   msk = USBx_DEVICE->DIEPMSK;
 1793              		.loc 1 900 0
 1794 0002 D0F81048 		ldr	r4, [r0, #2064]
 1795              	.LVL144:
 901:Drivers/STM32F1xx_HAL_Driver/Src/stm32f1xx_ll_usb.c ****   emp = USBx_DEVICE->DIEPEMPMSK;
 1796              		.loc 1 901 0
 1797 0006 D0F83438 		ldr	r3, [r0, #2100]
 1798              	.LVL145:
 902:Drivers/STM32F1xx_HAL_Driver/Src/stm32f1xx_ll_usb.c ****   msk |= ((emp >> epnum) & 0x1) << 7;
 1799              		.loc 1 902 0
 1800 000a CB40     		lsrs	r3, r3, r1
 1801              	.LVL146:
 1802 000c DB01     		lsls	r3, r3, #7
 1803 000e DBB2     		uxtb	r3, r3
 1804 0010 2343     		orrs	r3, r3, r4
 1805              	.LVL147:
 903:Drivers/STM32F1xx_HAL_Driver/Src/stm32f1xx_ll_usb.c ****   tmpreg = USBx_INEP(epnum)->DIEPINT & msk;
ARM GAS  /tmp/ccG7BdKF.s 			page 49


 1806              		.loc 1 903 0
 1807 0012 00EB4110 		add	r0, r0, r1, lsl #5
 1808              	.LVL148:
 1809 0016 00F51060 		add	r0, r0, #2304
 1810 001a 8068     		ldr	r0, [r0, #8]
 1811              	.LVL149:
 904:Drivers/STM32F1xx_HAL_Driver/Src/stm32f1xx_ll_usb.c ****   return tmpreg;
 905:Drivers/STM32F1xx_HAL_Driver/Src/stm32f1xx_ll_usb.c **** }
 1812              		.loc 1 905 0
 1813 001c 1840     		ands	r0, r0, r3
 1814              	.LVL150:
 1815 001e 10BC     		pop	{r4}
 1816              	.LCFI28:
 1817              		.cfi_restore 4
 1818              		.cfi_def_cfa_offset 0
 1819 0020 7047     		bx	lr
 1820              		.cfi_endproc
 1821              	.LFE91:
 1823              		.section	.text.USB_ClearInterrupts,"ax",%progbits
 1824              		.align	1
 1825              		.global	USB_ClearInterrupts
 1826              		.syntax unified
 1827              		.thumb
 1828              		.thumb_func
 1829              		.fpu softvfp
 1831              	USB_ClearInterrupts:
 1832              	.LFB92:
 906:Drivers/STM32F1xx_HAL_Driver/Src/stm32f1xx_ll_usb.c **** 
 907:Drivers/STM32F1xx_HAL_Driver/Src/stm32f1xx_ll_usb.c **** /**
 908:Drivers/STM32F1xx_HAL_Driver/Src/stm32f1xx_ll_usb.c ****   * @brief  USB_ClearInterrupts: clear a USB interrupt
 909:Drivers/STM32F1xx_HAL_Driver/Src/stm32f1xx_ll_usb.c ****   * @param  USBx : Selected device
 910:Drivers/STM32F1xx_HAL_Driver/Src/stm32f1xx_ll_usb.c ****   * @param  interrupt : interrupt flag
 911:Drivers/STM32F1xx_HAL_Driver/Src/stm32f1xx_ll_usb.c ****   * @retval None
 912:Drivers/STM32F1xx_HAL_Driver/Src/stm32f1xx_ll_usb.c ****   */
 913:Drivers/STM32F1xx_HAL_Driver/Src/stm32f1xx_ll_usb.c **** void  USB_ClearInterrupts (USB_OTG_GlobalTypeDef *USBx, uint32_t interrupt)
 914:Drivers/STM32F1xx_HAL_Driver/Src/stm32f1xx_ll_usb.c **** {
 1833              		.loc 1 914 0
 1834              		.cfi_startproc
 1835              		@ args = 0, pretend = 0, frame = 0
 1836              		@ frame_needed = 0, uses_anonymous_args = 0
 1837              		@ link register save eliminated.
 1838              	.LVL151:
 915:Drivers/STM32F1xx_HAL_Driver/Src/stm32f1xx_ll_usb.c ****   USBx->GINTSTS |= interrupt;
 1839              		.loc 1 915 0
 1840 0000 4369     		ldr	r3, [r0, #20]
 1841 0002 1943     		orrs	r1, r1, r3
 1842              	.LVL152:
 1843 0004 4161     		str	r1, [r0, #20]
 916:Drivers/STM32F1xx_HAL_Driver/Src/stm32f1xx_ll_usb.c **** }
 1844              		.loc 1 916 0
 1845 0006 7047     		bx	lr
 1846              		.cfi_endproc
 1847              	.LFE92:
 1849              		.section	.text.USB_GetMode,"ax",%progbits
 1850              		.align	1
 1851              		.global	USB_GetMode
 1852              		.syntax unified
ARM GAS  /tmp/ccG7BdKF.s 			page 50


 1853              		.thumb
 1854              		.thumb_func
 1855              		.fpu softvfp
 1857              	USB_GetMode:
 1858              	.LFB93:
 917:Drivers/STM32F1xx_HAL_Driver/Src/stm32f1xx_ll_usb.c **** 
 918:Drivers/STM32F1xx_HAL_Driver/Src/stm32f1xx_ll_usb.c **** /**
 919:Drivers/STM32F1xx_HAL_Driver/Src/stm32f1xx_ll_usb.c ****   * @brief  Returns USB core mode
 920:Drivers/STM32F1xx_HAL_Driver/Src/stm32f1xx_ll_usb.c ****   * @param  USBx : Selected device
 921:Drivers/STM32F1xx_HAL_Driver/Src/stm32f1xx_ll_usb.c ****   * @retval return core mode : Host or Device
 922:Drivers/STM32F1xx_HAL_Driver/Src/stm32f1xx_ll_usb.c ****   *          This parameter can be one of the these values:
 923:Drivers/STM32F1xx_HAL_Driver/Src/stm32f1xx_ll_usb.c ****   *           0 : Host 
 924:Drivers/STM32F1xx_HAL_Driver/Src/stm32f1xx_ll_usb.c ****   *           1 : Device
 925:Drivers/STM32F1xx_HAL_Driver/Src/stm32f1xx_ll_usb.c ****   */
 926:Drivers/STM32F1xx_HAL_Driver/Src/stm32f1xx_ll_usb.c **** uint32_t USB_GetMode(USB_OTG_GlobalTypeDef *USBx)
 927:Drivers/STM32F1xx_HAL_Driver/Src/stm32f1xx_ll_usb.c **** {
 1859              		.loc 1 927 0
 1860              		.cfi_startproc
 1861              		@ args = 0, pretend = 0, frame = 0
 1862              		@ frame_needed = 0, uses_anonymous_args = 0
 1863              		@ link register save eliminated.
 1864              	.LVL153:
 928:Drivers/STM32F1xx_HAL_Driver/Src/stm32f1xx_ll_usb.c ****   /* Prevent unused argument(s) compilation warning */
 929:Drivers/STM32F1xx_HAL_Driver/Src/stm32f1xx_ll_usb.c ****   UNUSED(USBx);
 930:Drivers/STM32F1xx_HAL_Driver/Src/stm32f1xx_ll_usb.c **** 
 931:Drivers/STM32F1xx_HAL_Driver/Src/stm32f1xx_ll_usb.c ****   return ((USBx->GINTSTS ) & 0x1);
 1865              		.loc 1 931 0
 1866 0000 4069     		ldr	r0, [r0, #20]
 1867              	.LVL154:
 932:Drivers/STM32F1xx_HAL_Driver/Src/stm32f1xx_ll_usb.c **** }
 1868              		.loc 1 932 0
 1869 0002 00F00100 		and	r0, r0, #1
 1870 0006 7047     		bx	lr
 1871              		.cfi_endproc
 1872              	.LFE93:
 1874              		.section	.text.USB_ActivateSetup,"ax",%progbits
 1875              		.align	1
 1876              		.global	USB_ActivateSetup
 1877              		.syntax unified
 1878              		.thumb
 1879              		.thumb_func
 1880              		.fpu softvfp
 1882              	USB_ActivateSetup:
 1883              	.LFB94:
 933:Drivers/STM32F1xx_HAL_Driver/Src/stm32f1xx_ll_usb.c **** 
 934:Drivers/STM32F1xx_HAL_Driver/Src/stm32f1xx_ll_usb.c **** /**
 935:Drivers/STM32F1xx_HAL_Driver/Src/stm32f1xx_ll_usb.c ****   * @brief  Activate EP0 for Setup transactions
 936:Drivers/STM32F1xx_HAL_Driver/Src/stm32f1xx_ll_usb.c ****   * @param  USBx : Selected device
 937:Drivers/STM32F1xx_HAL_Driver/Src/stm32f1xx_ll_usb.c ****   * @retval HAL status
 938:Drivers/STM32F1xx_HAL_Driver/Src/stm32f1xx_ll_usb.c ****   */
 939:Drivers/STM32F1xx_HAL_Driver/Src/stm32f1xx_ll_usb.c **** HAL_StatusTypeDef  USB_ActivateSetup (USB_OTG_GlobalTypeDef *USBx)
 940:Drivers/STM32F1xx_HAL_Driver/Src/stm32f1xx_ll_usb.c **** {
 1884              		.loc 1 940 0
 1885              		.cfi_startproc
 1886              		@ args = 0, pretend = 0, frame = 0
 1887              		@ frame_needed = 0, uses_anonymous_args = 0
 1888              		@ link register save eliminated.
ARM GAS  /tmp/ccG7BdKF.s 			page 51


 1889              	.LVL155:
 941:Drivers/STM32F1xx_HAL_Driver/Src/stm32f1xx_ll_usb.c ****   /* Prevent unused argument(s) compilation warning */
 942:Drivers/STM32F1xx_HAL_Driver/Src/stm32f1xx_ll_usb.c ****   UNUSED(USBx);
 943:Drivers/STM32F1xx_HAL_Driver/Src/stm32f1xx_ll_usb.c ****   /* Set the MPS of the IN EP based on the enumeration speed */
 944:Drivers/STM32F1xx_HAL_Driver/Src/stm32f1xx_ll_usb.c ****   USBx_INEP(0)->DIEPCTL &= ~USB_OTG_DIEPCTL_MPSIZ;
 1890              		.loc 1 944 0
 1891 0000 D0F80039 		ldr	r3, [r0, #2304]
 1892 0004 23F4FF63 		bic	r3, r3, #2040
 1893 0008 23F00703 		bic	r3, r3, #7
 1894 000c C0F80039 		str	r3, [r0, #2304]
 945:Drivers/STM32F1xx_HAL_Driver/Src/stm32f1xx_ll_usb.c ****   
 946:Drivers/STM32F1xx_HAL_Driver/Src/stm32f1xx_ll_usb.c ****   if((USBx_DEVICE->DSTS & USB_OTG_DSTS_ENUMSPD) == DSTS_ENUMSPD_LS_PHY_6MHZ)
 1895              		.loc 1 946 0
 1896 0010 00F50063 		add	r3, r0, #2048
 1897 0014 9A68     		ldr	r2, [r3, #8]
 1898 0016 02F00602 		and	r2, r2, #6
 1899 001a 042A     		cmp	r2, #4
 1900 001c 05D0     		beq	.L134
 1901              	.L133:
 947:Drivers/STM32F1xx_HAL_Driver/Src/stm32f1xx_ll_usb.c ****   {
 948:Drivers/STM32F1xx_HAL_Driver/Src/stm32f1xx_ll_usb.c ****     USBx_INEP(0)->DIEPCTL |= 3;
 949:Drivers/STM32F1xx_HAL_Driver/Src/stm32f1xx_ll_usb.c ****   }
 950:Drivers/STM32F1xx_HAL_Driver/Src/stm32f1xx_ll_usb.c ****   USBx_DEVICE->DCTL |= USB_OTG_DCTL_CGINAK;
 1902              		.loc 1 950 0
 1903 001e 5A68     		ldr	r2, [r3, #4]
 1904 0020 42F48072 		orr	r2, r2, #256
 1905 0024 5A60     		str	r2, [r3, #4]
 951:Drivers/STM32F1xx_HAL_Driver/Src/stm32f1xx_ll_usb.c ****   
 952:Drivers/STM32F1xx_HAL_Driver/Src/stm32f1xx_ll_usb.c ****   return HAL_OK;
 953:Drivers/STM32F1xx_HAL_Driver/Src/stm32f1xx_ll_usb.c **** }
 1906              		.loc 1 953 0
 1907 0026 0020     		movs	r0, #0
 1908              	.LVL156:
 1909 0028 7047     		bx	lr
 1910              	.LVL157:
 1911              	.L134:
 948:Drivers/STM32F1xx_HAL_Driver/Src/stm32f1xx_ll_usb.c ****   }
 1912              		.loc 1 948 0
 1913 002a D0F80029 		ldr	r2, [r0, #2304]
 1914 002e 42F00302 		orr	r2, r2, #3
 1915 0032 C0F80029 		str	r2, [r0, #2304]
 1916 0036 F2E7     		b	.L133
 1917              		.cfi_endproc
 1918              	.LFE94:
 1920              		.section	.text.USB_EP0_OutStart,"ax",%progbits
 1921              		.align	1
 1922              		.global	USB_EP0_OutStart
 1923              		.syntax unified
 1924              		.thumb
 1925              		.thumb_func
 1926              		.fpu softvfp
 1928              	USB_EP0_OutStart:
 1929              	.LFB95:
 954:Drivers/STM32F1xx_HAL_Driver/Src/stm32f1xx_ll_usb.c **** 
 955:Drivers/STM32F1xx_HAL_Driver/Src/stm32f1xx_ll_usb.c **** /**
 956:Drivers/STM32F1xx_HAL_Driver/Src/stm32f1xx_ll_usb.c ****   * @brief  Prepare the EP0 to start the first control setup
 957:Drivers/STM32F1xx_HAL_Driver/Src/stm32f1xx_ll_usb.c ****   * @param  USBx : Selected device
ARM GAS  /tmp/ccG7BdKF.s 			page 52


 958:Drivers/STM32F1xx_HAL_Driver/Src/stm32f1xx_ll_usb.c ****   * @param  psetup : pointer to setup packet
 959:Drivers/STM32F1xx_HAL_Driver/Src/stm32f1xx_ll_usb.c ****   * @retval HAL status
 960:Drivers/STM32F1xx_HAL_Driver/Src/stm32f1xx_ll_usb.c ****   */
 961:Drivers/STM32F1xx_HAL_Driver/Src/stm32f1xx_ll_usb.c **** HAL_StatusTypeDef USB_EP0_OutStart(USB_OTG_GlobalTypeDef *USBx, uint8_t *psetup)
 962:Drivers/STM32F1xx_HAL_Driver/Src/stm32f1xx_ll_usb.c **** {
 1930              		.loc 1 962 0
 1931              		.cfi_startproc
 1932              		@ args = 0, pretend = 0, frame = 0
 1933              		@ frame_needed = 0, uses_anonymous_args = 0
 1934              		@ link register save eliminated.
 1935              	.LVL158:
 963:Drivers/STM32F1xx_HAL_Driver/Src/stm32f1xx_ll_usb.c ****   /* Prevent unused argument(s) compilation warning */
 964:Drivers/STM32F1xx_HAL_Driver/Src/stm32f1xx_ll_usb.c ****   UNUSED(USBx);
 965:Drivers/STM32F1xx_HAL_Driver/Src/stm32f1xx_ll_usb.c ****   UNUSED(psetup);
 966:Drivers/STM32F1xx_HAL_Driver/Src/stm32f1xx_ll_usb.c ****   USBx_OUTEP(0)->DOEPTSIZ = 0;
 1936              		.loc 1 966 0
 1937 0000 00F53063 		add	r3, r0, #2816
 1938 0004 0020     		movs	r0, #0
 1939              	.LVL159:
 1940 0006 1861     		str	r0, [r3, #16]
 967:Drivers/STM32F1xx_HAL_Driver/Src/stm32f1xx_ll_usb.c ****   USBx_OUTEP(0)->DOEPTSIZ |= (USB_OTG_DOEPTSIZ_PKTCNT & (1 << 19));
 1941              		.loc 1 967 0
 1942 0008 1A69     		ldr	r2, [r3, #16]
 1943 000a 42F40022 		orr	r2, r2, #524288
 1944 000e 1A61     		str	r2, [r3, #16]
 968:Drivers/STM32F1xx_HAL_Driver/Src/stm32f1xx_ll_usb.c ****   USBx_OUTEP(0)->DOEPTSIZ |= (3 * 8);
 1945              		.loc 1 968 0
 1946 0010 1A69     		ldr	r2, [r3, #16]
 1947 0012 42F01802 		orr	r2, r2, #24
 1948 0016 1A61     		str	r2, [r3, #16]
 969:Drivers/STM32F1xx_HAL_Driver/Src/stm32f1xx_ll_usb.c ****   USBx_OUTEP(0)->DOEPTSIZ |=  USB_OTG_DOEPTSIZ_STUPCNT;
 1949              		.loc 1 969 0
 1950 0018 1A69     		ldr	r2, [r3, #16]
 1951 001a 42F0C042 		orr	r2, r2, #1610612736
 1952 001e 1A61     		str	r2, [r3, #16]
 970:Drivers/STM32F1xx_HAL_Driver/Src/stm32f1xx_ll_usb.c ****   
 971:Drivers/STM32F1xx_HAL_Driver/Src/stm32f1xx_ll_usb.c ****   return HAL_OK;
 972:Drivers/STM32F1xx_HAL_Driver/Src/stm32f1xx_ll_usb.c **** }
 1953              		.loc 1 972 0
 1954 0020 7047     		bx	lr
 1955              		.cfi_endproc
 1956              	.LFE95:
 1958              		.section	.text.USB_HostInit,"ax",%progbits
 1959              		.align	1
 1960              		.global	USB_HostInit
 1961              		.syntax unified
 1962              		.thumb
 1963              		.thumb_func
 1964              		.fpu softvfp
 1966              	USB_HostInit:
 1967              	.LFB96:
 973:Drivers/STM32F1xx_HAL_Driver/Src/stm32f1xx_ll_usb.c **** 
 974:Drivers/STM32F1xx_HAL_Driver/Src/stm32f1xx_ll_usb.c **** /**
 975:Drivers/STM32F1xx_HAL_Driver/Src/stm32f1xx_ll_usb.c ****   * @brief  USB_HostInit : Initializes the USB OTG controller registers 
 976:Drivers/STM32F1xx_HAL_Driver/Src/stm32f1xx_ll_usb.c ****   *         for Host mode 
 977:Drivers/STM32F1xx_HAL_Driver/Src/stm32f1xx_ll_usb.c ****   * @param  USBx : Selected device
 978:Drivers/STM32F1xx_HAL_Driver/Src/stm32f1xx_ll_usb.c ****   * @param  cfg  : pointer to a USB_OTG_CfgTypeDef structure that contains
ARM GAS  /tmp/ccG7BdKF.s 			page 53


 979:Drivers/STM32F1xx_HAL_Driver/Src/stm32f1xx_ll_usb.c ****   *         the configuration information for the specified USBx peripheral.
 980:Drivers/STM32F1xx_HAL_Driver/Src/stm32f1xx_ll_usb.c ****   * @retval HAL status
 981:Drivers/STM32F1xx_HAL_Driver/Src/stm32f1xx_ll_usb.c ****   */
 982:Drivers/STM32F1xx_HAL_Driver/Src/stm32f1xx_ll_usb.c **** HAL_StatusTypeDef USB_HostInit (USB_OTG_GlobalTypeDef *USBx, USB_OTG_CfgTypeDef cfg)
 983:Drivers/STM32F1xx_HAL_Driver/Src/stm32f1xx_ll_usb.c **** {
 1968              		.loc 1 983 0
 1969              		.cfi_startproc
 1970              		@ args = 36, pretend = 16, frame = 0
 1971              		@ frame_needed = 0, uses_anonymous_args = 0
 1972              	.LVL160:
 1973 0000 84B0     		sub	sp, sp, #16
 1974              	.LCFI29:
 1975              		.cfi_def_cfa_offset 16
 1976 0002 38B5     		push	{r3, r4, r5, lr}
 1977              	.LCFI30:
 1978              		.cfi_def_cfa_offset 32
 1979              		.cfi_offset 3, -32
 1980              		.cfi_offset 4, -28
 1981              		.cfi_offset 5, -24
 1982              		.cfi_offset 14, -20
 1983 0004 0446     		mov	r4, r0
 1984 0006 05A8     		add	r0, sp, #20
 1985              	.LVL161:
 1986 0008 80E80E00 		stm	r0, {r1, r2, r3}
 1987              	.LVL162:
 984:Drivers/STM32F1xx_HAL_Driver/Src/stm32f1xx_ll_usb.c ****   uint32_t index = 0;
 985:Drivers/STM32F1xx_HAL_Driver/Src/stm32f1xx_ll_usb.c ****   
 986:Drivers/STM32F1xx_HAL_Driver/Src/stm32f1xx_ll_usb.c ****   /* Restart the Phy Clock */
 987:Drivers/STM32F1xx_HAL_Driver/Src/stm32f1xx_ll_usb.c ****   USBx_PCGCCTL = 0;
 1988              		.loc 1 987 0
 1989 000c 2546     		mov	r5, r4
 1990 000e 0023     		movs	r3, #0
 1991 0010 C4F8003E 		str	r3, [r4, #3584]
 988:Drivers/STM32F1xx_HAL_Driver/Src/stm32f1xx_ll_usb.c ****   
 989:Drivers/STM32F1xx_HAL_Driver/Src/stm32f1xx_ll_usb.c ****   /* no VBUS sensing*/
 990:Drivers/STM32F1xx_HAL_Driver/Src/stm32f1xx_ll_usb.c ****   USBx->GCCFG &=~ (USB_OTG_GCCFG_VBUSASEN);
 1992              		.loc 1 990 0
 1993 0014 A36B     		ldr	r3, [r4, #56]
 1994 0016 23F48023 		bic	r3, r3, #262144
 1995 001a A363     		str	r3, [r4, #56]
 991:Drivers/STM32F1xx_HAL_Driver/Src/stm32f1xx_ll_usb.c ****   USBx->GCCFG &=~ (USB_OTG_GCCFG_VBUSBSEN);
 1996              		.loc 1 991 0
 1997 001c A36B     		ldr	r3, [r4, #56]
 1998 001e 23F40023 		bic	r3, r3, #524288
 1999 0022 A363     		str	r3, [r4, #56]
 992:Drivers/STM32F1xx_HAL_Driver/Src/stm32f1xx_ll_usb.c ****   
 993:Drivers/STM32F1xx_HAL_Driver/Src/stm32f1xx_ll_usb.c ****   /* Disable the FS/LS support mode only */
 994:Drivers/STM32F1xx_HAL_Driver/Src/stm32f1xx_ll_usb.c ****   if((cfg.speed == USB_OTG_SPEED_FULL)&&
 2000              		.loc 1 994 0
 2001 0024 079B     		ldr	r3, [sp, #28]
 2002 0026 032B     		cmp	r3, #3
 2003 0028 0ED0     		beq	.L143
 2004              	.L137:
 995:Drivers/STM32F1xx_HAL_Driver/Src/stm32f1xx_ll_usb.c ****      (USBx != USB_OTG_FS))
 996:Drivers/STM32F1xx_HAL_Driver/Src/stm32f1xx_ll_usb.c ****   {
 997:Drivers/STM32F1xx_HAL_Driver/Src/stm32f1xx_ll_usb.c ****     USBx_HOST->HCFG |= USB_OTG_HCFG_FSLSS; 
 998:Drivers/STM32F1xx_HAL_Driver/Src/stm32f1xx_ll_usb.c ****   }
ARM GAS  /tmp/ccG7BdKF.s 			page 54


 999:Drivers/STM32F1xx_HAL_Driver/Src/stm32f1xx_ll_usb.c ****   else
1000:Drivers/STM32F1xx_HAL_Driver/Src/stm32f1xx_ll_usb.c ****   {
1001:Drivers/STM32F1xx_HAL_Driver/Src/stm32f1xx_ll_usb.c ****     USBx_HOST->HCFG &= ~(USB_OTG_HCFG_FSLSS);  
 2005              		.loc 1 1001 0
 2006 002a D4F80034 		ldr	r3, [r4, #1024]
 2007 002e 23F00403 		bic	r3, r3, #4
 2008 0032 C4F80034 		str	r3, [r4, #1024]
 2009              	.L138:
1002:Drivers/STM32F1xx_HAL_Driver/Src/stm32f1xx_ll_usb.c ****   }
1003:Drivers/STM32F1xx_HAL_Driver/Src/stm32f1xx_ll_usb.c ****   
1004:Drivers/STM32F1xx_HAL_Driver/Src/stm32f1xx_ll_usb.c ****   /* Make sure the FIFOs are flushed. */
1005:Drivers/STM32F1xx_HAL_Driver/Src/stm32f1xx_ll_usb.c ****   USB_FlushTxFifo(USBx, 0x10 ); /* all Tx FIFOs */
 2010              		.loc 1 1005 0
 2011 0036 1021     		movs	r1, #16
 2012 0038 2046     		mov	r0, r4
 2013 003a FFF7FEFF 		bl	USB_FlushTxFifo
 2014              	.LVL163:
1006:Drivers/STM32F1xx_HAL_Driver/Src/stm32f1xx_ll_usb.c ****   USB_FlushRxFifo(USBx);
 2015              		.loc 1 1006 0
 2016 003e 2046     		mov	r0, r4
 2017 0040 FFF7FEFF 		bl	USB_FlushRxFifo
 2018              	.LVL164:
1007:Drivers/STM32F1xx_HAL_Driver/Src/stm32f1xx_ll_usb.c ****   
1008:Drivers/STM32F1xx_HAL_Driver/Src/stm32f1xx_ll_usb.c ****   /* Clear all pending HC Interrupts */
1009:Drivers/STM32F1xx_HAL_Driver/Src/stm32f1xx_ll_usb.c ****   for (index = 0; index < cfg.Host_channels; index++)
 2019              		.loc 1 1009 0
 2020 0044 0022     		movs	r2, #0
 2021 0046 13E0     		b	.L139
 2022              	.L143:
 994:Drivers/STM32F1xx_HAL_Driver/Src/stm32f1xx_ll_usb.c ****      (USBx != USB_OTG_FS))
 2023              		.loc 1 994 0 discriminator 1
 2024 0048 B4F1A04F 		cmp	r4, #1342177280
 2025 004c EDD0     		beq	.L137
 997:Drivers/STM32F1xx_HAL_Driver/Src/stm32f1xx_ll_usb.c ****   }
 2026              		.loc 1 997 0
 2027 004e D4F80034 		ldr	r3, [r4, #1024]
 2028 0052 43F00403 		orr	r3, r3, #4
 2029 0056 C4F80034 		str	r3, [r4, #1024]
 2030 005a ECE7     		b	.L138
 2031              	.LVL165:
 2032              	.L140:
1010:Drivers/STM32F1xx_HAL_Driver/Src/stm32f1xx_ll_usb.c ****   {
1011:Drivers/STM32F1xx_HAL_Driver/Src/stm32f1xx_ll_usb.c ****     USBx_HC(index)->HCINT = 0xFFFFFFFF;
 2033              		.loc 1 1011 0 discriminator 3
 2034 005c 05EB4213 		add	r3, r5, r2, lsl #5
 2035 0060 4FF0FF31 		mov	r1, #-1
 2036 0064 C3F80815 		str	r1, [r3, #1288]
1012:Drivers/STM32F1xx_HAL_Driver/Src/stm32f1xx_ll_usb.c ****     USBx_HC(index)->HCINTMSK = 0;
 2037              		.loc 1 1012 0 discriminator 3
 2038 0068 0021     		movs	r1, #0
 2039 006a C3F80C15 		str	r1, [r3, #1292]
1009:Drivers/STM32F1xx_HAL_Driver/Src/stm32f1xx_ll_usb.c ****   {
 2040              		.loc 1 1009 0 discriminator 3
 2041 006e 0132     		adds	r2, r2, #1
 2042              	.LVL166:
 2043              	.L139:
1009:Drivers/STM32F1xx_HAL_Driver/Src/stm32f1xx_ll_usb.c ****   {
ARM GAS  /tmp/ccG7BdKF.s 			page 55


 2044              		.loc 1 1009 0 is_stmt 0 discriminator 1
 2045 0070 069B     		ldr	r3, [sp, #24]
 2046 0072 9342     		cmp	r3, r2
 2047 0074 F2D8     		bhi	.L140
1013:Drivers/STM32F1xx_HAL_Driver/Src/stm32f1xx_ll_usb.c ****   }
1014:Drivers/STM32F1xx_HAL_Driver/Src/stm32f1xx_ll_usb.c ****   
1015:Drivers/STM32F1xx_HAL_Driver/Src/stm32f1xx_ll_usb.c ****   /* Enable VBUS driving */
1016:Drivers/STM32F1xx_HAL_Driver/Src/stm32f1xx_ll_usb.c ****   USB_DriveVbus(USBx, 1);
 2048              		.loc 1 1016 0 is_stmt 1
 2049 0076 0121     		movs	r1, #1
 2050 0078 2046     		mov	r0, r4
 2051 007a FFF7FEFF 		bl	USB_DriveVbus
 2052              	.LVL167:
1017:Drivers/STM32F1xx_HAL_Driver/Src/stm32f1xx_ll_usb.c ****   
1018:Drivers/STM32F1xx_HAL_Driver/Src/stm32f1xx_ll_usb.c ****   HAL_Delay(200);
 2053              		.loc 1 1018 0
 2054 007e C820     		movs	r0, #200
 2055 0080 FFF7FEFF 		bl	HAL_Delay
 2056              	.LVL168:
1019:Drivers/STM32F1xx_HAL_Driver/Src/stm32f1xx_ll_usb.c ****   
1020:Drivers/STM32F1xx_HAL_Driver/Src/stm32f1xx_ll_usb.c ****   /* Disable all interrupts. */
1021:Drivers/STM32F1xx_HAL_Driver/Src/stm32f1xx_ll_usb.c ****   USBx->GINTMSK = 0;
 2057              		.loc 1 1021 0
 2058 0084 0023     		movs	r3, #0
 2059 0086 A361     		str	r3, [r4, #24]
1022:Drivers/STM32F1xx_HAL_Driver/Src/stm32f1xx_ll_usb.c ****   
1023:Drivers/STM32F1xx_HAL_Driver/Src/stm32f1xx_ll_usb.c ****   /* Clear any pending interrupts */
1024:Drivers/STM32F1xx_HAL_Driver/Src/stm32f1xx_ll_usb.c ****   USBx->GINTSTS = 0xFFFFFFFF;
 2060              		.loc 1 1024 0
 2061 0088 4FF0FF33 		mov	r3, #-1
 2062 008c 6361     		str	r3, [r4, #20]
1025:Drivers/STM32F1xx_HAL_Driver/Src/stm32f1xx_ll_usb.c ****   
1026:Drivers/STM32F1xx_HAL_Driver/Src/stm32f1xx_ll_usb.c ****   if(USBx == USB_OTG_FS)
 2063              		.loc 1 1026 0
 2064 008e B4F1A04F 		cmp	r4, #1342177280
 2065 0092 0CD0     		beq	.L144
 2066              	.L141:
1027:Drivers/STM32F1xx_HAL_Driver/Src/stm32f1xx_ll_usb.c ****   {
1028:Drivers/STM32F1xx_HAL_Driver/Src/stm32f1xx_ll_usb.c ****     /* set Rx FIFO size */
1029:Drivers/STM32F1xx_HAL_Driver/Src/stm32f1xx_ll_usb.c ****     USBx->GRXFSIZ  = (uint32_t )0x80; 
1030:Drivers/STM32F1xx_HAL_Driver/Src/stm32f1xx_ll_usb.c ****     USBx->DIEPTXF0_HNPTXFSIZ = (uint32_t )(((0x60 << 16)& USB_OTG_NPTXFD) | 0x80);
1031:Drivers/STM32F1xx_HAL_Driver/Src/stm32f1xx_ll_usb.c ****     USBx->HPTXFSIZ = (uint32_t )(((0x40 << 16)& USB_OTG_HPTXFSIZ_PTXFD) | 0xE0);
1032:Drivers/STM32F1xx_HAL_Driver/Src/stm32f1xx_ll_usb.c ****   }
1033:Drivers/STM32F1xx_HAL_Driver/Src/stm32f1xx_ll_usb.c ****   
1034:Drivers/STM32F1xx_HAL_Driver/Src/stm32f1xx_ll_usb.c ****   /* Enable the common interrupts */
1035:Drivers/STM32F1xx_HAL_Driver/Src/stm32f1xx_ll_usb.c ****   USBx->GINTMSK |= USB_OTG_GINTMSK_RXFLVLM;
 2067              		.loc 1 1035 0
 2068 0094 A369     		ldr	r3, [r4, #24]
 2069 0096 43F01003 		orr	r3, r3, #16
 2070 009a A361     		str	r3, [r4, #24]
1036:Drivers/STM32F1xx_HAL_Driver/Src/stm32f1xx_ll_usb.c ****   
1037:Drivers/STM32F1xx_HAL_Driver/Src/stm32f1xx_ll_usb.c ****   /* Enable interrupts matching to the Host mode ONLY */
1038:Drivers/STM32F1xx_HAL_Driver/Src/stm32f1xx_ll_usb.c ****   USBx->GINTMSK |= (USB_OTG_GINTMSK_PRTIM            | USB_OTG_GINTMSK_HCIM |\
 2071              		.loc 1 1038 0
 2072 009c A269     		ldr	r2, [r4, #24]
 2073 009e 084B     		ldr	r3, .L145
 2074 00a0 1343     		orrs	r3, r3, r2
ARM GAS  /tmp/ccG7BdKF.s 			page 56


 2075 00a2 A361     		str	r3, [r4, #24]
1039:Drivers/STM32F1xx_HAL_Driver/Src/stm32f1xx_ll_usb.c ****                     USB_OTG_GINTMSK_SOFM             |USB_OTG_GINTSTS_DISCINT|\
1040:Drivers/STM32F1xx_HAL_Driver/Src/stm32f1xx_ll_usb.c ****                     USB_OTG_GINTMSK_PXFRM_IISOOXFRM  | USB_OTG_GINTMSK_WUIM);
1041:Drivers/STM32F1xx_HAL_Driver/Src/stm32f1xx_ll_usb.c ****   
1042:Drivers/STM32F1xx_HAL_Driver/Src/stm32f1xx_ll_usb.c ****   return HAL_OK;
1043:Drivers/STM32F1xx_HAL_Driver/Src/stm32f1xx_ll_usb.c **** }
 2076              		.loc 1 1043 0
 2077 00a4 0020     		movs	r0, #0
 2078 00a6 BDE83840 		pop	{r3, r4, r5, lr}
 2079              	.LCFI31:
 2080              		.cfi_remember_state
 2081              		.cfi_restore 14
 2082              		.cfi_restore 5
 2083              		.cfi_restore 4
 2084              		.cfi_restore 3
 2085              		.cfi_def_cfa_offset 16
 2086              	.LVL169:
 2087 00aa 04B0     		add	sp, sp, #16
 2088              	.LCFI32:
 2089              		.cfi_def_cfa_offset 0
 2090 00ac 7047     		bx	lr
 2091              	.LVL170:
 2092              	.L144:
 2093              	.LCFI33:
 2094              		.cfi_restore_state
1029:Drivers/STM32F1xx_HAL_Driver/Src/stm32f1xx_ll_usb.c ****     USBx->DIEPTXF0_HNPTXFSIZ = (uint32_t )(((0x60 << 16)& USB_OTG_NPTXFD) | 0x80);
 2095              		.loc 1 1029 0
 2096 00ae 8023     		movs	r3, #128
 2097 00b0 6362     		str	r3, [r4, #36]
1030:Drivers/STM32F1xx_HAL_Driver/Src/stm32f1xx_ll_usb.c ****     USBx->HPTXFSIZ = (uint32_t )(((0x40 << 16)& USB_OTG_HPTXFSIZ_PTXFD) | 0xE0);
 2098              		.loc 1 1030 0
 2099 00b2 03F5C003 		add	r3, r3, #6291456
 2100 00b6 A362     		str	r3, [r4, #40]
1031:Drivers/STM32F1xx_HAL_Driver/Src/stm32f1xx_ll_usb.c ****   }
 2101              		.loc 1 1031 0
 2102 00b8 024B     		ldr	r3, .L145+4
 2103 00ba C4F80031 		str	r3, [r4, #256]
 2104 00be E9E7     		b	.L141
 2105              	.L146:
 2106              		.align	2
 2107              	.L145:
 2108 00c0 080020A3 		.word	-1558183928
 2109 00c4 E0004000 		.word	4194528
 2110              		.cfi_endproc
 2111              	.LFE96:
 2113              		.section	.text.USB_InitFSLSPClkSel,"ax",%progbits
 2114              		.align	1
 2115              		.global	USB_InitFSLSPClkSel
 2116              		.syntax unified
 2117              		.thumb
 2118              		.thumb_func
 2119              		.fpu softvfp
 2121              	USB_InitFSLSPClkSel:
 2122              	.LFB97:
1044:Drivers/STM32F1xx_HAL_Driver/Src/stm32f1xx_ll_usb.c **** 
1045:Drivers/STM32F1xx_HAL_Driver/Src/stm32f1xx_ll_usb.c **** /**
1046:Drivers/STM32F1xx_HAL_Driver/Src/stm32f1xx_ll_usb.c ****   * @brief  USB_InitFSLSPClkSel : Initializes the FSLSPClkSel field of the 
ARM GAS  /tmp/ccG7BdKF.s 			page 57


1047:Drivers/STM32F1xx_HAL_Driver/Src/stm32f1xx_ll_usb.c ****   *         HCFG register on the PHY type and set the right frame interval
1048:Drivers/STM32F1xx_HAL_Driver/Src/stm32f1xx_ll_usb.c ****   * @param  USBx : Selected device
1049:Drivers/STM32F1xx_HAL_Driver/Src/stm32f1xx_ll_usb.c ****   * @param  freq : clock frequency
1050:Drivers/STM32F1xx_HAL_Driver/Src/stm32f1xx_ll_usb.c ****   *          This parameter can be one of the these values:
1051:Drivers/STM32F1xx_HAL_Driver/Src/stm32f1xx_ll_usb.c ****   *           HCFG_48_MHZ : Full Speed 48 MHz Clock 
1052:Drivers/STM32F1xx_HAL_Driver/Src/stm32f1xx_ll_usb.c ****   *           HCFG_6_MHZ : Low Speed 6 MHz Clock 
1053:Drivers/STM32F1xx_HAL_Driver/Src/stm32f1xx_ll_usb.c ****   * @retval HAL status
1054:Drivers/STM32F1xx_HAL_Driver/Src/stm32f1xx_ll_usb.c ****   */
1055:Drivers/STM32F1xx_HAL_Driver/Src/stm32f1xx_ll_usb.c **** HAL_StatusTypeDef USB_InitFSLSPClkSel(USB_OTG_GlobalTypeDef *USBx , uint8_t freq)
1056:Drivers/STM32F1xx_HAL_Driver/Src/stm32f1xx_ll_usb.c **** {
 2123              		.loc 1 1056 0
 2124              		.cfi_startproc
 2125              		@ args = 0, pretend = 0, frame = 0
 2126              		@ frame_needed = 0, uses_anonymous_args = 0
 2127              		@ link register save eliminated.
 2128              	.LVL171:
 2129 0000 10B4     		push	{r4}
 2130              	.LCFI34:
 2131              		.cfi_def_cfa_offset 4
 2132              		.cfi_offset 4, -4
1057:Drivers/STM32F1xx_HAL_Driver/Src/stm32f1xx_ll_usb.c ****   /* Prevent unused argument(s) compilation warning */
1058:Drivers/STM32F1xx_HAL_Driver/Src/stm32f1xx_ll_usb.c ****   UNUSED(USBx);
1059:Drivers/STM32F1xx_HAL_Driver/Src/stm32f1xx_ll_usb.c **** 
1060:Drivers/STM32F1xx_HAL_Driver/Src/stm32f1xx_ll_usb.c ****   USBx_HOST->HCFG &= ~(USB_OTG_HCFG_FSLSPCS);
 2133              		.loc 1 1060 0
 2134 0002 00F58064 		add	r4, r0, #1024
 2135 0006 D0F80034 		ldr	r3, [r0, #1024]
 2136 000a 23F00303 		bic	r3, r3, #3
 2137 000e C0F80034 		str	r3, [r0, #1024]
1061:Drivers/STM32F1xx_HAL_Driver/Src/stm32f1xx_ll_usb.c ****   USBx_HOST->HCFG |= (freq & USB_OTG_HCFG_FSLSPCS);
 2138              		.loc 1 1061 0
 2139 0012 D0F80034 		ldr	r3, [r0, #1024]
 2140 0016 01F00302 		and	r2, r1, #3
 2141 001a 1343     		orrs	r3, r3, r2
 2142 001c C0F80034 		str	r3, [r0, #1024]
1062:Drivers/STM32F1xx_HAL_Driver/Src/stm32f1xx_ll_usb.c ****   
1063:Drivers/STM32F1xx_HAL_Driver/Src/stm32f1xx_ll_usb.c ****   if (freq ==  HCFG_48_MHZ)
 2143              		.loc 1 1063 0
 2144 0020 0129     		cmp	r1, #1
 2145 0022 04D0     		beq	.L151
1064:Drivers/STM32F1xx_HAL_Driver/Src/stm32f1xx_ll_usb.c ****   {
1065:Drivers/STM32F1xx_HAL_Driver/Src/stm32f1xx_ll_usb.c ****     USBx_HOST->HFIR = (uint32_t)48000;
1066:Drivers/STM32F1xx_HAL_Driver/Src/stm32f1xx_ll_usb.c ****   }
1067:Drivers/STM32F1xx_HAL_Driver/Src/stm32f1xx_ll_usb.c ****   else if (freq ==  HCFG_6_MHZ)
 2146              		.loc 1 1067 0
 2147 0024 0229     		cmp	r1, #2
 2148 0026 06D0     		beq	.L152
 2149              	.L149:
1068:Drivers/STM32F1xx_HAL_Driver/Src/stm32f1xx_ll_usb.c ****   {
1069:Drivers/STM32F1xx_HAL_Driver/Src/stm32f1xx_ll_usb.c ****     USBx_HOST->HFIR = (uint32_t)6000;
1070:Drivers/STM32F1xx_HAL_Driver/Src/stm32f1xx_ll_usb.c ****   }
1071:Drivers/STM32F1xx_HAL_Driver/Src/stm32f1xx_ll_usb.c ****   return HAL_OK;
1072:Drivers/STM32F1xx_HAL_Driver/Src/stm32f1xx_ll_usb.c **** }
 2150              		.loc 1 1072 0
 2151 0028 0020     		movs	r0, #0
 2152              	.LVL172:
 2153 002a 10BC     		pop	{r4}
ARM GAS  /tmp/ccG7BdKF.s 			page 58


 2154              	.LCFI35:
 2155              		.cfi_remember_state
 2156              		.cfi_restore 4
 2157              		.cfi_def_cfa_offset 0
 2158              	.LVL173:
 2159 002c 7047     		bx	lr
 2160              	.LVL174:
 2161              	.L151:
 2162              	.LCFI36:
 2163              		.cfi_restore_state
1065:Drivers/STM32F1xx_HAL_Driver/Src/stm32f1xx_ll_usb.c ****   }
 2164              		.loc 1 1065 0
 2165 002e 4BF68033 		movw	r3, #48000
 2166 0032 6360     		str	r3, [r4, #4]
 2167 0034 F8E7     		b	.L149
 2168              	.L152:
1069:Drivers/STM32F1xx_HAL_Driver/Src/stm32f1xx_ll_usb.c ****   }
 2169              		.loc 1 1069 0
 2170 0036 41F27073 		movw	r3, #6000
 2171 003a 6360     		str	r3, [r4, #4]
 2172 003c F4E7     		b	.L149
 2173              		.cfi_endproc
 2174              	.LFE97:
 2176              		.section	.text.USB_ResetPort,"ax",%progbits
 2177              		.align	1
 2178              		.global	USB_ResetPort
 2179              		.syntax unified
 2180              		.thumb
 2181              		.thumb_func
 2182              		.fpu softvfp
 2184              	USB_ResetPort:
 2185              	.LFB98:
1073:Drivers/STM32F1xx_HAL_Driver/Src/stm32f1xx_ll_usb.c **** 
1074:Drivers/STM32F1xx_HAL_Driver/Src/stm32f1xx_ll_usb.c **** /**
1075:Drivers/STM32F1xx_HAL_Driver/Src/stm32f1xx_ll_usb.c **** * @brief  USB_OTG_ResetPort : Reset Host Port
1076:Drivers/STM32F1xx_HAL_Driver/Src/stm32f1xx_ll_usb.c ****   * @param  USBx : Selected device
1077:Drivers/STM32F1xx_HAL_Driver/Src/stm32f1xx_ll_usb.c ****   * @retval HAL status
1078:Drivers/STM32F1xx_HAL_Driver/Src/stm32f1xx_ll_usb.c ****   * @note : (1)The application must wait at least 10 ms
1079:Drivers/STM32F1xx_HAL_Driver/Src/stm32f1xx_ll_usb.c ****   *   before clearing the reset bit.
1080:Drivers/STM32F1xx_HAL_Driver/Src/stm32f1xx_ll_usb.c ****   */
1081:Drivers/STM32F1xx_HAL_Driver/Src/stm32f1xx_ll_usb.c **** HAL_StatusTypeDef USB_ResetPort(USB_OTG_GlobalTypeDef *USBx)
1082:Drivers/STM32F1xx_HAL_Driver/Src/stm32f1xx_ll_usb.c **** {
 2186              		.loc 1 1082 0
 2187              		.cfi_startproc
 2188              		@ args = 0, pretend = 0, frame = 8
 2189              		@ frame_needed = 0, uses_anonymous_args = 0
 2190              	.LVL175:
 2191 0000 30B5     		push	{r4, r5, lr}
 2192              	.LCFI37:
 2193              		.cfi_def_cfa_offset 12
 2194              		.cfi_offset 4, -12
 2195              		.cfi_offset 5, -8
 2196              		.cfi_offset 14, -4
 2197 0002 83B0     		sub	sp, sp, #12
 2198              	.LCFI38:
 2199              		.cfi_def_cfa_offset 24
 2200 0004 0446     		mov	r4, r0
ARM GAS  /tmp/ccG7BdKF.s 			page 59


1083:Drivers/STM32F1xx_HAL_Driver/Src/stm32f1xx_ll_usb.c ****   __IO uint32_t hprt0 = 0;
 2201              		.loc 1 1083 0
 2202 0006 0025     		movs	r5, #0
 2203 0008 0195     		str	r5, [sp, #4]
1084:Drivers/STM32F1xx_HAL_Driver/Src/stm32f1xx_ll_usb.c ****   /* Prevent unused argument(s) compilation warning */
1085:Drivers/STM32F1xx_HAL_Driver/Src/stm32f1xx_ll_usb.c ****   UNUSED(USBx);
1086:Drivers/STM32F1xx_HAL_Driver/Src/stm32f1xx_ll_usb.c **** 
1087:Drivers/STM32F1xx_HAL_Driver/Src/stm32f1xx_ll_usb.c ****   hprt0 = USBx_HPRT0;
 2204              		.loc 1 1087 0
 2205 000a D0F84034 		ldr	r3, [r0, #1088]
 2206 000e 0193     		str	r3, [sp, #4]
1088:Drivers/STM32F1xx_HAL_Driver/Src/stm32f1xx_ll_usb.c ****   
1089:Drivers/STM32F1xx_HAL_Driver/Src/stm32f1xx_ll_usb.c ****   hprt0 &= ~(USB_OTG_HPRT_PENA    | USB_OTG_HPRT_PCDET |\
 2207              		.loc 1 1089 0
 2208 0010 019B     		ldr	r3, [sp, #4]
 2209 0012 23F02E03 		bic	r3, r3, #46
 2210 0016 0193     		str	r3, [sp, #4]
1090:Drivers/STM32F1xx_HAL_Driver/Src/stm32f1xx_ll_usb.c ****     USB_OTG_HPRT_PENCHNG | USB_OTG_HPRT_POCCHNG );
1091:Drivers/STM32F1xx_HAL_Driver/Src/stm32f1xx_ll_usb.c ****   
1092:Drivers/STM32F1xx_HAL_Driver/Src/stm32f1xx_ll_usb.c ****   USBx_HPRT0 = (USB_OTG_HPRT_PRST | hprt0);  
 2211              		.loc 1 1092 0
 2212 0018 019B     		ldr	r3, [sp, #4]
 2213 001a 43F48073 		orr	r3, r3, #256
 2214 001e C0F84034 		str	r3, [r0, #1088]
1093:Drivers/STM32F1xx_HAL_Driver/Src/stm32f1xx_ll_usb.c ****   HAL_Delay (10);                                /* See Note #1 */
 2215              		.loc 1 1093 0
 2216 0022 0A20     		movs	r0, #10
 2217              	.LVL176:
 2218 0024 FFF7FEFF 		bl	HAL_Delay
 2219              	.LVL177:
1094:Drivers/STM32F1xx_HAL_Driver/Src/stm32f1xx_ll_usb.c ****   USBx_HPRT0 = ((~USB_OTG_HPRT_PRST) & hprt0); 
 2220              		.loc 1 1094 0
 2221 0028 019B     		ldr	r3, [sp, #4]
 2222 002a 23F48073 		bic	r3, r3, #256
 2223 002e C4F84034 		str	r3, [r4, #1088]
1095:Drivers/STM32F1xx_HAL_Driver/Src/stm32f1xx_ll_usb.c ****   return HAL_OK;
1096:Drivers/STM32F1xx_HAL_Driver/Src/stm32f1xx_ll_usb.c **** }
 2224              		.loc 1 1096 0
 2225 0032 2846     		mov	r0, r5
 2226 0034 03B0     		add	sp, sp, #12
 2227              	.LCFI39:
 2228              		.cfi_def_cfa_offset 12
 2229              		@ sp needed
 2230 0036 30BD     		pop	{r4, r5, pc}
 2231              		.cfi_endproc
 2232              	.LFE98:
 2234              		.section	.text.USB_DriveVbus,"ax",%progbits
 2235              		.align	1
 2236              		.global	USB_DriveVbus
 2237              		.syntax unified
 2238              		.thumb
 2239              		.thumb_func
 2240              		.fpu softvfp
 2242              	USB_DriveVbus:
 2243              	.LFB99:
1097:Drivers/STM32F1xx_HAL_Driver/Src/stm32f1xx_ll_usb.c **** 
1098:Drivers/STM32F1xx_HAL_Driver/Src/stm32f1xx_ll_usb.c **** /**
ARM GAS  /tmp/ccG7BdKF.s 			page 60


1099:Drivers/STM32F1xx_HAL_Driver/Src/stm32f1xx_ll_usb.c ****   * @brief  USB_DriveVbus : activate or de-activate vbus
1100:Drivers/STM32F1xx_HAL_Driver/Src/stm32f1xx_ll_usb.c ****   * @param  state : VBUS state
1101:Drivers/STM32F1xx_HAL_Driver/Src/stm32f1xx_ll_usb.c ****   *          This parameter can be one of the these values:
1102:Drivers/STM32F1xx_HAL_Driver/Src/stm32f1xx_ll_usb.c ****   *           0 : VBUS Active 
1103:Drivers/STM32F1xx_HAL_Driver/Src/stm32f1xx_ll_usb.c ****   *           1 : VBUS Inactive
1104:Drivers/STM32F1xx_HAL_Driver/Src/stm32f1xx_ll_usb.c ****   * @retval HAL status
1105:Drivers/STM32F1xx_HAL_Driver/Src/stm32f1xx_ll_usb.c **** */
1106:Drivers/STM32F1xx_HAL_Driver/Src/stm32f1xx_ll_usb.c **** HAL_StatusTypeDef USB_DriveVbus (USB_OTG_GlobalTypeDef *USBx, uint8_t state)
1107:Drivers/STM32F1xx_HAL_Driver/Src/stm32f1xx_ll_usb.c **** {
 2244              		.loc 1 1107 0
 2245              		.cfi_startproc
 2246              		@ args = 0, pretend = 0, frame = 8
 2247              		@ frame_needed = 0, uses_anonymous_args = 0
 2248              		@ link register save eliminated.
 2249              	.LVL178:
 2250 0000 82B0     		sub	sp, sp, #8
 2251              	.LCFI40:
 2252              		.cfi_def_cfa_offset 8
1108:Drivers/STM32F1xx_HAL_Driver/Src/stm32f1xx_ll_usb.c ****   __IO uint32_t hprt0 = 0;
 2253              		.loc 1 1108 0
 2254 0002 0023     		movs	r3, #0
 2255 0004 0193     		str	r3, [sp, #4]
1109:Drivers/STM32F1xx_HAL_Driver/Src/stm32f1xx_ll_usb.c ****   /* Prevent unused argument(s) compilation warning */
1110:Drivers/STM32F1xx_HAL_Driver/Src/stm32f1xx_ll_usb.c ****   UNUSED(USBx);
1111:Drivers/STM32F1xx_HAL_Driver/Src/stm32f1xx_ll_usb.c **** 
1112:Drivers/STM32F1xx_HAL_Driver/Src/stm32f1xx_ll_usb.c ****   hprt0 = USBx_HPRT0;
 2256              		.loc 1 1112 0
 2257 0006 D0F84034 		ldr	r3, [r0, #1088]
 2258 000a 0193     		str	r3, [sp, #4]
1113:Drivers/STM32F1xx_HAL_Driver/Src/stm32f1xx_ll_usb.c ****   hprt0 &= ~(USB_OTG_HPRT_PENA    | USB_OTG_HPRT_PCDET |\
 2259              		.loc 1 1113 0
 2260 000c 019B     		ldr	r3, [sp, #4]
 2261 000e 23F02E03 		bic	r3, r3, #46
 2262 0012 0193     		str	r3, [sp, #4]
1114:Drivers/STM32F1xx_HAL_Driver/Src/stm32f1xx_ll_usb.c ****           USB_OTG_HPRT_PENCHNG | USB_OTG_HPRT_POCCHNG );
1115:Drivers/STM32F1xx_HAL_Driver/Src/stm32f1xx_ll_usb.c ****   
1116:Drivers/STM32F1xx_HAL_Driver/Src/stm32f1xx_ll_usb.c ****   if (((hprt0 & USB_OTG_HPRT_PPWR) == 0 ) && (state == 1 ))
 2263              		.loc 1 1116 0
 2264 0014 019B     		ldr	r3, [sp, #4]
 2265 0016 13F4805F 		tst	r3, #4096
 2266 001a 01D1     		bne	.L156
 2267              		.loc 1 1116 0 is_stmt 0 discriminator 1
 2268 001c 0129     		cmp	r1, #1
 2269 001e 0CD0     		beq	.L159
 2270              	.L156:
1117:Drivers/STM32F1xx_HAL_Driver/Src/stm32f1xx_ll_usb.c ****   {
1118:Drivers/STM32F1xx_HAL_Driver/Src/stm32f1xx_ll_usb.c ****     USBx_HPRT0 = (USB_OTG_HPRT_PPWR | hprt0);
1119:Drivers/STM32F1xx_HAL_Driver/Src/stm32f1xx_ll_usb.c ****   }
1120:Drivers/STM32F1xx_HAL_Driver/Src/stm32f1xx_ll_usb.c ****   if (((hprt0 & USB_OTG_HPRT_PPWR) == USB_OTG_HPRT_PPWR) && (state == 0 ))
 2271              		.loc 1 1120 0 is_stmt 1
 2272 0020 019B     		ldr	r3, [sp, #4]
 2273 0022 13F4805F 		tst	r3, #4096
 2274 0026 05D0     		beq	.L157
 2275              		.loc 1 1120 0 is_stmt 0 discriminator 1
 2276 0028 21B9     		cbnz	r1, .L157
1121:Drivers/STM32F1xx_HAL_Driver/Src/stm32f1xx_ll_usb.c ****   {
1122:Drivers/STM32F1xx_HAL_Driver/Src/stm32f1xx_ll_usb.c ****     USBx_HPRT0 = ((~USB_OTG_HPRT_PPWR) & hprt0);
ARM GAS  /tmp/ccG7BdKF.s 			page 61


 2277              		.loc 1 1122 0 is_stmt 1
 2278 002a 019B     		ldr	r3, [sp, #4]
 2279 002c 23F48053 		bic	r3, r3, #4096
 2280 0030 C0F84034 		str	r3, [r0, #1088]
 2281              	.L157:
1123:Drivers/STM32F1xx_HAL_Driver/Src/stm32f1xx_ll_usb.c ****   }
1124:Drivers/STM32F1xx_HAL_Driver/Src/stm32f1xx_ll_usb.c ****   return HAL_OK;
1125:Drivers/STM32F1xx_HAL_Driver/Src/stm32f1xx_ll_usb.c **** }
 2282              		.loc 1 1125 0
 2283 0034 0020     		movs	r0, #0
 2284              	.LVL179:
 2285 0036 02B0     		add	sp, sp, #8
 2286              	.LCFI41:
 2287              		.cfi_remember_state
 2288              		.cfi_def_cfa_offset 0
 2289              		@ sp needed
 2290 0038 7047     		bx	lr
 2291              	.LVL180:
 2292              	.L159:
 2293              	.LCFI42:
 2294              		.cfi_restore_state
1118:Drivers/STM32F1xx_HAL_Driver/Src/stm32f1xx_ll_usb.c ****   }
 2295              		.loc 1 1118 0
 2296 003a 019B     		ldr	r3, [sp, #4]
 2297 003c 43F48053 		orr	r3, r3, #4096
 2298 0040 C0F84034 		str	r3, [r0, #1088]
 2299 0044 ECE7     		b	.L156
 2300              		.cfi_endproc
 2301              	.LFE99:
 2303              		.section	.text.USB_GetHostSpeed,"ax",%progbits
 2304              		.align	1
 2305              		.global	USB_GetHostSpeed
 2306              		.syntax unified
 2307              		.thumb
 2308              		.thumb_func
 2309              		.fpu softvfp
 2311              	USB_GetHostSpeed:
 2312              	.LFB100:
1126:Drivers/STM32F1xx_HAL_Driver/Src/stm32f1xx_ll_usb.c **** 
1127:Drivers/STM32F1xx_HAL_Driver/Src/stm32f1xx_ll_usb.c **** /**
1128:Drivers/STM32F1xx_HAL_Driver/Src/stm32f1xx_ll_usb.c ****   * @brief  Return Host Core speed
1129:Drivers/STM32F1xx_HAL_Driver/Src/stm32f1xx_ll_usb.c ****   * @param  USBx : Selected device
1130:Drivers/STM32F1xx_HAL_Driver/Src/stm32f1xx_ll_usb.c ****   * @retval speed : Host speed
1131:Drivers/STM32F1xx_HAL_Driver/Src/stm32f1xx_ll_usb.c ****   *          This parameter can be one of the these values:
1132:Drivers/STM32F1xx_HAL_Driver/Src/stm32f1xx_ll_usb.c ****   *            @arg USB_OTG_SPEED_FULL: Full speed mode
1133:Drivers/STM32F1xx_HAL_Driver/Src/stm32f1xx_ll_usb.c ****   *            @arg USB_OTG_SPEED_LOW: Low speed mode
1134:Drivers/STM32F1xx_HAL_Driver/Src/stm32f1xx_ll_usb.c ****   */
1135:Drivers/STM32F1xx_HAL_Driver/Src/stm32f1xx_ll_usb.c **** uint32_t USB_GetHostSpeed (USB_OTG_GlobalTypeDef *USBx)
1136:Drivers/STM32F1xx_HAL_Driver/Src/stm32f1xx_ll_usb.c **** {
 2313              		.loc 1 1136 0
 2314              		.cfi_startproc
 2315              		@ args = 0, pretend = 0, frame = 8
 2316              		@ frame_needed = 0, uses_anonymous_args = 0
 2317              		@ link register save eliminated.
 2318              	.LVL181:
 2319 0000 82B0     		sub	sp, sp, #8
 2320              	.LCFI43:
ARM GAS  /tmp/ccG7BdKF.s 			page 62


 2321              		.cfi_def_cfa_offset 8
1137:Drivers/STM32F1xx_HAL_Driver/Src/stm32f1xx_ll_usb.c ****   __IO uint32_t hprt0 = 0;
 2322              		.loc 1 1137 0
 2323 0002 0023     		movs	r3, #0
 2324 0004 0193     		str	r3, [sp, #4]
1138:Drivers/STM32F1xx_HAL_Driver/Src/stm32f1xx_ll_usb.c ****   /* Prevent unused argument(s) compilation warning */
1139:Drivers/STM32F1xx_HAL_Driver/Src/stm32f1xx_ll_usb.c ****   UNUSED(USBx);
1140:Drivers/STM32F1xx_HAL_Driver/Src/stm32f1xx_ll_usb.c **** 
1141:Drivers/STM32F1xx_HAL_Driver/Src/stm32f1xx_ll_usb.c ****   hprt0 = USBx_HPRT0;
 2325              		.loc 1 1141 0
 2326 0006 D0F84034 		ldr	r3, [r0, #1088]
 2327 000a 0193     		str	r3, [sp, #4]
1142:Drivers/STM32F1xx_HAL_Driver/Src/stm32f1xx_ll_usb.c ****   return ((hprt0 & USB_OTG_HPRT_PSPD) >> 17);
 2328              		.loc 1 1142 0
 2329 000c 0198     		ldr	r0, [sp, #4]
 2330              	.LVL182:
1143:Drivers/STM32F1xx_HAL_Driver/Src/stm32f1xx_ll_usb.c **** }
 2331              		.loc 1 1143 0
 2332 000e C0F34140 		ubfx	r0, r0, #17, #2
 2333 0012 02B0     		add	sp, sp, #8
 2334              	.LCFI44:
 2335              		.cfi_def_cfa_offset 0
 2336              		@ sp needed
 2337 0014 7047     		bx	lr
 2338              		.cfi_endproc
 2339              	.LFE100:
 2341              		.section	.text.USB_GetCurrentFrame,"ax",%progbits
 2342              		.align	1
 2343              		.global	USB_GetCurrentFrame
 2344              		.syntax unified
 2345              		.thumb
 2346              		.thumb_func
 2347              		.fpu softvfp
 2349              	USB_GetCurrentFrame:
 2350              	.LFB101:
1144:Drivers/STM32F1xx_HAL_Driver/Src/stm32f1xx_ll_usb.c **** 
1145:Drivers/STM32F1xx_HAL_Driver/Src/stm32f1xx_ll_usb.c **** /**
1146:Drivers/STM32F1xx_HAL_Driver/Src/stm32f1xx_ll_usb.c ****   * @brief  Return Host Current Frame number
1147:Drivers/STM32F1xx_HAL_Driver/Src/stm32f1xx_ll_usb.c ****   * @param  USBx : Selected device
1148:Drivers/STM32F1xx_HAL_Driver/Src/stm32f1xx_ll_usb.c ****   * @retval current frame number
1149:Drivers/STM32F1xx_HAL_Driver/Src/stm32f1xx_ll_usb.c **** */
1150:Drivers/STM32F1xx_HAL_Driver/Src/stm32f1xx_ll_usb.c **** uint32_t USB_GetCurrentFrame (USB_OTG_GlobalTypeDef *USBx)
1151:Drivers/STM32F1xx_HAL_Driver/Src/stm32f1xx_ll_usb.c **** {
 2351              		.loc 1 1151 0
 2352              		.cfi_startproc
 2353              		@ args = 0, pretend = 0, frame = 0
 2354              		@ frame_needed = 0, uses_anonymous_args = 0
 2355              		@ link register save eliminated.
 2356              	.LVL183:
1152:Drivers/STM32F1xx_HAL_Driver/Src/stm32f1xx_ll_usb.c ****   /* Prevent unused argument(s) compilation warning */
1153:Drivers/STM32F1xx_HAL_Driver/Src/stm32f1xx_ll_usb.c ****   UNUSED(USBx);
1154:Drivers/STM32F1xx_HAL_Driver/Src/stm32f1xx_ll_usb.c **** 
1155:Drivers/STM32F1xx_HAL_Driver/Src/stm32f1xx_ll_usb.c ****   return (USBx_HOST->HFNUM & USB_OTG_HFNUM_FRNUM);
 2357              		.loc 1 1155 0
 2358 0000 00F58060 		add	r0, r0, #1024
 2359              	.LVL184:
 2360 0004 8068     		ldr	r0, [r0, #8]
ARM GAS  /tmp/ccG7BdKF.s 			page 63


 2361              	.LVL185:
1156:Drivers/STM32F1xx_HAL_Driver/Src/stm32f1xx_ll_usb.c **** }
 2362              		.loc 1 1156 0
 2363 0006 80B2     		uxth	r0, r0
 2364 0008 7047     		bx	lr
 2365              		.cfi_endproc
 2366              	.LFE101:
 2368              		.section	.text.USB_HC_Init,"ax",%progbits
 2369              		.align	1
 2370              		.global	USB_HC_Init
 2371              		.syntax unified
 2372              		.thumb
 2373              		.thumb_func
 2374              		.fpu softvfp
 2376              	USB_HC_Init:
 2377              	.LFB102:
1157:Drivers/STM32F1xx_HAL_Driver/Src/stm32f1xx_ll_usb.c **** 
1158:Drivers/STM32F1xx_HAL_Driver/Src/stm32f1xx_ll_usb.c **** /**
1159:Drivers/STM32F1xx_HAL_Driver/Src/stm32f1xx_ll_usb.c ****   * @brief  Initialize a host channel
1160:Drivers/STM32F1xx_HAL_Driver/Src/stm32f1xx_ll_usb.c ****   * @param  USBx : Selected device
1161:Drivers/STM32F1xx_HAL_Driver/Src/stm32f1xx_ll_usb.c ****   * @param  ch_num : Channel number
1162:Drivers/STM32F1xx_HAL_Driver/Src/stm32f1xx_ll_usb.c ****   *         This parameter can be a value from 1 to 15
1163:Drivers/STM32F1xx_HAL_Driver/Src/stm32f1xx_ll_usb.c ****   * @param  epnum : Endpoint number
1164:Drivers/STM32F1xx_HAL_Driver/Src/stm32f1xx_ll_usb.c ****   *          This parameter can be a value from 1 to 15
1165:Drivers/STM32F1xx_HAL_Driver/Src/stm32f1xx_ll_usb.c ****   * @param  dev_address : Current device address
1166:Drivers/STM32F1xx_HAL_Driver/Src/stm32f1xx_ll_usb.c ****   *          This parameter can be a value from 0 to 255
1167:Drivers/STM32F1xx_HAL_Driver/Src/stm32f1xx_ll_usb.c ****   * @param  speed : Current device speed
1168:Drivers/STM32F1xx_HAL_Driver/Src/stm32f1xx_ll_usb.c ****   *          This parameter can be one of the these values:
1169:Drivers/STM32F1xx_HAL_Driver/Src/stm32f1xx_ll_usb.c ****   *            @arg USB_OTG_SPEED_FULL: Full speed mode
1170:Drivers/STM32F1xx_HAL_Driver/Src/stm32f1xx_ll_usb.c ****   *            @arg USB_OTG_SPEED_LOW: Low speed mode
1171:Drivers/STM32F1xx_HAL_Driver/Src/stm32f1xx_ll_usb.c ****   * @param  ep_type : Endpoint Type
1172:Drivers/STM32F1xx_HAL_Driver/Src/stm32f1xx_ll_usb.c ****   *          This parameter can be one of the these values:
1173:Drivers/STM32F1xx_HAL_Driver/Src/stm32f1xx_ll_usb.c ****   *            @arg EP_TYPE_CTRL: Control type
1174:Drivers/STM32F1xx_HAL_Driver/Src/stm32f1xx_ll_usb.c ****   *            @arg EP_TYPE_ISOC: Isochronous type
1175:Drivers/STM32F1xx_HAL_Driver/Src/stm32f1xx_ll_usb.c ****   *            @arg EP_TYPE_BULK: Bulk type
1176:Drivers/STM32F1xx_HAL_Driver/Src/stm32f1xx_ll_usb.c ****   *            @arg EP_TYPE_INTR: Interrupt type
1177:Drivers/STM32F1xx_HAL_Driver/Src/stm32f1xx_ll_usb.c ****   * @param  mps : Max Packet Size
1178:Drivers/STM32F1xx_HAL_Driver/Src/stm32f1xx_ll_usb.c ****   *          This parameter can be a value from 0 to32K
1179:Drivers/STM32F1xx_HAL_Driver/Src/stm32f1xx_ll_usb.c ****   * @retval HAL state
1180:Drivers/STM32F1xx_HAL_Driver/Src/stm32f1xx_ll_usb.c ****   */
1181:Drivers/STM32F1xx_HAL_Driver/Src/stm32f1xx_ll_usb.c **** HAL_StatusTypeDef USB_HC_Init(USB_OTG_GlobalTypeDef *USBx,  
1182:Drivers/STM32F1xx_HAL_Driver/Src/stm32f1xx_ll_usb.c ****                               uint8_t ch_num,
1183:Drivers/STM32F1xx_HAL_Driver/Src/stm32f1xx_ll_usb.c ****                               uint8_t epnum,
1184:Drivers/STM32F1xx_HAL_Driver/Src/stm32f1xx_ll_usb.c ****                               uint8_t dev_address,
1185:Drivers/STM32F1xx_HAL_Driver/Src/stm32f1xx_ll_usb.c ****                               uint8_t speed,
1186:Drivers/STM32F1xx_HAL_Driver/Src/stm32f1xx_ll_usb.c ****                               uint8_t ep_type,
1187:Drivers/STM32F1xx_HAL_Driver/Src/stm32f1xx_ll_usb.c ****                               uint16_t mps)
1188:Drivers/STM32F1xx_HAL_Driver/Src/stm32f1xx_ll_usb.c **** {
 2378              		.loc 1 1188 0
 2379              		.cfi_startproc
 2380              		@ args = 12, pretend = 0, frame = 0
 2381              		@ frame_needed = 0, uses_anonymous_args = 0
 2382              		@ link register save eliminated.
 2383              	.LVL186:
 2384 0000 F0B4     		push	{r4, r5, r6, r7}
 2385              	.LCFI45:
 2386              		.cfi_def_cfa_offset 16
ARM GAS  /tmp/ccG7BdKF.s 			page 64


 2387              		.cfi_offset 4, -16
 2388              		.cfi_offset 5, -12
 2389              		.cfi_offset 6, -8
 2390              		.cfi_offset 7, -4
 2391 0002 9DF81440 		ldrb	r4, [sp, #20]	@ zero_extendqisi2
1189:Drivers/STM32F1xx_HAL_Driver/Src/stm32f1xx_ll_usb.c ****   /* Clear old interrupt conditions for this host channel. */
1190:Drivers/STM32F1xx_HAL_Driver/Src/stm32f1xx_ll_usb.c ****   USBx_HC(ch_num)->HCINT = 0xFFFFFFFF;
 2392              		.loc 1 1190 0
 2393 0006 00EB4115 		add	r5, r0, r1, lsl #5
 2394 000a 05F5A066 		add	r6, r5, #1280
 2395 000e 4FF0FF37 		mov	r7, #-1
 2396 0012 B760     		str	r7, [r6, #8]
1191:Drivers/STM32F1xx_HAL_Driver/Src/stm32f1xx_ll_usb.c ****   
1192:Drivers/STM32F1xx_HAL_Driver/Src/stm32f1xx_ll_usb.c ****   /* Enable channel interrupts required for this transfer. */
1193:Drivers/STM32F1xx_HAL_Driver/Src/stm32f1xx_ll_usb.c ****   switch (ep_type) 
 2397              		.loc 1 1193 0
 2398 0014 032C     		cmp	r4, #3
 2399 0016 09D8     		bhi	.L164
 2400 0018 DFE804F0 		tbb	[pc, r4]
 2401              	.L166:
 2402 001c 02       		.byte	(.L165-.L166)/2
 2403 001d 45       		.byte	(.L167-.L166)/2
 2404 001e 02       		.byte	(.L165-.L166)/2
 2405 001f 3A       		.byte	(.L168-.L166)/2
 2406              		.p2align 1
 2407              	.L165:
1194:Drivers/STM32F1xx_HAL_Driver/Src/stm32f1xx_ll_usb.c ****   {
1195:Drivers/STM32F1xx_HAL_Driver/Src/stm32f1xx_ll_usb.c ****   case EP_TYPE_CTRL:
1196:Drivers/STM32F1xx_HAL_Driver/Src/stm32f1xx_ll_usb.c ****   case EP_TYPE_BULK:
1197:Drivers/STM32F1xx_HAL_Driver/Src/stm32f1xx_ll_usb.c ****     USBx_HC(ch_num)->HCINTMSK = USB_OTG_HCINTMSK_XFRCM  |\
 2408              		.loc 1 1197 0
 2409 0020 40F29D47 		movw	r7, #1181
 2410 0024 F760     		str	r7, [r6, #12]
1198:Drivers/STM32F1xx_HAL_Driver/Src/stm32f1xx_ll_usb.c ****                                 USB_OTG_HCINTMSK_STALLM |\
1199:Drivers/STM32F1xx_HAL_Driver/Src/stm32f1xx_ll_usb.c ****                                 USB_OTG_HCINTMSK_TXERRM |\
1200:Drivers/STM32F1xx_HAL_Driver/Src/stm32f1xx_ll_usb.c ****                                 USB_OTG_HCINTMSK_DTERRM |\
1201:Drivers/STM32F1xx_HAL_Driver/Src/stm32f1xx_ll_usb.c ****                                 USB_OTG_HCINTMSK_AHBERR |\
1202:Drivers/STM32F1xx_HAL_Driver/Src/stm32f1xx_ll_usb.c ****                                 USB_OTG_HCINTMSK_NAKM ;
1203:Drivers/STM32F1xx_HAL_Driver/Src/stm32f1xx_ll_usb.c ****   
1204:Drivers/STM32F1xx_HAL_Driver/Src/stm32f1xx_ll_usb.c ****     if (epnum & 0x80) 
 2411              		.loc 1 1204 0
 2412 0026 12F0800F 		tst	r2, #128
 2413 002a 2CD1     		bne	.L173
 2414              	.L164:
1205:Drivers/STM32F1xx_HAL_Driver/Src/stm32f1xx_ll_usb.c ****     {
1206:Drivers/STM32F1xx_HAL_Driver/Src/stm32f1xx_ll_usb.c ****       USBx_HC(ch_num)->HCINTMSK |= USB_OTG_HCINTMSK_BBERRM;
1207:Drivers/STM32F1xx_HAL_Driver/Src/stm32f1xx_ll_usb.c ****     }
1208:Drivers/STM32F1xx_HAL_Driver/Src/stm32f1xx_ll_usb.c ****     break;
1209:Drivers/STM32F1xx_HAL_Driver/Src/stm32f1xx_ll_usb.c ****   
1210:Drivers/STM32F1xx_HAL_Driver/Src/stm32f1xx_ll_usb.c ****   case EP_TYPE_INTR:
1211:Drivers/STM32F1xx_HAL_Driver/Src/stm32f1xx_ll_usb.c ****     USBx_HC(ch_num)->HCINTMSK = USB_OTG_HCINTMSK_XFRCM  |\
1212:Drivers/STM32F1xx_HAL_Driver/Src/stm32f1xx_ll_usb.c ****                                 USB_OTG_HCINTMSK_STALLM |\
1213:Drivers/STM32F1xx_HAL_Driver/Src/stm32f1xx_ll_usb.c ****                                 USB_OTG_HCINTMSK_TXERRM |\
1214:Drivers/STM32F1xx_HAL_Driver/Src/stm32f1xx_ll_usb.c ****                                 USB_OTG_HCINTMSK_DTERRM |\
1215:Drivers/STM32F1xx_HAL_Driver/Src/stm32f1xx_ll_usb.c ****                                 USB_OTG_HCINTMSK_NAKM   |\
1216:Drivers/STM32F1xx_HAL_Driver/Src/stm32f1xx_ll_usb.c ****                                 USB_OTG_HCINTMSK_AHBERR |\
1217:Drivers/STM32F1xx_HAL_Driver/Src/stm32f1xx_ll_usb.c ****                                 USB_OTG_HCINTMSK_FRMORM ;
ARM GAS  /tmp/ccG7BdKF.s 			page 65


1218:Drivers/STM32F1xx_HAL_Driver/Src/stm32f1xx_ll_usb.c ****     
1219:Drivers/STM32F1xx_HAL_Driver/Src/stm32f1xx_ll_usb.c ****     if (epnum & 0x80) 
1220:Drivers/STM32F1xx_HAL_Driver/Src/stm32f1xx_ll_usb.c ****     {
1221:Drivers/STM32F1xx_HAL_Driver/Src/stm32f1xx_ll_usb.c ****       USBx_HC(ch_num)->HCINTMSK |= USB_OTG_HCINTMSK_BBERRM;
1222:Drivers/STM32F1xx_HAL_Driver/Src/stm32f1xx_ll_usb.c ****     }
1223:Drivers/STM32F1xx_HAL_Driver/Src/stm32f1xx_ll_usb.c ****     
1224:Drivers/STM32F1xx_HAL_Driver/Src/stm32f1xx_ll_usb.c ****     break;
1225:Drivers/STM32F1xx_HAL_Driver/Src/stm32f1xx_ll_usb.c ****   
1226:Drivers/STM32F1xx_HAL_Driver/Src/stm32f1xx_ll_usb.c ****   case EP_TYPE_ISOC:
1227:Drivers/STM32F1xx_HAL_Driver/Src/stm32f1xx_ll_usb.c ****     USBx_HC(ch_num)->HCINTMSK = USB_OTG_HCINTMSK_XFRCM  |\
1228:Drivers/STM32F1xx_HAL_Driver/Src/stm32f1xx_ll_usb.c ****                                 USB_OTG_HCINTMSK_ACKM   |\
1229:Drivers/STM32F1xx_HAL_Driver/Src/stm32f1xx_ll_usb.c ****                                 USB_OTG_HCINTMSK_AHBERR |\
1230:Drivers/STM32F1xx_HAL_Driver/Src/stm32f1xx_ll_usb.c ****                                 USB_OTG_HCINTMSK_FRMORM ;
1231:Drivers/STM32F1xx_HAL_Driver/Src/stm32f1xx_ll_usb.c ****     
1232:Drivers/STM32F1xx_HAL_Driver/Src/stm32f1xx_ll_usb.c ****     if (epnum & 0x80) 
1233:Drivers/STM32F1xx_HAL_Driver/Src/stm32f1xx_ll_usb.c ****     {
1234:Drivers/STM32F1xx_HAL_Driver/Src/stm32f1xx_ll_usb.c ****       USBx_HC(ch_num)->HCINTMSK |= (USB_OTG_HCINTMSK_TXERRM | USB_OTG_HCINTMSK_BBERRM);
1235:Drivers/STM32F1xx_HAL_Driver/Src/stm32f1xx_ll_usb.c ****     }
1236:Drivers/STM32F1xx_HAL_Driver/Src/stm32f1xx_ll_usb.c ****     break;
1237:Drivers/STM32F1xx_HAL_Driver/Src/stm32f1xx_ll_usb.c ****   }
1238:Drivers/STM32F1xx_HAL_Driver/Src/stm32f1xx_ll_usb.c ****   
1239:Drivers/STM32F1xx_HAL_Driver/Src/stm32f1xx_ll_usb.c ****   /* Enable the top level host channel interrupt. */
1240:Drivers/STM32F1xx_HAL_Driver/Src/stm32f1xx_ll_usb.c ****   USBx_HOST->HAINTMSK |= (1 << ch_num);
 2415              		.loc 1 1240 0
 2416 002c D0F81864 		ldr	r6, [r0, #1048]
 2417 0030 0127     		movs	r7, #1
 2418 0032 07FA01F1 		lsl	r1, r7, r1
 2419              	.LVL187:
 2420 0036 3143     		orrs	r1, r1, r6
 2421 0038 C0F81814 		str	r1, [r0, #1048]
1241:Drivers/STM32F1xx_HAL_Driver/Src/stm32f1xx_ll_usb.c ****   
1242:Drivers/STM32F1xx_HAL_Driver/Src/stm32f1xx_ll_usb.c ****   /* Make sure host channel interrupts are enabled. */
1243:Drivers/STM32F1xx_HAL_Driver/Src/stm32f1xx_ll_usb.c ****   USBx->GINTMSK |= USB_OTG_GINTMSK_HCIM;
 2422              		.loc 1 1243 0
 2423 003c 8169     		ldr	r1, [r0, #24]
 2424 003e 41F00071 		orr	r1, r1, #33554432
 2425 0042 8161     		str	r1, [r0, #24]
1244:Drivers/STM32F1xx_HAL_Driver/Src/stm32f1xx_ll_usb.c ****   
1245:Drivers/STM32F1xx_HAL_Driver/Src/stm32f1xx_ll_usb.c ****   /* Program the HCCHAR register */
1246:Drivers/STM32F1xx_HAL_Driver/Src/stm32f1xx_ll_usb.c ****   USBx_HC(ch_num)->HCCHAR = (((dev_address << 22) & USB_OTG_HCCHAR_DAD)  |\
 2426              		.loc 1 1246 0
 2427 0044 9B05     		lsls	r3, r3, #22
 2428              	.LVL188:
 2429 0046 03F0FE53 		and	r3, r3, #532676608
1247:Drivers/STM32F1xx_HAL_Driver/Src/stm32f1xx_ll_usb.c ****                              (((epnum & 0x7F)<< 11) & USB_OTG_HCCHAR_EPNUM)|\
 2430              		.loc 1 1247 0
 2431 004a D102     		lsls	r1, r2, #11
 2432 004c 01F4F041 		and	r1, r1, #30720
1246:Drivers/STM32F1xx_HAL_Driver/Src/stm32f1xx_ll_usb.c ****                              (((epnum & 0x7F)<< 11) & USB_OTG_HCCHAR_EPNUM)|\
 2433              		.loc 1 1246 0
 2434 0050 0B43     		orrs	r3, r3, r1
1248:Drivers/STM32F1xx_HAL_Driver/Src/stm32f1xx_ll_usb.c ****                              ((((epnum & 0x80) == 0x80)<< 15) & USB_OTG_HCCHAR_EPDIR)|\
 2435              		.loc 1 1248 0
 2436 0052 52B2     		sxtb	r2, r2
 2437 0054 02F40042 		and	r2, r2, #32768
 2438              	.LVL189:
1247:Drivers/STM32F1xx_HAL_Driver/Src/stm32f1xx_ll_usb.c ****                              (((epnum & 0x7F)<< 11) & USB_OTG_HCCHAR_EPNUM)|\
ARM GAS  /tmp/ccG7BdKF.s 			page 66


 2439              		.loc 1 1247 0
 2440 0058 1343     		orrs	r3, r3, r2
1249:Drivers/STM32F1xx_HAL_Driver/Src/stm32f1xx_ll_usb.c ****                              (((speed == HPRT0_PRTSPD_LOW_SPEED)<< 17) & USB_OTG_HCCHAR_LSDEV)|\
 2441              		.loc 1 1249 0
 2442 005a 9DF81020 		ldrb	r2, [sp, #16]	@ zero_extendqisi2
 2443 005e 022A     		cmp	r2, #2
 2444 0060 2CD0     		beq	.L174
 2445 0062 0022     		movs	r2, #0
 2446              	.L169:
1248:Drivers/STM32F1xx_HAL_Driver/Src/stm32f1xx_ll_usb.c ****                              ((((epnum & 0x80) == 0x80)<< 15) & USB_OTG_HCCHAR_EPDIR)|\
 2447              		.loc 1 1248 0
 2448 0064 1343     		orrs	r3, r3, r2
1250:Drivers/STM32F1xx_HAL_Driver/Src/stm32f1xx_ll_usb.c ****                              ((ep_type << 18) & USB_OTG_HCCHAR_EPTYP)|\
 2449              		.loc 1 1250 0
 2450 0066 A204     		lsls	r2, r4, #18
 2451 0068 02F44022 		and	r2, r2, #786432
1249:Drivers/STM32F1xx_HAL_Driver/Src/stm32f1xx_ll_usb.c ****                              (((speed == HPRT0_PRTSPD_LOW_SPEED)<< 17) & USB_OTG_HCCHAR_LSDEV)|\
 2452              		.loc 1 1249 0
 2453 006c 1343     		orrs	r3, r3, r2
1251:Drivers/STM32F1xx_HAL_Driver/Src/stm32f1xx_ll_usb.c ****                              (mps & USB_OTG_HCCHAR_MPSIZ));
 2454              		.loc 1 1251 0
 2455 006e BDF81820 		ldrh	r2, [sp, #24]
 2456 0072 C2F30A02 		ubfx	r2, r2, #0, #11
1250:Drivers/STM32F1xx_HAL_Driver/Src/stm32f1xx_ll_usb.c ****                              ((ep_type << 18) & USB_OTG_HCCHAR_EPTYP)|\
 2457              		.loc 1 1250 0
 2458 0076 1343     		orrs	r3, r3, r2
1246:Drivers/STM32F1xx_HAL_Driver/Src/stm32f1xx_ll_usb.c ****                              (((epnum & 0x7F)<< 11) & USB_OTG_HCCHAR_EPNUM)|\
 2459              		.loc 1 1246 0
 2460 0078 C5F80035 		str	r3, [r5, #1280]
1252:Drivers/STM32F1xx_HAL_Driver/Src/stm32f1xx_ll_usb.c ****   
1253:Drivers/STM32F1xx_HAL_Driver/Src/stm32f1xx_ll_usb.c ****   if (ep_type == EP_TYPE_INTR)
 2461              		.loc 1 1253 0
 2462 007c 032C     		cmp	r4, #3
 2463 007e 20D0     		beq	.L175
 2464              	.L170:
1254:Drivers/STM32F1xx_HAL_Driver/Src/stm32f1xx_ll_usb.c ****   {
1255:Drivers/STM32F1xx_HAL_Driver/Src/stm32f1xx_ll_usb.c ****     USBx_HC(ch_num)->HCCHAR |= USB_OTG_HCCHAR_ODDFRM ;
1256:Drivers/STM32F1xx_HAL_Driver/Src/stm32f1xx_ll_usb.c ****   }
1257:Drivers/STM32F1xx_HAL_Driver/Src/stm32f1xx_ll_usb.c ****   
1258:Drivers/STM32F1xx_HAL_Driver/Src/stm32f1xx_ll_usb.c ****   return HAL_OK;
1259:Drivers/STM32F1xx_HAL_Driver/Src/stm32f1xx_ll_usb.c **** }
 2465              		.loc 1 1259 0
 2466 0080 0020     		movs	r0, #0
 2467              	.LVL190:
 2468 0082 F0BC     		pop	{r4, r5, r6, r7}
 2469              	.LCFI46:
 2470              		.cfi_remember_state
 2471              		.cfi_restore 7
 2472              		.cfi_restore 6
 2473              		.cfi_restore 5
 2474              		.cfi_restore 4
 2475              		.cfi_def_cfa_offset 0
 2476              	.LVL191:
 2477 0084 7047     		bx	lr
 2478              	.LVL192:
 2479              	.L173:
 2480              	.LCFI47:
ARM GAS  /tmp/ccG7BdKF.s 			page 67


 2481              		.cfi_restore_state
1206:Drivers/STM32F1xx_HAL_Driver/Src/stm32f1xx_ll_usb.c ****     }
 2482              		.loc 1 1206 0
 2483 0086 F768     		ldr	r7, [r6, #12]
 2484 0088 47F48077 		orr	r7, r7, #256
 2485 008c F760     		str	r7, [r6, #12]
 2486 008e CDE7     		b	.L164
 2487              	.L168:
1211:Drivers/STM32F1xx_HAL_Driver/Src/stm32f1xx_ll_usb.c ****                                 USB_OTG_HCINTMSK_STALLM |\
 2488              		.loc 1 1211 0
 2489 0090 40F29D67 		movw	r7, #1693
 2490 0094 F760     		str	r7, [r6, #12]
1219:Drivers/STM32F1xx_HAL_Driver/Src/stm32f1xx_ll_usb.c ****     {
 2491              		.loc 1 1219 0
 2492 0096 12F0800F 		tst	r2, #128
 2493 009a C7D0     		beq	.L164
1221:Drivers/STM32F1xx_HAL_Driver/Src/stm32f1xx_ll_usb.c ****     }
 2494              		.loc 1 1221 0
 2495 009c F768     		ldr	r7, [r6, #12]
 2496 009e 47F48077 		orr	r7, r7, #256
 2497 00a2 F760     		str	r7, [r6, #12]
 2498 00a4 C2E7     		b	.L164
 2499              	.L167:
1227:Drivers/STM32F1xx_HAL_Driver/Src/stm32f1xx_ll_usb.c ****                                 USB_OTG_HCINTMSK_ACKM   |\
 2500              		.loc 1 1227 0
 2501 00a6 40F22527 		movw	r7, #549
 2502 00aa F760     		str	r7, [r6, #12]
1232:Drivers/STM32F1xx_HAL_Driver/Src/stm32f1xx_ll_usb.c ****     {
 2503              		.loc 1 1232 0
 2504 00ac 12F0800F 		tst	r2, #128
 2505 00b0 BCD0     		beq	.L164
1234:Drivers/STM32F1xx_HAL_Driver/Src/stm32f1xx_ll_usb.c ****     }
 2506              		.loc 1 1234 0
 2507 00b2 F768     		ldr	r7, [r6, #12]
 2508 00b4 47F4C077 		orr	r7, r7, #384
 2509 00b8 F760     		str	r7, [r6, #12]
 2510 00ba B7E7     		b	.L164
 2511              	.LVL193:
 2512              	.L174:
1249:Drivers/STM32F1xx_HAL_Driver/Src/stm32f1xx_ll_usb.c ****                              ((ep_type << 18) & USB_OTG_HCCHAR_EPTYP)|\
 2513              		.loc 1 1249 0
 2514 00bc 4FF40032 		mov	r2, #131072
 2515 00c0 D0E7     		b	.L169
 2516              	.L175:
1255:Drivers/STM32F1xx_HAL_Driver/Src/stm32f1xx_ll_usb.c ****   }
 2517              		.loc 1 1255 0
 2518 00c2 D5F80035 		ldr	r3, [r5, #1280]
 2519 00c6 43F00053 		orr	r3, r3, #536870912
 2520 00ca C5F80035 		str	r3, [r5, #1280]
 2521 00ce D7E7     		b	.L170
 2522              		.cfi_endproc
 2523              	.LFE102:
 2525              		.section	.text.USB_HC_StartXfer,"ax",%progbits
 2526              		.align	1
 2527              		.global	USB_HC_StartXfer
 2528              		.syntax unified
 2529              		.thumb
ARM GAS  /tmp/ccG7BdKF.s 			page 68


 2530              		.thumb_func
 2531              		.fpu softvfp
 2533              	USB_HC_StartXfer:
 2534              	.LFB103:
1260:Drivers/STM32F1xx_HAL_Driver/Src/stm32f1xx_ll_usb.c **** 
1261:Drivers/STM32F1xx_HAL_Driver/Src/stm32f1xx_ll_usb.c **** /**
1262:Drivers/STM32F1xx_HAL_Driver/Src/stm32f1xx_ll_usb.c ****   * @brief  Start a transfer over a host channel
1263:Drivers/STM32F1xx_HAL_Driver/Src/stm32f1xx_ll_usb.c ****   * @param  USBx : Selected device
1264:Drivers/STM32F1xx_HAL_Driver/Src/stm32f1xx_ll_usb.c ****   * @param  hc : pointer to host channel structure
1265:Drivers/STM32F1xx_HAL_Driver/Src/stm32f1xx_ll_usb.c ****   * @retval HAL state
1266:Drivers/STM32F1xx_HAL_Driver/Src/stm32f1xx_ll_usb.c ****   */
1267:Drivers/STM32F1xx_HAL_Driver/Src/stm32f1xx_ll_usb.c **** #if defined   (__CC_ARM) /*!< ARM Compiler */
1268:Drivers/STM32F1xx_HAL_Driver/Src/stm32f1xx_ll_usb.c **** #pragma O0
1269:Drivers/STM32F1xx_HAL_Driver/Src/stm32f1xx_ll_usb.c **** #elif defined (__GNUC__) /*!< GNU Compiler */
1270:Drivers/STM32F1xx_HAL_Driver/Src/stm32f1xx_ll_usb.c **** #pragma GCC optimize ("O0")
1271:Drivers/STM32F1xx_HAL_Driver/Src/stm32f1xx_ll_usb.c **** #endif /* __CC_ARM */
1272:Drivers/STM32F1xx_HAL_Driver/Src/stm32f1xx_ll_usb.c **** HAL_StatusTypeDef USB_HC_StartXfer(USB_OTG_GlobalTypeDef *USBx, USB_OTG_HCTypeDef *hc)
1273:Drivers/STM32F1xx_HAL_Driver/Src/stm32f1xx_ll_usb.c **** {
 2535              		.loc 1 1273 0
 2536              		.cfi_startproc
 2537              		@ args = 0, pretend = 0, frame = 24
 2538              		@ frame_needed = 1, uses_anonymous_args = 0
 2539              	.LVL194:
 2540 0000 80B5     		push	{r7, lr}
 2541              	.LCFI48:
 2542              		.cfi_def_cfa_offset 8
 2543              		.cfi_offset 7, -8
 2544              		.cfi_offset 14, -4
 2545 0002 86B0     		sub	sp, sp, #24
 2546              	.LCFI49:
 2547              		.cfi_def_cfa_offset 32
 2548 0004 00AF     		add	r7, sp, #0
 2549              	.LCFI50:
 2550              		.cfi_def_cfa_register 7
 2551 0006 7860     		str	r0, [r7, #4]
 2552 0008 3960     		str	r1, [r7]
1274:Drivers/STM32F1xx_HAL_Driver/Src/stm32f1xx_ll_usb.c ****   uint8_t  is_oddframe = 0;
 2553              		.loc 1 1274 0
 2554 000a 0023     		movs	r3, #0
 2555 000c 7B75     		strb	r3, [r7, #21]
 2556              	.LVL195:
1275:Drivers/STM32F1xx_HAL_Driver/Src/stm32f1xx_ll_usb.c ****   uint16_t len_words = 0;
 2557              		.loc 1 1275 0
 2558 000e 0023     		movs	r3, #0
 2559              	.LVL196:
 2560 0010 7B82     		strh	r3, [r7, #18]	@ movhi
 2561              	.LVL197:
1276:Drivers/STM32F1xx_HAL_Driver/Src/stm32f1xx_ll_usb.c ****   uint16_t num_packets = 0;
 2562              		.loc 1 1276 0
 2563 0012 0023     		movs	r3, #0
 2564              	.LVL198:
 2565 0014 FB82     		strh	r3, [r7, #22]	@ movhi
 2566              	.LVL199:
1277:Drivers/STM32F1xx_HAL_Driver/Src/stm32f1xx_ll_usb.c ****   uint16_t max_hc_pkt_count = 256;
 2567              		.loc 1 1277 0
 2568 0016 4FF48073 		mov	r3, #256
 2569              	.LVL200:
ARM GAS  /tmp/ccG7BdKF.s 			page 69


 2570 001a 3B82     		strh	r3, [r7, #16]	@ movhi
 2571              	.LVL201:
1278:Drivers/STM32F1xx_HAL_Driver/Src/stm32f1xx_ll_usb.c ****   uint32_t tmpreg = 0;
 2572              		.loc 1 1278 0
 2573 001c 0023     		movs	r3, #0
 2574              	.LVL202:
 2575 001e FB60     		str	r3, [r7, #12]
 2576              	.LVL203:
1279:Drivers/STM32F1xx_HAL_Driver/Src/stm32f1xx_ll_usb.c ****   
1280:Drivers/STM32F1xx_HAL_Driver/Src/stm32f1xx_ll_usb.c ****   /* Compute the expected number of packets associated to the transfer */
1281:Drivers/STM32F1xx_HAL_Driver/Src/stm32f1xx_ll_usb.c ****   if (hc->xfer_len > 0)
 2577              		.loc 1 1281 0
 2578 0020 3B68     		ldr	r3, [r7]
 2579              	.LVL204:
 2580 0022 1B69     		ldr	r3, [r3, #16]
 2581 0024 002B     		cmp	r3, #0
 2582 0026 19D0     		beq	.L177
1282:Drivers/STM32F1xx_HAL_Driver/Src/stm32f1xx_ll_usb.c ****   {
1283:Drivers/STM32F1xx_HAL_Driver/Src/stm32f1xx_ll_usb.c ****     num_packets = (hc->xfer_len + hc->max_packet - 1) / hc->max_packet;
 2583              		.loc 1 1283 0
 2584 0028 3B68     		ldr	r3, [r7]
 2585 002a 1B69     		ldr	r3, [r3, #16]
 2586 002c 3A68     		ldr	r2, [r7]
 2587 002e 1289     		ldrh	r2, [r2, #8]
 2588 0030 1344     		add	r3, r3, r2
 2589 0032 013B     		subs	r3, r3, #1
 2590 0034 3A68     		ldr	r2, [r7]
 2591 0036 1289     		ldrh	r2, [r2, #8]
 2592 0038 B3FBF2F3 		udiv	r3, r3, r2
 2593 003c FB82     		strh	r3, [r7, #22]	@ movhi
 2594              	.LVL205:
1284:Drivers/STM32F1xx_HAL_Driver/Src/stm32f1xx_ll_usb.c ****     
1285:Drivers/STM32F1xx_HAL_Driver/Src/stm32f1xx_ll_usb.c ****     if (num_packets > max_hc_pkt_count)
 2595              		.loc 1 1285 0
 2596 003e FA8A     		ldrh	r2, [r7, #22]
 2597 0040 3B8A     		ldrh	r3, [r7, #16]
 2598              	.LVL206:
 2599 0042 9A42     		cmp	r2, r3
 2600 0044 0CD9     		bls	.L179
1286:Drivers/STM32F1xx_HAL_Driver/Src/stm32f1xx_ll_usb.c ****     {
1287:Drivers/STM32F1xx_HAL_Driver/Src/stm32f1xx_ll_usb.c ****       num_packets = max_hc_pkt_count;
 2601              		.loc 1 1287 0
 2602 0046 3B8A     		ldrh	r3, [r7, #16]	@ movhi
 2603 0048 FB82     		strh	r3, [r7, #22]	@ movhi
 2604              	.LVL207:
1288:Drivers/STM32F1xx_HAL_Driver/Src/stm32f1xx_ll_usb.c ****       hc->xfer_len = num_packets * hc->max_packet;
 2605              		.loc 1 1288 0
 2606 004a FB8A     		ldrh	r3, [r7, #22]
 2607 004c 3A68     		ldr	r2, [r7]
 2608 004e 1289     		ldrh	r2, [r2, #8]
 2609 0050 02FB03F3 		mul	r3, r2, r3
 2610 0054 1A46     		mov	r2, r3
 2611 0056 3B68     		ldr	r3, [r7]
 2612 0058 1A61     		str	r2, [r3, #16]
 2613 005a 01E0     		b	.L179
 2614              	.LVL208:
 2615              	.L177:
ARM GAS  /tmp/ccG7BdKF.s 			page 70


1289:Drivers/STM32F1xx_HAL_Driver/Src/stm32f1xx_ll_usb.c ****     }
1290:Drivers/STM32F1xx_HAL_Driver/Src/stm32f1xx_ll_usb.c ****   }
1291:Drivers/STM32F1xx_HAL_Driver/Src/stm32f1xx_ll_usb.c ****   else
1292:Drivers/STM32F1xx_HAL_Driver/Src/stm32f1xx_ll_usb.c ****   {
1293:Drivers/STM32F1xx_HAL_Driver/Src/stm32f1xx_ll_usb.c ****     num_packets = 1;
 2616              		.loc 1 1293 0
 2617 005c 0123     		movs	r3, #1
 2618 005e FB82     		strh	r3, [r7, #22]	@ movhi
 2619              	.LVL209:
 2620              	.L179:
1294:Drivers/STM32F1xx_HAL_Driver/Src/stm32f1xx_ll_usb.c ****   }
1295:Drivers/STM32F1xx_HAL_Driver/Src/stm32f1xx_ll_usb.c ****   if (hc->ep_is_in)
 2621              		.loc 1 1295 0
 2622 0060 3B68     		ldr	r3, [r7]
 2623 0062 DB78     		ldrb	r3, [r3, #3]	@ zero_extendqisi2
 2624 0064 002B     		cmp	r3, #0
 2625 0066 07D0     		beq	.L180
1296:Drivers/STM32F1xx_HAL_Driver/Src/stm32f1xx_ll_usb.c ****   {
1297:Drivers/STM32F1xx_HAL_Driver/Src/stm32f1xx_ll_usb.c ****     hc->xfer_len = num_packets * hc->max_packet;
 2626              		.loc 1 1297 0
 2627 0068 FB8A     		ldrh	r3, [r7, #22]
 2628 006a 3A68     		ldr	r2, [r7]
 2629 006c 1289     		ldrh	r2, [r2, #8]
 2630 006e 02FB03F3 		mul	r3, r2, r3
 2631 0072 1A46     		mov	r2, r3
 2632 0074 3B68     		ldr	r3, [r7]
 2633 0076 1A61     		str	r2, [r3, #16]
 2634              	.L180:
1298:Drivers/STM32F1xx_HAL_Driver/Src/stm32f1xx_ll_usb.c ****   }
1299:Drivers/STM32F1xx_HAL_Driver/Src/stm32f1xx_ll_usb.c ****   
1300:Drivers/STM32F1xx_HAL_Driver/Src/stm32f1xx_ll_usb.c ****   /* Initialize the HCTSIZn register */
1301:Drivers/STM32F1xx_HAL_Driver/Src/stm32f1xx_ll_usb.c ****   USBx_HC(hc->ch_num)->HCTSIZ = (((hc->xfer_len) & USB_OTG_HCTSIZ_XFRSIZ)) |\
 2635              		.loc 1 1301 0
 2636 0078 3B68     		ldr	r3, [r7]
 2637 007a 1B69     		ldr	r3, [r3, #16]
 2638 007c C3F31202 		ubfx	r2, r3, #0, #19
1302:Drivers/STM32F1xx_HAL_Driver/Src/stm32f1xx_ll_usb.c ****     ((num_packets << 19) & USB_OTG_HCTSIZ_PKTCNT) |\
 2639              		.loc 1 1302 0
 2640 0080 FB8A     		ldrh	r3, [r7, #22]
 2641 0082 DB04     		lsls	r3, r3, #19
 2642 0084 1946     		mov	r1, r3
 2643              	.LVL210:
 2644 0086 574B     		ldr	r3, .L193
 2645 0088 0B40     		ands	r3, r3, r1
1301:Drivers/STM32F1xx_HAL_Driver/Src/stm32f1xx_ll_usb.c ****     ((num_packets << 19) & USB_OTG_HCTSIZ_PKTCNT) |\
 2646              		.loc 1 1301 0
 2647 008a 1A43     		orrs	r2, r2, r3
1303:Drivers/STM32F1xx_HAL_Driver/Src/stm32f1xx_ll_usb.c ****       (((hc->data_pid) << 29) & USB_OTG_HCTSIZ_DPID);
 2648              		.loc 1 1303 0
 2649 008c 3B68     		ldr	r3, [r7]
 2650 008e 9B7A     		ldrb	r3, [r3, #10]	@ zero_extendqisi2
 2651 0090 5B07     		lsls	r3, r3, #29
 2652 0092 03F0C043 		and	r3, r3, #1610612736
1301:Drivers/STM32F1xx_HAL_Driver/Src/stm32f1xx_ll_usb.c ****     ((num_packets << 19) & USB_OTG_HCTSIZ_PKTCNT) |\
 2653              		.loc 1 1301 0
 2654 0096 3968     		ldr	r1, [r7]
 2655 0098 4978     		ldrb	r1, [r1, #1]	@ zero_extendqisi2
ARM GAS  /tmp/ccG7BdKF.s 			page 71


 2656 009a 4801     		lsls	r0, r1, #5
 2657              	.LVL211:
 2658 009c 7968     		ldr	r1, [r7, #4]
 2659 009e 0144     		add	r1, r1, r0
 2660 00a0 01F5A061 		add	r1, r1, #1280
1302:Drivers/STM32F1xx_HAL_Driver/Src/stm32f1xx_ll_usb.c ****     ((num_packets << 19) & USB_OTG_HCTSIZ_PKTCNT) |\
 2661              		.loc 1 1302 0
 2662 00a4 1343     		orrs	r3, r3, r2
1301:Drivers/STM32F1xx_HAL_Driver/Src/stm32f1xx_ll_usb.c ****     ((num_packets << 19) & USB_OTG_HCTSIZ_PKTCNT) |\
 2663              		.loc 1 1301 0
 2664 00a6 0B61     		str	r3, [r1, #16]
1304:Drivers/STM32F1xx_HAL_Driver/Src/stm32f1xx_ll_usb.c ****   
1305:Drivers/STM32F1xx_HAL_Driver/Src/stm32f1xx_ll_usb.c ****   is_oddframe = (USBx_HOST->HFNUM & 0x01) ? 0 : 1;
 2665              		.loc 1 1305 0
 2666 00a8 7B68     		ldr	r3, [r7, #4]
 2667 00aa 03F58063 		add	r3, r3, #1024
 2668 00ae 9B68     		ldr	r3, [r3, #8]
 2669 00b0 03F00103 		and	r3, r3, #1
 2670 00b4 002B     		cmp	r3, #0
 2671 00b6 0CBF     		ite	eq
 2672 00b8 0123     		moveq	r3, #1
 2673 00ba 0023     		movne	r3, #0
 2674 00bc DBB2     		uxtb	r3, r3
 2675 00be 7B75     		strb	r3, [r7, #21]
 2676              	.LVL212:
1306:Drivers/STM32F1xx_HAL_Driver/Src/stm32f1xx_ll_usb.c ****   USBx_HC(hc->ch_num)->HCCHAR &= ~USB_OTG_HCCHAR_ODDFRM;
 2677              		.loc 1 1306 0
 2678 00c0 3B68     		ldr	r3, [r7]
 2679              	.LVL213:
 2680 00c2 5B78     		ldrb	r3, [r3, #1]	@ zero_extendqisi2
 2681 00c4 5A01     		lsls	r2, r3, #5
 2682 00c6 7B68     		ldr	r3, [r7, #4]
 2683 00c8 1344     		add	r3, r3, r2
 2684 00ca 03F5A063 		add	r3, r3, #1280
 2685 00ce 1B68     		ldr	r3, [r3]
 2686 00d0 3A68     		ldr	r2, [r7]
 2687 00d2 5278     		ldrb	r2, [r2, #1]	@ zero_extendqisi2
 2688 00d4 5101     		lsls	r1, r2, #5
 2689 00d6 7A68     		ldr	r2, [r7, #4]
 2690 00d8 0A44     		add	r2, r2, r1
 2691 00da 02F5A062 		add	r2, r2, #1280
 2692 00de 23F00053 		bic	r3, r3, #536870912
 2693 00e2 1360     		str	r3, [r2]
1307:Drivers/STM32F1xx_HAL_Driver/Src/stm32f1xx_ll_usb.c ****   USBx_HC(hc->ch_num)->HCCHAR |= (is_oddframe << 29);
 2694              		.loc 1 1307 0
 2695 00e4 3B68     		ldr	r3, [r7]
 2696 00e6 5B78     		ldrb	r3, [r3, #1]	@ zero_extendqisi2
 2697 00e8 5A01     		lsls	r2, r3, #5
 2698 00ea 7B68     		ldr	r3, [r7, #4]
 2699 00ec 1344     		add	r3, r3, r2
 2700 00ee 03F5A063 		add	r3, r3, #1280
 2701 00f2 1B68     		ldr	r3, [r3]
 2702 00f4 7A7D     		ldrb	r2, [r7, #21]	@ zero_extendqisi2
 2703 00f6 5207     		lsls	r2, r2, #29
 2704 00f8 1046     		mov	r0, r2
 2705 00fa 3A68     		ldr	r2, [r7]
 2706 00fc 5278     		ldrb	r2, [r2, #1]	@ zero_extendqisi2
ARM GAS  /tmp/ccG7BdKF.s 			page 72


 2707 00fe 5101     		lsls	r1, r2, #5
 2708 0100 7A68     		ldr	r2, [r7, #4]
 2709 0102 0A44     		add	r2, r2, r1
 2710 0104 02F5A062 		add	r2, r2, #1280
 2711 0108 0343     		orrs	r3, r3, r0
 2712 010a 1360     		str	r3, [r2]
1308:Drivers/STM32F1xx_HAL_Driver/Src/stm32f1xx_ll_usb.c ****   
1309:Drivers/STM32F1xx_HAL_Driver/Src/stm32f1xx_ll_usb.c ****   /* Set host channel enable */
1310:Drivers/STM32F1xx_HAL_Driver/Src/stm32f1xx_ll_usb.c ****   tmpreg = USBx_HC(hc->ch_num)->HCCHAR;
 2713              		.loc 1 1310 0
 2714 010c 3B68     		ldr	r3, [r7]
 2715 010e 5B78     		ldrb	r3, [r3, #1]	@ zero_extendqisi2
 2716 0110 5A01     		lsls	r2, r3, #5
 2717 0112 7B68     		ldr	r3, [r7, #4]
 2718 0114 1344     		add	r3, r3, r2
 2719 0116 03F5A063 		add	r3, r3, #1280
 2720 011a 1B68     		ldr	r3, [r3]
 2721 011c FB60     		str	r3, [r7, #12]
 2722              	.LVL214:
1311:Drivers/STM32F1xx_HAL_Driver/Src/stm32f1xx_ll_usb.c ****   tmpreg &= ~USB_OTG_HCCHAR_CHDIS;
 2723              		.loc 1 1311 0
 2724 011e FB68     		ldr	r3, [r7, #12]
 2725 0120 23F08043 		bic	r3, r3, #1073741824
 2726              	.LVL215:
 2727 0124 FB60     		str	r3, [r7, #12]
 2728              	.LVL216:
1312:Drivers/STM32F1xx_HAL_Driver/Src/stm32f1xx_ll_usb.c ****   tmpreg |= USB_OTG_HCCHAR_CHENA;
 2729              		.loc 1 1312 0
 2730 0126 FB68     		ldr	r3, [r7, #12]
 2731 0128 43F00043 		orr	r3, r3, #-2147483648
 2732              	.LVL217:
 2733 012c FB60     		str	r3, [r7, #12]
 2734              	.LVL218:
1313:Drivers/STM32F1xx_HAL_Driver/Src/stm32f1xx_ll_usb.c ****   USBx_HC(hc->ch_num)->HCCHAR = tmpreg;
 2735              		.loc 1 1313 0
 2736 012e 3B68     		ldr	r3, [r7]
 2737              	.LVL219:
 2738 0130 5B78     		ldrb	r3, [r3, #1]	@ zero_extendqisi2
 2739 0132 5A01     		lsls	r2, r3, #5
 2740 0134 7B68     		ldr	r3, [r7, #4]
 2741 0136 1344     		add	r3, r3, r2
 2742 0138 03F5A063 		add	r3, r3, #1280
 2743 013c 1A46     		mov	r2, r3
 2744 013e FB68     		ldr	r3, [r7, #12]
 2745 0140 1360     		str	r3, [r2]
1314:Drivers/STM32F1xx_HAL_Driver/Src/stm32f1xx_ll_usb.c ****   
1315:Drivers/STM32F1xx_HAL_Driver/Src/stm32f1xx_ll_usb.c ****   if((hc->ep_is_in == 0) && (hc->xfer_len > 0))
 2746              		.loc 1 1315 0
 2747 0142 3B68     		ldr	r3, [r7]
 2748 0144 DB78     		ldrb	r3, [r3, #3]	@ zero_extendqisi2
 2749 0146 002B     		cmp	r3, #0
 2750 0148 47D1     		bne	.L181
 2751              		.loc 1 1315 0 is_stmt 0 discriminator 1
 2752 014a 3B68     		ldr	r3, [r7]
 2753 014c 1B69     		ldr	r3, [r3, #16]
 2754 014e 002B     		cmp	r3, #0
 2755 0150 43D0     		beq	.L181
ARM GAS  /tmp/ccG7BdKF.s 			page 73


1316:Drivers/STM32F1xx_HAL_Driver/Src/stm32f1xx_ll_usb.c ****   {
1317:Drivers/STM32F1xx_HAL_Driver/Src/stm32f1xx_ll_usb.c ****     switch(hc->ep_type) 
 2756              		.loc 1 1317 0 is_stmt 1
 2757 0152 3B68     		ldr	r3, [r7]
 2758 0154 DB79     		ldrb	r3, [r3, #7]	@ zero_extendqisi2
 2759 0156 032B     		cmp	r3, #3
 2760 0158 30D8     		bhi	.L190
 2761 015a 01A2     		adr	r2, .L184
 2762 015c 52F823F0 		ldr	pc, [r2, r3, lsl #2]
 2763              		.p2align 2
 2764              	.L184:
 2765 0160 71010000 		.word	.L183+1
 2766 0164 95010000 		.word	.L185+1
 2767 0168 71010000 		.word	.L183+1
 2768 016c 95010000 		.word	.L185+1
 2769              		.p2align 1
 2770              	.L183:
1318:Drivers/STM32F1xx_HAL_Driver/Src/stm32f1xx_ll_usb.c ****     {
1319:Drivers/STM32F1xx_HAL_Driver/Src/stm32f1xx_ll_usb.c ****       /* Non periodic transfer */
1320:Drivers/STM32F1xx_HAL_Driver/Src/stm32f1xx_ll_usb.c ****     case EP_TYPE_CTRL:
1321:Drivers/STM32F1xx_HAL_Driver/Src/stm32f1xx_ll_usb.c ****     case EP_TYPE_BULK:
1322:Drivers/STM32F1xx_HAL_Driver/Src/stm32f1xx_ll_usb.c ****       len_words = (hc->xfer_len + 3) / 4;
 2771              		.loc 1 1322 0
 2772 0170 3B68     		ldr	r3, [r7]
 2773 0172 1B69     		ldr	r3, [r3, #16]
 2774 0174 0333     		adds	r3, r3, #3
 2775 0176 9B08     		lsrs	r3, r3, #2
 2776 0178 7B82     		strh	r3, [r7, #18]	@ movhi
 2777              	.LVL220:
1323:Drivers/STM32F1xx_HAL_Driver/Src/stm32f1xx_ll_usb.c ****       
1324:Drivers/STM32F1xx_HAL_Driver/Src/stm32f1xx_ll_usb.c ****       /* check if there is enough space in FIFO space */
1325:Drivers/STM32F1xx_HAL_Driver/Src/stm32f1xx_ll_usb.c ****       if(len_words > (USBx->HNPTXSTS & 0xFFFF))
 2778              		.loc 1 1325 0
 2779 017a 7A8A     		ldrh	r2, [r7, #18]
 2780 017c 7B68     		ldr	r3, [r7, #4]
 2781              	.LVL221:
 2782 017e DB6A     		ldr	r3, [r3, #44]
 2783 0180 9BB2     		uxth	r3, r3
 2784 0182 9A42     		cmp	r2, r3
 2785 0184 1CD9     		bls	.L191
1326:Drivers/STM32F1xx_HAL_Driver/Src/stm32f1xx_ll_usb.c ****       {
1327:Drivers/STM32F1xx_HAL_Driver/Src/stm32f1xx_ll_usb.c ****         /* need to process data in nptxfempty interrupt */
1328:Drivers/STM32F1xx_HAL_Driver/Src/stm32f1xx_ll_usb.c ****         USBx->GINTMSK |= USB_OTG_GINTMSK_NPTXFEM;
 2786              		.loc 1 1328 0
 2787 0186 7B68     		ldr	r3, [r7, #4]
 2788 0188 9B69     		ldr	r3, [r3, #24]
 2789 018a 43F02002 		orr	r2, r3, #32
 2790 018e 7B68     		ldr	r3, [r7, #4]
 2791 0190 9A61     		str	r2, [r3, #24]
1329:Drivers/STM32F1xx_HAL_Driver/Src/stm32f1xx_ll_usb.c ****       }
1330:Drivers/STM32F1xx_HAL_Driver/Src/stm32f1xx_ll_usb.c ****       break;
 2792              		.loc 1 1330 0
 2793 0192 15E0     		b	.L191
 2794              	.L185:
1331:Drivers/STM32F1xx_HAL_Driver/Src/stm32f1xx_ll_usb.c ****       
1332:Drivers/STM32F1xx_HAL_Driver/Src/stm32f1xx_ll_usb.c ****       /* Periodic transfer */
1333:Drivers/STM32F1xx_HAL_Driver/Src/stm32f1xx_ll_usb.c ****     case EP_TYPE_INTR:
ARM GAS  /tmp/ccG7BdKF.s 			page 74


1334:Drivers/STM32F1xx_HAL_Driver/Src/stm32f1xx_ll_usb.c ****     case EP_TYPE_ISOC:
1335:Drivers/STM32F1xx_HAL_Driver/Src/stm32f1xx_ll_usb.c ****       len_words = (hc->xfer_len + 3) / 4;
 2795              		.loc 1 1335 0
 2796 0194 3B68     		ldr	r3, [r7]
 2797 0196 1B69     		ldr	r3, [r3, #16]
 2798 0198 0333     		adds	r3, r3, #3
 2799 019a 9B08     		lsrs	r3, r3, #2
 2800 019c 7B82     		strh	r3, [r7, #18]	@ movhi
 2801              	.LVL222:
1336:Drivers/STM32F1xx_HAL_Driver/Src/stm32f1xx_ll_usb.c ****       /* check if there is enough space in FIFO space */
1337:Drivers/STM32F1xx_HAL_Driver/Src/stm32f1xx_ll_usb.c ****       if(len_words > (USBx_HOST->HPTXSTS & 0xFFFF)) /* split the transfer */
 2802              		.loc 1 1337 0
 2803 019e 7A8A     		ldrh	r2, [r7, #18]
 2804 01a0 7B68     		ldr	r3, [r7, #4]
 2805              	.LVL223:
 2806 01a2 03F58063 		add	r3, r3, #1024
 2807 01a6 1B69     		ldr	r3, [r3, #16]
 2808 01a8 9BB2     		uxth	r3, r3
 2809 01aa 9A42     		cmp	r2, r3
 2810 01ac 0AD9     		bls	.L192
1338:Drivers/STM32F1xx_HAL_Driver/Src/stm32f1xx_ll_usb.c ****       {
1339:Drivers/STM32F1xx_HAL_Driver/Src/stm32f1xx_ll_usb.c ****         /* need to process data in ptxfempty interrupt */
1340:Drivers/STM32F1xx_HAL_Driver/Src/stm32f1xx_ll_usb.c ****         USBx->GINTMSK |= USB_OTG_GINTMSK_PTXFEM;          
 2811              		.loc 1 1340 0
 2812 01ae 7B68     		ldr	r3, [r7, #4]
 2813 01b0 9B69     		ldr	r3, [r3, #24]
 2814 01b2 43F08062 		orr	r2, r3, #67108864
 2815 01b6 7B68     		ldr	r3, [r7, #4]
 2816 01b8 9A61     		str	r2, [r3, #24]
1341:Drivers/STM32F1xx_HAL_Driver/Src/stm32f1xx_ll_usb.c ****       }
1342:Drivers/STM32F1xx_HAL_Driver/Src/stm32f1xx_ll_usb.c ****       break;
 2817              		.loc 1 1342 0
 2818 01ba 03E0     		b	.L192
 2819              	.L190:
1343:Drivers/STM32F1xx_HAL_Driver/Src/stm32f1xx_ll_usb.c ****       
1344:Drivers/STM32F1xx_HAL_Driver/Src/stm32f1xx_ll_usb.c ****     default:
1345:Drivers/STM32F1xx_HAL_Driver/Src/stm32f1xx_ll_usb.c ****       break;
 2820              		.loc 1 1345 0
 2821 01bc 00BF     		nop
 2822 01be 02E0     		b	.L187
 2823              	.L191:
1330:Drivers/STM32F1xx_HAL_Driver/Src/stm32f1xx_ll_usb.c ****       
 2824              		.loc 1 1330 0
 2825 01c0 00BF     		nop
 2826 01c2 00E0     		b	.L187
 2827              	.L192:
1342:Drivers/STM32F1xx_HAL_Driver/Src/stm32f1xx_ll_usb.c ****       
 2828              		.loc 1 1342 0
 2829 01c4 00BF     		nop
 2830              	.L187:
1346:Drivers/STM32F1xx_HAL_Driver/Src/stm32f1xx_ll_usb.c ****     }
1347:Drivers/STM32F1xx_HAL_Driver/Src/stm32f1xx_ll_usb.c ****     
1348:Drivers/STM32F1xx_HAL_Driver/Src/stm32f1xx_ll_usb.c ****     /* Write packet into the Tx FIFO. */
1349:Drivers/STM32F1xx_HAL_Driver/Src/stm32f1xx_ll_usb.c ****     USB_WritePacket(USBx, hc->xfer_buff, hc->ch_num, hc->xfer_len);
 2831              		.loc 1 1349 0
 2832 01c6 3B68     		ldr	r3, [r7]
 2833 01c8 D968     		ldr	r1, [r3, #12]
ARM GAS  /tmp/ccG7BdKF.s 			page 75


 2834 01ca 3B68     		ldr	r3, [r7]
 2835 01cc 5A78     		ldrb	r2, [r3, #1]	@ zero_extendqisi2
 2836 01ce 3B68     		ldr	r3, [r7]
 2837 01d0 1B69     		ldr	r3, [r3, #16]
 2838 01d2 9BB2     		uxth	r3, r3
 2839 01d4 7868     		ldr	r0, [r7, #4]
 2840 01d6 FFF7FEFF 		bl	USB_WritePacket
 2841              	.LVL224:
 2842              	.L181:
1350:Drivers/STM32F1xx_HAL_Driver/Src/stm32f1xx_ll_usb.c ****   }
1351:Drivers/STM32F1xx_HAL_Driver/Src/stm32f1xx_ll_usb.c ****   
1352:Drivers/STM32F1xx_HAL_Driver/Src/stm32f1xx_ll_usb.c ****   return HAL_OK;
 2843              		.loc 1 1352 0
 2844 01da 0023     		movs	r3, #0
1353:Drivers/STM32F1xx_HAL_Driver/Src/stm32f1xx_ll_usb.c **** }
 2845              		.loc 1 1353 0
 2846 01dc 1846     		mov	r0, r3
 2847 01de 1837     		adds	r7, r7, #24
 2848              	.LCFI51:
 2849              		.cfi_def_cfa_offset 8
 2850 01e0 BD46     		mov	sp, r7
 2851              	.LCFI52:
 2852              		.cfi_def_cfa_register 13
 2853              	.LVL225:
 2854              		@ sp needed
 2855 01e2 80BD     		pop	{r7, pc}
 2856              	.LVL226:
 2857              	.L194:
 2858              		.align	2
 2859              	.L193:
 2860 01e4 0000F81F 		.word	536346624
 2861              		.cfi_endproc
 2862              	.LFE103:
 2864              		.section	.text.USB_HC_ReadInterrupt,"ax",%progbits
 2865              		.align	1
 2866              		.global	USB_HC_ReadInterrupt
 2867              		.syntax unified
 2868              		.thumb
 2869              		.thumb_func
 2870              		.fpu softvfp
 2872              	USB_HC_ReadInterrupt:
 2873              	.LFB104:
1354:Drivers/STM32F1xx_HAL_Driver/Src/stm32f1xx_ll_usb.c **** 
1355:Drivers/STM32F1xx_HAL_Driver/Src/stm32f1xx_ll_usb.c **** /**
1356:Drivers/STM32F1xx_HAL_Driver/Src/stm32f1xx_ll_usb.c ****   * @brief Read all host channel interrupts status
1357:Drivers/STM32F1xx_HAL_Driver/Src/stm32f1xx_ll_usb.c ****   * @param  USBx : Selected device
1358:Drivers/STM32F1xx_HAL_Driver/Src/stm32f1xx_ll_usb.c ****   * @retval HAL state
1359:Drivers/STM32F1xx_HAL_Driver/Src/stm32f1xx_ll_usb.c ****   */
1360:Drivers/STM32F1xx_HAL_Driver/Src/stm32f1xx_ll_usb.c **** uint32_t USB_HC_ReadInterrupt (USB_OTG_GlobalTypeDef *USBx)
1361:Drivers/STM32F1xx_HAL_Driver/Src/stm32f1xx_ll_usb.c **** {
 2874              		.loc 1 1361 0
 2875              		.cfi_startproc
 2876              		@ args = 0, pretend = 0, frame = 8
 2877              		@ frame_needed = 1, uses_anonymous_args = 0
 2878              		@ link register save eliminated.
 2879              	.LVL227:
 2880 0000 80B4     		push	{r7}
ARM GAS  /tmp/ccG7BdKF.s 			page 76


 2881              	.LCFI53:
 2882              		.cfi_def_cfa_offset 4
 2883              		.cfi_offset 7, -4
 2884 0002 83B0     		sub	sp, sp, #12
 2885              	.LCFI54:
 2886              		.cfi_def_cfa_offset 16
 2887 0004 00AF     		add	r7, sp, #0
 2888              	.LCFI55:
 2889              		.cfi_def_cfa_register 7
 2890 0006 7860     		str	r0, [r7, #4]
1362:Drivers/STM32F1xx_HAL_Driver/Src/stm32f1xx_ll_usb.c ****   /* Prevent unused argument(s) compilation warning */
1363:Drivers/STM32F1xx_HAL_Driver/Src/stm32f1xx_ll_usb.c ****   UNUSED(USBx);
1364:Drivers/STM32F1xx_HAL_Driver/Src/stm32f1xx_ll_usb.c **** 
1365:Drivers/STM32F1xx_HAL_Driver/Src/stm32f1xx_ll_usb.c ****   return ((USBx_HOST->HAINT) & 0xFFFF);
 2891              		.loc 1 1365 0
 2892 0008 7B68     		ldr	r3, [r7, #4]
 2893 000a 03F58063 		add	r3, r3, #1024
 2894 000e 5B69     		ldr	r3, [r3, #20]
 2895 0010 9BB2     		uxth	r3, r3
1366:Drivers/STM32F1xx_HAL_Driver/Src/stm32f1xx_ll_usb.c **** }
 2896              		.loc 1 1366 0
 2897 0012 1846     		mov	r0, r3
 2898              	.LVL228:
 2899 0014 0C37     		adds	r7, r7, #12
 2900              	.LCFI56:
 2901              		.cfi_def_cfa_offset 4
 2902              	.LVL229:
 2903 0016 BD46     		mov	sp, r7
 2904              	.LCFI57:
 2905              		.cfi_def_cfa_register 13
 2906              		@ sp needed
 2907 0018 80BC     		pop	{r7}
 2908              	.LCFI58:
 2909              		.cfi_restore 7
 2910              		.cfi_def_cfa_offset 0
 2911              	.LVL230:
 2912 001a 7047     		bx	lr
 2913              		.cfi_endproc
 2914              	.LFE104:
 2916              		.section	.text.USB_HC_Halt,"ax",%progbits
 2917              		.align	1
 2918              		.global	USB_HC_Halt
 2919              		.syntax unified
 2920              		.thumb
 2921              		.thumb_func
 2922              		.fpu softvfp
 2924              	USB_HC_Halt:
 2925              	.LFB105:
1367:Drivers/STM32F1xx_HAL_Driver/Src/stm32f1xx_ll_usb.c **** 
1368:Drivers/STM32F1xx_HAL_Driver/Src/stm32f1xx_ll_usb.c **** /**
1369:Drivers/STM32F1xx_HAL_Driver/Src/stm32f1xx_ll_usb.c ****   * @brief  Halt a host channel
1370:Drivers/STM32F1xx_HAL_Driver/Src/stm32f1xx_ll_usb.c ****   * @param  USBx : Selected device
1371:Drivers/STM32F1xx_HAL_Driver/Src/stm32f1xx_ll_usb.c ****   * @param  hc_num : Host Channel number
1372:Drivers/STM32F1xx_HAL_Driver/Src/stm32f1xx_ll_usb.c ****   *         This parameter can be a value from 1 to 15
1373:Drivers/STM32F1xx_HAL_Driver/Src/stm32f1xx_ll_usb.c ****   * @retval HAL state
1374:Drivers/STM32F1xx_HAL_Driver/Src/stm32f1xx_ll_usb.c ****   */
1375:Drivers/STM32F1xx_HAL_Driver/Src/stm32f1xx_ll_usb.c **** HAL_StatusTypeDef USB_HC_Halt(USB_OTG_GlobalTypeDef *USBx , uint8_t hc_num)
ARM GAS  /tmp/ccG7BdKF.s 			page 77


1376:Drivers/STM32F1xx_HAL_Driver/Src/stm32f1xx_ll_usb.c **** {
 2926              		.loc 1 1376 0
 2927              		.cfi_startproc
 2928              		@ args = 0, pretend = 0, frame = 16
 2929              		@ frame_needed = 1, uses_anonymous_args = 0
 2930              		@ link register save eliminated.
 2931              	.LVL231:
 2932 0000 80B4     		push	{r7}
 2933              	.LCFI59:
 2934              		.cfi_def_cfa_offset 4
 2935              		.cfi_offset 7, -4
 2936 0002 85B0     		sub	sp, sp, #20
 2937              	.LCFI60:
 2938              		.cfi_def_cfa_offset 24
 2939 0004 00AF     		add	r7, sp, #0
 2940              	.LCFI61:
 2941              		.cfi_def_cfa_register 7
 2942 0006 7860     		str	r0, [r7, #4]
 2943 0008 0B46     		mov	r3, r1
 2944 000a FB70     		strb	r3, [r7, #3]
1377:Drivers/STM32F1xx_HAL_Driver/Src/stm32f1xx_ll_usb.c ****   uint32_t count = 0;
 2945              		.loc 1 1377 0
 2946 000c 0023     		movs	r3, #0
 2947 000e FB60     		str	r3, [r7, #12]
 2948              	.LVL232:
1378:Drivers/STM32F1xx_HAL_Driver/Src/stm32f1xx_ll_usb.c ****   /* Prevent unused argument(s) compilation warning */
1379:Drivers/STM32F1xx_HAL_Driver/Src/stm32f1xx_ll_usb.c ****   UNUSED(USBx);
1380:Drivers/STM32F1xx_HAL_Driver/Src/stm32f1xx_ll_usb.c **** 
1381:Drivers/STM32F1xx_HAL_Driver/Src/stm32f1xx_ll_usb.c ****   /* Check for space in the request queue to issue the halt. */
1382:Drivers/STM32F1xx_HAL_Driver/Src/stm32f1xx_ll_usb.c ****   if (((((USBx_HC(hc_num)->HCCHAR) & USB_OTG_HCCHAR_EPTYP) >> 18) == HCCHAR_CTRL) ||
 2949              		.loc 1 1382 0
 2950 0010 FB78     		ldrb	r3, [r7, #3]	@ zero_extendqisi2
 2951              	.LVL233:
 2952 0012 5A01     		lsls	r2, r3, #5
 2953 0014 7B68     		ldr	r3, [r7, #4]
 2954 0016 1344     		add	r3, r3, r2
 2955 0018 03F5A063 		add	r3, r3, #1280
 2956 001c 1B68     		ldr	r3, [r3]
 2957 001e 9B0C     		lsrs	r3, r3, #18
 2958 0020 03F00303 		and	r3, r3, #3
 2959 0024 002B     		cmp	r3, #0
 2960 0026 0BD0     		beq	.L198
1383:Drivers/STM32F1xx_HAL_Driver/Src/stm32f1xx_ll_usb.c ****      (((((USBx_HC(hc_num)->HCCHAR) & USB_OTG_HCCHAR_EPTYP) >> 18) == HCCHAR_BULK)))
 2961              		.loc 1 1383 0 discriminator 1
 2962 0028 FB78     		ldrb	r3, [r7, #3]	@ zero_extendqisi2
 2963 002a 5A01     		lsls	r2, r3, #5
 2964 002c 7B68     		ldr	r3, [r7, #4]
 2965 002e 1344     		add	r3, r3, r2
 2966 0030 03F5A063 		add	r3, r3, #1280
 2967 0034 1B68     		ldr	r3, [r3]
 2968 0036 9B0C     		lsrs	r3, r3, #18
 2969 0038 03F00303 		and	r3, r3, #3
1382:Drivers/STM32F1xx_HAL_Driver/Src/stm32f1xx_ll_usb.c ****      (((((USBx_HC(hc_num)->HCCHAR) & USB_OTG_HCCHAR_EPTYP) >> 18) == HCCHAR_BULK)))
 2970              		.loc 1 1382 0 discriminator 1
 2971 003c 022B     		cmp	r3, #2
 2972 003e 6BD1     		bne	.L199
 2973              	.L198:
ARM GAS  /tmp/ccG7BdKF.s 			page 78


1384:Drivers/STM32F1xx_HAL_Driver/Src/stm32f1xx_ll_usb.c ****   {
1385:Drivers/STM32F1xx_HAL_Driver/Src/stm32f1xx_ll_usb.c ****     USBx_HC(hc_num)->HCCHAR |= USB_OTG_HCCHAR_CHDIS;
 2974              		.loc 1 1385 0
 2975 0040 FB78     		ldrb	r3, [r7, #3]	@ zero_extendqisi2
 2976 0042 5A01     		lsls	r2, r3, #5
 2977 0044 7B68     		ldr	r3, [r7, #4]
 2978 0046 1344     		add	r3, r3, r2
 2979 0048 03F5A063 		add	r3, r3, #1280
 2980 004c 1B68     		ldr	r3, [r3]
 2981 004e FA78     		ldrb	r2, [r7, #3]	@ zero_extendqisi2
 2982 0050 5101     		lsls	r1, r2, #5
 2983              	.LVL234:
 2984 0052 7A68     		ldr	r2, [r7, #4]
 2985 0054 0A44     		add	r2, r2, r1
 2986 0056 02F5A062 		add	r2, r2, #1280
 2987 005a 43F08043 		orr	r3, r3, #1073741824
 2988 005e 1360     		str	r3, [r2]
1386:Drivers/STM32F1xx_HAL_Driver/Src/stm32f1xx_ll_usb.c ****     
1387:Drivers/STM32F1xx_HAL_Driver/Src/stm32f1xx_ll_usb.c ****     if ((USBx->HNPTXSTS & 0xFFFF) == 0)
 2989              		.loc 1 1387 0
 2990 0060 7B68     		ldr	r3, [r7, #4]
 2991 0062 DB6A     		ldr	r3, [r3, #44]
 2992 0064 9BB2     		uxth	r3, r3
 2993 0066 002B     		cmp	r3, #0
 2994 0068 43D1     		bne	.L200
1388:Drivers/STM32F1xx_HAL_Driver/Src/stm32f1xx_ll_usb.c ****     {
1389:Drivers/STM32F1xx_HAL_Driver/Src/stm32f1xx_ll_usb.c ****       USBx_HC(hc_num)->HCCHAR &= ~USB_OTG_HCCHAR_CHENA;
 2995              		.loc 1 1389 0
 2996 006a FB78     		ldrb	r3, [r7, #3]	@ zero_extendqisi2
 2997 006c 5A01     		lsls	r2, r3, #5
 2998 006e 7B68     		ldr	r3, [r7, #4]
 2999 0070 1344     		add	r3, r3, r2
 3000 0072 03F5A063 		add	r3, r3, #1280
 3001 0076 1B68     		ldr	r3, [r3]
 3002 0078 FA78     		ldrb	r2, [r7, #3]	@ zero_extendqisi2
 3003 007a 5101     		lsls	r1, r2, #5
 3004 007c 7A68     		ldr	r2, [r7, #4]
 3005 007e 0A44     		add	r2, r2, r1
 3006 0080 02F5A062 		add	r2, r2, #1280
 3007 0084 23F00043 		bic	r3, r3, #-2147483648
 3008 0088 1360     		str	r3, [r2]
1390:Drivers/STM32F1xx_HAL_Driver/Src/stm32f1xx_ll_usb.c ****       USBx_HC(hc_num)->HCCHAR |= USB_OTG_HCCHAR_CHENA;
 3009              		.loc 1 1390 0
 3010 008a FB78     		ldrb	r3, [r7, #3]	@ zero_extendqisi2
 3011 008c 5A01     		lsls	r2, r3, #5
 3012 008e 7B68     		ldr	r3, [r7, #4]
