ARM GAS  /tmp/ccldPFyH.s 			page 1


   1              		.cpu cortex-m3
   2              		.eabi_attribute 20, 1
   3              		.eabi_attribute 21, 1
   4              		.eabi_attribute 23, 3
   5              		.eabi_attribute 24, 1
   6              		.eabi_attribute 25, 1
   7              		.eabi_attribute 26, 1
   8              		.eabi_attribute 30, 1
   9              		.eabi_attribute 34, 1
  10              		.eabi_attribute 18, 4
  11              		.file	"stm32f1xx_hal_hcd.c"
  12              		.text
  13              	.Ltext0:
  14              		.cfi_sections	.debug_frame
  15              		.section	.text.HCD_RXQLVL_IRQHandler,"ax",%progbits
  16              		.align	1
  17              		.arch armv7-m
  18              		.syntax unified
  19              		.thumb
  20              		.thumb_func
  21              		.fpu softvfp
  23              	HCD_RXQLVL_IRQHandler:
  24              	.LVL0:
  25              	.LFB91:
  26              		.file 1 "Drivers/STM32F1xx_HAL_Driver/Src/stm32f1xx_hal_hcd.c"
   1:Drivers/STM32F1xx_HAL_Driver/Src/stm32f1xx_hal_hcd.c **** /**
   2:Drivers/STM32F1xx_HAL_Driver/Src/stm32f1xx_hal_hcd.c ****   ******************************************************************************
   3:Drivers/STM32F1xx_HAL_Driver/Src/stm32f1xx_hal_hcd.c ****   * @file    stm32f1xx_hal_hcd.c
   4:Drivers/STM32F1xx_HAL_Driver/Src/stm32f1xx_hal_hcd.c ****   * @author  MCD Application Team
   5:Drivers/STM32F1xx_HAL_Driver/Src/stm32f1xx_hal_hcd.c ****   * @brief   HCD HAL module driver.
   6:Drivers/STM32F1xx_HAL_Driver/Src/stm32f1xx_hal_hcd.c ****   *          This file provides firmware functions to manage the following
   7:Drivers/STM32F1xx_HAL_Driver/Src/stm32f1xx_hal_hcd.c ****   *          functionalities of the USB Peripheral Controller:
   8:Drivers/STM32F1xx_HAL_Driver/Src/stm32f1xx_hal_hcd.c ****   *           + Initialization and de-initialization functions
   9:Drivers/STM32F1xx_HAL_Driver/Src/stm32f1xx_hal_hcd.c ****   *           + IO operation functions
  10:Drivers/STM32F1xx_HAL_Driver/Src/stm32f1xx_hal_hcd.c ****   *           + Peripheral Control functions
  11:Drivers/STM32F1xx_HAL_Driver/Src/stm32f1xx_hal_hcd.c ****   *           + Peripheral State functions
  12:Drivers/STM32F1xx_HAL_Driver/Src/stm32f1xx_hal_hcd.c ****   *
  13:Drivers/STM32F1xx_HAL_Driver/Src/stm32f1xx_hal_hcd.c ****   @verbatim
  14:Drivers/STM32F1xx_HAL_Driver/Src/stm32f1xx_hal_hcd.c ****   ==============================================================================
  15:Drivers/STM32F1xx_HAL_Driver/Src/stm32f1xx_hal_hcd.c ****                     ##### How to use this driver #####
  16:Drivers/STM32F1xx_HAL_Driver/Src/stm32f1xx_hal_hcd.c ****   ==============================================================================
  17:Drivers/STM32F1xx_HAL_Driver/Src/stm32f1xx_hal_hcd.c ****   [..]
  18:Drivers/STM32F1xx_HAL_Driver/Src/stm32f1xx_hal_hcd.c ****     (#)Declare a HCD_HandleTypeDef handle structure, for example:
  19:Drivers/STM32F1xx_HAL_Driver/Src/stm32f1xx_hal_hcd.c ****        HCD_HandleTypeDef  hhcd;
  20:Drivers/STM32F1xx_HAL_Driver/Src/stm32f1xx_hal_hcd.c **** 
  21:Drivers/STM32F1xx_HAL_Driver/Src/stm32f1xx_hal_hcd.c ****     (#)Fill parameters of Init structure in HCD handle
  22:Drivers/STM32F1xx_HAL_Driver/Src/stm32f1xx_hal_hcd.c **** 
  23:Drivers/STM32F1xx_HAL_Driver/Src/stm32f1xx_hal_hcd.c ****     (#)Call HAL_HCD_Init() API to initialize the HCD peripheral (Core, Host core, ...)
  24:Drivers/STM32F1xx_HAL_Driver/Src/stm32f1xx_hal_hcd.c **** 
  25:Drivers/STM32F1xx_HAL_Driver/Src/stm32f1xx_hal_hcd.c ****     (#)Initialize the HCD low level resources through the HAL_HCD_MspInit() API:
  26:Drivers/STM32F1xx_HAL_Driver/Src/stm32f1xx_hal_hcd.c ****         (##) Enable the HCD/USB Low Level interface clock using the following macros
  27:Drivers/STM32F1xx_HAL_Driver/Src/stm32f1xx_hal_hcd.c ****              (+++) __HAL_RCC_USB_OTG_FS_CLK_ENABLE();
  28:Drivers/STM32F1xx_HAL_Driver/Src/stm32f1xx_hal_hcd.c ****         (##) Initialize the related GPIO clocks
  29:Drivers/STM32F1xx_HAL_Driver/Src/stm32f1xx_hal_hcd.c ****         (##) Configure HCD pin-out
  30:Drivers/STM32F1xx_HAL_Driver/Src/stm32f1xx_hal_hcd.c ****         (##) Configure HCD NVIC interrupt
  31:Drivers/STM32F1xx_HAL_Driver/Src/stm32f1xx_hal_hcd.c **** 
  32:Drivers/STM32F1xx_HAL_Driver/Src/stm32f1xx_hal_hcd.c ****     (#)Associate the Upper USB Host stack to the HAL HCD Driver:
ARM GAS  /tmp/ccldPFyH.s 			page 2


  33:Drivers/STM32F1xx_HAL_Driver/Src/stm32f1xx_hal_hcd.c ****         (##) hhcd.pData = phost;
  34:Drivers/STM32F1xx_HAL_Driver/Src/stm32f1xx_hal_hcd.c **** 
  35:Drivers/STM32F1xx_HAL_Driver/Src/stm32f1xx_hal_hcd.c ****     (#)Enable HCD transmission and reception:
  36:Drivers/STM32F1xx_HAL_Driver/Src/stm32f1xx_hal_hcd.c ****         (##) HAL_HCD_Start();
  37:Drivers/STM32F1xx_HAL_Driver/Src/stm32f1xx_hal_hcd.c **** 
  38:Drivers/STM32F1xx_HAL_Driver/Src/stm32f1xx_hal_hcd.c ****   @endverbatim
  39:Drivers/STM32F1xx_HAL_Driver/Src/stm32f1xx_hal_hcd.c ****   ******************************************************************************
  40:Drivers/STM32F1xx_HAL_Driver/Src/stm32f1xx_hal_hcd.c ****   * @attention
  41:Drivers/STM32F1xx_HAL_Driver/Src/stm32f1xx_hal_hcd.c ****   *
  42:Drivers/STM32F1xx_HAL_Driver/Src/stm32f1xx_hal_hcd.c ****   * <h2><center>&copy; Copyright (c) 2016 STMicroelectronics.
  43:Drivers/STM32F1xx_HAL_Driver/Src/stm32f1xx_hal_hcd.c ****   * All rights reserved.</center></h2>
  44:Drivers/STM32F1xx_HAL_Driver/Src/stm32f1xx_hal_hcd.c ****   *
  45:Drivers/STM32F1xx_HAL_Driver/Src/stm32f1xx_hal_hcd.c ****   * This software component is licensed by ST under BSD 3-Clause license,
  46:Drivers/STM32F1xx_HAL_Driver/Src/stm32f1xx_hal_hcd.c ****   * the "License"; You may not use this file except in compliance with the
  47:Drivers/STM32F1xx_HAL_Driver/Src/stm32f1xx_hal_hcd.c ****   * License. You may obtain a copy of the License at:
  48:Drivers/STM32F1xx_HAL_Driver/Src/stm32f1xx_hal_hcd.c ****   *                        opensource.org/licenses/BSD-3-Clause
  49:Drivers/STM32F1xx_HAL_Driver/Src/stm32f1xx_hal_hcd.c ****   *
  50:Drivers/STM32F1xx_HAL_Driver/Src/stm32f1xx_hal_hcd.c ****   ******************************************************************************
  51:Drivers/STM32F1xx_HAL_Driver/Src/stm32f1xx_hal_hcd.c ****   */
  52:Drivers/STM32F1xx_HAL_Driver/Src/stm32f1xx_hal_hcd.c **** 
  53:Drivers/STM32F1xx_HAL_Driver/Src/stm32f1xx_hal_hcd.c **** /* Includes ------------------------------------------------------------------*/
  54:Drivers/STM32F1xx_HAL_Driver/Src/stm32f1xx_hal_hcd.c **** #include "stm32f1xx_hal.h"
  55:Drivers/STM32F1xx_HAL_Driver/Src/stm32f1xx_hal_hcd.c **** 
  56:Drivers/STM32F1xx_HAL_Driver/Src/stm32f1xx_hal_hcd.c **** /** @addtogroup STM32F1xx_HAL_Driver
  57:Drivers/STM32F1xx_HAL_Driver/Src/stm32f1xx_hal_hcd.c ****   * @{
  58:Drivers/STM32F1xx_HAL_Driver/Src/stm32f1xx_hal_hcd.c ****   */
  59:Drivers/STM32F1xx_HAL_Driver/Src/stm32f1xx_hal_hcd.c **** 
  60:Drivers/STM32F1xx_HAL_Driver/Src/stm32f1xx_hal_hcd.c **** #ifdef HAL_HCD_MODULE_ENABLED
  61:Drivers/STM32F1xx_HAL_Driver/Src/stm32f1xx_hal_hcd.c **** 
  62:Drivers/STM32F1xx_HAL_Driver/Src/stm32f1xx_hal_hcd.c **** #if defined (USB_OTG_FS)
  63:Drivers/STM32F1xx_HAL_Driver/Src/stm32f1xx_hal_hcd.c **** 
  64:Drivers/STM32F1xx_HAL_Driver/Src/stm32f1xx_hal_hcd.c **** /** @defgroup HCD HCD
  65:Drivers/STM32F1xx_HAL_Driver/Src/stm32f1xx_hal_hcd.c ****   * @brief HCD HAL module driver
  66:Drivers/STM32F1xx_HAL_Driver/Src/stm32f1xx_hal_hcd.c ****   * @{
  67:Drivers/STM32F1xx_HAL_Driver/Src/stm32f1xx_hal_hcd.c ****   */
  68:Drivers/STM32F1xx_HAL_Driver/Src/stm32f1xx_hal_hcd.c **** 
  69:Drivers/STM32F1xx_HAL_Driver/Src/stm32f1xx_hal_hcd.c **** /* Private typedef -----------------------------------------------------------*/
  70:Drivers/STM32F1xx_HAL_Driver/Src/stm32f1xx_hal_hcd.c **** /* Private define ------------------------------------------------------------*/
  71:Drivers/STM32F1xx_HAL_Driver/Src/stm32f1xx_hal_hcd.c **** /* Private macro -------------------------------------------------------------*/
  72:Drivers/STM32F1xx_HAL_Driver/Src/stm32f1xx_hal_hcd.c **** /* Private variables ---------------------------------------------------------*/
  73:Drivers/STM32F1xx_HAL_Driver/Src/stm32f1xx_hal_hcd.c **** /* Private function prototypes -----------------------------------------------*/
  74:Drivers/STM32F1xx_HAL_Driver/Src/stm32f1xx_hal_hcd.c **** /** @defgroup HCD_Private_Functions HCD Private Functions
  75:Drivers/STM32F1xx_HAL_Driver/Src/stm32f1xx_hal_hcd.c ****   * @{
  76:Drivers/STM32F1xx_HAL_Driver/Src/stm32f1xx_hal_hcd.c ****   */
  77:Drivers/STM32F1xx_HAL_Driver/Src/stm32f1xx_hal_hcd.c **** static void HCD_HC_IN_IRQHandler(HCD_HandleTypeDef *hhcd, uint8_t chnum);
  78:Drivers/STM32F1xx_HAL_Driver/Src/stm32f1xx_hal_hcd.c **** static void HCD_HC_OUT_IRQHandler(HCD_HandleTypeDef *hhcd, uint8_t chnum);
  79:Drivers/STM32F1xx_HAL_Driver/Src/stm32f1xx_hal_hcd.c **** static void HCD_RXQLVL_IRQHandler(HCD_HandleTypeDef *hhcd);
  80:Drivers/STM32F1xx_HAL_Driver/Src/stm32f1xx_hal_hcd.c **** static void HCD_Port_IRQHandler(HCD_HandleTypeDef *hhcd);
  81:Drivers/STM32F1xx_HAL_Driver/Src/stm32f1xx_hal_hcd.c **** /**
  82:Drivers/STM32F1xx_HAL_Driver/Src/stm32f1xx_hal_hcd.c ****   * @}
  83:Drivers/STM32F1xx_HAL_Driver/Src/stm32f1xx_hal_hcd.c ****   */
  84:Drivers/STM32F1xx_HAL_Driver/Src/stm32f1xx_hal_hcd.c **** 
  85:Drivers/STM32F1xx_HAL_Driver/Src/stm32f1xx_hal_hcd.c **** /* Exported functions --------------------------------------------------------*/
  86:Drivers/STM32F1xx_HAL_Driver/Src/stm32f1xx_hal_hcd.c **** /** @defgroup HCD_Exported_Functions HCD Exported Functions
  87:Drivers/STM32F1xx_HAL_Driver/Src/stm32f1xx_hal_hcd.c ****   * @{
  88:Drivers/STM32F1xx_HAL_Driver/Src/stm32f1xx_hal_hcd.c ****   */
  89:Drivers/STM32F1xx_HAL_Driver/Src/stm32f1xx_hal_hcd.c **** 
ARM GAS  /tmp/ccldPFyH.s 			page 3


  90:Drivers/STM32F1xx_HAL_Driver/Src/stm32f1xx_hal_hcd.c **** /** @defgroup HCD_Exported_Functions_Group1 Initialization and de-initialization functions
  91:Drivers/STM32F1xx_HAL_Driver/Src/stm32f1xx_hal_hcd.c ****   *  @brief    Initialization and Configuration functions
  92:Drivers/STM32F1xx_HAL_Driver/Src/stm32f1xx_hal_hcd.c ****   *
  93:Drivers/STM32F1xx_HAL_Driver/Src/stm32f1xx_hal_hcd.c **** @verbatim
  94:Drivers/STM32F1xx_HAL_Driver/Src/stm32f1xx_hal_hcd.c ****  ===============================================================================
  95:Drivers/STM32F1xx_HAL_Driver/Src/stm32f1xx_hal_hcd.c ****           ##### Initialization and de-initialization functions #####
  96:Drivers/STM32F1xx_HAL_Driver/Src/stm32f1xx_hal_hcd.c ****  ===============================================================================
  97:Drivers/STM32F1xx_HAL_Driver/Src/stm32f1xx_hal_hcd.c ****     [..]  This section provides functions allowing to:
  98:Drivers/STM32F1xx_HAL_Driver/Src/stm32f1xx_hal_hcd.c **** 
  99:Drivers/STM32F1xx_HAL_Driver/Src/stm32f1xx_hal_hcd.c **** @endverbatim
 100:Drivers/STM32F1xx_HAL_Driver/Src/stm32f1xx_hal_hcd.c ****   * @{
 101:Drivers/STM32F1xx_HAL_Driver/Src/stm32f1xx_hal_hcd.c ****   */
 102:Drivers/STM32F1xx_HAL_Driver/Src/stm32f1xx_hal_hcd.c **** 
 103:Drivers/STM32F1xx_HAL_Driver/Src/stm32f1xx_hal_hcd.c **** /**
 104:Drivers/STM32F1xx_HAL_Driver/Src/stm32f1xx_hal_hcd.c ****   * @brief  Initialize the host driver.
 105:Drivers/STM32F1xx_HAL_Driver/Src/stm32f1xx_hal_hcd.c ****   * @param  hhcd HCD handle
 106:Drivers/STM32F1xx_HAL_Driver/Src/stm32f1xx_hal_hcd.c ****   * @retval HAL status
 107:Drivers/STM32F1xx_HAL_Driver/Src/stm32f1xx_hal_hcd.c ****   */
 108:Drivers/STM32F1xx_HAL_Driver/Src/stm32f1xx_hal_hcd.c **** HAL_StatusTypeDef HAL_HCD_Init(HCD_HandleTypeDef *hhcd)
 109:Drivers/STM32F1xx_HAL_Driver/Src/stm32f1xx_hal_hcd.c **** {
 110:Drivers/STM32F1xx_HAL_Driver/Src/stm32f1xx_hal_hcd.c ****   USB_OTG_GlobalTypeDef *USBx;
 111:Drivers/STM32F1xx_HAL_Driver/Src/stm32f1xx_hal_hcd.c **** 
 112:Drivers/STM32F1xx_HAL_Driver/Src/stm32f1xx_hal_hcd.c ****   /* Check the HCD handle allocation */
 113:Drivers/STM32F1xx_HAL_Driver/Src/stm32f1xx_hal_hcd.c ****   if (hhcd == NULL)
 114:Drivers/STM32F1xx_HAL_Driver/Src/stm32f1xx_hal_hcd.c ****   {
 115:Drivers/STM32F1xx_HAL_Driver/Src/stm32f1xx_hal_hcd.c ****     return HAL_ERROR;
 116:Drivers/STM32F1xx_HAL_Driver/Src/stm32f1xx_hal_hcd.c ****   }
 117:Drivers/STM32F1xx_HAL_Driver/Src/stm32f1xx_hal_hcd.c **** 
 118:Drivers/STM32F1xx_HAL_Driver/Src/stm32f1xx_hal_hcd.c ****   /* Check the parameters */
 119:Drivers/STM32F1xx_HAL_Driver/Src/stm32f1xx_hal_hcd.c ****   assert_param(IS_HCD_ALL_INSTANCE(hhcd->Instance));
 120:Drivers/STM32F1xx_HAL_Driver/Src/stm32f1xx_hal_hcd.c **** 
 121:Drivers/STM32F1xx_HAL_Driver/Src/stm32f1xx_hal_hcd.c ****   USBx = hhcd->Instance;
 122:Drivers/STM32F1xx_HAL_Driver/Src/stm32f1xx_hal_hcd.c **** 
 123:Drivers/STM32F1xx_HAL_Driver/Src/stm32f1xx_hal_hcd.c ****   if (hhcd->State == HAL_HCD_STATE_RESET)
 124:Drivers/STM32F1xx_HAL_Driver/Src/stm32f1xx_hal_hcd.c ****   {
 125:Drivers/STM32F1xx_HAL_Driver/Src/stm32f1xx_hal_hcd.c ****     /* Allocate lock resource and initialize it */
 126:Drivers/STM32F1xx_HAL_Driver/Src/stm32f1xx_hal_hcd.c ****     hhcd->Lock = HAL_UNLOCKED;
 127:Drivers/STM32F1xx_HAL_Driver/Src/stm32f1xx_hal_hcd.c **** 
 128:Drivers/STM32F1xx_HAL_Driver/Src/stm32f1xx_hal_hcd.c **** #if (USE_HAL_HCD_REGISTER_CALLBACKS == 1U)
 129:Drivers/STM32F1xx_HAL_Driver/Src/stm32f1xx_hal_hcd.c ****     hhcd->SOFCallback = HAL_HCD_SOF_Callback;
 130:Drivers/STM32F1xx_HAL_Driver/Src/stm32f1xx_hal_hcd.c ****     hhcd->ConnectCallback = HAL_HCD_Connect_Callback;
 131:Drivers/STM32F1xx_HAL_Driver/Src/stm32f1xx_hal_hcd.c ****     hhcd->DisconnectCallback = HAL_HCD_Disconnect_Callback;
 132:Drivers/STM32F1xx_HAL_Driver/Src/stm32f1xx_hal_hcd.c ****     hhcd->PortEnabledCallback = HAL_HCD_PortEnabled_Callback;
 133:Drivers/STM32F1xx_HAL_Driver/Src/stm32f1xx_hal_hcd.c ****     hhcd->PortDisabledCallback = HAL_HCD_PortDisabled_Callback;
 134:Drivers/STM32F1xx_HAL_Driver/Src/stm32f1xx_hal_hcd.c ****     hhcd->HC_NotifyURBChangeCallback = HAL_HCD_HC_NotifyURBChange_Callback;
 135:Drivers/STM32F1xx_HAL_Driver/Src/stm32f1xx_hal_hcd.c **** 
 136:Drivers/STM32F1xx_HAL_Driver/Src/stm32f1xx_hal_hcd.c ****     if (hhcd->MspInitCallback == NULL)
 137:Drivers/STM32F1xx_HAL_Driver/Src/stm32f1xx_hal_hcd.c ****     {
 138:Drivers/STM32F1xx_HAL_Driver/Src/stm32f1xx_hal_hcd.c ****       hhcd->MspInitCallback = HAL_HCD_MspInit;
 139:Drivers/STM32F1xx_HAL_Driver/Src/stm32f1xx_hal_hcd.c ****     }
 140:Drivers/STM32F1xx_HAL_Driver/Src/stm32f1xx_hal_hcd.c **** 
 141:Drivers/STM32F1xx_HAL_Driver/Src/stm32f1xx_hal_hcd.c ****     /* Init the low level hardware */
 142:Drivers/STM32F1xx_HAL_Driver/Src/stm32f1xx_hal_hcd.c ****     hhcd->MspInitCallback(hhcd);
 143:Drivers/STM32F1xx_HAL_Driver/Src/stm32f1xx_hal_hcd.c **** #else
 144:Drivers/STM32F1xx_HAL_Driver/Src/stm32f1xx_hal_hcd.c ****     /* Init the low level hardware : GPIO, CLOCK, NVIC... */
 145:Drivers/STM32F1xx_HAL_Driver/Src/stm32f1xx_hal_hcd.c ****     HAL_HCD_MspInit(hhcd);
 146:Drivers/STM32F1xx_HAL_Driver/Src/stm32f1xx_hal_hcd.c **** #endif /* (USE_HAL_HCD_REGISTER_CALLBACKS) */
ARM GAS  /tmp/ccldPFyH.s 			page 4


 147:Drivers/STM32F1xx_HAL_Driver/Src/stm32f1xx_hal_hcd.c ****   }
 148:Drivers/STM32F1xx_HAL_Driver/Src/stm32f1xx_hal_hcd.c **** 
 149:Drivers/STM32F1xx_HAL_Driver/Src/stm32f1xx_hal_hcd.c ****   hhcd->State = HAL_HCD_STATE_BUSY;
 150:Drivers/STM32F1xx_HAL_Driver/Src/stm32f1xx_hal_hcd.c **** 
 151:Drivers/STM32F1xx_HAL_Driver/Src/stm32f1xx_hal_hcd.c ****   /* Disable DMA mode for FS instance */
 152:Drivers/STM32F1xx_HAL_Driver/Src/stm32f1xx_hal_hcd.c ****   if ((USBx->CID & (0x1U << 8)) == 0U)
 153:Drivers/STM32F1xx_HAL_Driver/Src/stm32f1xx_hal_hcd.c ****   {
 154:Drivers/STM32F1xx_HAL_Driver/Src/stm32f1xx_hal_hcd.c ****     hhcd->Init.dma_enable = 0U;
 155:Drivers/STM32F1xx_HAL_Driver/Src/stm32f1xx_hal_hcd.c ****   }
 156:Drivers/STM32F1xx_HAL_Driver/Src/stm32f1xx_hal_hcd.c **** 
 157:Drivers/STM32F1xx_HAL_Driver/Src/stm32f1xx_hal_hcd.c ****   /* Disable the Interrupts */
 158:Drivers/STM32F1xx_HAL_Driver/Src/stm32f1xx_hal_hcd.c ****   __HAL_HCD_DISABLE(hhcd);
 159:Drivers/STM32F1xx_HAL_Driver/Src/stm32f1xx_hal_hcd.c **** 
 160:Drivers/STM32F1xx_HAL_Driver/Src/stm32f1xx_hal_hcd.c ****   /* Init the Core (common init.) */
 161:Drivers/STM32F1xx_HAL_Driver/Src/stm32f1xx_hal_hcd.c ****   (void)USB_CoreInit(hhcd->Instance, hhcd->Init);
 162:Drivers/STM32F1xx_HAL_Driver/Src/stm32f1xx_hal_hcd.c **** 
 163:Drivers/STM32F1xx_HAL_Driver/Src/stm32f1xx_hal_hcd.c ****   /* Force Host Mode*/
 164:Drivers/STM32F1xx_HAL_Driver/Src/stm32f1xx_hal_hcd.c ****   (void)USB_SetCurrentMode(hhcd->Instance, USB_HOST_MODE);
 165:Drivers/STM32F1xx_HAL_Driver/Src/stm32f1xx_hal_hcd.c **** 
 166:Drivers/STM32F1xx_HAL_Driver/Src/stm32f1xx_hal_hcd.c ****   /* Init Host */
 167:Drivers/STM32F1xx_HAL_Driver/Src/stm32f1xx_hal_hcd.c ****   (void)USB_HostInit(hhcd->Instance, hhcd->Init);
 168:Drivers/STM32F1xx_HAL_Driver/Src/stm32f1xx_hal_hcd.c **** 
 169:Drivers/STM32F1xx_HAL_Driver/Src/stm32f1xx_hal_hcd.c ****   hhcd->State = HAL_HCD_STATE_READY;
 170:Drivers/STM32F1xx_HAL_Driver/Src/stm32f1xx_hal_hcd.c **** 
 171:Drivers/STM32F1xx_HAL_Driver/Src/stm32f1xx_hal_hcd.c ****   return HAL_OK;
 172:Drivers/STM32F1xx_HAL_Driver/Src/stm32f1xx_hal_hcd.c **** }
 173:Drivers/STM32F1xx_HAL_Driver/Src/stm32f1xx_hal_hcd.c **** 
 174:Drivers/STM32F1xx_HAL_Driver/Src/stm32f1xx_hal_hcd.c **** /**
 175:Drivers/STM32F1xx_HAL_Driver/Src/stm32f1xx_hal_hcd.c ****   * @brief  Initialize a host channel.
 176:Drivers/STM32F1xx_HAL_Driver/Src/stm32f1xx_hal_hcd.c ****   * @param  hhcd HCD handle
 177:Drivers/STM32F1xx_HAL_Driver/Src/stm32f1xx_hal_hcd.c ****   * @param  ch_num Channel number.
 178:Drivers/STM32F1xx_HAL_Driver/Src/stm32f1xx_hal_hcd.c ****   *         This parameter can be a value from 1 to 15
 179:Drivers/STM32F1xx_HAL_Driver/Src/stm32f1xx_hal_hcd.c ****   * @param  epnum Endpoint number.
 180:Drivers/STM32F1xx_HAL_Driver/Src/stm32f1xx_hal_hcd.c ****   *          This parameter can be a value from 1 to 15
 181:Drivers/STM32F1xx_HAL_Driver/Src/stm32f1xx_hal_hcd.c ****   * @param  dev_address Current device address
 182:Drivers/STM32F1xx_HAL_Driver/Src/stm32f1xx_hal_hcd.c ****   *          This parameter can be a value from 0 to 255
 183:Drivers/STM32F1xx_HAL_Driver/Src/stm32f1xx_hal_hcd.c ****   * @param  speed Current device speed.
 184:Drivers/STM32F1xx_HAL_Driver/Src/stm32f1xx_hal_hcd.c ****   *          This parameter can be one of these values:
 185:Drivers/STM32F1xx_HAL_Driver/Src/stm32f1xx_hal_hcd.c ****   *            HCD_SPEED_FULL: Full speed mode,
 186:Drivers/STM32F1xx_HAL_Driver/Src/stm32f1xx_hal_hcd.c ****   *            HCD_SPEED_LOW: Low speed mode
 187:Drivers/STM32F1xx_HAL_Driver/Src/stm32f1xx_hal_hcd.c ****   * @param  ep_type Endpoint Type.
 188:Drivers/STM32F1xx_HAL_Driver/Src/stm32f1xx_hal_hcd.c ****   *          This parameter can be one of these values:
 189:Drivers/STM32F1xx_HAL_Driver/Src/stm32f1xx_hal_hcd.c ****   *            EP_TYPE_CTRL: Control type,
 190:Drivers/STM32F1xx_HAL_Driver/Src/stm32f1xx_hal_hcd.c ****   *            EP_TYPE_ISOC: Isochronous type,
 191:Drivers/STM32F1xx_HAL_Driver/Src/stm32f1xx_hal_hcd.c ****   *            EP_TYPE_BULK: Bulk type,
 192:Drivers/STM32F1xx_HAL_Driver/Src/stm32f1xx_hal_hcd.c ****   *            EP_TYPE_INTR: Interrupt type
 193:Drivers/STM32F1xx_HAL_Driver/Src/stm32f1xx_hal_hcd.c ****   * @param  mps Max Packet Size.
 194:Drivers/STM32F1xx_HAL_Driver/Src/stm32f1xx_hal_hcd.c ****   *          This parameter can be a value from 0 to32K
 195:Drivers/STM32F1xx_HAL_Driver/Src/stm32f1xx_hal_hcd.c ****   * @retval HAL status
 196:Drivers/STM32F1xx_HAL_Driver/Src/stm32f1xx_hal_hcd.c ****   */
 197:Drivers/STM32F1xx_HAL_Driver/Src/stm32f1xx_hal_hcd.c **** HAL_StatusTypeDef HAL_HCD_HC_Init(HCD_HandleTypeDef *hhcd,
 198:Drivers/STM32F1xx_HAL_Driver/Src/stm32f1xx_hal_hcd.c ****                                   uint8_t ch_num,
 199:Drivers/STM32F1xx_HAL_Driver/Src/stm32f1xx_hal_hcd.c ****                                   uint8_t epnum,
 200:Drivers/STM32F1xx_HAL_Driver/Src/stm32f1xx_hal_hcd.c ****                                   uint8_t dev_address,
 201:Drivers/STM32F1xx_HAL_Driver/Src/stm32f1xx_hal_hcd.c ****                                   uint8_t speed,
 202:Drivers/STM32F1xx_HAL_Driver/Src/stm32f1xx_hal_hcd.c ****                                   uint8_t ep_type,
 203:Drivers/STM32F1xx_HAL_Driver/Src/stm32f1xx_hal_hcd.c ****                                   uint16_t mps)
ARM GAS  /tmp/ccldPFyH.s 			page 5


 204:Drivers/STM32F1xx_HAL_Driver/Src/stm32f1xx_hal_hcd.c **** {
 205:Drivers/STM32F1xx_HAL_Driver/Src/stm32f1xx_hal_hcd.c ****   HAL_StatusTypeDef status;
 206:Drivers/STM32F1xx_HAL_Driver/Src/stm32f1xx_hal_hcd.c **** 
 207:Drivers/STM32F1xx_HAL_Driver/Src/stm32f1xx_hal_hcd.c ****   __HAL_LOCK(hhcd);
 208:Drivers/STM32F1xx_HAL_Driver/Src/stm32f1xx_hal_hcd.c ****   hhcd->hc[ch_num].do_ping = 0U;
 209:Drivers/STM32F1xx_HAL_Driver/Src/stm32f1xx_hal_hcd.c ****   hhcd->hc[ch_num].dev_addr = dev_address;
 210:Drivers/STM32F1xx_HAL_Driver/Src/stm32f1xx_hal_hcd.c ****   hhcd->hc[ch_num].max_packet = mps;
 211:Drivers/STM32F1xx_HAL_Driver/Src/stm32f1xx_hal_hcd.c ****   hhcd->hc[ch_num].ch_num = ch_num;
 212:Drivers/STM32F1xx_HAL_Driver/Src/stm32f1xx_hal_hcd.c ****   hhcd->hc[ch_num].ep_type = ep_type;
 213:Drivers/STM32F1xx_HAL_Driver/Src/stm32f1xx_hal_hcd.c ****   hhcd->hc[ch_num].ep_num = epnum & 0x7FU;
 214:Drivers/STM32F1xx_HAL_Driver/Src/stm32f1xx_hal_hcd.c **** 
 215:Drivers/STM32F1xx_HAL_Driver/Src/stm32f1xx_hal_hcd.c ****   if ((epnum & 0x80U) == 0x80U)
 216:Drivers/STM32F1xx_HAL_Driver/Src/stm32f1xx_hal_hcd.c ****   {
 217:Drivers/STM32F1xx_HAL_Driver/Src/stm32f1xx_hal_hcd.c ****     hhcd->hc[ch_num].ep_is_in = 1U;
 218:Drivers/STM32F1xx_HAL_Driver/Src/stm32f1xx_hal_hcd.c ****   }
 219:Drivers/STM32F1xx_HAL_Driver/Src/stm32f1xx_hal_hcd.c ****   else
 220:Drivers/STM32F1xx_HAL_Driver/Src/stm32f1xx_hal_hcd.c ****   {
 221:Drivers/STM32F1xx_HAL_Driver/Src/stm32f1xx_hal_hcd.c ****     hhcd->hc[ch_num].ep_is_in = 0U;
 222:Drivers/STM32F1xx_HAL_Driver/Src/stm32f1xx_hal_hcd.c ****   }
 223:Drivers/STM32F1xx_HAL_Driver/Src/stm32f1xx_hal_hcd.c **** 
 224:Drivers/STM32F1xx_HAL_Driver/Src/stm32f1xx_hal_hcd.c ****   hhcd->hc[ch_num].speed = speed;
 225:Drivers/STM32F1xx_HAL_Driver/Src/stm32f1xx_hal_hcd.c **** 
 226:Drivers/STM32F1xx_HAL_Driver/Src/stm32f1xx_hal_hcd.c ****   status =  USB_HC_Init(hhcd->Instance,
 227:Drivers/STM32F1xx_HAL_Driver/Src/stm32f1xx_hal_hcd.c ****                         ch_num,
 228:Drivers/STM32F1xx_HAL_Driver/Src/stm32f1xx_hal_hcd.c ****                         epnum,
 229:Drivers/STM32F1xx_HAL_Driver/Src/stm32f1xx_hal_hcd.c ****                         dev_address,
 230:Drivers/STM32F1xx_HAL_Driver/Src/stm32f1xx_hal_hcd.c ****                         speed,
 231:Drivers/STM32F1xx_HAL_Driver/Src/stm32f1xx_hal_hcd.c ****                         ep_type,
 232:Drivers/STM32F1xx_HAL_Driver/Src/stm32f1xx_hal_hcd.c ****                         mps);
 233:Drivers/STM32F1xx_HAL_Driver/Src/stm32f1xx_hal_hcd.c ****   __HAL_UNLOCK(hhcd);
 234:Drivers/STM32F1xx_HAL_Driver/Src/stm32f1xx_hal_hcd.c **** 
 235:Drivers/STM32F1xx_HAL_Driver/Src/stm32f1xx_hal_hcd.c ****   return status;
 236:Drivers/STM32F1xx_HAL_Driver/Src/stm32f1xx_hal_hcd.c **** }
 237:Drivers/STM32F1xx_HAL_Driver/Src/stm32f1xx_hal_hcd.c **** 
 238:Drivers/STM32F1xx_HAL_Driver/Src/stm32f1xx_hal_hcd.c **** /**
 239:Drivers/STM32F1xx_HAL_Driver/Src/stm32f1xx_hal_hcd.c ****   * @brief  Halt a host channel.
 240:Drivers/STM32F1xx_HAL_Driver/Src/stm32f1xx_hal_hcd.c ****   * @param  hhcd HCD handle
 241:Drivers/STM32F1xx_HAL_Driver/Src/stm32f1xx_hal_hcd.c ****   * @param  ch_num Channel number.
 242:Drivers/STM32F1xx_HAL_Driver/Src/stm32f1xx_hal_hcd.c ****   *         This parameter can be a value from 1 to 15
 243:Drivers/STM32F1xx_HAL_Driver/Src/stm32f1xx_hal_hcd.c ****   * @retval HAL status
 244:Drivers/STM32F1xx_HAL_Driver/Src/stm32f1xx_hal_hcd.c ****   */
 245:Drivers/STM32F1xx_HAL_Driver/Src/stm32f1xx_hal_hcd.c **** HAL_StatusTypeDef HAL_HCD_HC_Halt(HCD_HandleTypeDef *hhcd, uint8_t ch_num)
 246:Drivers/STM32F1xx_HAL_Driver/Src/stm32f1xx_hal_hcd.c **** {
 247:Drivers/STM32F1xx_HAL_Driver/Src/stm32f1xx_hal_hcd.c ****   HAL_StatusTypeDef status = HAL_OK;
 248:Drivers/STM32F1xx_HAL_Driver/Src/stm32f1xx_hal_hcd.c **** 
 249:Drivers/STM32F1xx_HAL_Driver/Src/stm32f1xx_hal_hcd.c ****   __HAL_LOCK(hhcd);
 250:Drivers/STM32F1xx_HAL_Driver/Src/stm32f1xx_hal_hcd.c ****   (void)USB_HC_Halt(hhcd->Instance, (uint8_t)ch_num);
 251:Drivers/STM32F1xx_HAL_Driver/Src/stm32f1xx_hal_hcd.c ****   __HAL_UNLOCK(hhcd);
 252:Drivers/STM32F1xx_HAL_Driver/Src/stm32f1xx_hal_hcd.c **** 
 253:Drivers/STM32F1xx_HAL_Driver/Src/stm32f1xx_hal_hcd.c ****   return status;
 254:Drivers/STM32F1xx_HAL_Driver/Src/stm32f1xx_hal_hcd.c **** }
 255:Drivers/STM32F1xx_HAL_Driver/Src/stm32f1xx_hal_hcd.c **** 
 256:Drivers/STM32F1xx_HAL_Driver/Src/stm32f1xx_hal_hcd.c **** /**
 257:Drivers/STM32F1xx_HAL_Driver/Src/stm32f1xx_hal_hcd.c ****   * @brief  DeInitialize the host driver.
 258:Drivers/STM32F1xx_HAL_Driver/Src/stm32f1xx_hal_hcd.c ****   * @param  hhcd HCD handle
 259:Drivers/STM32F1xx_HAL_Driver/Src/stm32f1xx_hal_hcd.c ****   * @retval HAL status
 260:Drivers/STM32F1xx_HAL_Driver/Src/stm32f1xx_hal_hcd.c ****   */
ARM GAS  /tmp/ccldPFyH.s 			page 6


 261:Drivers/STM32F1xx_HAL_Driver/Src/stm32f1xx_hal_hcd.c **** HAL_StatusTypeDef HAL_HCD_DeInit(HCD_HandleTypeDef *hhcd)
 262:Drivers/STM32F1xx_HAL_Driver/Src/stm32f1xx_hal_hcd.c **** {
 263:Drivers/STM32F1xx_HAL_Driver/Src/stm32f1xx_hal_hcd.c ****   /* Check the HCD handle allocation */
 264:Drivers/STM32F1xx_HAL_Driver/Src/stm32f1xx_hal_hcd.c ****   if (hhcd == NULL)
 265:Drivers/STM32F1xx_HAL_Driver/Src/stm32f1xx_hal_hcd.c ****   {
 266:Drivers/STM32F1xx_HAL_Driver/Src/stm32f1xx_hal_hcd.c ****     return HAL_ERROR;
 267:Drivers/STM32F1xx_HAL_Driver/Src/stm32f1xx_hal_hcd.c ****   }
 268:Drivers/STM32F1xx_HAL_Driver/Src/stm32f1xx_hal_hcd.c **** 
 269:Drivers/STM32F1xx_HAL_Driver/Src/stm32f1xx_hal_hcd.c ****   hhcd->State = HAL_HCD_STATE_BUSY;
 270:Drivers/STM32F1xx_HAL_Driver/Src/stm32f1xx_hal_hcd.c **** 
 271:Drivers/STM32F1xx_HAL_Driver/Src/stm32f1xx_hal_hcd.c **** #if (USE_HAL_HCD_REGISTER_CALLBACKS == 1U)
 272:Drivers/STM32F1xx_HAL_Driver/Src/stm32f1xx_hal_hcd.c ****   if (hhcd->MspDeInitCallback == NULL)
 273:Drivers/STM32F1xx_HAL_Driver/Src/stm32f1xx_hal_hcd.c ****   {
 274:Drivers/STM32F1xx_HAL_Driver/Src/stm32f1xx_hal_hcd.c ****     hhcd->MspDeInitCallback = HAL_HCD_MspDeInit; /* Legacy weak MspDeInit  */
 275:Drivers/STM32F1xx_HAL_Driver/Src/stm32f1xx_hal_hcd.c ****   }
 276:Drivers/STM32F1xx_HAL_Driver/Src/stm32f1xx_hal_hcd.c **** 
 277:Drivers/STM32F1xx_HAL_Driver/Src/stm32f1xx_hal_hcd.c ****   /* DeInit the low level hardware */
 278:Drivers/STM32F1xx_HAL_Driver/Src/stm32f1xx_hal_hcd.c ****   hhcd->MspDeInitCallback(hhcd);
 279:Drivers/STM32F1xx_HAL_Driver/Src/stm32f1xx_hal_hcd.c **** #else
 280:Drivers/STM32F1xx_HAL_Driver/Src/stm32f1xx_hal_hcd.c ****   /* DeInit the low level hardware: CLOCK, NVIC.*/
 281:Drivers/STM32F1xx_HAL_Driver/Src/stm32f1xx_hal_hcd.c ****   HAL_HCD_MspDeInit(hhcd);
 282:Drivers/STM32F1xx_HAL_Driver/Src/stm32f1xx_hal_hcd.c **** #endif /* USE_HAL_HCD_REGISTER_CALLBACKS */
 283:Drivers/STM32F1xx_HAL_Driver/Src/stm32f1xx_hal_hcd.c **** 
 284:Drivers/STM32F1xx_HAL_Driver/Src/stm32f1xx_hal_hcd.c ****   __HAL_HCD_DISABLE(hhcd);
 285:Drivers/STM32F1xx_HAL_Driver/Src/stm32f1xx_hal_hcd.c **** 
 286:Drivers/STM32F1xx_HAL_Driver/Src/stm32f1xx_hal_hcd.c ****   hhcd->State = HAL_HCD_STATE_RESET;
 287:Drivers/STM32F1xx_HAL_Driver/Src/stm32f1xx_hal_hcd.c **** 
 288:Drivers/STM32F1xx_HAL_Driver/Src/stm32f1xx_hal_hcd.c ****   return HAL_OK;
 289:Drivers/STM32F1xx_HAL_Driver/Src/stm32f1xx_hal_hcd.c **** }
 290:Drivers/STM32F1xx_HAL_Driver/Src/stm32f1xx_hal_hcd.c **** 
 291:Drivers/STM32F1xx_HAL_Driver/Src/stm32f1xx_hal_hcd.c **** /**
 292:Drivers/STM32F1xx_HAL_Driver/Src/stm32f1xx_hal_hcd.c ****   * @brief  Initialize the HCD MSP.
 293:Drivers/STM32F1xx_HAL_Driver/Src/stm32f1xx_hal_hcd.c ****   * @param  hhcd HCD handle
 294:Drivers/STM32F1xx_HAL_Driver/Src/stm32f1xx_hal_hcd.c ****   * @retval None
 295:Drivers/STM32F1xx_HAL_Driver/Src/stm32f1xx_hal_hcd.c ****   */
 296:Drivers/STM32F1xx_HAL_Driver/Src/stm32f1xx_hal_hcd.c **** __weak void  HAL_HCD_MspInit(HCD_HandleTypeDef *hhcd)
 297:Drivers/STM32F1xx_HAL_Driver/Src/stm32f1xx_hal_hcd.c **** {
 298:Drivers/STM32F1xx_HAL_Driver/Src/stm32f1xx_hal_hcd.c ****   /* Prevent unused argument(s) compilation warning */
 299:Drivers/STM32F1xx_HAL_Driver/Src/stm32f1xx_hal_hcd.c ****   UNUSED(hhcd);
 300:Drivers/STM32F1xx_HAL_Driver/Src/stm32f1xx_hal_hcd.c **** 
 301:Drivers/STM32F1xx_HAL_Driver/Src/stm32f1xx_hal_hcd.c ****   /* NOTE : This function should not be modified, when the callback is needed,
 302:Drivers/STM32F1xx_HAL_Driver/Src/stm32f1xx_hal_hcd.c ****             the HAL_HCD_MspInit could be implemented in the user file
 303:Drivers/STM32F1xx_HAL_Driver/Src/stm32f1xx_hal_hcd.c ****    */
 304:Drivers/STM32F1xx_HAL_Driver/Src/stm32f1xx_hal_hcd.c **** }
 305:Drivers/STM32F1xx_HAL_Driver/Src/stm32f1xx_hal_hcd.c **** 
 306:Drivers/STM32F1xx_HAL_Driver/Src/stm32f1xx_hal_hcd.c **** /**
 307:Drivers/STM32F1xx_HAL_Driver/Src/stm32f1xx_hal_hcd.c ****   * @brief  DeInitialize the HCD MSP.
 308:Drivers/STM32F1xx_HAL_Driver/Src/stm32f1xx_hal_hcd.c ****   * @param  hhcd HCD handle
 309:Drivers/STM32F1xx_HAL_Driver/Src/stm32f1xx_hal_hcd.c ****   * @retval None
 310:Drivers/STM32F1xx_HAL_Driver/Src/stm32f1xx_hal_hcd.c ****   */
 311:Drivers/STM32F1xx_HAL_Driver/Src/stm32f1xx_hal_hcd.c **** __weak void  HAL_HCD_MspDeInit(HCD_HandleTypeDef *hhcd)
 312:Drivers/STM32F1xx_HAL_Driver/Src/stm32f1xx_hal_hcd.c **** {
 313:Drivers/STM32F1xx_HAL_Driver/Src/stm32f1xx_hal_hcd.c ****   /* Prevent unused argument(s) compilation warning */
 314:Drivers/STM32F1xx_HAL_Driver/Src/stm32f1xx_hal_hcd.c ****   UNUSED(hhcd);
 315:Drivers/STM32F1xx_HAL_Driver/Src/stm32f1xx_hal_hcd.c **** 
 316:Drivers/STM32F1xx_HAL_Driver/Src/stm32f1xx_hal_hcd.c ****   /* NOTE : This function should not be modified, when the callback is needed,
 317:Drivers/STM32F1xx_HAL_Driver/Src/stm32f1xx_hal_hcd.c ****             the HAL_HCD_MspDeInit could be implemented in the user file
ARM GAS  /tmp/ccldPFyH.s 			page 7


 318:Drivers/STM32F1xx_HAL_Driver/Src/stm32f1xx_hal_hcd.c ****    */
 319:Drivers/STM32F1xx_HAL_Driver/Src/stm32f1xx_hal_hcd.c **** }
 320:Drivers/STM32F1xx_HAL_Driver/Src/stm32f1xx_hal_hcd.c **** 
 321:Drivers/STM32F1xx_HAL_Driver/Src/stm32f1xx_hal_hcd.c **** /**
 322:Drivers/STM32F1xx_HAL_Driver/Src/stm32f1xx_hal_hcd.c ****   * @}
 323:Drivers/STM32F1xx_HAL_Driver/Src/stm32f1xx_hal_hcd.c ****   */
 324:Drivers/STM32F1xx_HAL_Driver/Src/stm32f1xx_hal_hcd.c **** 
 325:Drivers/STM32F1xx_HAL_Driver/Src/stm32f1xx_hal_hcd.c **** /** @defgroup HCD_Exported_Functions_Group2 Input and Output operation functions
 326:Drivers/STM32F1xx_HAL_Driver/Src/stm32f1xx_hal_hcd.c ****   *  @brief   HCD IO operation functions
 327:Drivers/STM32F1xx_HAL_Driver/Src/stm32f1xx_hal_hcd.c ****   *
 328:Drivers/STM32F1xx_HAL_Driver/Src/stm32f1xx_hal_hcd.c **** @verbatim
 329:Drivers/STM32F1xx_HAL_Driver/Src/stm32f1xx_hal_hcd.c ****  ===============================================================================
 330:Drivers/STM32F1xx_HAL_Driver/Src/stm32f1xx_hal_hcd.c ****                       ##### IO operation functions #####
 331:Drivers/STM32F1xx_HAL_Driver/Src/stm32f1xx_hal_hcd.c ****  ===============================================================================
 332:Drivers/STM32F1xx_HAL_Driver/Src/stm32f1xx_hal_hcd.c ****  [..] This subsection provides a set of functions allowing to manage the USB Host Data
 333:Drivers/STM32F1xx_HAL_Driver/Src/stm32f1xx_hal_hcd.c ****     Transfer
 334:Drivers/STM32F1xx_HAL_Driver/Src/stm32f1xx_hal_hcd.c **** 
 335:Drivers/STM32F1xx_HAL_Driver/Src/stm32f1xx_hal_hcd.c **** @endverbatim
 336:Drivers/STM32F1xx_HAL_Driver/Src/stm32f1xx_hal_hcd.c ****   * @{
 337:Drivers/STM32F1xx_HAL_Driver/Src/stm32f1xx_hal_hcd.c ****   */
 338:Drivers/STM32F1xx_HAL_Driver/Src/stm32f1xx_hal_hcd.c **** 
 339:Drivers/STM32F1xx_HAL_Driver/Src/stm32f1xx_hal_hcd.c **** /**
 340:Drivers/STM32F1xx_HAL_Driver/Src/stm32f1xx_hal_hcd.c ****   * @brief  Submit a new URB for processing.
 341:Drivers/STM32F1xx_HAL_Driver/Src/stm32f1xx_hal_hcd.c ****   * @param  hhcd HCD handle
 342:Drivers/STM32F1xx_HAL_Driver/Src/stm32f1xx_hal_hcd.c ****   * @param  ch_num Channel number.
 343:Drivers/STM32F1xx_HAL_Driver/Src/stm32f1xx_hal_hcd.c ****   *         This parameter can be a value from 1 to 15
 344:Drivers/STM32F1xx_HAL_Driver/Src/stm32f1xx_hal_hcd.c ****   * @param  direction Channel number.
 345:Drivers/STM32F1xx_HAL_Driver/Src/stm32f1xx_hal_hcd.c ****   *          This parameter can be one of these values:
 346:Drivers/STM32F1xx_HAL_Driver/Src/stm32f1xx_hal_hcd.c ****   *           0 : Output / 1 : Input
 347:Drivers/STM32F1xx_HAL_Driver/Src/stm32f1xx_hal_hcd.c ****   * @param  ep_type Endpoint Type.
 348:Drivers/STM32F1xx_HAL_Driver/Src/stm32f1xx_hal_hcd.c ****   *          This parameter can be one of these values:
 349:Drivers/STM32F1xx_HAL_Driver/Src/stm32f1xx_hal_hcd.c ****   *            EP_TYPE_CTRL: Control type/
 350:Drivers/STM32F1xx_HAL_Driver/Src/stm32f1xx_hal_hcd.c ****   *            EP_TYPE_ISOC: Isochronous type/
 351:Drivers/STM32F1xx_HAL_Driver/Src/stm32f1xx_hal_hcd.c ****   *            EP_TYPE_BULK: Bulk type/
 352:Drivers/STM32F1xx_HAL_Driver/Src/stm32f1xx_hal_hcd.c ****   *            EP_TYPE_INTR: Interrupt type/
 353:Drivers/STM32F1xx_HAL_Driver/Src/stm32f1xx_hal_hcd.c ****   * @param  token Endpoint Type.
 354:Drivers/STM32F1xx_HAL_Driver/Src/stm32f1xx_hal_hcd.c ****   *          This parameter can be one of these values:
 355:Drivers/STM32F1xx_HAL_Driver/Src/stm32f1xx_hal_hcd.c ****   *            0: HC_PID_SETUP / 1: HC_PID_DATA1
 356:Drivers/STM32F1xx_HAL_Driver/Src/stm32f1xx_hal_hcd.c ****   * @param  pbuff pointer to URB data
 357:Drivers/STM32F1xx_HAL_Driver/Src/stm32f1xx_hal_hcd.c ****   * @param  length Length of URB data
 358:Drivers/STM32F1xx_HAL_Driver/Src/stm32f1xx_hal_hcd.c ****   * @param  do_ping activate do ping protocol (for high speed only).
 359:Drivers/STM32F1xx_HAL_Driver/Src/stm32f1xx_hal_hcd.c ****   *          This parameter can be one of these values:
 360:Drivers/STM32F1xx_HAL_Driver/Src/stm32f1xx_hal_hcd.c ****   *           0 : do ping inactive / 1 : do ping active
 361:Drivers/STM32F1xx_HAL_Driver/Src/stm32f1xx_hal_hcd.c ****   * @retval HAL status
 362:Drivers/STM32F1xx_HAL_Driver/Src/stm32f1xx_hal_hcd.c ****   */
 363:Drivers/STM32F1xx_HAL_Driver/Src/stm32f1xx_hal_hcd.c **** HAL_StatusTypeDef HAL_HCD_HC_SubmitRequest(HCD_HandleTypeDef *hhcd,
 364:Drivers/STM32F1xx_HAL_Driver/Src/stm32f1xx_hal_hcd.c ****                                            uint8_t ch_num,
 365:Drivers/STM32F1xx_HAL_Driver/Src/stm32f1xx_hal_hcd.c ****                                            uint8_t direction,
 366:Drivers/STM32F1xx_HAL_Driver/Src/stm32f1xx_hal_hcd.c ****                                            uint8_t ep_type,
 367:Drivers/STM32F1xx_HAL_Driver/Src/stm32f1xx_hal_hcd.c ****                                            uint8_t token,
 368:Drivers/STM32F1xx_HAL_Driver/Src/stm32f1xx_hal_hcd.c ****                                            uint8_t *pbuff,
 369:Drivers/STM32F1xx_HAL_Driver/Src/stm32f1xx_hal_hcd.c ****                                            uint16_t length,
 370:Drivers/STM32F1xx_HAL_Driver/Src/stm32f1xx_hal_hcd.c ****                                            uint8_t do_ping)
 371:Drivers/STM32F1xx_HAL_Driver/Src/stm32f1xx_hal_hcd.c **** {
 372:Drivers/STM32F1xx_HAL_Driver/Src/stm32f1xx_hal_hcd.c ****   hhcd->hc[ch_num].ep_is_in = direction;
 373:Drivers/STM32F1xx_HAL_Driver/Src/stm32f1xx_hal_hcd.c ****   hhcd->hc[ch_num].ep_type  = ep_type;
 374:Drivers/STM32F1xx_HAL_Driver/Src/stm32f1xx_hal_hcd.c **** 
ARM GAS  /tmp/ccldPFyH.s 			page 8


 375:Drivers/STM32F1xx_HAL_Driver/Src/stm32f1xx_hal_hcd.c ****   if (token == 0U)
 376:Drivers/STM32F1xx_HAL_Driver/Src/stm32f1xx_hal_hcd.c ****   {
 377:Drivers/STM32F1xx_HAL_Driver/Src/stm32f1xx_hal_hcd.c ****     hhcd->hc[ch_num].data_pid = HC_PID_SETUP;
 378:Drivers/STM32F1xx_HAL_Driver/Src/stm32f1xx_hal_hcd.c ****     hhcd->hc[ch_num].do_ping = do_ping;
 379:Drivers/STM32F1xx_HAL_Driver/Src/stm32f1xx_hal_hcd.c ****   }
 380:Drivers/STM32F1xx_HAL_Driver/Src/stm32f1xx_hal_hcd.c ****   else
 381:Drivers/STM32F1xx_HAL_Driver/Src/stm32f1xx_hal_hcd.c ****   {
 382:Drivers/STM32F1xx_HAL_Driver/Src/stm32f1xx_hal_hcd.c ****     hhcd->hc[ch_num].data_pid = HC_PID_DATA1;
 383:Drivers/STM32F1xx_HAL_Driver/Src/stm32f1xx_hal_hcd.c ****   }
 384:Drivers/STM32F1xx_HAL_Driver/Src/stm32f1xx_hal_hcd.c **** 
 385:Drivers/STM32F1xx_HAL_Driver/Src/stm32f1xx_hal_hcd.c ****   /* Manage Data Toggle */
 386:Drivers/STM32F1xx_HAL_Driver/Src/stm32f1xx_hal_hcd.c ****   switch (ep_type)
 387:Drivers/STM32F1xx_HAL_Driver/Src/stm32f1xx_hal_hcd.c ****   {
 388:Drivers/STM32F1xx_HAL_Driver/Src/stm32f1xx_hal_hcd.c ****     case EP_TYPE_CTRL:
 389:Drivers/STM32F1xx_HAL_Driver/Src/stm32f1xx_hal_hcd.c ****       if ((token == 1U) && (direction == 0U)) /*send data */
 390:Drivers/STM32F1xx_HAL_Driver/Src/stm32f1xx_hal_hcd.c ****       {
 391:Drivers/STM32F1xx_HAL_Driver/Src/stm32f1xx_hal_hcd.c ****         if (length == 0U)
 392:Drivers/STM32F1xx_HAL_Driver/Src/stm32f1xx_hal_hcd.c ****         {
 393:Drivers/STM32F1xx_HAL_Driver/Src/stm32f1xx_hal_hcd.c ****           /* For Status OUT stage, Length==0, Status Out PID = 1 */
 394:Drivers/STM32F1xx_HAL_Driver/Src/stm32f1xx_hal_hcd.c ****           hhcd->hc[ch_num].toggle_out = 1U;
 395:Drivers/STM32F1xx_HAL_Driver/Src/stm32f1xx_hal_hcd.c ****         }
 396:Drivers/STM32F1xx_HAL_Driver/Src/stm32f1xx_hal_hcd.c **** 
 397:Drivers/STM32F1xx_HAL_Driver/Src/stm32f1xx_hal_hcd.c ****         /* Set the Data Toggle bit as per the Flag */
 398:Drivers/STM32F1xx_HAL_Driver/Src/stm32f1xx_hal_hcd.c ****         if (hhcd->hc[ch_num].toggle_out == 0U)
 399:Drivers/STM32F1xx_HAL_Driver/Src/stm32f1xx_hal_hcd.c ****         {
 400:Drivers/STM32F1xx_HAL_Driver/Src/stm32f1xx_hal_hcd.c ****           /* Put the PID 0 */
 401:Drivers/STM32F1xx_HAL_Driver/Src/stm32f1xx_hal_hcd.c ****           hhcd->hc[ch_num].data_pid = HC_PID_DATA0;
 402:Drivers/STM32F1xx_HAL_Driver/Src/stm32f1xx_hal_hcd.c ****         }
 403:Drivers/STM32F1xx_HAL_Driver/Src/stm32f1xx_hal_hcd.c ****         else
 404:Drivers/STM32F1xx_HAL_Driver/Src/stm32f1xx_hal_hcd.c ****         {
 405:Drivers/STM32F1xx_HAL_Driver/Src/stm32f1xx_hal_hcd.c ****           /* Put the PID 1 */
 406:Drivers/STM32F1xx_HAL_Driver/Src/stm32f1xx_hal_hcd.c ****           hhcd->hc[ch_num].data_pid = HC_PID_DATA1;
 407:Drivers/STM32F1xx_HAL_Driver/Src/stm32f1xx_hal_hcd.c ****         }
 408:Drivers/STM32F1xx_HAL_Driver/Src/stm32f1xx_hal_hcd.c ****       }
 409:Drivers/STM32F1xx_HAL_Driver/Src/stm32f1xx_hal_hcd.c ****       break;
 410:Drivers/STM32F1xx_HAL_Driver/Src/stm32f1xx_hal_hcd.c **** 
 411:Drivers/STM32F1xx_HAL_Driver/Src/stm32f1xx_hal_hcd.c ****     case EP_TYPE_BULK:
 412:Drivers/STM32F1xx_HAL_Driver/Src/stm32f1xx_hal_hcd.c ****       if (direction == 0U)
 413:Drivers/STM32F1xx_HAL_Driver/Src/stm32f1xx_hal_hcd.c ****       {
 414:Drivers/STM32F1xx_HAL_Driver/Src/stm32f1xx_hal_hcd.c ****         /* Set the Data Toggle bit as per the Flag */
 415:Drivers/STM32F1xx_HAL_Driver/Src/stm32f1xx_hal_hcd.c ****         if (hhcd->hc[ch_num].toggle_out == 0U)
 416:Drivers/STM32F1xx_HAL_Driver/Src/stm32f1xx_hal_hcd.c ****         {
 417:Drivers/STM32F1xx_HAL_Driver/Src/stm32f1xx_hal_hcd.c ****           /* Put the PID 0 */
 418:Drivers/STM32F1xx_HAL_Driver/Src/stm32f1xx_hal_hcd.c ****           hhcd->hc[ch_num].data_pid = HC_PID_DATA0;
 419:Drivers/STM32F1xx_HAL_Driver/Src/stm32f1xx_hal_hcd.c ****         }
 420:Drivers/STM32F1xx_HAL_Driver/Src/stm32f1xx_hal_hcd.c ****         else
 421:Drivers/STM32F1xx_HAL_Driver/Src/stm32f1xx_hal_hcd.c ****         {
 422:Drivers/STM32F1xx_HAL_Driver/Src/stm32f1xx_hal_hcd.c ****           /* Put the PID 1 */
 423:Drivers/STM32F1xx_HAL_Driver/Src/stm32f1xx_hal_hcd.c ****           hhcd->hc[ch_num].data_pid = HC_PID_DATA1;
 424:Drivers/STM32F1xx_HAL_Driver/Src/stm32f1xx_hal_hcd.c ****         }
 425:Drivers/STM32F1xx_HAL_Driver/Src/stm32f1xx_hal_hcd.c ****       }
 426:Drivers/STM32F1xx_HAL_Driver/Src/stm32f1xx_hal_hcd.c ****       else
 427:Drivers/STM32F1xx_HAL_Driver/Src/stm32f1xx_hal_hcd.c ****       {
 428:Drivers/STM32F1xx_HAL_Driver/Src/stm32f1xx_hal_hcd.c ****         if (hhcd->hc[ch_num].toggle_in == 0U)
 429:Drivers/STM32F1xx_HAL_Driver/Src/stm32f1xx_hal_hcd.c ****         {
 430:Drivers/STM32F1xx_HAL_Driver/Src/stm32f1xx_hal_hcd.c ****           hhcd->hc[ch_num].data_pid = HC_PID_DATA0;
 431:Drivers/STM32F1xx_HAL_Driver/Src/stm32f1xx_hal_hcd.c ****         }
ARM GAS  /tmp/ccldPFyH.s 			page 9


 432:Drivers/STM32F1xx_HAL_Driver/Src/stm32f1xx_hal_hcd.c ****         else
 433:Drivers/STM32F1xx_HAL_Driver/Src/stm32f1xx_hal_hcd.c ****         {
 434:Drivers/STM32F1xx_HAL_Driver/Src/stm32f1xx_hal_hcd.c ****           hhcd->hc[ch_num].data_pid = HC_PID_DATA1;
 435:Drivers/STM32F1xx_HAL_Driver/Src/stm32f1xx_hal_hcd.c ****         }
 436:Drivers/STM32F1xx_HAL_Driver/Src/stm32f1xx_hal_hcd.c ****       }
 437:Drivers/STM32F1xx_HAL_Driver/Src/stm32f1xx_hal_hcd.c **** 
 438:Drivers/STM32F1xx_HAL_Driver/Src/stm32f1xx_hal_hcd.c ****       break;
 439:Drivers/STM32F1xx_HAL_Driver/Src/stm32f1xx_hal_hcd.c ****     case EP_TYPE_INTR:
 440:Drivers/STM32F1xx_HAL_Driver/Src/stm32f1xx_hal_hcd.c ****       if (direction == 0U)
 441:Drivers/STM32F1xx_HAL_Driver/Src/stm32f1xx_hal_hcd.c ****       {
 442:Drivers/STM32F1xx_HAL_Driver/Src/stm32f1xx_hal_hcd.c ****         /* Set the Data Toggle bit as per the Flag */
 443:Drivers/STM32F1xx_HAL_Driver/Src/stm32f1xx_hal_hcd.c ****         if (hhcd->hc[ch_num].toggle_out == 0U)
 444:Drivers/STM32F1xx_HAL_Driver/Src/stm32f1xx_hal_hcd.c ****         {
 445:Drivers/STM32F1xx_HAL_Driver/Src/stm32f1xx_hal_hcd.c ****           /* Put the PID 0 */
 446:Drivers/STM32F1xx_HAL_Driver/Src/stm32f1xx_hal_hcd.c ****           hhcd->hc[ch_num].data_pid = HC_PID_DATA0;
 447:Drivers/STM32F1xx_HAL_Driver/Src/stm32f1xx_hal_hcd.c ****         }
 448:Drivers/STM32F1xx_HAL_Driver/Src/stm32f1xx_hal_hcd.c ****         else
 449:Drivers/STM32F1xx_HAL_Driver/Src/stm32f1xx_hal_hcd.c ****         {
 450:Drivers/STM32F1xx_HAL_Driver/Src/stm32f1xx_hal_hcd.c ****           /* Put the PID 1 */
 451:Drivers/STM32F1xx_HAL_Driver/Src/stm32f1xx_hal_hcd.c ****           hhcd->hc[ch_num].data_pid = HC_PID_DATA1;
 452:Drivers/STM32F1xx_HAL_Driver/Src/stm32f1xx_hal_hcd.c ****         }
 453:Drivers/STM32F1xx_HAL_Driver/Src/stm32f1xx_hal_hcd.c ****       }
 454:Drivers/STM32F1xx_HAL_Driver/Src/stm32f1xx_hal_hcd.c ****       else
 455:Drivers/STM32F1xx_HAL_Driver/Src/stm32f1xx_hal_hcd.c ****       {
 456:Drivers/STM32F1xx_HAL_Driver/Src/stm32f1xx_hal_hcd.c ****         if (hhcd->hc[ch_num].toggle_in == 0U)
 457:Drivers/STM32F1xx_HAL_Driver/Src/stm32f1xx_hal_hcd.c ****         {
 458:Drivers/STM32F1xx_HAL_Driver/Src/stm32f1xx_hal_hcd.c ****           hhcd->hc[ch_num].data_pid = HC_PID_DATA0;
 459:Drivers/STM32F1xx_HAL_Driver/Src/stm32f1xx_hal_hcd.c ****         }
 460:Drivers/STM32F1xx_HAL_Driver/Src/stm32f1xx_hal_hcd.c ****         else
 461:Drivers/STM32F1xx_HAL_Driver/Src/stm32f1xx_hal_hcd.c ****         {
 462:Drivers/STM32F1xx_HAL_Driver/Src/stm32f1xx_hal_hcd.c ****           hhcd->hc[ch_num].data_pid = HC_PID_DATA1;
 463:Drivers/STM32F1xx_HAL_Driver/Src/stm32f1xx_hal_hcd.c ****         }
 464:Drivers/STM32F1xx_HAL_Driver/Src/stm32f1xx_hal_hcd.c ****       }
 465:Drivers/STM32F1xx_HAL_Driver/Src/stm32f1xx_hal_hcd.c ****       break;
 466:Drivers/STM32F1xx_HAL_Driver/Src/stm32f1xx_hal_hcd.c **** 
 467:Drivers/STM32F1xx_HAL_Driver/Src/stm32f1xx_hal_hcd.c ****     case EP_TYPE_ISOC:
 468:Drivers/STM32F1xx_HAL_Driver/Src/stm32f1xx_hal_hcd.c ****       hhcd->hc[ch_num].data_pid = HC_PID_DATA0;
 469:Drivers/STM32F1xx_HAL_Driver/Src/stm32f1xx_hal_hcd.c ****       break;
 470:Drivers/STM32F1xx_HAL_Driver/Src/stm32f1xx_hal_hcd.c **** 
 471:Drivers/STM32F1xx_HAL_Driver/Src/stm32f1xx_hal_hcd.c ****     default:
 472:Drivers/STM32F1xx_HAL_Driver/Src/stm32f1xx_hal_hcd.c ****       break;
 473:Drivers/STM32F1xx_HAL_Driver/Src/stm32f1xx_hal_hcd.c ****   }
 474:Drivers/STM32F1xx_HAL_Driver/Src/stm32f1xx_hal_hcd.c **** 
 475:Drivers/STM32F1xx_HAL_Driver/Src/stm32f1xx_hal_hcd.c ****   hhcd->hc[ch_num].xfer_buff = pbuff;
 476:Drivers/STM32F1xx_HAL_Driver/Src/stm32f1xx_hal_hcd.c ****   hhcd->hc[ch_num].xfer_len  = length;
 477:Drivers/STM32F1xx_HAL_Driver/Src/stm32f1xx_hal_hcd.c ****   hhcd->hc[ch_num].urb_state = URB_IDLE;
 478:Drivers/STM32F1xx_HAL_Driver/Src/stm32f1xx_hal_hcd.c ****   hhcd->hc[ch_num].xfer_count = 0U;
 479:Drivers/STM32F1xx_HAL_Driver/Src/stm32f1xx_hal_hcd.c ****   hhcd->hc[ch_num].ch_num = ch_num;
 480:Drivers/STM32F1xx_HAL_Driver/Src/stm32f1xx_hal_hcd.c ****   hhcd->hc[ch_num].state = HC_IDLE;
 481:Drivers/STM32F1xx_HAL_Driver/Src/stm32f1xx_hal_hcd.c **** 
 482:Drivers/STM32F1xx_HAL_Driver/Src/stm32f1xx_hal_hcd.c ****   return USB_HC_StartXfer(hhcd->Instance, &hhcd->hc[ch_num]);
 483:Drivers/STM32F1xx_HAL_Driver/Src/stm32f1xx_hal_hcd.c **** }
 484:Drivers/STM32F1xx_HAL_Driver/Src/stm32f1xx_hal_hcd.c **** 
 485:Drivers/STM32F1xx_HAL_Driver/Src/stm32f1xx_hal_hcd.c **** /**
 486:Drivers/STM32F1xx_HAL_Driver/Src/stm32f1xx_hal_hcd.c ****   * @brief  Handle HCD interrupt request.
 487:Drivers/STM32F1xx_HAL_Driver/Src/stm32f1xx_hal_hcd.c ****   * @param  hhcd HCD handle
 488:Drivers/STM32F1xx_HAL_Driver/Src/stm32f1xx_hal_hcd.c ****   * @retval None
ARM GAS  /tmp/ccldPFyH.s 			page 10


 489:Drivers/STM32F1xx_HAL_Driver/Src/stm32f1xx_hal_hcd.c ****   */
 490:Drivers/STM32F1xx_HAL_Driver/Src/stm32f1xx_hal_hcd.c **** void HAL_HCD_IRQHandler(HCD_HandleTypeDef *hhcd)
 491:Drivers/STM32F1xx_HAL_Driver/Src/stm32f1xx_hal_hcd.c **** {
 492:Drivers/STM32F1xx_HAL_Driver/Src/stm32f1xx_hal_hcd.c ****   USB_OTG_GlobalTypeDef *USBx = hhcd->Instance;
 493:Drivers/STM32F1xx_HAL_Driver/Src/stm32f1xx_hal_hcd.c ****   uint32_t USBx_BASE = (uint32_t)USBx;
 494:Drivers/STM32F1xx_HAL_Driver/Src/stm32f1xx_hal_hcd.c ****   uint32_t i, interrupt;
 495:Drivers/STM32F1xx_HAL_Driver/Src/stm32f1xx_hal_hcd.c **** 
 496:Drivers/STM32F1xx_HAL_Driver/Src/stm32f1xx_hal_hcd.c ****   /* Ensure that we are in device mode */
 497:Drivers/STM32F1xx_HAL_Driver/Src/stm32f1xx_hal_hcd.c ****   if (USB_GetMode(hhcd->Instance) == USB_OTG_MODE_HOST)
 498:Drivers/STM32F1xx_HAL_Driver/Src/stm32f1xx_hal_hcd.c ****   {
 499:Drivers/STM32F1xx_HAL_Driver/Src/stm32f1xx_hal_hcd.c ****     /* Avoid spurious interrupt */
 500:Drivers/STM32F1xx_HAL_Driver/Src/stm32f1xx_hal_hcd.c ****     if (__HAL_HCD_IS_INVALID_INTERRUPT(hhcd))
 501:Drivers/STM32F1xx_HAL_Driver/Src/stm32f1xx_hal_hcd.c ****     {
 502:Drivers/STM32F1xx_HAL_Driver/Src/stm32f1xx_hal_hcd.c ****       return;
 503:Drivers/STM32F1xx_HAL_Driver/Src/stm32f1xx_hal_hcd.c ****     }
 504:Drivers/STM32F1xx_HAL_Driver/Src/stm32f1xx_hal_hcd.c **** 
 505:Drivers/STM32F1xx_HAL_Driver/Src/stm32f1xx_hal_hcd.c ****     if (__HAL_HCD_GET_FLAG(hhcd, USB_OTG_GINTSTS_PXFR_INCOMPISOOUT))
 506:Drivers/STM32F1xx_HAL_Driver/Src/stm32f1xx_hal_hcd.c ****     {
 507:Drivers/STM32F1xx_HAL_Driver/Src/stm32f1xx_hal_hcd.c ****       /* Incorrect mode, acknowledge the interrupt */
 508:Drivers/STM32F1xx_HAL_Driver/Src/stm32f1xx_hal_hcd.c ****       __HAL_HCD_CLEAR_FLAG(hhcd, USB_OTG_GINTSTS_PXFR_INCOMPISOOUT);
 509:Drivers/STM32F1xx_HAL_Driver/Src/stm32f1xx_hal_hcd.c ****     }
 510:Drivers/STM32F1xx_HAL_Driver/Src/stm32f1xx_hal_hcd.c **** 
 511:Drivers/STM32F1xx_HAL_Driver/Src/stm32f1xx_hal_hcd.c ****     if (__HAL_HCD_GET_FLAG(hhcd, USB_OTG_GINTSTS_IISOIXFR))
 512:Drivers/STM32F1xx_HAL_Driver/Src/stm32f1xx_hal_hcd.c ****     {
 513:Drivers/STM32F1xx_HAL_Driver/Src/stm32f1xx_hal_hcd.c ****       /* Incorrect mode, acknowledge the interrupt */
 514:Drivers/STM32F1xx_HAL_Driver/Src/stm32f1xx_hal_hcd.c ****       __HAL_HCD_CLEAR_FLAG(hhcd, USB_OTG_GINTSTS_IISOIXFR);
 515:Drivers/STM32F1xx_HAL_Driver/Src/stm32f1xx_hal_hcd.c ****     }
 516:Drivers/STM32F1xx_HAL_Driver/Src/stm32f1xx_hal_hcd.c **** 
 517:Drivers/STM32F1xx_HAL_Driver/Src/stm32f1xx_hal_hcd.c ****     if (__HAL_HCD_GET_FLAG(hhcd, USB_OTG_GINTSTS_PTXFE))
 518:Drivers/STM32F1xx_HAL_Driver/Src/stm32f1xx_hal_hcd.c ****     {
 519:Drivers/STM32F1xx_HAL_Driver/Src/stm32f1xx_hal_hcd.c ****       /* Incorrect mode, acknowledge the interrupt */
 520:Drivers/STM32F1xx_HAL_Driver/Src/stm32f1xx_hal_hcd.c ****       __HAL_HCD_CLEAR_FLAG(hhcd, USB_OTG_GINTSTS_PTXFE);
 521:Drivers/STM32F1xx_HAL_Driver/Src/stm32f1xx_hal_hcd.c ****     }
 522:Drivers/STM32F1xx_HAL_Driver/Src/stm32f1xx_hal_hcd.c **** 
 523:Drivers/STM32F1xx_HAL_Driver/Src/stm32f1xx_hal_hcd.c ****     if (__HAL_HCD_GET_FLAG(hhcd, USB_OTG_GINTSTS_MMIS))
 524:Drivers/STM32F1xx_HAL_Driver/Src/stm32f1xx_hal_hcd.c ****     {
 525:Drivers/STM32F1xx_HAL_Driver/Src/stm32f1xx_hal_hcd.c ****       /* Incorrect mode, acknowledge the interrupt */
 526:Drivers/STM32F1xx_HAL_Driver/Src/stm32f1xx_hal_hcd.c ****       __HAL_HCD_CLEAR_FLAG(hhcd, USB_OTG_GINTSTS_MMIS);
 527:Drivers/STM32F1xx_HAL_Driver/Src/stm32f1xx_hal_hcd.c ****     }
 528:Drivers/STM32F1xx_HAL_Driver/Src/stm32f1xx_hal_hcd.c **** 
 529:Drivers/STM32F1xx_HAL_Driver/Src/stm32f1xx_hal_hcd.c ****     /* Handle Host Disconnect Interrupts */
 530:Drivers/STM32F1xx_HAL_Driver/Src/stm32f1xx_hal_hcd.c ****     if (__HAL_HCD_GET_FLAG(hhcd, USB_OTG_GINTSTS_DISCINT))
 531:Drivers/STM32F1xx_HAL_Driver/Src/stm32f1xx_hal_hcd.c ****     {
 532:Drivers/STM32F1xx_HAL_Driver/Src/stm32f1xx_hal_hcd.c ****       __HAL_HCD_CLEAR_FLAG(hhcd, USB_OTG_GINTSTS_DISCINT);
 533:Drivers/STM32F1xx_HAL_Driver/Src/stm32f1xx_hal_hcd.c **** 
 534:Drivers/STM32F1xx_HAL_Driver/Src/stm32f1xx_hal_hcd.c ****       if ((USBx_HPRT0 & USB_OTG_HPRT_PCSTS) == 0U)
 535:Drivers/STM32F1xx_HAL_Driver/Src/stm32f1xx_hal_hcd.c ****       {
 536:Drivers/STM32F1xx_HAL_Driver/Src/stm32f1xx_hal_hcd.c ****         /* Handle Host Port Disconnect Interrupt */
 537:Drivers/STM32F1xx_HAL_Driver/Src/stm32f1xx_hal_hcd.c **** #if (USE_HAL_HCD_REGISTER_CALLBACKS == 1U)
 538:Drivers/STM32F1xx_HAL_Driver/Src/stm32f1xx_hal_hcd.c ****         hhcd->DisconnectCallback(hhcd);
 539:Drivers/STM32F1xx_HAL_Driver/Src/stm32f1xx_hal_hcd.c **** #else
 540:Drivers/STM32F1xx_HAL_Driver/Src/stm32f1xx_hal_hcd.c ****         HAL_HCD_Disconnect_Callback(hhcd);
 541:Drivers/STM32F1xx_HAL_Driver/Src/stm32f1xx_hal_hcd.c **** #endif /* USE_HAL_HCD_REGISTER_CALLBACKS */
 542:Drivers/STM32F1xx_HAL_Driver/Src/stm32f1xx_hal_hcd.c **** 
 543:Drivers/STM32F1xx_HAL_Driver/Src/stm32f1xx_hal_hcd.c ****         (void)USB_InitFSLSPClkSel(hhcd->Instance, HCFG_48_MHZ);
 544:Drivers/STM32F1xx_HAL_Driver/Src/stm32f1xx_hal_hcd.c ****       }
 545:Drivers/STM32F1xx_HAL_Driver/Src/stm32f1xx_hal_hcd.c ****     }
ARM GAS  /tmp/ccldPFyH.s 			page 11


 546:Drivers/STM32F1xx_HAL_Driver/Src/stm32f1xx_hal_hcd.c **** 
 547:Drivers/STM32F1xx_HAL_Driver/Src/stm32f1xx_hal_hcd.c ****     /* Handle Host Port Interrupts */
 548:Drivers/STM32F1xx_HAL_Driver/Src/stm32f1xx_hal_hcd.c ****     if (__HAL_HCD_GET_FLAG(hhcd, USB_OTG_GINTSTS_HPRTINT))
 549:Drivers/STM32F1xx_HAL_Driver/Src/stm32f1xx_hal_hcd.c ****     {
 550:Drivers/STM32F1xx_HAL_Driver/Src/stm32f1xx_hal_hcd.c ****       HCD_Port_IRQHandler(hhcd);
 551:Drivers/STM32F1xx_HAL_Driver/Src/stm32f1xx_hal_hcd.c ****     }
 552:Drivers/STM32F1xx_HAL_Driver/Src/stm32f1xx_hal_hcd.c **** 
 553:Drivers/STM32F1xx_HAL_Driver/Src/stm32f1xx_hal_hcd.c ****     /* Handle Host SOF Interrupt */
 554:Drivers/STM32F1xx_HAL_Driver/Src/stm32f1xx_hal_hcd.c ****     if (__HAL_HCD_GET_FLAG(hhcd, USB_OTG_GINTSTS_SOF))
 555:Drivers/STM32F1xx_HAL_Driver/Src/stm32f1xx_hal_hcd.c ****     {
 556:Drivers/STM32F1xx_HAL_Driver/Src/stm32f1xx_hal_hcd.c **** #if (USE_HAL_HCD_REGISTER_CALLBACKS == 1U)
 557:Drivers/STM32F1xx_HAL_Driver/Src/stm32f1xx_hal_hcd.c ****       hhcd->SOFCallback(hhcd);
 558:Drivers/STM32F1xx_HAL_Driver/Src/stm32f1xx_hal_hcd.c **** #else
 559:Drivers/STM32F1xx_HAL_Driver/Src/stm32f1xx_hal_hcd.c ****       HAL_HCD_SOF_Callback(hhcd);
 560:Drivers/STM32F1xx_HAL_Driver/Src/stm32f1xx_hal_hcd.c **** #endif /* USE_HAL_HCD_REGISTER_CALLBACKS */
 561:Drivers/STM32F1xx_HAL_Driver/Src/stm32f1xx_hal_hcd.c **** 
 562:Drivers/STM32F1xx_HAL_Driver/Src/stm32f1xx_hal_hcd.c ****       __HAL_HCD_CLEAR_FLAG(hhcd, USB_OTG_GINTSTS_SOF);
 563:Drivers/STM32F1xx_HAL_Driver/Src/stm32f1xx_hal_hcd.c ****     }
 564:Drivers/STM32F1xx_HAL_Driver/Src/stm32f1xx_hal_hcd.c **** 
 565:Drivers/STM32F1xx_HAL_Driver/Src/stm32f1xx_hal_hcd.c ****     /* Handle Host channel Interrupt */
 566:Drivers/STM32F1xx_HAL_Driver/Src/stm32f1xx_hal_hcd.c ****     if (__HAL_HCD_GET_FLAG(hhcd, USB_OTG_GINTSTS_HCINT))
 567:Drivers/STM32F1xx_HAL_Driver/Src/stm32f1xx_hal_hcd.c ****     {
 568:Drivers/STM32F1xx_HAL_Driver/Src/stm32f1xx_hal_hcd.c ****       interrupt = USB_HC_ReadInterrupt(hhcd->Instance);
 569:Drivers/STM32F1xx_HAL_Driver/Src/stm32f1xx_hal_hcd.c ****       for (i = 0U; i < hhcd->Init.Host_channels; i++)
 570:Drivers/STM32F1xx_HAL_Driver/Src/stm32f1xx_hal_hcd.c ****       {
 571:Drivers/STM32F1xx_HAL_Driver/Src/stm32f1xx_hal_hcd.c ****         if ((interrupt & (1UL << (i & 0xFU))) != 0U)
 572:Drivers/STM32F1xx_HAL_Driver/Src/stm32f1xx_hal_hcd.c ****         {
 573:Drivers/STM32F1xx_HAL_Driver/Src/stm32f1xx_hal_hcd.c ****           if ((USBx_HC(i)->HCCHAR & USB_OTG_HCCHAR_EPDIR) == USB_OTG_HCCHAR_EPDIR)
 574:Drivers/STM32F1xx_HAL_Driver/Src/stm32f1xx_hal_hcd.c ****           {
 575:Drivers/STM32F1xx_HAL_Driver/Src/stm32f1xx_hal_hcd.c ****             HCD_HC_IN_IRQHandler(hhcd, (uint8_t)i);
 576:Drivers/STM32F1xx_HAL_Driver/Src/stm32f1xx_hal_hcd.c ****           }
 577:Drivers/STM32F1xx_HAL_Driver/Src/stm32f1xx_hal_hcd.c ****           else
 578:Drivers/STM32F1xx_HAL_Driver/Src/stm32f1xx_hal_hcd.c ****           {
 579:Drivers/STM32F1xx_HAL_Driver/Src/stm32f1xx_hal_hcd.c ****             HCD_HC_OUT_IRQHandler(hhcd, (uint8_t)i);
 580:Drivers/STM32F1xx_HAL_Driver/Src/stm32f1xx_hal_hcd.c ****           }
 581:Drivers/STM32F1xx_HAL_Driver/Src/stm32f1xx_hal_hcd.c ****         }
 582:Drivers/STM32F1xx_HAL_Driver/Src/stm32f1xx_hal_hcd.c ****       }
 583:Drivers/STM32F1xx_HAL_Driver/Src/stm32f1xx_hal_hcd.c ****       __HAL_HCD_CLEAR_FLAG(hhcd, USB_OTG_GINTSTS_HCINT);
 584:Drivers/STM32F1xx_HAL_Driver/Src/stm32f1xx_hal_hcd.c ****     }
 585:Drivers/STM32F1xx_HAL_Driver/Src/stm32f1xx_hal_hcd.c **** 
 586:Drivers/STM32F1xx_HAL_Driver/Src/stm32f1xx_hal_hcd.c ****     /* Handle Rx Queue Level Interrupts */
 587:Drivers/STM32F1xx_HAL_Driver/Src/stm32f1xx_hal_hcd.c ****     if ((__HAL_HCD_GET_FLAG(hhcd, USB_OTG_GINTSTS_RXFLVL)) != 0U)
 588:Drivers/STM32F1xx_HAL_Driver/Src/stm32f1xx_hal_hcd.c ****     {
 589:Drivers/STM32F1xx_HAL_Driver/Src/stm32f1xx_hal_hcd.c ****       USB_MASK_INTERRUPT(hhcd->Instance, USB_OTG_GINTSTS_RXFLVL);
 590:Drivers/STM32F1xx_HAL_Driver/Src/stm32f1xx_hal_hcd.c **** 
 591:Drivers/STM32F1xx_HAL_Driver/Src/stm32f1xx_hal_hcd.c ****       HCD_RXQLVL_IRQHandler(hhcd);
 592:Drivers/STM32F1xx_HAL_Driver/Src/stm32f1xx_hal_hcd.c **** 
 593:Drivers/STM32F1xx_HAL_Driver/Src/stm32f1xx_hal_hcd.c ****       USB_UNMASK_INTERRUPT(hhcd->Instance, USB_OTG_GINTSTS_RXFLVL);
 594:Drivers/STM32F1xx_HAL_Driver/Src/stm32f1xx_hal_hcd.c ****     }
 595:Drivers/STM32F1xx_HAL_Driver/Src/stm32f1xx_hal_hcd.c ****   }
 596:Drivers/STM32F1xx_HAL_Driver/Src/stm32f1xx_hal_hcd.c **** }
 597:Drivers/STM32F1xx_HAL_Driver/Src/stm32f1xx_hal_hcd.c **** 
 598:Drivers/STM32F1xx_HAL_Driver/Src/stm32f1xx_hal_hcd.c **** 
 599:Drivers/STM32F1xx_HAL_Driver/Src/stm32f1xx_hal_hcd.c **** /**
 600:Drivers/STM32F1xx_HAL_Driver/Src/stm32f1xx_hal_hcd.c ****   * @brief  Handles HCD Wakeup interrupt request.
 601:Drivers/STM32F1xx_HAL_Driver/Src/stm32f1xx_hal_hcd.c ****   * @param  hhcd HCD handle
 602:Drivers/STM32F1xx_HAL_Driver/Src/stm32f1xx_hal_hcd.c ****   * @retval HAL status
ARM GAS  /tmp/ccldPFyH.s 			page 12


 603:Drivers/STM32F1xx_HAL_Driver/Src/stm32f1xx_hal_hcd.c ****   */
 604:Drivers/STM32F1xx_HAL_Driver/Src/stm32f1xx_hal_hcd.c **** void HAL_HCD_WKUP_IRQHandler(HCD_HandleTypeDef *hhcd)
 605:Drivers/STM32F1xx_HAL_Driver/Src/stm32f1xx_hal_hcd.c **** {
 606:Drivers/STM32F1xx_HAL_Driver/Src/stm32f1xx_hal_hcd.c ****   UNUSED(hhcd);
 607:Drivers/STM32F1xx_HAL_Driver/Src/stm32f1xx_hal_hcd.c **** }
 608:Drivers/STM32F1xx_HAL_Driver/Src/stm32f1xx_hal_hcd.c **** 
 609:Drivers/STM32F1xx_HAL_Driver/Src/stm32f1xx_hal_hcd.c **** 
 610:Drivers/STM32F1xx_HAL_Driver/Src/stm32f1xx_hal_hcd.c **** /**
 611:Drivers/STM32F1xx_HAL_Driver/Src/stm32f1xx_hal_hcd.c ****   * @brief  SOF callback.
 612:Drivers/STM32F1xx_HAL_Driver/Src/stm32f1xx_hal_hcd.c ****   * @param  hhcd HCD handle
 613:Drivers/STM32F1xx_HAL_Driver/Src/stm32f1xx_hal_hcd.c ****   * @retval None
 614:Drivers/STM32F1xx_HAL_Driver/Src/stm32f1xx_hal_hcd.c ****   */
 615:Drivers/STM32F1xx_HAL_Driver/Src/stm32f1xx_hal_hcd.c **** __weak void HAL_HCD_SOF_Callback(HCD_HandleTypeDef *hhcd)
 616:Drivers/STM32F1xx_HAL_Driver/Src/stm32f1xx_hal_hcd.c **** {
 617:Drivers/STM32F1xx_HAL_Driver/Src/stm32f1xx_hal_hcd.c ****   /* Prevent unused argument(s) compilation warning */
 618:Drivers/STM32F1xx_HAL_Driver/Src/stm32f1xx_hal_hcd.c ****   UNUSED(hhcd);
 619:Drivers/STM32F1xx_HAL_Driver/Src/stm32f1xx_hal_hcd.c **** 
 620:Drivers/STM32F1xx_HAL_Driver/Src/stm32f1xx_hal_hcd.c ****   /* NOTE : This function should not be modified, when the callback is needed,
 621:Drivers/STM32F1xx_HAL_Driver/Src/stm32f1xx_hal_hcd.c ****             the HAL_HCD_SOF_Callback could be implemented in the user file
 622:Drivers/STM32F1xx_HAL_Driver/Src/stm32f1xx_hal_hcd.c ****    */
 623:Drivers/STM32F1xx_HAL_Driver/Src/stm32f1xx_hal_hcd.c **** }
 624:Drivers/STM32F1xx_HAL_Driver/Src/stm32f1xx_hal_hcd.c **** 
 625:Drivers/STM32F1xx_HAL_Driver/Src/stm32f1xx_hal_hcd.c **** /**
 626:Drivers/STM32F1xx_HAL_Driver/Src/stm32f1xx_hal_hcd.c ****   * @brief Connection Event callback.
 627:Drivers/STM32F1xx_HAL_Driver/Src/stm32f1xx_hal_hcd.c ****   * @param  hhcd HCD handle
 628:Drivers/STM32F1xx_HAL_Driver/Src/stm32f1xx_hal_hcd.c ****   * @retval None
 629:Drivers/STM32F1xx_HAL_Driver/Src/stm32f1xx_hal_hcd.c ****   */
 630:Drivers/STM32F1xx_HAL_Driver/Src/stm32f1xx_hal_hcd.c **** __weak void HAL_HCD_Connect_Callback(HCD_HandleTypeDef *hhcd)
 631:Drivers/STM32F1xx_HAL_Driver/Src/stm32f1xx_hal_hcd.c **** {
 632:Drivers/STM32F1xx_HAL_Driver/Src/stm32f1xx_hal_hcd.c ****   /* Prevent unused argument(s) compilation warning */
 633:Drivers/STM32F1xx_HAL_Driver/Src/stm32f1xx_hal_hcd.c ****   UNUSED(hhcd);
 634:Drivers/STM32F1xx_HAL_Driver/Src/stm32f1xx_hal_hcd.c **** 
 635:Drivers/STM32F1xx_HAL_Driver/Src/stm32f1xx_hal_hcd.c ****   /* NOTE : This function should not be modified, when the callback is needed,
 636:Drivers/STM32F1xx_HAL_Driver/Src/stm32f1xx_hal_hcd.c ****             the HAL_HCD_Connect_Callback could be implemented in the user file
 637:Drivers/STM32F1xx_HAL_Driver/Src/stm32f1xx_hal_hcd.c ****    */
 638:Drivers/STM32F1xx_HAL_Driver/Src/stm32f1xx_hal_hcd.c **** }
 639:Drivers/STM32F1xx_HAL_Driver/Src/stm32f1xx_hal_hcd.c **** 
 640:Drivers/STM32F1xx_HAL_Driver/Src/stm32f1xx_hal_hcd.c **** /**
 641:Drivers/STM32F1xx_HAL_Driver/Src/stm32f1xx_hal_hcd.c ****   * @brief  Disconnection Event callback.
 642:Drivers/STM32F1xx_HAL_Driver/Src/stm32f1xx_hal_hcd.c ****   * @param  hhcd HCD handle
 643:Drivers/STM32F1xx_HAL_Driver/Src/stm32f1xx_hal_hcd.c ****   * @retval None
 644:Drivers/STM32F1xx_HAL_Driver/Src/stm32f1xx_hal_hcd.c ****   */
 645:Drivers/STM32F1xx_HAL_Driver/Src/stm32f1xx_hal_hcd.c **** __weak void HAL_HCD_Disconnect_Callback(HCD_HandleTypeDef *hhcd)
 646:Drivers/STM32F1xx_HAL_Driver/Src/stm32f1xx_hal_hcd.c **** {
 647:Drivers/STM32F1xx_HAL_Driver/Src/stm32f1xx_hal_hcd.c ****   /* Prevent unused argument(s) compilation warning */
 648:Drivers/STM32F1xx_HAL_Driver/Src/stm32f1xx_hal_hcd.c ****   UNUSED(hhcd);
 649:Drivers/STM32F1xx_HAL_Driver/Src/stm32f1xx_hal_hcd.c **** 
 650:Drivers/STM32F1xx_HAL_Driver/Src/stm32f1xx_hal_hcd.c ****   /* NOTE : This function should not be modified, when the callback is needed,
 651:Drivers/STM32F1xx_HAL_Driver/Src/stm32f1xx_hal_hcd.c ****             the HAL_HCD_Disconnect_Callback could be implemented in the user file
 652:Drivers/STM32F1xx_HAL_Driver/Src/stm32f1xx_hal_hcd.c ****    */
 653:Drivers/STM32F1xx_HAL_Driver/Src/stm32f1xx_hal_hcd.c **** }
 654:Drivers/STM32F1xx_HAL_Driver/Src/stm32f1xx_hal_hcd.c **** 
 655:Drivers/STM32F1xx_HAL_Driver/Src/stm32f1xx_hal_hcd.c **** /**
 656:Drivers/STM32F1xx_HAL_Driver/Src/stm32f1xx_hal_hcd.c ****   * @brief  Port Enabled  Event callback.
 657:Drivers/STM32F1xx_HAL_Driver/Src/stm32f1xx_hal_hcd.c ****   * @param  hhcd HCD handle
 658:Drivers/STM32F1xx_HAL_Driver/Src/stm32f1xx_hal_hcd.c ****   * @retval None
 659:Drivers/STM32F1xx_HAL_Driver/Src/stm32f1xx_hal_hcd.c ****   */
ARM GAS  /tmp/ccldPFyH.s 			page 13


 660:Drivers/STM32F1xx_HAL_Driver/Src/stm32f1xx_hal_hcd.c **** __weak void HAL_HCD_PortEnabled_Callback(HCD_HandleTypeDef *hhcd)
 661:Drivers/STM32F1xx_HAL_Driver/Src/stm32f1xx_hal_hcd.c **** {
 662:Drivers/STM32F1xx_HAL_Driver/Src/stm32f1xx_hal_hcd.c ****   /* Prevent unused argument(s) compilation warning */
 663:Drivers/STM32F1xx_HAL_Driver/Src/stm32f1xx_hal_hcd.c ****   UNUSED(hhcd);
 664:Drivers/STM32F1xx_HAL_Driver/Src/stm32f1xx_hal_hcd.c **** 
 665:Drivers/STM32F1xx_HAL_Driver/Src/stm32f1xx_hal_hcd.c ****   /* NOTE : This function should not be modified, when the callback is needed,
 666:Drivers/STM32F1xx_HAL_Driver/Src/stm32f1xx_hal_hcd.c ****             the HAL_HCD_Disconnect_Callback could be implemented in the user file
 667:Drivers/STM32F1xx_HAL_Driver/Src/stm32f1xx_hal_hcd.c ****    */
 668:Drivers/STM32F1xx_HAL_Driver/Src/stm32f1xx_hal_hcd.c **** }
 669:Drivers/STM32F1xx_HAL_Driver/Src/stm32f1xx_hal_hcd.c **** 
 670:Drivers/STM32F1xx_HAL_Driver/Src/stm32f1xx_hal_hcd.c **** /**
 671:Drivers/STM32F1xx_HAL_Driver/Src/stm32f1xx_hal_hcd.c ****   * @brief  Port Disabled  Event callback.
 672:Drivers/STM32F1xx_HAL_Driver/Src/stm32f1xx_hal_hcd.c ****   * @param  hhcd HCD handle
 673:Drivers/STM32F1xx_HAL_Driver/Src/stm32f1xx_hal_hcd.c ****   * @retval None
 674:Drivers/STM32F1xx_HAL_Driver/Src/stm32f1xx_hal_hcd.c ****   */
 675:Drivers/STM32F1xx_HAL_Driver/Src/stm32f1xx_hal_hcd.c **** __weak void HAL_HCD_PortDisabled_Callback(HCD_HandleTypeDef *hhcd)
 676:Drivers/STM32F1xx_HAL_Driver/Src/stm32f1xx_hal_hcd.c **** {
 677:Drivers/STM32F1xx_HAL_Driver/Src/stm32f1xx_hal_hcd.c ****   /* Prevent unused argument(s) compilation warning */
 678:Drivers/STM32F1xx_HAL_Driver/Src/stm32f1xx_hal_hcd.c ****   UNUSED(hhcd);
 679:Drivers/STM32F1xx_HAL_Driver/Src/stm32f1xx_hal_hcd.c **** 
 680:Drivers/STM32F1xx_HAL_Driver/Src/stm32f1xx_hal_hcd.c ****   /* NOTE : This function should not be modified, when the callback is needed,
 681:Drivers/STM32F1xx_HAL_Driver/Src/stm32f1xx_hal_hcd.c ****             the HAL_HCD_Disconnect_Callback could be implemented in the user file
 682:Drivers/STM32F1xx_HAL_Driver/Src/stm32f1xx_hal_hcd.c ****    */
 683:Drivers/STM32F1xx_HAL_Driver/Src/stm32f1xx_hal_hcd.c **** }
 684:Drivers/STM32F1xx_HAL_Driver/Src/stm32f1xx_hal_hcd.c **** 
 685:Drivers/STM32F1xx_HAL_Driver/Src/stm32f1xx_hal_hcd.c **** /**
 686:Drivers/STM32F1xx_HAL_Driver/Src/stm32f1xx_hal_hcd.c ****   * @brief  Notify URB state change callback.
 687:Drivers/STM32F1xx_HAL_Driver/Src/stm32f1xx_hal_hcd.c ****   * @param  hhcd HCD handle
 688:Drivers/STM32F1xx_HAL_Driver/Src/stm32f1xx_hal_hcd.c ****   * @param  chnum Channel number.
 689:Drivers/STM32F1xx_HAL_Driver/Src/stm32f1xx_hal_hcd.c ****   *         This parameter can be a value from 1 to 15
 690:Drivers/STM32F1xx_HAL_Driver/Src/stm32f1xx_hal_hcd.c ****   * @param  urb_state:
 691:Drivers/STM32F1xx_HAL_Driver/Src/stm32f1xx_hal_hcd.c ****   *          This parameter can be one of these values:
 692:Drivers/STM32F1xx_HAL_Driver/Src/stm32f1xx_hal_hcd.c ****   *            URB_IDLE/
 693:Drivers/STM32F1xx_HAL_Driver/Src/stm32f1xx_hal_hcd.c ****   *            URB_DONE/
 694:Drivers/STM32F1xx_HAL_Driver/Src/stm32f1xx_hal_hcd.c ****   *            URB_NOTREADY/
 695:Drivers/STM32F1xx_HAL_Driver/Src/stm32f1xx_hal_hcd.c ****   *            URB_NYET/
 696:Drivers/STM32F1xx_HAL_Driver/Src/stm32f1xx_hal_hcd.c ****   *            URB_ERROR/
 697:Drivers/STM32F1xx_HAL_Driver/Src/stm32f1xx_hal_hcd.c ****   *            URB_STALL/
 698:Drivers/STM32F1xx_HAL_Driver/Src/stm32f1xx_hal_hcd.c ****   * @retval None
 699:Drivers/STM32F1xx_HAL_Driver/Src/stm32f1xx_hal_hcd.c ****   */
 700:Drivers/STM32F1xx_HAL_Driver/Src/stm32f1xx_hal_hcd.c **** __weak void HAL_HCD_HC_NotifyURBChange_Callback(HCD_HandleTypeDef *hhcd, uint8_t chnum, HCD_URBStat
 701:Drivers/STM32F1xx_HAL_Driver/Src/stm32f1xx_hal_hcd.c **** {
 702:Drivers/STM32F1xx_HAL_Driver/Src/stm32f1xx_hal_hcd.c ****   /* Prevent unused argument(s) compilation warning */
 703:Drivers/STM32F1xx_HAL_Driver/Src/stm32f1xx_hal_hcd.c ****   UNUSED(hhcd);
 704:Drivers/STM32F1xx_HAL_Driver/Src/stm32f1xx_hal_hcd.c ****   UNUSED(chnum);
 705:Drivers/STM32F1xx_HAL_Driver/Src/stm32f1xx_hal_hcd.c ****   UNUSED(urb_state);
 706:Drivers/STM32F1xx_HAL_Driver/Src/stm32f1xx_hal_hcd.c **** 
 707:Drivers/STM32F1xx_HAL_Driver/Src/stm32f1xx_hal_hcd.c ****   /* NOTE : This function should not be modified, when the callback is needed,
 708:Drivers/STM32F1xx_HAL_Driver/Src/stm32f1xx_hal_hcd.c ****             the HAL_HCD_HC_NotifyURBChange_Callback could be implemented in the user file
 709:Drivers/STM32F1xx_HAL_Driver/Src/stm32f1xx_hal_hcd.c ****    */
 710:Drivers/STM32F1xx_HAL_Driver/Src/stm32f1xx_hal_hcd.c **** }
 711:Drivers/STM32F1xx_HAL_Driver/Src/stm32f1xx_hal_hcd.c **** 
 712:Drivers/STM32F1xx_HAL_Driver/Src/stm32f1xx_hal_hcd.c **** #if (USE_HAL_HCD_REGISTER_CALLBACKS == 1U)
 713:Drivers/STM32F1xx_HAL_Driver/Src/stm32f1xx_hal_hcd.c **** /**
 714:Drivers/STM32F1xx_HAL_Driver/Src/stm32f1xx_hal_hcd.c ****   * @brief  Register a User USB HCD Callback
 715:Drivers/STM32F1xx_HAL_Driver/Src/stm32f1xx_hal_hcd.c ****   *         To be used instead of the weak predefined callback
 716:Drivers/STM32F1xx_HAL_Driver/Src/stm32f1xx_hal_hcd.c ****   * @param  hhcd USB HCD handle
ARM GAS  /tmp/ccldPFyH.s 			page 14


 717:Drivers/STM32F1xx_HAL_Driver/Src/stm32f1xx_hal_hcd.c ****   * @param  CallbackID ID of the callback to be registered
 718:Drivers/STM32F1xx_HAL_Driver/Src/stm32f1xx_hal_hcd.c ****   *         This parameter can be one of the following values:
 719:Drivers/STM32F1xx_HAL_Driver/Src/stm32f1xx_hal_hcd.c ****   *          @arg @ref HAL_HCD_SOF_CB_ID USB HCD SOF callback ID
 720:Drivers/STM32F1xx_HAL_Driver/Src/stm32f1xx_hal_hcd.c ****   *          @arg @ref HAL_HCD_CONNECT_CB_ID USB HCD Connect callback ID
 721:Drivers/STM32F1xx_HAL_Driver/Src/stm32f1xx_hal_hcd.c ****   *          @arg @ref HAL_HCD_DISCONNECT_CB_ID OTG HCD Disconnect callback ID
 722:Drivers/STM32F1xx_HAL_Driver/Src/stm32f1xx_hal_hcd.c ****   *          @arg @ref HAL_HCD_PORT_ENABLED_CB_ID USB HCD Port Enable callback ID
 723:Drivers/STM32F1xx_HAL_Driver/Src/stm32f1xx_hal_hcd.c ****   *          @arg @ref HAL_HCD_PORT_DISABLED_CB_ID USB HCD Port Disable callback ID
 724:Drivers/STM32F1xx_HAL_Driver/Src/stm32f1xx_hal_hcd.c ****   *          @arg @ref HAL_HCD_MSPINIT_CB_ID MspDeInit callback ID
 725:Drivers/STM32F1xx_HAL_Driver/Src/stm32f1xx_hal_hcd.c ****   *          @arg @ref HAL_HCD_MSPDEINIT_CB_ID MspDeInit callback ID
 726:Drivers/STM32F1xx_HAL_Driver/Src/stm32f1xx_hal_hcd.c ****   * @param  pCallback pointer to the Callback function
 727:Drivers/STM32F1xx_HAL_Driver/Src/stm32f1xx_hal_hcd.c ****   * @retval HAL status
 728:Drivers/STM32F1xx_HAL_Driver/Src/stm32f1xx_hal_hcd.c ****   */
 729:Drivers/STM32F1xx_HAL_Driver/Src/stm32f1xx_hal_hcd.c **** HAL_StatusTypeDef HAL_HCD_RegisterCallback(HCD_HandleTypeDef *hhcd,
 730:Drivers/STM32F1xx_HAL_Driver/Src/stm32f1xx_hal_hcd.c ****                                            HAL_HCD_CallbackIDTypeDef CallbackID,
 731:Drivers/STM32F1xx_HAL_Driver/Src/stm32f1xx_hal_hcd.c ****                                            pHCD_CallbackTypeDef pCallback)
 732:Drivers/STM32F1xx_HAL_Driver/Src/stm32f1xx_hal_hcd.c **** {
 733:Drivers/STM32F1xx_HAL_Driver/Src/stm32f1xx_hal_hcd.c ****   HAL_StatusTypeDef status = HAL_OK;
 734:Drivers/STM32F1xx_HAL_Driver/Src/stm32f1xx_hal_hcd.c **** 
 735:Drivers/STM32F1xx_HAL_Driver/Src/stm32f1xx_hal_hcd.c ****   if (pCallback == NULL)
 736:Drivers/STM32F1xx_HAL_Driver/Src/stm32f1xx_hal_hcd.c ****   {
 737:Drivers/STM32F1xx_HAL_Driver/Src/stm32f1xx_hal_hcd.c ****     /* Update the error code */
 738:Drivers/STM32F1xx_HAL_Driver/Src/stm32f1xx_hal_hcd.c ****     hhcd->ErrorCode |= HAL_HCD_ERROR_INVALID_CALLBACK;
 739:Drivers/STM32F1xx_HAL_Driver/Src/stm32f1xx_hal_hcd.c ****     return HAL_ERROR;
 740:Drivers/STM32F1xx_HAL_Driver/Src/stm32f1xx_hal_hcd.c ****   }
 741:Drivers/STM32F1xx_HAL_Driver/Src/stm32f1xx_hal_hcd.c ****   /* Process locked */
 742:Drivers/STM32F1xx_HAL_Driver/Src/stm32f1xx_hal_hcd.c ****   __HAL_LOCK(hhcd);
 743:Drivers/STM32F1xx_HAL_Driver/Src/stm32f1xx_hal_hcd.c **** 
 744:Drivers/STM32F1xx_HAL_Driver/Src/stm32f1xx_hal_hcd.c ****   if (hhcd->State == HAL_HCD_STATE_READY)
 745:Drivers/STM32F1xx_HAL_Driver/Src/stm32f1xx_hal_hcd.c ****   {
 746:Drivers/STM32F1xx_HAL_Driver/Src/stm32f1xx_hal_hcd.c ****     switch (CallbackID)
 747:Drivers/STM32F1xx_HAL_Driver/Src/stm32f1xx_hal_hcd.c ****     {
 748:Drivers/STM32F1xx_HAL_Driver/Src/stm32f1xx_hal_hcd.c ****       case HAL_HCD_SOF_CB_ID :
 749:Drivers/STM32F1xx_HAL_Driver/Src/stm32f1xx_hal_hcd.c ****         hhcd->SOFCallback = pCallback;
 750:Drivers/STM32F1xx_HAL_Driver/Src/stm32f1xx_hal_hcd.c ****         break;
 751:Drivers/STM32F1xx_HAL_Driver/Src/stm32f1xx_hal_hcd.c **** 
 752:Drivers/STM32F1xx_HAL_Driver/Src/stm32f1xx_hal_hcd.c ****       case HAL_HCD_CONNECT_CB_ID :
 753:Drivers/STM32F1xx_HAL_Driver/Src/stm32f1xx_hal_hcd.c ****         hhcd->ConnectCallback = pCallback;
 754:Drivers/STM32F1xx_HAL_Driver/Src/stm32f1xx_hal_hcd.c ****         break;
 755:Drivers/STM32F1xx_HAL_Driver/Src/stm32f1xx_hal_hcd.c **** 
 756:Drivers/STM32F1xx_HAL_Driver/Src/stm32f1xx_hal_hcd.c ****       case HAL_HCD_DISCONNECT_CB_ID :
 757:Drivers/STM32F1xx_HAL_Driver/Src/stm32f1xx_hal_hcd.c ****         hhcd->DisconnectCallback = pCallback;
 758:Drivers/STM32F1xx_HAL_Driver/Src/stm32f1xx_hal_hcd.c ****         break;
 759:Drivers/STM32F1xx_HAL_Driver/Src/stm32f1xx_hal_hcd.c **** 
 760:Drivers/STM32F1xx_HAL_Driver/Src/stm32f1xx_hal_hcd.c ****       case HAL_HCD_PORT_ENABLED_CB_ID :
 761:Drivers/STM32F1xx_HAL_Driver/Src/stm32f1xx_hal_hcd.c ****         hhcd->PortEnabledCallback = pCallback;
 762:Drivers/STM32F1xx_HAL_Driver/Src/stm32f1xx_hal_hcd.c ****         break;
 763:Drivers/STM32F1xx_HAL_Driver/Src/stm32f1xx_hal_hcd.c **** 
 764:Drivers/STM32F1xx_HAL_Driver/Src/stm32f1xx_hal_hcd.c ****       case HAL_HCD_PORT_DISABLED_CB_ID :
 765:Drivers/STM32F1xx_HAL_Driver/Src/stm32f1xx_hal_hcd.c ****         hhcd->PortDisabledCallback = pCallback;
 766:Drivers/STM32F1xx_HAL_Driver/Src/stm32f1xx_hal_hcd.c ****         break;
 767:Drivers/STM32F1xx_HAL_Driver/Src/stm32f1xx_hal_hcd.c **** 
 768:Drivers/STM32F1xx_HAL_Driver/Src/stm32f1xx_hal_hcd.c ****       case HAL_HCD_MSPINIT_CB_ID :
 769:Drivers/STM32F1xx_HAL_Driver/Src/stm32f1xx_hal_hcd.c ****         hhcd->MspInitCallback = pCallback;
 770:Drivers/STM32F1xx_HAL_Driver/Src/stm32f1xx_hal_hcd.c ****         break;
 771:Drivers/STM32F1xx_HAL_Driver/Src/stm32f1xx_hal_hcd.c **** 
 772:Drivers/STM32F1xx_HAL_Driver/Src/stm32f1xx_hal_hcd.c ****       case HAL_HCD_MSPDEINIT_CB_ID :
 773:Drivers/STM32F1xx_HAL_Driver/Src/stm32f1xx_hal_hcd.c ****         hhcd->MspDeInitCallback = pCallback;
ARM GAS  /tmp/ccldPFyH.s 			page 15


 774:Drivers/STM32F1xx_HAL_Driver/Src/stm32f1xx_hal_hcd.c ****         break;
 775:Drivers/STM32F1xx_HAL_Driver/Src/stm32f1xx_hal_hcd.c **** 
 776:Drivers/STM32F1xx_HAL_Driver/Src/stm32f1xx_hal_hcd.c ****       default :
 777:Drivers/STM32F1xx_HAL_Driver/Src/stm32f1xx_hal_hcd.c ****         /* Update the error code */
 778:Drivers/STM32F1xx_HAL_Driver/Src/stm32f1xx_hal_hcd.c ****         hhcd->ErrorCode |= HAL_HCD_ERROR_INVALID_CALLBACK;
 779:Drivers/STM32F1xx_HAL_Driver/Src/stm32f1xx_hal_hcd.c ****         /* Return error status */
 780:Drivers/STM32F1xx_HAL_Driver/Src/stm32f1xx_hal_hcd.c ****         status =  HAL_ERROR;
 781:Drivers/STM32F1xx_HAL_Driver/Src/stm32f1xx_hal_hcd.c ****         break;
 782:Drivers/STM32F1xx_HAL_Driver/Src/stm32f1xx_hal_hcd.c ****     }
 783:Drivers/STM32F1xx_HAL_Driver/Src/stm32f1xx_hal_hcd.c ****   }
 784:Drivers/STM32F1xx_HAL_Driver/Src/stm32f1xx_hal_hcd.c ****   else if (hhcd->State == HAL_HCD_STATE_RESET)
 785:Drivers/STM32F1xx_HAL_Driver/Src/stm32f1xx_hal_hcd.c ****   {
 786:Drivers/STM32F1xx_HAL_Driver/Src/stm32f1xx_hal_hcd.c ****     switch (CallbackID)
 787:Drivers/STM32F1xx_HAL_Driver/Src/stm32f1xx_hal_hcd.c ****     {
 788:Drivers/STM32F1xx_HAL_Driver/Src/stm32f1xx_hal_hcd.c ****       case HAL_HCD_MSPINIT_CB_ID :
 789:Drivers/STM32F1xx_HAL_Driver/Src/stm32f1xx_hal_hcd.c ****         hhcd->MspInitCallback = pCallback;
 790:Drivers/STM32F1xx_HAL_Driver/Src/stm32f1xx_hal_hcd.c ****         break;
 791:Drivers/STM32F1xx_HAL_Driver/Src/stm32f1xx_hal_hcd.c **** 
 792:Drivers/STM32F1xx_HAL_Driver/Src/stm32f1xx_hal_hcd.c ****       case HAL_HCD_MSPDEINIT_CB_ID :
 793:Drivers/STM32F1xx_HAL_Driver/Src/stm32f1xx_hal_hcd.c ****         hhcd->MspDeInitCallback = pCallback;
 794:Drivers/STM32F1xx_HAL_Driver/Src/stm32f1xx_hal_hcd.c ****         break;
 795:Drivers/STM32F1xx_HAL_Driver/Src/stm32f1xx_hal_hcd.c **** 
 796:Drivers/STM32F1xx_HAL_Driver/Src/stm32f1xx_hal_hcd.c ****       default :
 797:Drivers/STM32F1xx_HAL_Driver/Src/stm32f1xx_hal_hcd.c ****         /* Update the error code */
 798:Drivers/STM32F1xx_HAL_Driver/Src/stm32f1xx_hal_hcd.c ****         hhcd->ErrorCode |= HAL_HCD_ERROR_INVALID_CALLBACK;
 799:Drivers/STM32F1xx_HAL_Driver/Src/stm32f1xx_hal_hcd.c ****         /* Return error status */
 800:Drivers/STM32F1xx_HAL_Driver/Src/stm32f1xx_hal_hcd.c ****         status =  HAL_ERROR;
 801:Drivers/STM32F1xx_HAL_Driver/Src/stm32f1xx_hal_hcd.c ****         break;
 802:Drivers/STM32F1xx_HAL_Driver/Src/stm32f1xx_hal_hcd.c ****     }
 803:Drivers/STM32F1xx_HAL_Driver/Src/stm32f1xx_hal_hcd.c ****   }
 804:Drivers/STM32F1xx_HAL_Driver/Src/stm32f1xx_hal_hcd.c ****   else
 805:Drivers/STM32F1xx_HAL_Driver/Src/stm32f1xx_hal_hcd.c ****   {
 806:Drivers/STM32F1xx_HAL_Driver/Src/stm32f1xx_hal_hcd.c ****     /* Update the error code */
 807:Drivers/STM32F1xx_HAL_Driver/Src/stm32f1xx_hal_hcd.c ****     hhcd->ErrorCode |= HAL_HCD_ERROR_INVALID_CALLBACK;
 808:Drivers/STM32F1xx_HAL_Driver/Src/stm32f1xx_hal_hcd.c ****     /* Return error status */
 809:Drivers/STM32F1xx_HAL_Driver/Src/stm32f1xx_hal_hcd.c ****     status =  HAL_ERROR;
 810:Drivers/STM32F1xx_HAL_Driver/Src/stm32f1xx_hal_hcd.c ****   }
 811:Drivers/STM32F1xx_HAL_Driver/Src/stm32f1xx_hal_hcd.c **** 
 812:Drivers/STM32F1xx_HAL_Driver/Src/stm32f1xx_hal_hcd.c ****   /* Release Lock */
 813:Drivers/STM32F1xx_HAL_Driver/Src/stm32f1xx_hal_hcd.c ****   __HAL_UNLOCK(hhcd);
 814:Drivers/STM32F1xx_HAL_Driver/Src/stm32f1xx_hal_hcd.c ****   return status;
 815:Drivers/STM32F1xx_HAL_Driver/Src/stm32f1xx_hal_hcd.c **** }
 816:Drivers/STM32F1xx_HAL_Driver/Src/stm32f1xx_hal_hcd.c **** 
 817:Drivers/STM32F1xx_HAL_Driver/Src/stm32f1xx_hal_hcd.c **** /**
 818:Drivers/STM32F1xx_HAL_Driver/Src/stm32f1xx_hal_hcd.c ****   * @brief  Unregister an USB HCD Callback
 819:Drivers/STM32F1xx_HAL_Driver/Src/stm32f1xx_hal_hcd.c ****   *         USB HCD callback is redirected to the weak predefined callback
 820:Drivers/STM32F1xx_HAL_Driver/Src/stm32f1xx_hal_hcd.c ****   * @param  hhcd USB HCD handle
 821:Drivers/STM32F1xx_HAL_Driver/Src/stm32f1xx_hal_hcd.c ****   * @param  CallbackID ID of the callback to be unregistered
 822:Drivers/STM32F1xx_HAL_Driver/Src/stm32f1xx_hal_hcd.c ****   *         This parameter can be one of the following values:
 823:Drivers/STM32F1xx_HAL_Driver/Src/stm32f1xx_hal_hcd.c ****   *          @arg @ref HAL_HCD_SOF_CB_ID USB HCD SOF callback ID
 824:Drivers/STM32F1xx_HAL_Driver/Src/stm32f1xx_hal_hcd.c ****   *          @arg @ref HAL_HCD_CONNECT_CB_ID USB HCD Connect callback ID
 825:Drivers/STM32F1xx_HAL_Driver/Src/stm32f1xx_hal_hcd.c ****   *          @arg @ref HAL_HCD_DISCONNECT_CB_ID OTG HCD Disconnect callback ID
 826:Drivers/STM32F1xx_HAL_Driver/Src/stm32f1xx_hal_hcd.c ****   *          @arg @ref HAL_HCD_PORT_ENABLED_CB_ID USB HCD Port Enabled callback ID
 827:Drivers/STM32F1xx_HAL_Driver/Src/stm32f1xx_hal_hcd.c ****   *          @arg @ref HAL_HCD_PORT_DISABLED_CB_ID USB HCD Port Disabled callback ID
 828:Drivers/STM32F1xx_HAL_Driver/Src/stm32f1xx_hal_hcd.c ****   *          @arg @ref HAL_HCD_MSPINIT_CB_ID MspDeInit callback ID
 829:Drivers/STM32F1xx_HAL_Driver/Src/stm32f1xx_hal_hcd.c ****   *          @arg @ref HAL_HCD_MSPDEINIT_CB_ID MspDeInit callback ID
 830:Drivers/STM32F1xx_HAL_Driver/Src/stm32f1xx_hal_hcd.c ****   * @retval HAL status
ARM GAS  /tmp/ccldPFyH.s 			page 16


 831:Drivers/STM32F1xx_HAL_Driver/Src/stm32f1xx_hal_hcd.c ****   */
 832:Drivers/STM32F1xx_HAL_Driver/Src/stm32f1xx_hal_hcd.c **** HAL_StatusTypeDef HAL_HCD_UnRegisterCallback(HCD_HandleTypeDef *hhcd, HAL_HCD_CallbackIDTypeDef Cal
 833:Drivers/STM32F1xx_HAL_Driver/Src/stm32f1xx_hal_hcd.c **** {
 834:Drivers/STM32F1xx_HAL_Driver/Src/stm32f1xx_hal_hcd.c ****   HAL_StatusTypeDef status = HAL_OK;
 835:Drivers/STM32F1xx_HAL_Driver/Src/stm32f1xx_hal_hcd.c **** 
 836:Drivers/STM32F1xx_HAL_Driver/Src/stm32f1xx_hal_hcd.c ****   /* Process locked */
 837:Drivers/STM32F1xx_HAL_Driver/Src/stm32f1xx_hal_hcd.c ****   __HAL_LOCK(hhcd);
 838:Drivers/STM32F1xx_HAL_Driver/Src/stm32f1xx_hal_hcd.c **** 
 839:Drivers/STM32F1xx_HAL_Driver/Src/stm32f1xx_hal_hcd.c ****   /* Setup Legacy weak Callbacks  */
 840:Drivers/STM32F1xx_HAL_Driver/Src/stm32f1xx_hal_hcd.c ****   if (hhcd->State == HAL_HCD_STATE_READY)
 841:Drivers/STM32F1xx_HAL_Driver/Src/stm32f1xx_hal_hcd.c ****   {
 842:Drivers/STM32F1xx_HAL_Driver/Src/stm32f1xx_hal_hcd.c ****     switch (CallbackID)
 843:Drivers/STM32F1xx_HAL_Driver/Src/stm32f1xx_hal_hcd.c ****     {
 844:Drivers/STM32F1xx_HAL_Driver/Src/stm32f1xx_hal_hcd.c ****       case HAL_HCD_SOF_CB_ID :
 845:Drivers/STM32F1xx_HAL_Driver/Src/stm32f1xx_hal_hcd.c ****         hhcd->SOFCallback = HAL_HCD_SOF_Callback;
 846:Drivers/STM32F1xx_HAL_Driver/Src/stm32f1xx_hal_hcd.c ****         break;
 847:Drivers/STM32F1xx_HAL_Driver/Src/stm32f1xx_hal_hcd.c **** 
 848:Drivers/STM32F1xx_HAL_Driver/Src/stm32f1xx_hal_hcd.c ****       case HAL_HCD_CONNECT_CB_ID :
 849:Drivers/STM32F1xx_HAL_Driver/Src/stm32f1xx_hal_hcd.c ****         hhcd->ConnectCallback = HAL_HCD_Connect_Callback;
 850:Drivers/STM32F1xx_HAL_Driver/Src/stm32f1xx_hal_hcd.c ****         break;
 851:Drivers/STM32F1xx_HAL_Driver/Src/stm32f1xx_hal_hcd.c **** 
 852:Drivers/STM32F1xx_HAL_Driver/Src/stm32f1xx_hal_hcd.c ****       case HAL_HCD_DISCONNECT_CB_ID :
 853:Drivers/STM32F1xx_HAL_Driver/Src/stm32f1xx_hal_hcd.c ****         hhcd->DisconnectCallback = HAL_HCD_Disconnect_Callback;
 854:Drivers/STM32F1xx_HAL_Driver/Src/stm32f1xx_hal_hcd.c ****         break;
 855:Drivers/STM32F1xx_HAL_Driver/Src/stm32f1xx_hal_hcd.c **** 
 856:Drivers/STM32F1xx_HAL_Driver/Src/stm32f1xx_hal_hcd.c ****       case HAL_HCD_PORT_ENABLED_CB_ID :
 857:Drivers/STM32F1xx_HAL_Driver/Src/stm32f1xx_hal_hcd.c ****         hhcd->PortEnabledCallback = HAL_HCD_PortEnabled_Callback;
 858:Drivers/STM32F1xx_HAL_Driver/Src/stm32f1xx_hal_hcd.c ****         break;
 859:Drivers/STM32F1xx_HAL_Driver/Src/stm32f1xx_hal_hcd.c **** 
 860:Drivers/STM32F1xx_HAL_Driver/Src/stm32f1xx_hal_hcd.c ****       case HAL_HCD_PORT_DISABLED_CB_ID :
 861:Drivers/STM32F1xx_HAL_Driver/Src/stm32f1xx_hal_hcd.c ****         hhcd->PortDisabledCallback = HAL_HCD_PortDisabled_Callback;
 862:Drivers/STM32F1xx_HAL_Driver/Src/stm32f1xx_hal_hcd.c ****         break;
 863:Drivers/STM32F1xx_HAL_Driver/Src/stm32f1xx_hal_hcd.c **** 
 864:Drivers/STM32F1xx_HAL_Driver/Src/stm32f1xx_hal_hcd.c ****       case HAL_HCD_MSPINIT_CB_ID :
 865:Drivers/STM32F1xx_HAL_Driver/Src/stm32f1xx_hal_hcd.c ****         hhcd->MspInitCallback = HAL_HCD_MspInit;
 866:Drivers/STM32F1xx_HAL_Driver/Src/stm32f1xx_hal_hcd.c ****         break;
 867:Drivers/STM32F1xx_HAL_Driver/Src/stm32f1xx_hal_hcd.c **** 
 868:Drivers/STM32F1xx_HAL_Driver/Src/stm32f1xx_hal_hcd.c ****       case HAL_HCD_MSPDEINIT_CB_ID :
 869:Drivers/STM32F1xx_HAL_Driver/Src/stm32f1xx_hal_hcd.c ****         hhcd->MspDeInitCallback = HAL_HCD_MspDeInit;
 870:Drivers/STM32F1xx_HAL_Driver/Src/stm32f1xx_hal_hcd.c ****         break;
 871:Drivers/STM32F1xx_HAL_Driver/Src/stm32f1xx_hal_hcd.c **** 
 872:Drivers/STM32F1xx_HAL_Driver/Src/stm32f1xx_hal_hcd.c ****       default :
 873:Drivers/STM32F1xx_HAL_Driver/Src/stm32f1xx_hal_hcd.c ****         /* Update the error code */
 874:Drivers/STM32F1xx_HAL_Driver/Src/stm32f1xx_hal_hcd.c ****         hhcd->ErrorCode |= HAL_HCD_ERROR_INVALID_CALLBACK;
 875:Drivers/STM32F1xx_HAL_Driver/Src/stm32f1xx_hal_hcd.c **** 
 876:Drivers/STM32F1xx_HAL_Driver/Src/stm32f1xx_hal_hcd.c ****         /* Return error status */
 877:Drivers/STM32F1xx_HAL_Driver/Src/stm32f1xx_hal_hcd.c ****         status =  HAL_ERROR;
 878:Drivers/STM32F1xx_HAL_Driver/Src/stm32f1xx_hal_hcd.c ****         break;
 879:Drivers/STM32F1xx_HAL_Driver/Src/stm32f1xx_hal_hcd.c ****     }
 880:Drivers/STM32F1xx_HAL_Driver/Src/stm32f1xx_hal_hcd.c ****   }
 881:Drivers/STM32F1xx_HAL_Driver/Src/stm32f1xx_hal_hcd.c ****   else if (hhcd->State == HAL_HCD_STATE_RESET)
 882:Drivers/STM32F1xx_HAL_Driver/Src/stm32f1xx_hal_hcd.c ****   {
 883:Drivers/STM32F1xx_HAL_Driver/Src/stm32f1xx_hal_hcd.c ****     switch (CallbackID)
 884:Drivers/STM32F1xx_HAL_Driver/Src/stm32f1xx_hal_hcd.c ****     {
 885:Drivers/STM32F1xx_HAL_Driver/Src/stm32f1xx_hal_hcd.c ****       case HAL_HCD_MSPINIT_CB_ID :
 886:Drivers/STM32F1xx_HAL_Driver/Src/stm32f1xx_hal_hcd.c ****         hhcd->MspInitCallback = HAL_HCD_MspInit;
 887:Drivers/STM32F1xx_HAL_Driver/Src/stm32f1xx_hal_hcd.c ****         break;
ARM GAS  /tmp/ccldPFyH.s 			page 17


 888:Drivers/STM32F1xx_HAL_Driver/Src/stm32f1xx_hal_hcd.c **** 
 889:Drivers/STM32F1xx_HAL_Driver/Src/stm32f1xx_hal_hcd.c ****       case HAL_HCD_MSPDEINIT_CB_ID :
 890:Drivers/STM32F1xx_HAL_Driver/Src/stm32f1xx_hal_hcd.c ****         hhcd->MspDeInitCallback = HAL_HCD_MspDeInit;
 891:Drivers/STM32F1xx_HAL_Driver/Src/stm32f1xx_hal_hcd.c ****         break;
 892:Drivers/STM32F1xx_HAL_Driver/Src/stm32f1xx_hal_hcd.c **** 
 893:Drivers/STM32F1xx_HAL_Driver/Src/stm32f1xx_hal_hcd.c ****       default :
 894:Drivers/STM32F1xx_HAL_Driver/Src/stm32f1xx_hal_hcd.c ****         /* Update the error code */
 895:Drivers/STM32F1xx_HAL_Driver/Src/stm32f1xx_hal_hcd.c ****         hhcd->ErrorCode |= HAL_HCD_ERROR_INVALID_CALLBACK;
 896:Drivers/STM32F1xx_HAL_Driver/Src/stm32f1xx_hal_hcd.c **** 
 897:Drivers/STM32F1xx_HAL_Driver/Src/stm32f1xx_hal_hcd.c ****         /* Return error status */
 898:Drivers/STM32F1xx_HAL_Driver/Src/stm32f1xx_hal_hcd.c ****         status =  HAL_ERROR;
 899:Drivers/STM32F1xx_HAL_Driver/Src/stm32f1xx_hal_hcd.c ****         break;
 900:Drivers/STM32F1xx_HAL_Driver/Src/stm32f1xx_hal_hcd.c ****     }
 901:Drivers/STM32F1xx_HAL_Driver/Src/stm32f1xx_hal_hcd.c ****   }
 902:Drivers/STM32F1xx_HAL_Driver/Src/stm32f1xx_hal_hcd.c ****   else
 903:Drivers/STM32F1xx_HAL_Driver/Src/stm32f1xx_hal_hcd.c ****   {
 904:Drivers/STM32F1xx_HAL_Driver/Src/stm32f1xx_hal_hcd.c ****     /* Update the error code */
 905:Drivers/STM32F1xx_HAL_Driver/Src/stm32f1xx_hal_hcd.c ****     hhcd->ErrorCode |= HAL_HCD_ERROR_INVALID_CALLBACK;
 906:Drivers/STM32F1xx_HAL_Driver/Src/stm32f1xx_hal_hcd.c **** 
 907:Drivers/STM32F1xx_HAL_Driver/Src/stm32f1xx_hal_hcd.c ****     /* Return error status */
 908:Drivers/STM32F1xx_HAL_Driver/Src/stm32f1xx_hal_hcd.c ****     status =  HAL_ERROR;
 909:Drivers/STM32F1xx_HAL_Driver/Src/stm32f1xx_hal_hcd.c ****   }
 910:Drivers/STM32F1xx_HAL_Driver/Src/stm32f1xx_hal_hcd.c **** 
 911:Drivers/STM32F1xx_HAL_Driver/Src/stm32f1xx_hal_hcd.c ****   /* Release Lock */
 912:Drivers/STM32F1xx_HAL_Driver/Src/stm32f1xx_hal_hcd.c ****   __HAL_UNLOCK(hhcd);
 913:Drivers/STM32F1xx_HAL_Driver/Src/stm32f1xx_hal_hcd.c ****   return status;
 914:Drivers/STM32F1xx_HAL_Driver/Src/stm32f1xx_hal_hcd.c **** }
 915:Drivers/STM32F1xx_HAL_Driver/Src/stm32f1xx_hal_hcd.c **** 
 916:Drivers/STM32F1xx_HAL_Driver/Src/stm32f1xx_hal_hcd.c **** /**
 917:Drivers/STM32F1xx_HAL_Driver/Src/stm32f1xx_hal_hcd.c ****   * @brief  Register USB HCD Host Channel Notify URB Change Callback
 918:Drivers/STM32F1xx_HAL_Driver/Src/stm32f1xx_hal_hcd.c ****   *         To be used instead of the weak HAL_HCD_HC_NotifyURBChange_Callback() predefined callbac
 919:Drivers/STM32F1xx_HAL_Driver/Src/stm32f1xx_hal_hcd.c ****   * @param  hhcd HCD handle
 920:Drivers/STM32F1xx_HAL_Driver/Src/stm32f1xx_hal_hcd.c ****   * @param  pCallback pointer to the USB HCD Host Channel Notify URB Change Callback function
 921:Drivers/STM32F1xx_HAL_Driver/Src/stm32f1xx_hal_hcd.c ****   * @retval HAL status
 922:Drivers/STM32F1xx_HAL_Driver/Src/stm32f1xx_hal_hcd.c ****   */
 923:Drivers/STM32F1xx_HAL_Driver/Src/stm32f1xx_hal_hcd.c **** HAL_StatusTypeDef HAL_HCD_RegisterHC_NotifyURBChangeCallback(HCD_HandleTypeDef *hhcd,
 924:Drivers/STM32F1xx_HAL_Driver/Src/stm32f1xx_hal_hcd.c ****                                                              pHCD_HC_NotifyURBChangeCallbackTypeDef
 925:Drivers/STM32F1xx_HAL_Driver/Src/stm32f1xx_hal_hcd.c **** {
 926:Drivers/STM32F1xx_HAL_Driver/Src/stm32f1xx_hal_hcd.c ****   HAL_StatusTypeDef status = HAL_OK;
 927:Drivers/STM32F1xx_HAL_Driver/Src/stm32f1xx_hal_hcd.c **** 
 928:Drivers/STM32F1xx_HAL_Driver/Src/stm32f1xx_hal_hcd.c ****   if (pCallback == NULL)
 929:Drivers/STM32F1xx_HAL_Driver/Src/stm32f1xx_hal_hcd.c ****   {
 930:Drivers/STM32F1xx_HAL_Driver/Src/stm32f1xx_hal_hcd.c ****     /* Update the error code */
 931:Drivers/STM32F1xx_HAL_Driver/Src/stm32f1xx_hal_hcd.c ****     hhcd->ErrorCode |= HAL_HCD_ERROR_INVALID_CALLBACK;
 932:Drivers/STM32F1xx_HAL_Driver/Src/stm32f1xx_hal_hcd.c **** 
 933:Drivers/STM32F1xx_HAL_Driver/Src/stm32f1xx_hal_hcd.c ****     return HAL_ERROR;
 934:Drivers/STM32F1xx_HAL_Driver/Src/stm32f1xx_hal_hcd.c ****   }
 935:Drivers/STM32F1xx_HAL_Driver/Src/stm32f1xx_hal_hcd.c **** 
 936:Drivers/STM32F1xx_HAL_Driver/Src/stm32f1xx_hal_hcd.c ****   /* Process locked */
 937:Drivers/STM32F1xx_HAL_Driver/Src/stm32f1xx_hal_hcd.c ****   __HAL_LOCK(hhcd);
 938:Drivers/STM32F1xx_HAL_Driver/Src/stm32f1xx_hal_hcd.c **** 
 939:Drivers/STM32F1xx_HAL_Driver/Src/stm32f1xx_hal_hcd.c ****   if (hhcd->State == HAL_HCD_STATE_READY)
 940:Drivers/STM32F1xx_HAL_Driver/Src/stm32f1xx_hal_hcd.c ****   {
 941:Drivers/STM32F1xx_HAL_Driver/Src/stm32f1xx_hal_hcd.c ****     hhcd->HC_NotifyURBChangeCallback = pCallback;
 942:Drivers/STM32F1xx_HAL_Driver/Src/stm32f1xx_hal_hcd.c ****   }
 943:Drivers/STM32F1xx_HAL_Driver/Src/stm32f1xx_hal_hcd.c ****   else
 944:Drivers/STM32F1xx_HAL_Driver/Src/stm32f1xx_hal_hcd.c ****   {
ARM GAS  /tmp/ccldPFyH.s 			page 18


 945:Drivers/STM32F1xx_HAL_Driver/Src/stm32f1xx_hal_hcd.c ****     /* Update the error code */
 946:Drivers/STM32F1xx_HAL_Driver/Src/stm32f1xx_hal_hcd.c ****     hhcd->ErrorCode |= HAL_HCD_ERROR_INVALID_CALLBACK;
 947:Drivers/STM32F1xx_HAL_Driver/Src/stm32f1xx_hal_hcd.c **** 
 948:Drivers/STM32F1xx_HAL_Driver/Src/stm32f1xx_hal_hcd.c ****     /* Return error status */
 949:Drivers/STM32F1xx_HAL_Driver/Src/stm32f1xx_hal_hcd.c ****     status =  HAL_ERROR;
 950:Drivers/STM32F1xx_HAL_Driver/Src/stm32f1xx_hal_hcd.c ****   }
 951:Drivers/STM32F1xx_HAL_Driver/Src/stm32f1xx_hal_hcd.c **** 
 952:Drivers/STM32F1xx_HAL_Driver/Src/stm32f1xx_hal_hcd.c ****   /* Release Lock */
 953:Drivers/STM32F1xx_HAL_Driver/Src/stm32f1xx_hal_hcd.c ****   __HAL_UNLOCK(hhcd);
 954:Drivers/STM32F1xx_HAL_Driver/Src/stm32f1xx_hal_hcd.c **** 
 955:Drivers/STM32F1xx_HAL_Driver/Src/stm32f1xx_hal_hcd.c ****   return status;
 956:Drivers/STM32F1xx_HAL_Driver/Src/stm32f1xx_hal_hcd.c **** }
 957:Drivers/STM32F1xx_HAL_Driver/Src/stm32f1xx_hal_hcd.c **** 
 958:Drivers/STM32F1xx_HAL_Driver/Src/stm32f1xx_hal_hcd.c **** /**
 959:Drivers/STM32F1xx_HAL_Driver/Src/stm32f1xx_hal_hcd.c ****   * @brief  Unregister the USB HCD Host Channel Notify URB Change Callback
 960:Drivers/STM32F1xx_HAL_Driver/Src/stm32f1xx_hal_hcd.c ****   *         USB HCD Host Channel Notify URB Change Callback is redirected to the weak HAL_HCD_HC_No
 961:Drivers/STM32F1xx_HAL_Driver/Src/stm32f1xx_hal_hcd.c ****   * @param  hhcd HCD handle
 962:Drivers/STM32F1xx_HAL_Driver/Src/stm32f1xx_hal_hcd.c ****   * @retval HAL status
 963:Drivers/STM32F1xx_HAL_Driver/Src/stm32f1xx_hal_hcd.c ****   */
 964:Drivers/STM32F1xx_HAL_Driver/Src/stm32f1xx_hal_hcd.c **** HAL_StatusTypeDef HAL_HCD_UnRegisterHC_NotifyURBChangeCallback(HCD_HandleTypeDef *hhcd)
 965:Drivers/STM32F1xx_HAL_Driver/Src/stm32f1xx_hal_hcd.c **** {
 966:Drivers/STM32F1xx_HAL_Driver/Src/stm32f1xx_hal_hcd.c ****   HAL_StatusTypeDef status = HAL_OK;
 967:Drivers/STM32F1xx_HAL_Driver/Src/stm32f1xx_hal_hcd.c **** 
 968:Drivers/STM32F1xx_HAL_Driver/Src/stm32f1xx_hal_hcd.c ****   /* Process locked */
 969:Drivers/STM32F1xx_HAL_Driver/Src/stm32f1xx_hal_hcd.c ****   __HAL_LOCK(hhcd);
 970:Drivers/STM32F1xx_HAL_Driver/Src/stm32f1xx_hal_hcd.c **** 
 971:Drivers/STM32F1xx_HAL_Driver/Src/stm32f1xx_hal_hcd.c ****   if (hhcd->State == HAL_HCD_STATE_READY)
 972:Drivers/STM32F1xx_HAL_Driver/Src/stm32f1xx_hal_hcd.c ****   {
 973:Drivers/STM32F1xx_HAL_Driver/Src/stm32f1xx_hal_hcd.c ****     hhcd->HC_NotifyURBChangeCallback = HAL_HCD_HC_NotifyURBChange_Callback; /* Legacy weak DataOutS
 974:Drivers/STM32F1xx_HAL_Driver/Src/stm32f1xx_hal_hcd.c ****   }
 975:Drivers/STM32F1xx_HAL_Driver/Src/stm32f1xx_hal_hcd.c ****   else
 976:Drivers/STM32F1xx_HAL_Driver/Src/stm32f1xx_hal_hcd.c ****   {
 977:Drivers/STM32F1xx_HAL_Driver/Src/stm32f1xx_hal_hcd.c ****     /* Update the error code */
 978:Drivers/STM32F1xx_HAL_Driver/Src/stm32f1xx_hal_hcd.c ****     hhcd->ErrorCode |= HAL_HCD_ERROR_INVALID_CALLBACK;
 979:Drivers/STM32F1xx_HAL_Driver/Src/stm32f1xx_hal_hcd.c **** 
 980:Drivers/STM32F1xx_HAL_Driver/Src/stm32f1xx_hal_hcd.c ****     /* Return error status */
 981:Drivers/STM32F1xx_HAL_Driver/Src/stm32f1xx_hal_hcd.c ****     status =  HAL_ERROR;
 982:Drivers/STM32F1xx_HAL_Driver/Src/stm32f1xx_hal_hcd.c ****   }
 983:Drivers/STM32F1xx_HAL_Driver/Src/stm32f1xx_hal_hcd.c **** 
 984:Drivers/STM32F1xx_HAL_Driver/Src/stm32f1xx_hal_hcd.c ****   /* Release Lock */
 985:Drivers/STM32F1xx_HAL_Driver/Src/stm32f1xx_hal_hcd.c ****   __HAL_UNLOCK(hhcd);
 986:Drivers/STM32F1xx_HAL_Driver/Src/stm32f1xx_hal_hcd.c **** 
 987:Drivers/STM32F1xx_HAL_Driver/Src/stm32f1xx_hal_hcd.c ****   return status;
 988:Drivers/STM32F1xx_HAL_Driver/Src/stm32f1xx_hal_hcd.c **** }
 989:Drivers/STM32F1xx_HAL_Driver/Src/stm32f1xx_hal_hcd.c **** #endif /* USE_HAL_HCD_REGISTER_CALLBACKS */
 990:Drivers/STM32F1xx_HAL_Driver/Src/stm32f1xx_hal_hcd.c **** 
 991:Drivers/STM32F1xx_HAL_Driver/Src/stm32f1xx_hal_hcd.c **** /**
 992:Drivers/STM32F1xx_HAL_Driver/Src/stm32f1xx_hal_hcd.c ****   * @}
 993:Drivers/STM32F1xx_HAL_Driver/Src/stm32f1xx_hal_hcd.c ****   */
 994:Drivers/STM32F1xx_HAL_Driver/Src/stm32f1xx_hal_hcd.c **** 
 995:Drivers/STM32F1xx_HAL_Driver/Src/stm32f1xx_hal_hcd.c **** /** @defgroup HCD_Exported_Functions_Group3 Peripheral Control functions
 996:Drivers/STM32F1xx_HAL_Driver/Src/stm32f1xx_hal_hcd.c ****   *  @brief   Management functions
 997:Drivers/STM32F1xx_HAL_Driver/Src/stm32f1xx_hal_hcd.c ****   *
 998:Drivers/STM32F1xx_HAL_Driver/Src/stm32f1xx_hal_hcd.c **** @verbatim
 999:Drivers/STM32F1xx_HAL_Driver/Src/stm32f1xx_hal_hcd.c ****  ===============================================================================
1000:Drivers/STM32F1xx_HAL_Driver/Src/stm32f1xx_hal_hcd.c ****                       ##### Peripheral Control functions #####
1001:Drivers/STM32F1xx_HAL_Driver/Src/stm32f1xx_hal_hcd.c ****  ===============================================================================
ARM GAS  /tmp/ccldPFyH.s 			page 19


1002:Drivers/STM32F1xx_HAL_Driver/Src/stm32f1xx_hal_hcd.c ****     [..]
1003:Drivers/STM32F1xx_HAL_Driver/Src/stm32f1xx_hal_hcd.c ****     This subsection provides a set of functions allowing to control the HCD data
1004:Drivers/STM32F1xx_HAL_Driver/Src/stm32f1xx_hal_hcd.c ****     transfers.
1005:Drivers/STM32F1xx_HAL_Driver/Src/stm32f1xx_hal_hcd.c **** 
1006:Drivers/STM32F1xx_HAL_Driver/Src/stm32f1xx_hal_hcd.c **** @endverbatim
1007:Drivers/STM32F1xx_HAL_Driver/Src/stm32f1xx_hal_hcd.c ****   * @{
1008:Drivers/STM32F1xx_HAL_Driver/Src/stm32f1xx_hal_hcd.c ****   */
1009:Drivers/STM32F1xx_HAL_Driver/Src/stm32f1xx_hal_hcd.c **** 
1010:Drivers/STM32F1xx_HAL_Driver/Src/stm32f1xx_hal_hcd.c **** /**
1011:Drivers/STM32F1xx_HAL_Driver/Src/stm32f1xx_hal_hcd.c ****   * @brief  Start the host driver.
1012:Drivers/STM32F1xx_HAL_Driver/Src/stm32f1xx_hal_hcd.c ****   * @param  hhcd HCD handle
1013:Drivers/STM32F1xx_HAL_Driver/Src/stm32f1xx_hal_hcd.c ****   * @retval HAL status
1014:Drivers/STM32F1xx_HAL_Driver/Src/stm32f1xx_hal_hcd.c ****   */
1015:Drivers/STM32F1xx_HAL_Driver/Src/stm32f1xx_hal_hcd.c **** HAL_StatusTypeDef HAL_HCD_Start(HCD_HandleTypeDef *hhcd)
1016:Drivers/STM32F1xx_HAL_Driver/Src/stm32f1xx_hal_hcd.c **** {
1017:Drivers/STM32F1xx_HAL_Driver/Src/stm32f1xx_hal_hcd.c ****   __HAL_LOCK(hhcd);
1018:Drivers/STM32F1xx_HAL_Driver/Src/stm32f1xx_hal_hcd.c ****   __HAL_HCD_ENABLE(hhcd);
1019:Drivers/STM32F1xx_HAL_Driver/Src/stm32f1xx_hal_hcd.c ****   (void)USB_DriveVbus(hhcd->Instance, 1U);
1020:Drivers/STM32F1xx_HAL_Driver/Src/stm32f1xx_hal_hcd.c ****   __HAL_UNLOCK(hhcd);
1021:Drivers/STM32F1xx_HAL_Driver/Src/stm32f1xx_hal_hcd.c **** 
1022:Drivers/STM32F1xx_HAL_Driver/Src/stm32f1xx_hal_hcd.c ****   return HAL_OK;
1023:Drivers/STM32F1xx_HAL_Driver/Src/stm32f1xx_hal_hcd.c **** }
1024:Drivers/STM32F1xx_HAL_Driver/Src/stm32f1xx_hal_hcd.c **** 
1025:Drivers/STM32F1xx_HAL_Driver/Src/stm32f1xx_hal_hcd.c **** /**
1026:Drivers/STM32F1xx_HAL_Driver/Src/stm32f1xx_hal_hcd.c ****   * @brief  Stop the host driver.
1027:Drivers/STM32F1xx_HAL_Driver/Src/stm32f1xx_hal_hcd.c ****   * @param  hhcd HCD handle
1028:Drivers/STM32F1xx_HAL_Driver/Src/stm32f1xx_hal_hcd.c ****   * @retval HAL status
1029:Drivers/STM32F1xx_HAL_Driver/Src/stm32f1xx_hal_hcd.c ****   */
1030:Drivers/STM32F1xx_HAL_Driver/Src/stm32f1xx_hal_hcd.c **** 
1031:Drivers/STM32F1xx_HAL_Driver/Src/stm32f1xx_hal_hcd.c **** HAL_StatusTypeDef HAL_HCD_Stop(HCD_HandleTypeDef *hhcd)
1032:Drivers/STM32F1xx_HAL_Driver/Src/stm32f1xx_hal_hcd.c **** {
1033:Drivers/STM32F1xx_HAL_Driver/Src/stm32f1xx_hal_hcd.c ****   __HAL_LOCK(hhcd);
1034:Drivers/STM32F1xx_HAL_Driver/Src/stm32f1xx_hal_hcd.c ****   (void)USB_StopHost(hhcd->Instance);
1035:Drivers/STM32F1xx_HAL_Driver/Src/stm32f1xx_hal_hcd.c ****   __HAL_UNLOCK(hhcd);
1036:Drivers/STM32F1xx_HAL_Driver/Src/stm32f1xx_hal_hcd.c **** 
1037:Drivers/STM32F1xx_HAL_Driver/Src/stm32f1xx_hal_hcd.c ****   return HAL_OK;
1038:Drivers/STM32F1xx_HAL_Driver/Src/stm32f1xx_hal_hcd.c **** }
1039:Drivers/STM32F1xx_HAL_Driver/Src/stm32f1xx_hal_hcd.c **** 
1040:Drivers/STM32F1xx_HAL_Driver/Src/stm32f1xx_hal_hcd.c **** /**
1041:Drivers/STM32F1xx_HAL_Driver/Src/stm32f1xx_hal_hcd.c ****   * @brief  Reset the host port.
1042:Drivers/STM32F1xx_HAL_Driver/Src/stm32f1xx_hal_hcd.c ****   * @param  hhcd HCD handle
1043:Drivers/STM32F1xx_HAL_Driver/Src/stm32f1xx_hal_hcd.c ****   * @retval HAL status
1044:Drivers/STM32F1xx_HAL_Driver/Src/stm32f1xx_hal_hcd.c ****   */
1045:Drivers/STM32F1xx_HAL_Driver/Src/stm32f1xx_hal_hcd.c **** HAL_StatusTypeDef HAL_HCD_ResetPort(HCD_HandleTypeDef *hhcd)
1046:Drivers/STM32F1xx_HAL_Driver/Src/stm32f1xx_hal_hcd.c **** {
1047:Drivers/STM32F1xx_HAL_Driver/Src/stm32f1xx_hal_hcd.c ****   return (USB_ResetPort(hhcd->Instance));
1048:Drivers/STM32F1xx_HAL_Driver/Src/stm32f1xx_hal_hcd.c **** }
1049:Drivers/STM32F1xx_HAL_Driver/Src/stm32f1xx_hal_hcd.c **** 
1050:Drivers/STM32F1xx_HAL_Driver/Src/stm32f1xx_hal_hcd.c **** /**
1051:Drivers/STM32F1xx_HAL_Driver/Src/stm32f1xx_hal_hcd.c ****   * @}
1052:Drivers/STM32F1xx_HAL_Driver/Src/stm32f1xx_hal_hcd.c ****   */
1053:Drivers/STM32F1xx_HAL_Driver/Src/stm32f1xx_hal_hcd.c **** 
1054:Drivers/STM32F1xx_HAL_Driver/Src/stm32f1xx_hal_hcd.c **** /** @defgroup HCD_Exported_Functions_Group4 Peripheral State functions
1055:Drivers/STM32F1xx_HAL_Driver/Src/stm32f1xx_hal_hcd.c ****   *  @brief   Peripheral State functions
1056:Drivers/STM32F1xx_HAL_Driver/Src/stm32f1xx_hal_hcd.c ****   *
1057:Drivers/STM32F1xx_HAL_Driver/Src/stm32f1xx_hal_hcd.c **** @verbatim
1058:Drivers/STM32F1xx_HAL_Driver/Src/stm32f1xx_hal_hcd.c ****  ===============================================================================
ARM GAS  /tmp/ccldPFyH.s 			page 20


1059:Drivers/STM32F1xx_HAL_Driver/Src/stm32f1xx_hal_hcd.c ****                       ##### Peripheral State functions #####
1060:Drivers/STM32F1xx_HAL_Driver/Src/stm32f1xx_hal_hcd.c ****  ===============================================================================
1061:Drivers/STM32F1xx_HAL_Driver/Src/stm32f1xx_hal_hcd.c ****     [..]
1062:Drivers/STM32F1xx_HAL_Driver/Src/stm32f1xx_hal_hcd.c ****     This subsection permits to get in run-time the status of the peripheral
1063:Drivers/STM32F1xx_HAL_Driver/Src/stm32f1xx_hal_hcd.c ****     and the data flow.
1064:Drivers/STM32F1xx_HAL_Driver/Src/stm32f1xx_hal_hcd.c **** 
1065:Drivers/STM32F1xx_HAL_Driver/Src/stm32f1xx_hal_hcd.c **** @endverbatim
1066:Drivers/STM32F1xx_HAL_Driver/Src/stm32f1xx_hal_hcd.c ****   * @{
1067:Drivers/STM32F1xx_HAL_Driver/Src/stm32f1xx_hal_hcd.c ****   */
1068:Drivers/STM32F1xx_HAL_Driver/Src/stm32f1xx_hal_hcd.c **** 
1069:Drivers/STM32F1xx_HAL_Driver/Src/stm32f1xx_hal_hcd.c **** /**
1070:Drivers/STM32F1xx_HAL_Driver/Src/stm32f1xx_hal_hcd.c ****   * @brief  Return the HCD handle state.
1071:Drivers/STM32F1xx_HAL_Driver/Src/stm32f1xx_hal_hcd.c ****   * @param  hhcd HCD handle
1072:Drivers/STM32F1xx_HAL_Driver/Src/stm32f1xx_hal_hcd.c ****   * @retval HAL state
1073:Drivers/STM32F1xx_HAL_Driver/Src/stm32f1xx_hal_hcd.c ****   */
1074:Drivers/STM32F1xx_HAL_Driver/Src/stm32f1xx_hal_hcd.c **** HCD_StateTypeDef HAL_HCD_GetState(HCD_HandleTypeDef *hhcd)
1075:Drivers/STM32F1xx_HAL_Driver/Src/stm32f1xx_hal_hcd.c **** {
1076:Drivers/STM32F1xx_HAL_Driver/Src/stm32f1xx_hal_hcd.c ****   return hhcd->State;
1077:Drivers/STM32F1xx_HAL_Driver/Src/stm32f1xx_hal_hcd.c **** }
1078:Drivers/STM32F1xx_HAL_Driver/Src/stm32f1xx_hal_hcd.c **** 
1079:Drivers/STM32F1xx_HAL_Driver/Src/stm32f1xx_hal_hcd.c **** /**
1080:Drivers/STM32F1xx_HAL_Driver/Src/stm32f1xx_hal_hcd.c ****   * @brief  Return  URB state for a channel.
1081:Drivers/STM32F1xx_HAL_Driver/Src/stm32f1xx_hal_hcd.c ****   * @param  hhcd HCD handle
1082:Drivers/STM32F1xx_HAL_Driver/Src/stm32f1xx_hal_hcd.c ****   * @param  chnum Channel number.
1083:Drivers/STM32F1xx_HAL_Driver/Src/stm32f1xx_hal_hcd.c ****   *         This parameter can be a value from 1 to 15
1084:Drivers/STM32F1xx_HAL_Driver/Src/stm32f1xx_hal_hcd.c ****   * @retval URB state.
1085:Drivers/STM32F1xx_HAL_Driver/Src/stm32f1xx_hal_hcd.c ****   *          This parameter can be one of these values:
1086:Drivers/STM32F1xx_HAL_Driver/Src/stm32f1xx_hal_hcd.c ****   *            URB_IDLE/
1087:Drivers/STM32F1xx_HAL_Driver/Src/stm32f1xx_hal_hcd.c ****   *            URB_DONE/
1088:Drivers/STM32F1xx_HAL_Driver/Src/stm32f1xx_hal_hcd.c ****   *            URB_NOTREADY/
1089:Drivers/STM32F1xx_HAL_Driver/Src/stm32f1xx_hal_hcd.c ****   *            URB_NYET/
1090:Drivers/STM32F1xx_HAL_Driver/Src/stm32f1xx_hal_hcd.c ****   *            URB_ERROR/
1091:Drivers/STM32F1xx_HAL_Driver/Src/stm32f1xx_hal_hcd.c ****   *            URB_STALL
1092:Drivers/STM32F1xx_HAL_Driver/Src/stm32f1xx_hal_hcd.c ****   */
1093:Drivers/STM32F1xx_HAL_Driver/Src/stm32f1xx_hal_hcd.c **** HCD_URBStateTypeDef HAL_HCD_HC_GetURBState(HCD_HandleTypeDef *hhcd, uint8_t chnum)
1094:Drivers/STM32F1xx_HAL_Driver/Src/stm32f1xx_hal_hcd.c **** {
1095:Drivers/STM32F1xx_HAL_Driver/Src/stm32f1xx_hal_hcd.c ****   return hhcd->hc[chnum].urb_state;
1096:Drivers/STM32F1xx_HAL_Driver/Src/stm32f1xx_hal_hcd.c **** }
1097:Drivers/STM32F1xx_HAL_Driver/Src/stm32f1xx_hal_hcd.c **** 
1098:Drivers/STM32F1xx_HAL_Driver/Src/stm32f1xx_hal_hcd.c **** 
1099:Drivers/STM32F1xx_HAL_Driver/Src/stm32f1xx_hal_hcd.c **** /**
1100:Drivers/STM32F1xx_HAL_Driver/Src/stm32f1xx_hal_hcd.c ****   * @brief  Return the last host transfer size.
1101:Drivers/STM32F1xx_HAL_Driver/Src/stm32f1xx_hal_hcd.c ****   * @param  hhcd HCD handle
1102:Drivers/STM32F1xx_HAL_Driver/Src/stm32f1xx_hal_hcd.c ****   * @param  chnum Channel number.
1103:Drivers/STM32F1xx_HAL_Driver/Src/stm32f1xx_hal_hcd.c ****   *         This parameter can be a value from 1 to 15
1104:Drivers/STM32F1xx_HAL_Driver/Src/stm32f1xx_hal_hcd.c ****   * @retval last transfer size in byte
1105:Drivers/STM32F1xx_HAL_Driver/Src/stm32f1xx_hal_hcd.c ****   */
1106:Drivers/STM32F1xx_HAL_Driver/Src/stm32f1xx_hal_hcd.c **** uint32_t HAL_HCD_HC_GetXferCount(HCD_HandleTypeDef *hhcd, uint8_t chnum)
1107:Drivers/STM32F1xx_HAL_Driver/Src/stm32f1xx_hal_hcd.c **** {
1108:Drivers/STM32F1xx_HAL_Driver/Src/stm32f1xx_hal_hcd.c ****   return hhcd->hc[chnum].xfer_count;
1109:Drivers/STM32F1xx_HAL_Driver/Src/stm32f1xx_hal_hcd.c **** }
1110:Drivers/STM32F1xx_HAL_Driver/Src/stm32f1xx_hal_hcd.c **** 
1111:Drivers/STM32F1xx_HAL_Driver/Src/stm32f1xx_hal_hcd.c **** /**
1112:Drivers/STM32F1xx_HAL_Driver/Src/stm32f1xx_hal_hcd.c ****   * @brief  Return the Host Channel state.
1113:Drivers/STM32F1xx_HAL_Driver/Src/stm32f1xx_hal_hcd.c ****   * @param  hhcd HCD handle
1114:Drivers/STM32F1xx_HAL_Driver/Src/stm32f1xx_hal_hcd.c ****   * @param  chnum Channel number.
1115:Drivers/STM32F1xx_HAL_Driver/Src/stm32f1xx_hal_hcd.c ****   *         This parameter can be a value from 1 to 15
ARM GAS  /tmp/ccldPFyH.s 			page 21


1116:Drivers/STM32F1xx_HAL_Driver/Src/stm32f1xx_hal_hcd.c ****   * @retval Host channel state
1117:Drivers/STM32F1xx_HAL_Driver/Src/stm32f1xx_hal_hcd.c ****   *          This parameter can be one of these values:
1118:Drivers/STM32F1xx_HAL_Driver/Src/stm32f1xx_hal_hcd.c ****   *            HC_IDLE/
1119:Drivers/STM32F1xx_HAL_Driver/Src/stm32f1xx_hal_hcd.c ****   *            HC_XFRC/
1120:Drivers/STM32F1xx_HAL_Driver/Src/stm32f1xx_hal_hcd.c ****   *            HC_HALTED/
1121:Drivers/STM32F1xx_HAL_Driver/Src/stm32f1xx_hal_hcd.c ****   *            HC_NYET/
1122:Drivers/STM32F1xx_HAL_Driver/Src/stm32f1xx_hal_hcd.c ****   *            HC_NAK/
1123:Drivers/STM32F1xx_HAL_Driver/Src/stm32f1xx_hal_hcd.c ****   *            HC_STALL/
1124:Drivers/STM32F1xx_HAL_Driver/Src/stm32f1xx_hal_hcd.c ****   *            HC_XACTERR/
1125:Drivers/STM32F1xx_HAL_Driver/Src/stm32f1xx_hal_hcd.c ****   *            HC_BBLERR/
1126:Drivers/STM32F1xx_HAL_Driver/Src/stm32f1xx_hal_hcd.c ****   *            HC_DATATGLERR
1127:Drivers/STM32F1xx_HAL_Driver/Src/stm32f1xx_hal_hcd.c ****   */
1128:Drivers/STM32F1xx_HAL_Driver/Src/stm32f1xx_hal_hcd.c **** HCD_HCStateTypeDef  HAL_HCD_HC_GetState(HCD_HandleTypeDef *hhcd, uint8_t chnum)
1129:Drivers/STM32F1xx_HAL_Driver/Src/stm32f1xx_hal_hcd.c **** {
1130:Drivers/STM32F1xx_HAL_Driver/Src/stm32f1xx_hal_hcd.c ****   return hhcd->hc[chnum].state;
1131:Drivers/STM32F1xx_HAL_Driver/Src/stm32f1xx_hal_hcd.c **** }
1132:Drivers/STM32F1xx_HAL_Driver/Src/stm32f1xx_hal_hcd.c **** 
1133:Drivers/STM32F1xx_HAL_Driver/Src/stm32f1xx_hal_hcd.c **** /**
1134:Drivers/STM32F1xx_HAL_Driver/Src/stm32f1xx_hal_hcd.c ****   * @brief  Return the current Host frame number.
1135:Drivers/STM32F1xx_HAL_Driver/Src/stm32f1xx_hal_hcd.c ****   * @param  hhcd HCD handle
1136:Drivers/STM32F1xx_HAL_Driver/Src/stm32f1xx_hal_hcd.c ****   * @retval Current Host frame number
1137:Drivers/STM32F1xx_HAL_Driver/Src/stm32f1xx_hal_hcd.c ****   */
1138:Drivers/STM32F1xx_HAL_Driver/Src/stm32f1xx_hal_hcd.c **** uint32_t HAL_HCD_GetCurrentFrame(HCD_HandleTypeDef *hhcd)
1139:Drivers/STM32F1xx_HAL_Driver/Src/stm32f1xx_hal_hcd.c **** {
1140:Drivers/STM32F1xx_HAL_Driver/Src/stm32f1xx_hal_hcd.c ****   return (USB_GetCurrentFrame(hhcd->Instance));
1141:Drivers/STM32F1xx_HAL_Driver/Src/stm32f1xx_hal_hcd.c **** }
1142:Drivers/STM32F1xx_HAL_Driver/Src/stm32f1xx_hal_hcd.c **** 
1143:Drivers/STM32F1xx_HAL_Driver/Src/stm32f1xx_hal_hcd.c **** /**
1144:Drivers/STM32F1xx_HAL_Driver/Src/stm32f1xx_hal_hcd.c ****   * @brief  Return the Host enumeration speed.
1145:Drivers/STM32F1xx_HAL_Driver/Src/stm32f1xx_hal_hcd.c ****   * @param  hhcd HCD handle
1146:Drivers/STM32F1xx_HAL_Driver/Src/stm32f1xx_hal_hcd.c ****   * @retval Enumeration speed
1147:Drivers/STM32F1xx_HAL_Driver/Src/stm32f1xx_hal_hcd.c ****   */
1148:Drivers/STM32F1xx_HAL_Driver/Src/stm32f1xx_hal_hcd.c **** uint32_t HAL_HCD_GetCurrentSpeed(HCD_HandleTypeDef *hhcd)
1149:Drivers/STM32F1xx_HAL_Driver/Src/stm32f1xx_hal_hcd.c **** {
1150:Drivers/STM32F1xx_HAL_Driver/Src/stm32f1xx_hal_hcd.c ****   return (USB_GetHostSpeed(hhcd->Instance));
1151:Drivers/STM32F1xx_HAL_Driver/Src/stm32f1xx_hal_hcd.c **** }
1152:Drivers/STM32F1xx_HAL_Driver/Src/stm32f1xx_hal_hcd.c **** 
1153:Drivers/STM32F1xx_HAL_Driver/Src/stm32f1xx_hal_hcd.c **** /**
1154:Drivers/STM32F1xx_HAL_Driver/Src/stm32f1xx_hal_hcd.c ****   * @}
1155:Drivers/STM32F1xx_HAL_Driver/Src/stm32f1xx_hal_hcd.c ****   */
1156:Drivers/STM32F1xx_HAL_Driver/Src/stm32f1xx_hal_hcd.c **** 
1157:Drivers/STM32F1xx_HAL_Driver/Src/stm32f1xx_hal_hcd.c **** /**
1158:Drivers/STM32F1xx_HAL_Driver/Src/stm32f1xx_hal_hcd.c ****   * @}
1159:Drivers/STM32F1xx_HAL_Driver/Src/stm32f1xx_hal_hcd.c ****   */
1160:Drivers/STM32F1xx_HAL_Driver/Src/stm32f1xx_hal_hcd.c **** 
1161:Drivers/STM32F1xx_HAL_Driver/Src/stm32f1xx_hal_hcd.c **** /** @addtogroup HCD_Private_Functions
1162:Drivers/STM32F1xx_HAL_Driver/Src/stm32f1xx_hal_hcd.c ****   * @{
1163:Drivers/STM32F1xx_HAL_Driver/Src/stm32f1xx_hal_hcd.c ****   */
1164:Drivers/STM32F1xx_HAL_Driver/Src/stm32f1xx_hal_hcd.c **** /**
1165:Drivers/STM32F1xx_HAL_Driver/Src/stm32f1xx_hal_hcd.c ****   * @brief  Handle Host Channel IN interrupt requests.
1166:Drivers/STM32F1xx_HAL_Driver/Src/stm32f1xx_hal_hcd.c ****   * @param  hhcd HCD handle
1167:Drivers/STM32F1xx_HAL_Driver/Src/stm32f1xx_hal_hcd.c ****   * @param  chnum Channel number.
1168:Drivers/STM32F1xx_HAL_Driver/Src/stm32f1xx_hal_hcd.c ****   *         This parameter can be a value from 1 to 15
1169:Drivers/STM32F1xx_HAL_Driver/Src/stm32f1xx_hal_hcd.c ****   * @retval none
1170:Drivers/STM32F1xx_HAL_Driver/Src/stm32f1xx_hal_hcd.c ****   */
1171:Drivers/STM32F1xx_HAL_Driver/Src/stm32f1xx_hal_hcd.c **** static void HCD_HC_IN_IRQHandler(HCD_HandleTypeDef *hhcd, uint8_t chnum)
1172:Drivers/STM32F1xx_HAL_Driver/Src/stm32f1xx_hal_hcd.c **** {
ARM GAS  /tmp/ccldPFyH.s 			page 22


1173:Drivers/STM32F1xx_HAL_Driver/Src/stm32f1xx_hal_hcd.c ****   USB_OTG_GlobalTypeDef *USBx = hhcd->Instance;
1174:Drivers/STM32F1xx_HAL_Driver/Src/stm32f1xx_hal_hcd.c ****   uint32_t USBx_BASE = (uint32_t)USBx;
1175:Drivers/STM32F1xx_HAL_Driver/Src/stm32f1xx_hal_hcd.c ****   uint32_t ch_num = (uint32_t)chnum;
1176:Drivers/STM32F1xx_HAL_Driver/Src/stm32f1xx_hal_hcd.c **** 
1177:Drivers/STM32F1xx_HAL_Driver/Src/stm32f1xx_hal_hcd.c ****   uint32_t tmpreg;
1178:Drivers/STM32F1xx_HAL_Driver/Src/stm32f1xx_hal_hcd.c **** 
1179:Drivers/STM32F1xx_HAL_Driver/Src/stm32f1xx_hal_hcd.c ****   if ((USBx_HC(ch_num)->HCINT & USB_OTG_HCINT_AHBERR) == USB_OTG_HCINT_AHBERR)
1180:Drivers/STM32F1xx_HAL_Driver/Src/stm32f1xx_hal_hcd.c ****   {
1181:Drivers/STM32F1xx_HAL_Driver/Src/stm32f1xx_hal_hcd.c ****     __HAL_HCD_CLEAR_HC_INT(ch_num, USB_OTG_HCINT_AHBERR);
1182:Drivers/STM32F1xx_HAL_Driver/Src/stm32f1xx_hal_hcd.c ****     __HAL_HCD_UNMASK_HALT_HC_INT(ch_num);
1183:Drivers/STM32F1xx_HAL_Driver/Src/stm32f1xx_hal_hcd.c ****   }
1184:Drivers/STM32F1xx_HAL_Driver/Src/stm32f1xx_hal_hcd.c ****   else if ((USBx_HC(ch_num)->HCINT & USB_OTG_HCINT_BBERR) == USB_OTG_HCINT_BBERR)
1185:Drivers/STM32F1xx_HAL_Driver/Src/stm32f1xx_hal_hcd.c ****   {
1186:Drivers/STM32F1xx_HAL_Driver/Src/stm32f1xx_hal_hcd.c ****     __HAL_HCD_CLEAR_HC_INT(ch_num, USB_OTG_HCINT_BBERR);
1187:Drivers/STM32F1xx_HAL_Driver/Src/stm32f1xx_hal_hcd.c ****     hhcd->hc[ch_num].state = HC_BBLERR;
1188:Drivers/STM32F1xx_HAL_Driver/Src/stm32f1xx_hal_hcd.c ****     __HAL_HCD_UNMASK_HALT_HC_INT(ch_num);
1189:Drivers/STM32F1xx_HAL_Driver/Src/stm32f1xx_hal_hcd.c ****     (void)USB_HC_Halt(hhcd->Instance, (uint8_t)ch_num);
1190:Drivers/STM32F1xx_HAL_Driver/Src/stm32f1xx_hal_hcd.c ****   }
1191:Drivers/STM32F1xx_HAL_Driver/Src/stm32f1xx_hal_hcd.c ****   else if ((USBx_HC(ch_num)->HCINT & USB_OTG_HCINT_ACK) == USB_OTG_HCINT_ACK)
1192:Drivers/STM32F1xx_HAL_Driver/Src/stm32f1xx_hal_hcd.c ****   {
1193:Drivers/STM32F1xx_HAL_Driver/Src/stm32f1xx_hal_hcd.c ****     __HAL_HCD_CLEAR_HC_INT(ch_num, USB_OTG_HCINT_ACK);
1194:Drivers/STM32F1xx_HAL_Driver/Src/stm32f1xx_hal_hcd.c ****   }
1195:Drivers/STM32F1xx_HAL_Driver/Src/stm32f1xx_hal_hcd.c ****   else if ((USBx_HC(ch_num)->HCINT & USB_OTG_HCINT_STALL) == USB_OTG_HCINT_STALL)
1196:Drivers/STM32F1xx_HAL_Driver/Src/stm32f1xx_hal_hcd.c ****   {
1197:Drivers/STM32F1xx_HAL_Driver/Src/stm32f1xx_hal_hcd.c ****     __HAL_HCD_UNMASK_HALT_HC_INT(ch_num);
1198:Drivers/STM32F1xx_HAL_Driver/Src/stm32f1xx_hal_hcd.c ****     hhcd->hc[ch_num].state = HC_STALL;
1199:Drivers/STM32F1xx_HAL_Driver/Src/stm32f1xx_hal_hcd.c ****     __HAL_HCD_CLEAR_HC_INT(ch_num, USB_OTG_HCINT_NAK);
1200:Drivers/STM32F1xx_HAL_Driver/Src/stm32f1xx_hal_hcd.c ****     __HAL_HCD_CLEAR_HC_INT(ch_num, USB_OTG_HCINT_STALL);
1201:Drivers/STM32F1xx_HAL_Driver/Src/stm32f1xx_hal_hcd.c ****     (void)USB_HC_Halt(hhcd->Instance, (uint8_t)ch_num);
1202:Drivers/STM32F1xx_HAL_Driver/Src/stm32f1xx_hal_hcd.c ****   }
1203:Drivers/STM32F1xx_HAL_Driver/Src/stm32f1xx_hal_hcd.c ****   else if ((USBx_HC(ch_num)->HCINT & USB_OTG_HCINT_DTERR) == USB_OTG_HCINT_DTERR)
1204:Drivers/STM32F1xx_HAL_Driver/Src/stm32f1xx_hal_hcd.c ****   {
1205:Drivers/STM32F1xx_HAL_Driver/Src/stm32f1xx_hal_hcd.c ****     __HAL_HCD_UNMASK_HALT_HC_INT(ch_num);
1206:Drivers/STM32F1xx_HAL_Driver/Src/stm32f1xx_hal_hcd.c ****     (void)USB_HC_Halt(hhcd->Instance, (uint8_t)ch_num);
1207:Drivers/STM32F1xx_HAL_Driver/Src/stm32f1xx_hal_hcd.c ****     __HAL_HCD_CLEAR_HC_INT(ch_num, USB_OTG_HCINT_NAK);
1208:Drivers/STM32F1xx_HAL_Driver/Src/stm32f1xx_hal_hcd.c ****     hhcd->hc[ch_num].state = HC_DATATGLERR;
1209:Drivers/STM32F1xx_HAL_Driver/Src/stm32f1xx_hal_hcd.c ****     __HAL_HCD_CLEAR_HC_INT(ch_num, USB_OTG_HCINT_DTERR);
1210:Drivers/STM32F1xx_HAL_Driver/Src/stm32f1xx_hal_hcd.c ****   }
1211:Drivers/STM32F1xx_HAL_Driver/Src/stm32f1xx_hal_hcd.c ****   else
1212:Drivers/STM32F1xx_HAL_Driver/Src/stm32f1xx_hal_hcd.c ****   {
1213:Drivers/STM32F1xx_HAL_Driver/Src/stm32f1xx_hal_hcd.c ****     /* ... */
1214:Drivers/STM32F1xx_HAL_Driver/Src/stm32f1xx_hal_hcd.c ****   }
1215:Drivers/STM32F1xx_HAL_Driver/Src/stm32f1xx_hal_hcd.c **** 
1216:Drivers/STM32F1xx_HAL_Driver/Src/stm32f1xx_hal_hcd.c ****   if ((USBx_HC(ch_num)->HCINT & USB_OTG_HCINT_FRMOR) == USB_OTG_HCINT_FRMOR)
1217:Drivers/STM32F1xx_HAL_Driver/Src/stm32f1xx_hal_hcd.c ****   {
1218:Drivers/STM32F1xx_HAL_Driver/Src/stm32f1xx_hal_hcd.c ****     __HAL_HCD_UNMASK_HALT_HC_INT(ch_num);
1219:Drivers/STM32F1xx_HAL_Driver/Src/stm32f1xx_hal_hcd.c ****     (void)USB_HC_Halt(hhcd->Instance, (uint8_t)ch_num);
1220:Drivers/STM32F1xx_HAL_Driver/Src/stm32f1xx_hal_hcd.c ****     __HAL_HCD_CLEAR_HC_INT(ch_num, USB_OTG_HCINT_FRMOR);
1221:Drivers/STM32F1xx_HAL_Driver/Src/stm32f1xx_hal_hcd.c ****   }
1222:Drivers/STM32F1xx_HAL_Driver/Src/stm32f1xx_hal_hcd.c ****   else if ((USBx_HC(ch_num)->HCINT & USB_OTG_HCINT_XFRC) == USB_OTG_HCINT_XFRC)
1223:Drivers/STM32F1xx_HAL_Driver/Src/stm32f1xx_hal_hcd.c ****   {
1224:Drivers/STM32F1xx_HAL_Driver/Src/stm32f1xx_hal_hcd.c ****     hhcd->hc[ch_num].state = HC_XFRC;
1225:Drivers/STM32F1xx_HAL_Driver/Src/stm32f1xx_hal_hcd.c ****     hhcd->hc[ch_num].ErrCnt = 0U;
1226:Drivers/STM32F1xx_HAL_Driver/Src/stm32f1xx_hal_hcd.c ****     __HAL_HCD_CLEAR_HC_INT(ch_num, USB_OTG_HCINT_XFRC);
1227:Drivers/STM32F1xx_HAL_Driver/Src/stm32f1xx_hal_hcd.c **** 
1228:Drivers/STM32F1xx_HAL_Driver/Src/stm32f1xx_hal_hcd.c ****     if ((hhcd->hc[ch_num].ep_type == EP_TYPE_CTRL) ||
1229:Drivers/STM32F1xx_HAL_Driver/Src/stm32f1xx_hal_hcd.c ****         (hhcd->hc[ch_num].ep_type == EP_TYPE_BULK))
ARM GAS  /tmp/ccldPFyH.s 			page 23


1230:Drivers/STM32F1xx_HAL_Driver/Src/stm32f1xx_hal_hcd.c ****     {
1231:Drivers/STM32F1xx_HAL_Driver/Src/stm32f1xx_hal_hcd.c ****       __HAL_HCD_UNMASK_HALT_HC_INT(ch_num);
1232:Drivers/STM32F1xx_HAL_Driver/Src/stm32f1xx_hal_hcd.c ****       (void)USB_HC_Halt(hhcd->Instance, (uint8_t)ch_num);
1233:Drivers/STM32F1xx_HAL_Driver/Src/stm32f1xx_hal_hcd.c ****       __HAL_HCD_CLEAR_HC_INT(ch_num, USB_OTG_HCINT_NAK);
1234:Drivers/STM32F1xx_HAL_Driver/Src/stm32f1xx_hal_hcd.c ****     }
1235:Drivers/STM32F1xx_HAL_Driver/Src/stm32f1xx_hal_hcd.c ****     else if (hhcd->hc[ch_num].ep_type == EP_TYPE_INTR)
1236:Drivers/STM32F1xx_HAL_Driver/Src/stm32f1xx_hal_hcd.c ****     {
1237:Drivers/STM32F1xx_HAL_Driver/Src/stm32f1xx_hal_hcd.c ****       USBx_HC(ch_num)->HCCHAR |= USB_OTG_HCCHAR_ODDFRM;
1238:Drivers/STM32F1xx_HAL_Driver/Src/stm32f1xx_hal_hcd.c ****       hhcd->hc[ch_num].urb_state = URB_DONE;
1239:Drivers/STM32F1xx_HAL_Driver/Src/stm32f1xx_hal_hcd.c **** 
1240:Drivers/STM32F1xx_HAL_Driver/Src/stm32f1xx_hal_hcd.c **** #if (USE_HAL_HCD_REGISTER_CALLBACKS == 1U)
1241:Drivers/STM32F1xx_HAL_Driver/Src/stm32f1xx_hal_hcd.c ****       hhcd->HC_NotifyURBChangeCallback(hhcd, (uint8_t)ch_num, hhcd->hc[ch_num].urb_state);
1242:Drivers/STM32F1xx_HAL_Driver/Src/stm32f1xx_hal_hcd.c **** #else
1243:Drivers/STM32F1xx_HAL_Driver/Src/stm32f1xx_hal_hcd.c ****       HAL_HCD_HC_NotifyURBChange_Callback(hhcd, (uint8_t)ch_num, hhcd->hc[ch_num].urb_state);
1244:Drivers/STM32F1xx_HAL_Driver/Src/stm32f1xx_hal_hcd.c **** #endif /* USE_HAL_HCD_REGISTER_CALLBACKS */
1245:Drivers/STM32F1xx_HAL_Driver/Src/stm32f1xx_hal_hcd.c ****     }
1246:Drivers/STM32F1xx_HAL_Driver/Src/stm32f1xx_hal_hcd.c ****     else if (hhcd->hc[ch_num].ep_type == EP_TYPE_ISOC)
1247:Drivers/STM32F1xx_HAL_Driver/Src/stm32f1xx_hal_hcd.c ****     {
1248:Drivers/STM32F1xx_HAL_Driver/Src/stm32f1xx_hal_hcd.c ****       hhcd->hc[ch_num].urb_state = URB_DONE;
1249:Drivers/STM32F1xx_HAL_Driver/Src/stm32f1xx_hal_hcd.c ****       hhcd->hc[ch_num].toggle_in ^= 1U;
1250:Drivers/STM32F1xx_HAL_Driver/Src/stm32f1xx_hal_hcd.c **** 
1251:Drivers/STM32F1xx_HAL_Driver/Src/stm32f1xx_hal_hcd.c **** #if (USE_HAL_HCD_REGISTER_CALLBACKS == 1U)
1252:Drivers/STM32F1xx_HAL_Driver/Src/stm32f1xx_hal_hcd.c ****       hhcd->HC_NotifyURBChangeCallback(hhcd, (uint8_t)ch_num, hhcd->hc[ch_num].urb_state);
1253:Drivers/STM32F1xx_HAL_Driver/Src/stm32f1xx_hal_hcd.c **** #else
1254:Drivers/STM32F1xx_HAL_Driver/Src/stm32f1xx_hal_hcd.c ****       HAL_HCD_HC_NotifyURBChange_Callback(hhcd, (uint8_t)ch_num, hhcd->hc[ch_num].urb_state);
1255:Drivers/STM32F1xx_HAL_Driver/Src/stm32f1xx_hal_hcd.c **** #endif /* USE_HAL_HCD_REGISTER_CALLBACKS */
1256:Drivers/STM32F1xx_HAL_Driver/Src/stm32f1xx_hal_hcd.c ****     }
1257:Drivers/STM32F1xx_HAL_Driver/Src/stm32f1xx_hal_hcd.c ****     else
1258:Drivers/STM32F1xx_HAL_Driver/Src/stm32f1xx_hal_hcd.c ****     {
1259:Drivers/STM32F1xx_HAL_Driver/Src/stm32f1xx_hal_hcd.c ****       /* ... */
1260:Drivers/STM32F1xx_HAL_Driver/Src/stm32f1xx_hal_hcd.c ****     }
1261:Drivers/STM32F1xx_HAL_Driver/Src/stm32f1xx_hal_hcd.c ****     hhcd->hc[ch_num].toggle_in ^= 1U;
1262:Drivers/STM32F1xx_HAL_Driver/Src/stm32f1xx_hal_hcd.c **** 
1263:Drivers/STM32F1xx_HAL_Driver/Src/stm32f1xx_hal_hcd.c ****   }
1264:Drivers/STM32F1xx_HAL_Driver/Src/stm32f1xx_hal_hcd.c ****   else if ((USBx_HC(ch_num)->HCINT & USB_OTG_HCINT_CHH) == USB_OTG_HCINT_CHH)
1265:Drivers/STM32F1xx_HAL_Driver/Src/stm32f1xx_hal_hcd.c ****   {
1266:Drivers/STM32F1xx_HAL_Driver/Src/stm32f1xx_hal_hcd.c ****     __HAL_HCD_MASK_HALT_HC_INT(ch_num);
1267:Drivers/STM32F1xx_HAL_Driver/Src/stm32f1xx_hal_hcd.c **** 
1268:Drivers/STM32F1xx_HAL_Driver/Src/stm32f1xx_hal_hcd.c ****     if (hhcd->hc[ch_num].state == HC_XFRC)
1269:Drivers/STM32F1xx_HAL_Driver/Src/stm32f1xx_hal_hcd.c ****     {
1270:Drivers/STM32F1xx_HAL_Driver/Src/stm32f1xx_hal_hcd.c ****       hhcd->hc[ch_num].urb_state  = URB_DONE;
1271:Drivers/STM32F1xx_HAL_Driver/Src/stm32f1xx_hal_hcd.c ****     }
1272:Drivers/STM32F1xx_HAL_Driver/Src/stm32f1xx_hal_hcd.c ****     else if (hhcd->hc[ch_num].state == HC_STALL)
1273:Drivers/STM32F1xx_HAL_Driver/Src/stm32f1xx_hal_hcd.c ****     {
1274:Drivers/STM32F1xx_HAL_Driver/Src/stm32f1xx_hal_hcd.c ****       hhcd->hc[ch_num].urb_state  = URB_STALL;
1275:Drivers/STM32F1xx_HAL_Driver/Src/stm32f1xx_hal_hcd.c ****     }
1276:Drivers/STM32F1xx_HAL_Driver/Src/stm32f1xx_hal_hcd.c ****     else if ((hhcd->hc[ch_num].state == HC_XACTERR) ||
1277:Drivers/STM32F1xx_HAL_Driver/Src/stm32f1xx_hal_hcd.c ****              (hhcd->hc[ch_num].state == HC_DATATGLERR))
1278:Drivers/STM32F1xx_HAL_Driver/Src/stm32f1xx_hal_hcd.c ****     {
1279:Drivers/STM32F1xx_HAL_Driver/Src/stm32f1xx_hal_hcd.c ****       hhcd->hc[ch_num].ErrCnt++;
1280:Drivers/STM32F1xx_HAL_Driver/Src/stm32f1xx_hal_hcd.c ****       if (hhcd->hc[ch_num].ErrCnt > 3U)
1281:Drivers/STM32F1xx_HAL_Driver/Src/stm32f1xx_hal_hcd.c ****       {
1282:Drivers/STM32F1xx_HAL_Driver/Src/stm32f1xx_hal_hcd.c ****         hhcd->hc[ch_num].ErrCnt = 0U;
1283:Drivers/STM32F1xx_HAL_Driver/Src/stm32f1xx_hal_hcd.c ****         hhcd->hc[ch_num].urb_state = URB_ERROR;
1284:Drivers/STM32F1xx_HAL_Driver/Src/stm32f1xx_hal_hcd.c ****       }
1285:Drivers/STM32F1xx_HAL_Driver/Src/stm32f1xx_hal_hcd.c ****       else
1286:Drivers/STM32F1xx_HAL_Driver/Src/stm32f1xx_hal_hcd.c ****       {
ARM GAS  /tmp/ccldPFyH.s 			page 24


1287:Drivers/STM32F1xx_HAL_Driver/Src/stm32f1xx_hal_hcd.c ****         hhcd->hc[ch_num].urb_state = URB_NOTREADY;
1288:Drivers/STM32F1xx_HAL_Driver/Src/stm32f1xx_hal_hcd.c ****       }
1289:Drivers/STM32F1xx_HAL_Driver/Src/stm32f1xx_hal_hcd.c **** 
1290:Drivers/STM32F1xx_HAL_Driver/Src/stm32f1xx_hal_hcd.c ****       /* re-activate the channel  */
1291:Drivers/STM32F1xx_HAL_Driver/Src/stm32f1xx_hal_hcd.c ****       tmpreg = USBx_HC(ch_num)->HCCHAR;
1292:Drivers/STM32F1xx_HAL_Driver/Src/stm32f1xx_hal_hcd.c ****       tmpreg &= ~USB_OTG_HCCHAR_CHDIS;
1293:Drivers/STM32F1xx_HAL_Driver/Src/stm32f1xx_hal_hcd.c ****       tmpreg |= USB_OTG_HCCHAR_CHENA;
1294:Drivers/STM32F1xx_HAL_Driver/Src/stm32f1xx_hal_hcd.c ****       USBx_HC(ch_num)->HCCHAR = tmpreg;
1295:Drivers/STM32F1xx_HAL_Driver/Src/stm32f1xx_hal_hcd.c ****     }
1296:Drivers/STM32F1xx_HAL_Driver/Src/stm32f1xx_hal_hcd.c ****     else if (hhcd->hc[ch_num].state == HC_NAK)
1297:Drivers/STM32F1xx_HAL_Driver/Src/stm32f1xx_hal_hcd.c ****     {
1298:Drivers/STM32F1xx_HAL_Driver/Src/stm32f1xx_hal_hcd.c ****       hhcd->hc[ch_num].urb_state  = URB_NOTREADY;
1299:Drivers/STM32F1xx_HAL_Driver/Src/stm32f1xx_hal_hcd.c ****       /* re-activate the channel  */
1300:Drivers/STM32F1xx_HAL_Driver/Src/stm32f1xx_hal_hcd.c ****       tmpreg = USBx_HC(ch_num)->HCCHAR;
1301:Drivers/STM32F1xx_HAL_Driver/Src/stm32f1xx_hal_hcd.c ****       tmpreg &= ~USB_OTG_HCCHAR_CHDIS;
1302:Drivers/STM32F1xx_HAL_Driver/Src/stm32f1xx_hal_hcd.c ****       tmpreg |= USB_OTG_HCCHAR_CHENA;
1303:Drivers/STM32F1xx_HAL_Driver/Src/stm32f1xx_hal_hcd.c ****       USBx_HC(ch_num)->HCCHAR = tmpreg;
1304:Drivers/STM32F1xx_HAL_Driver/Src/stm32f1xx_hal_hcd.c ****     }
1305:Drivers/STM32F1xx_HAL_Driver/Src/stm32f1xx_hal_hcd.c ****     else if (hhcd->hc[ch_num].state == HC_BBLERR)
1306:Drivers/STM32F1xx_HAL_Driver/Src/stm32f1xx_hal_hcd.c ****     {
1307:Drivers/STM32F1xx_HAL_Driver/Src/stm32f1xx_hal_hcd.c ****       hhcd->hc[ch_num].ErrCnt++;
1308:Drivers/STM32F1xx_HAL_Driver/Src/stm32f1xx_hal_hcd.c ****       hhcd->hc[ch_num].urb_state = URB_ERROR;
1309:Drivers/STM32F1xx_HAL_Driver/Src/stm32f1xx_hal_hcd.c ****     }
1310:Drivers/STM32F1xx_HAL_Driver/Src/stm32f1xx_hal_hcd.c ****     else
1311:Drivers/STM32F1xx_HAL_Driver/Src/stm32f1xx_hal_hcd.c ****     {
1312:Drivers/STM32F1xx_HAL_Driver/Src/stm32f1xx_hal_hcd.c ****       /* ... */
1313:Drivers/STM32F1xx_HAL_Driver/Src/stm32f1xx_hal_hcd.c ****     }
1314:Drivers/STM32F1xx_HAL_Driver/Src/stm32f1xx_hal_hcd.c ****     __HAL_HCD_CLEAR_HC_INT(ch_num, USB_OTG_HCINT_CHH);
1315:Drivers/STM32F1xx_HAL_Driver/Src/stm32f1xx_hal_hcd.c ****     HAL_HCD_HC_NotifyURBChange_Callback(hhcd, (uint8_t)ch_num, hhcd->hc[ch_num].urb_state);
1316:Drivers/STM32F1xx_HAL_Driver/Src/stm32f1xx_hal_hcd.c ****   }
1317:Drivers/STM32F1xx_HAL_Driver/Src/stm32f1xx_hal_hcd.c ****   else if ((USBx_HC(ch_num)->HCINT & USB_OTG_HCINT_TXERR) == USB_OTG_HCINT_TXERR)
1318:Drivers/STM32F1xx_HAL_Driver/Src/stm32f1xx_hal_hcd.c ****   {
1319:Drivers/STM32F1xx_HAL_Driver/Src/stm32f1xx_hal_hcd.c ****     __HAL_HCD_UNMASK_HALT_HC_INT(ch_num);
1320:Drivers/STM32F1xx_HAL_Driver/Src/stm32f1xx_hal_hcd.c ****     hhcd->hc[ch_num].ErrCnt++;
1321:Drivers/STM32F1xx_HAL_Driver/Src/stm32f1xx_hal_hcd.c ****     hhcd->hc[ch_num].state = HC_XACTERR;
1322:Drivers/STM32F1xx_HAL_Driver/Src/stm32f1xx_hal_hcd.c ****     (void)USB_HC_Halt(hhcd->Instance, (uint8_t)ch_num);
1323:Drivers/STM32F1xx_HAL_Driver/Src/stm32f1xx_hal_hcd.c ****     __HAL_HCD_CLEAR_HC_INT(ch_num, USB_OTG_HCINT_TXERR);
1324:Drivers/STM32F1xx_HAL_Driver/Src/stm32f1xx_hal_hcd.c ****   }
1325:Drivers/STM32F1xx_HAL_Driver/Src/stm32f1xx_hal_hcd.c ****   else if ((USBx_HC(ch_num)->HCINT & USB_OTG_HCINT_NAK) == USB_OTG_HCINT_NAK)
1326:Drivers/STM32F1xx_HAL_Driver/Src/stm32f1xx_hal_hcd.c ****   {
1327:Drivers/STM32F1xx_HAL_Driver/Src/stm32f1xx_hal_hcd.c ****     if (hhcd->hc[ch_num].ep_type == EP_TYPE_INTR)
1328:Drivers/STM32F1xx_HAL_Driver/Src/stm32f1xx_hal_hcd.c ****     {
1329:Drivers/STM32F1xx_HAL_Driver/Src/stm32f1xx_hal_hcd.c ****       hhcd->hc[ch_num].ErrCnt = 0U;
1330:Drivers/STM32F1xx_HAL_Driver/Src/stm32f1xx_hal_hcd.c ****       __HAL_HCD_UNMASK_HALT_HC_INT(ch_num);
1331:Drivers/STM32F1xx_HAL_Driver/Src/stm32f1xx_hal_hcd.c ****       (void)USB_HC_Halt(hhcd->Instance, (uint8_t)ch_num);
1332:Drivers/STM32F1xx_HAL_Driver/Src/stm32f1xx_hal_hcd.c ****     }
1333:Drivers/STM32F1xx_HAL_Driver/Src/stm32f1xx_hal_hcd.c ****     else if ((hhcd->hc[ch_num].ep_type == EP_TYPE_CTRL) ||
1334:Drivers/STM32F1xx_HAL_Driver/Src/stm32f1xx_hal_hcd.c ****              (hhcd->hc[ch_num].ep_type == EP_TYPE_BULK))
1335:Drivers/STM32F1xx_HAL_Driver/Src/stm32f1xx_hal_hcd.c ****     {
1336:Drivers/STM32F1xx_HAL_Driver/Src/stm32f1xx_hal_hcd.c ****       hhcd->hc[ch_num].ErrCnt = 0U;
1337:Drivers/STM32F1xx_HAL_Driver/Src/stm32f1xx_hal_hcd.c ****       hhcd->hc[ch_num].state = HC_NAK;
1338:Drivers/STM32F1xx_HAL_Driver/Src/stm32f1xx_hal_hcd.c ****       __HAL_HCD_UNMASK_HALT_HC_INT(ch_num);
1339:Drivers/STM32F1xx_HAL_Driver/Src/stm32f1xx_hal_hcd.c ****       (void)USB_HC_Halt(hhcd->Instance, (uint8_t)ch_num);
1340:Drivers/STM32F1xx_HAL_Driver/Src/stm32f1xx_hal_hcd.c ****     }
1341:Drivers/STM32F1xx_HAL_Driver/Src/stm32f1xx_hal_hcd.c ****     else
1342:Drivers/STM32F1xx_HAL_Driver/Src/stm32f1xx_hal_hcd.c ****     {
1343:Drivers/STM32F1xx_HAL_Driver/Src/stm32f1xx_hal_hcd.c ****       /* ... */
ARM GAS  /tmp/ccldPFyH.s 			page 25


1344:Drivers/STM32F1xx_HAL_Driver/Src/stm32f1xx_hal_hcd.c ****     }
1345:Drivers/STM32F1xx_HAL_Driver/Src/stm32f1xx_hal_hcd.c ****     __HAL_HCD_CLEAR_HC_INT(ch_num, USB_OTG_HCINT_NAK);
1346:Drivers/STM32F1xx_HAL_Driver/Src/stm32f1xx_hal_hcd.c ****   }
1347:Drivers/STM32F1xx_HAL_Driver/Src/stm32f1xx_hal_hcd.c ****   else
1348:Drivers/STM32F1xx_HAL_Driver/Src/stm32f1xx_hal_hcd.c ****   {
1349:Drivers/STM32F1xx_HAL_Driver/Src/stm32f1xx_hal_hcd.c ****     /* ... */
1350:Drivers/STM32F1xx_HAL_Driver/Src/stm32f1xx_hal_hcd.c ****   }
1351:Drivers/STM32F1xx_HAL_Driver/Src/stm32f1xx_hal_hcd.c **** }
1352:Drivers/STM32F1xx_HAL_Driver/Src/stm32f1xx_hal_hcd.c **** 
1353:Drivers/STM32F1xx_HAL_Driver/Src/stm32f1xx_hal_hcd.c **** /**
1354:Drivers/STM32F1xx_HAL_Driver/Src/stm32f1xx_hal_hcd.c ****   * @brief  Handle Host Channel OUT interrupt requests.
1355:Drivers/STM32F1xx_HAL_Driver/Src/stm32f1xx_hal_hcd.c ****   * @param  hhcd HCD handle
1356:Drivers/STM32F1xx_HAL_Driver/Src/stm32f1xx_hal_hcd.c ****   * @param  chnum Channel number.
1357:Drivers/STM32F1xx_HAL_Driver/Src/stm32f1xx_hal_hcd.c ****   *         This parameter can be a value from 1 to 15
1358:Drivers/STM32F1xx_HAL_Driver/Src/stm32f1xx_hal_hcd.c ****   * @retval none
1359:Drivers/STM32F1xx_HAL_Driver/Src/stm32f1xx_hal_hcd.c ****   */
1360:Drivers/STM32F1xx_HAL_Driver/Src/stm32f1xx_hal_hcd.c **** static void HCD_HC_OUT_IRQHandler(HCD_HandleTypeDef *hhcd, uint8_t chnum)
1361:Drivers/STM32F1xx_HAL_Driver/Src/stm32f1xx_hal_hcd.c **** {
1362:Drivers/STM32F1xx_HAL_Driver/Src/stm32f1xx_hal_hcd.c ****   USB_OTG_GlobalTypeDef *USBx = hhcd->Instance;
1363:Drivers/STM32F1xx_HAL_Driver/Src/stm32f1xx_hal_hcd.c ****   uint32_t USBx_BASE = (uint32_t)USBx;
1364:Drivers/STM32F1xx_HAL_Driver/Src/stm32f1xx_hal_hcd.c ****   uint32_t ch_num = (uint32_t)chnum;
1365:Drivers/STM32F1xx_HAL_Driver/Src/stm32f1xx_hal_hcd.c ****   uint32_t tmpreg;
1366:Drivers/STM32F1xx_HAL_Driver/Src/stm32f1xx_hal_hcd.c **** 
1367:Drivers/STM32F1xx_HAL_Driver/Src/stm32f1xx_hal_hcd.c ****   if ((USBx_HC(ch_num)->HCINT & USB_OTG_HCINT_AHBERR) == USB_OTG_HCINT_AHBERR)
1368:Drivers/STM32F1xx_HAL_Driver/Src/stm32f1xx_hal_hcd.c ****   {
1369:Drivers/STM32F1xx_HAL_Driver/Src/stm32f1xx_hal_hcd.c ****     __HAL_HCD_CLEAR_HC_INT(ch_num, USB_OTG_HCINT_AHBERR);
1370:Drivers/STM32F1xx_HAL_Driver/Src/stm32f1xx_hal_hcd.c ****     __HAL_HCD_UNMASK_HALT_HC_INT(ch_num);
1371:Drivers/STM32F1xx_HAL_Driver/Src/stm32f1xx_hal_hcd.c ****   }
1372:Drivers/STM32F1xx_HAL_Driver/Src/stm32f1xx_hal_hcd.c ****   else if ((USBx_HC(ch_num)->HCINT & USB_OTG_HCINT_ACK) == USB_OTG_HCINT_ACK)
1373:Drivers/STM32F1xx_HAL_Driver/Src/stm32f1xx_hal_hcd.c ****   {
1374:Drivers/STM32F1xx_HAL_Driver/Src/stm32f1xx_hal_hcd.c ****     __HAL_HCD_CLEAR_HC_INT(ch_num, USB_OTG_HCINT_ACK);
1375:Drivers/STM32F1xx_HAL_Driver/Src/stm32f1xx_hal_hcd.c **** 
1376:Drivers/STM32F1xx_HAL_Driver/Src/stm32f1xx_hal_hcd.c ****     if (hhcd->hc[ch_num].do_ping == 1U)
1377:Drivers/STM32F1xx_HAL_Driver/Src/stm32f1xx_hal_hcd.c ****     {
1378:Drivers/STM32F1xx_HAL_Driver/Src/stm32f1xx_hal_hcd.c ****       hhcd->hc[ch_num].do_ping = 0U;
1379:Drivers/STM32F1xx_HAL_Driver/Src/stm32f1xx_hal_hcd.c ****       hhcd->hc[ch_num].urb_state  = URB_NOTREADY;
1380:Drivers/STM32F1xx_HAL_Driver/Src/stm32f1xx_hal_hcd.c ****       __HAL_HCD_UNMASK_HALT_HC_INT(ch_num);
1381:Drivers/STM32F1xx_HAL_Driver/Src/stm32f1xx_hal_hcd.c ****       (void)USB_HC_Halt(hhcd->Instance, (uint8_t)ch_num);
1382:Drivers/STM32F1xx_HAL_Driver/Src/stm32f1xx_hal_hcd.c ****     }
1383:Drivers/STM32F1xx_HAL_Driver/Src/stm32f1xx_hal_hcd.c ****   }
1384:Drivers/STM32F1xx_HAL_Driver/Src/stm32f1xx_hal_hcd.c ****   else if ((USBx_HC(ch_num)->HCINT & USB_OTG_HCINT_NYET) == USB_OTG_HCINT_NYET)
1385:Drivers/STM32F1xx_HAL_Driver/Src/stm32f1xx_hal_hcd.c ****   {
1386:Drivers/STM32F1xx_HAL_Driver/Src/stm32f1xx_hal_hcd.c ****     hhcd->hc[ch_num].state = HC_NYET;
1387:Drivers/STM32F1xx_HAL_Driver/Src/stm32f1xx_hal_hcd.c ****     hhcd->hc[ch_num].do_ping = 1U;
1388:Drivers/STM32F1xx_HAL_Driver/Src/stm32f1xx_hal_hcd.c ****     hhcd->hc[ch_num].ErrCnt = 0U;
1389:Drivers/STM32F1xx_HAL_Driver/Src/stm32f1xx_hal_hcd.c ****     __HAL_HCD_UNMASK_HALT_HC_INT(ch_num);
1390:Drivers/STM32F1xx_HAL_Driver/Src/stm32f1xx_hal_hcd.c ****     (void)USB_HC_Halt(hhcd->Instance, (uint8_t)ch_num);
1391:Drivers/STM32F1xx_HAL_Driver/Src/stm32f1xx_hal_hcd.c ****     __HAL_HCD_CLEAR_HC_INT(ch_num, USB_OTG_HCINT_NYET);
1392:Drivers/STM32F1xx_HAL_Driver/Src/stm32f1xx_hal_hcd.c ****   }
1393:Drivers/STM32F1xx_HAL_Driver/Src/stm32f1xx_hal_hcd.c ****   else if ((USBx_HC(ch_num)->HCINT & USB_OTG_HCINT_FRMOR) == USB_OTG_HCINT_FRMOR)
1394:Drivers/STM32F1xx_HAL_Driver/Src/stm32f1xx_hal_hcd.c ****   {
1395:Drivers/STM32F1xx_HAL_Driver/Src/stm32f1xx_hal_hcd.c ****     __HAL_HCD_UNMASK_HALT_HC_INT(ch_num);
1396:Drivers/STM32F1xx_HAL_Driver/Src/stm32f1xx_hal_hcd.c ****     (void)USB_HC_Halt(hhcd->Instance, (uint8_t)ch_num);
1397:Drivers/STM32F1xx_HAL_Driver/Src/stm32f1xx_hal_hcd.c ****     __HAL_HCD_CLEAR_HC_INT(ch_num, USB_OTG_HCINT_FRMOR);
1398:Drivers/STM32F1xx_HAL_Driver/Src/stm32f1xx_hal_hcd.c ****   }
1399:Drivers/STM32F1xx_HAL_Driver/Src/stm32f1xx_hal_hcd.c ****   else if ((USBx_HC(ch_num)->HCINT & USB_OTG_HCINT_XFRC) == USB_OTG_HCINT_XFRC)
1400:Drivers/STM32F1xx_HAL_Driver/Src/stm32f1xx_hal_hcd.c ****   {
ARM GAS  /tmp/ccldPFyH.s 			page 26


1401:Drivers/STM32F1xx_HAL_Driver/Src/stm32f1xx_hal_hcd.c ****     hhcd->hc[ch_num].ErrCnt = 0U;
1402:Drivers/STM32F1xx_HAL_Driver/Src/stm32f1xx_hal_hcd.c ****     __HAL_HCD_UNMASK_HALT_HC_INT(ch_num);
1403:Drivers/STM32F1xx_HAL_Driver/Src/stm32f1xx_hal_hcd.c ****     (void)USB_HC_Halt(hhcd->Instance, (uint8_t)ch_num);
1404:Drivers/STM32F1xx_HAL_Driver/Src/stm32f1xx_hal_hcd.c ****     __HAL_HCD_CLEAR_HC_INT(ch_num, USB_OTG_HCINT_XFRC);
1405:Drivers/STM32F1xx_HAL_Driver/Src/stm32f1xx_hal_hcd.c ****     hhcd->hc[ch_num].state = HC_XFRC;
1406:Drivers/STM32F1xx_HAL_Driver/Src/stm32f1xx_hal_hcd.c ****   }
1407:Drivers/STM32F1xx_HAL_Driver/Src/stm32f1xx_hal_hcd.c ****   else if ((USBx_HC(ch_num)->HCINT & USB_OTG_HCINT_STALL) == USB_OTG_HCINT_STALL)
1408:Drivers/STM32F1xx_HAL_Driver/Src/stm32f1xx_hal_hcd.c ****   {
1409:Drivers/STM32F1xx_HAL_Driver/Src/stm32f1xx_hal_hcd.c ****     __HAL_HCD_CLEAR_HC_INT(ch_num, USB_OTG_HCINT_STALL);
1410:Drivers/STM32F1xx_HAL_Driver/Src/stm32f1xx_hal_hcd.c ****     __HAL_HCD_UNMASK_HALT_HC_INT(ch_num);
1411:Drivers/STM32F1xx_HAL_Driver/Src/stm32f1xx_hal_hcd.c ****     (void)USB_HC_Halt(hhcd->Instance, (uint8_t)ch_num);
1412:Drivers/STM32F1xx_HAL_Driver/Src/stm32f1xx_hal_hcd.c ****     hhcd->hc[ch_num].state = HC_STALL;
1413:Drivers/STM32F1xx_HAL_Driver/Src/stm32f1xx_hal_hcd.c ****   }
1414:Drivers/STM32F1xx_HAL_Driver/Src/stm32f1xx_hal_hcd.c ****   else if ((USBx_HC(ch_num)->HCINT & USB_OTG_HCINT_NAK) == USB_OTG_HCINT_NAK)
1415:Drivers/STM32F1xx_HAL_Driver/Src/stm32f1xx_hal_hcd.c ****   {
1416:Drivers/STM32F1xx_HAL_Driver/Src/stm32f1xx_hal_hcd.c ****     hhcd->hc[ch_num].ErrCnt = 0U;
1417:Drivers/STM32F1xx_HAL_Driver/Src/stm32f1xx_hal_hcd.c ****     hhcd->hc[ch_num].state = HC_NAK;
1418:Drivers/STM32F1xx_HAL_Driver/Src/stm32f1xx_hal_hcd.c **** 
1419:Drivers/STM32F1xx_HAL_Driver/Src/stm32f1xx_hal_hcd.c ****     __HAL_HCD_UNMASK_HALT_HC_INT(ch_num);
1420:Drivers/STM32F1xx_HAL_Driver/Src/stm32f1xx_hal_hcd.c ****     (void)USB_HC_Halt(hhcd->Instance, (uint8_t)ch_num);
1421:Drivers/STM32F1xx_HAL_Driver/Src/stm32f1xx_hal_hcd.c ****     __HAL_HCD_CLEAR_HC_INT(ch_num, USB_OTG_HCINT_NAK);
1422:Drivers/STM32F1xx_HAL_Driver/Src/stm32f1xx_hal_hcd.c ****   }
1423:Drivers/STM32F1xx_HAL_Driver/Src/stm32f1xx_hal_hcd.c ****   else if ((USBx_HC(ch_num)->HCINT & USB_OTG_HCINT_TXERR) == USB_OTG_HCINT_TXERR)
1424:Drivers/STM32F1xx_HAL_Driver/Src/stm32f1xx_hal_hcd.c ****   {
1425:Drivers/STM32F1xx_HAL_Driver/Src/stm32f1xx_hal_hcd.c ****     __HAL_HCD_UNMASK_HALT_HC_INT(ch_num);
1426:Drivers/STM32F1xx_HAL_Driver/Src/stm32f1xx_hal_hcd.c ****     (void)USB_HC_Halt(hhcd->Instance, (uint8_t)ch_num);
1427:Drivers/STM32F1xx_HAL_Driver/Src/stm32f1xx_hal_hcd.c ****     hhcd->hc[ch_num].state = HC_XACTERR;
1428:Drivers/STM32F1xx_HAL_Driver/Src/stm32f1xx_hal_hcd.c ****     __HAL_HCD_CLEAR_HC_INT(ch_num, USB_OTG_HCINT_TXERR);
1429:Drivers/STM32F1xx_HAL_Driver/Src/stm32f1xx_hal_hcd.c ****   }
1430:Drivers/STM32F1xx_HAL_Driver/Src/stm32f1xx_hal_hcd.c ****   else if ((USBx_HC(ch_num)->HCINT & USB_OTG_HCINT_DTERR) == USB_OTG_HCINT_DTERR)
1431:Drivers/STM32F1xx_HAL_Driver/Src/stm32f1xx_hal_hcd.c ****   {
1432:Drivers/STM32F1xx_HAL_Driver/Src/stm32f1xx_hal_hcd.c ****     __HAL_HCD_UNMASK_HALT_HC_INT(ch_num);
1433:Drivers/STM32F1xx_HAL_Driver/Src/stm32f1xx_hal_hcd.c ****     (void)USB_HC_Halt(hhcd->Instance, (uint8_t)ch_num);
1434:Drivers/STM32F1xx_HAL_Driver/Src/stm32f1xx_hal_hcd.c ****     __HAL_HCD_CLEAR_HC_INT(ch_num, USB_OTG_HCINT_NAK);
1435:Drivers/STM32F1xx_HAL_Driver/Src/stm32f1xx_hal_hcd.c ****     __HAL_HCD_CLEAR_HC_INT(ch_num, USB_OTG_HCINT_DTERR);
1436:Drivers/STM32F1xx_HAL_Driver/Src/stm32f1xx_hal_hcd.c ****     hhcd->hc[ch_num].state = HC_DATATGLERR;
1437:Drivers/STM32F1xx_HAL_Driver/Src/stm32f1xx_hal_hcd.c ****   }
1438:Drivers/STM32F1xx_HAL_Driver/Src/stm32f1xx_hal_hcd.c ****   else if ((USBx_HC(ch_num)->HCINT & USB_OTG_HCINT_CHH) == USB_OTG_HCINT_CHH)
1439:Drivers/STM32F1xx_HAL_Driver/Src/stm32f1xx_hal_hcd.c ****   {
1440:Drivers/STM32F1xx_HAL_Driver/Src/stm32f1xx_hal_hcd.c ****     __HAL_HCD_MASK_HALT_HC_INT(ch_num);
1441:Drivers/STM32F1xx_HAL_Driver/Src/stm32f1xx_hal_hcd.c **** 
1442:Drivers/STM32F1xx_HAL_Driver/Src/stm32f1xx_hal_hcd.c ****     if (hhcd->hc[ch_num].state == HC_XFRC)
1443:Drivers/STM32F1xx_HAL_Driver/Src/stm32f1xx_hal_hcd.c ****     {
1444:Drivers/STM32F1xx_HAL_Driver/Src/stm32f1xx_hal_hcd.c ****       hhcd->hc[ch_num].urb_state  = URB_DONE;
1445:Drivers/STM32F1xx_HAL_Driver/Src/stm32f1xx_hal_hcd.c ****       if ((hhcd->hc[ch_num].ep_type == EP_TYPE_BULK) ||
1446:Drivers/STM32F1xx_HAL_Driver/Src/stm32f1xx_hal_hcd.c ****           (hhcd->hc[ch_num].ep_type == EP_TYPE_INTR))
1447:Drivers/STM32F1xx_HAL_Driver/Src/stm32f1xx_hal_hcd.c ****       {
1448:Drivers/STM32F1xx_HAL_Driver/Src/stm32f1xx_hal_hcd.c ****         hhcd->hc[ch_num].toggle_out ^= 1U;
1449:Drivers/STM32F1xx_HAL_Driver/Src/stm32f1xx_hal_hcd.c ****       }
1450:Drivers/STM32F1xx_HAL_Driver/Src/stm32f1xx_hal_hcd.c ****     }
1451:Drivers/STM32F1xx_HAL_Driver/Src/stm32f1xx_hal_hcd.c ****     else if (hhcd->hc[ch_num].state == HC_NAK)
1452:Drivers/STM32F1xx_HAL_Driver/Src/stm32f1xx_hal_hcd.c ****     {
1453:Drivers/STM32F1xx_HAL_Driver/Src/stm32f1xx_hal_hcd.c ****       hhcd->hc[ch_num].urb_state = URB_NOTREADY;
1454:Drivers/STM32F1xx_HAL_Driver/Src/stm32f1xx_hal_hcd.c ****     }
1455:Drivers/STM32F1xx_HAL_Driver/Src/stm32f1xx_hal_hcd.c ****     else if (hhcd->hc[ch_num].state == HC_NYET)
1456:Drivers/STM32F1xx_HAL_Driver/Src/stm32f1xx_hal_hcd.c ****     {
1457:Drivers/STM32F1xx_HAL_Driver/Src/stm32f1xx_hal_hcd.c ****       hhcd->hc[ch_num].urb_state  = URB_NOTREADY;
ARM GAS  /tmp/ccldPFyH.s 			page 27


1458:Drivers/STM32F1xx_HAL_Driver/Src/stm32f1xx_hal_hcd.c ****     }
1459:Drivers/STM32F1xx_HAL_Driver/Src/stm32f1xx_hal_hcd.c ****     else if (hhcd->hc[ch_num].state == HC_STALL)
1460:Drivers/STM32F1xx_HAL_Driver/Src/stm32f1xx_hal_hcd.c ****     {
1461:Drivers/STM32F1xx_HAL_Driver/Src/stm32f1xx_hal_hcd.c ****       hhcd->hc[ch_num].urb_state  = URB_STALL;
1462:Drivers/STM32F1xx_HAL_Driver/Src/stm32f1xx_hal_hcd.c ****     }
1463:Drivers/STM32F1xx_HAL_Driver/Src/stm32f1xx_hal_hcd.c ****     else if ((hhcd->hc[ch_num].state == HC_XACTERR) ||
1464:Drivers/STM32F1xx_HAL_Driver/Src/stm32f1xx_hal_hcd.c ****              (hhcd->hc[ch_num].state == HC_DATATGLERR))
1465:Drivers/STM32F1xx_HAL_Driver/Src/stm32f1xx_hal_hcd.c ****     {
1466:Drivers/STM32F1xx_HAL_Driver/Src/stm32f1xx_hal_hcd.c ****       hhcd->hc[ch_num].ErrCnt++;
1467:Drivers/STM32F1xx_HAL_Driver/Src/stm32f1xx_hal_hcd.c ****       if (hhcd->hc[ch_num].ErrCnt > 3U)
1468:Drivers/STM32F1xx_HAL_Driver/Src/stm32f1xx_hal_hcd.c ****       {
1469:Drivers/STM32F1xx_HAL_Driver/Src/stm32f1xx_hal_hcd.c ****         hhcd->hc[ch_num].ErrCnt = 0U;
1470:Drivers/STM32F1xx_HAL_Driver/Src/stm32f1xx_hal_hcd.c ****         hhcd->hc[ch_num].urb_state = URB_ERROR;
1471:Drivers/STM32F1xx_HAL_Driver/Src/stm32f1xx_hal_hcd.c ****       }
1472:Drivers/STM32F1xx_HAL_Driver/Src/stm32f1xx_hal_hcd.c ****       else
1473:Drivers/STM32F1xx_HAL_Driver/Src/stm32f1xx_hal_hcd.c ****       {
1474:Drivers/STM32F1xx_HAL_Driver/Src/stm32f1xx_hal_hcd.c ****         hhcd->hc[ch_num].urb_state = URB_NOTREADY;
1475:Drivers/STM32F1xx_HAL_Driver/Src/stm32f1xx_hal_hcd.c ****       }
1476:Drivers/STM32F1xx_HAL_Driver/Src/stm32f1xx_hal_hcd.c **** 
1477:Drivers/STM32F1xx_HAL_Driver/Src/stm32f1xx_hal_hcd.c ****       /* re-activate the channel  */
1478:Drivers/STM32F1xx_HAL_Driver/Src/stm32f1xx_hal_hcd.c ****       tmpreg = USBx_HC(ch_num)->HCCHAR;
1479:Drivers/STM32F1xx_HAL_Driver/Src/stm32f1xx_hal_hcd.c ****       tmpreg &= ~USB_OTG_HCCHAR_CHDIS;
1480:Drivers/STM32F1xx_HAL_Driver/Src/stm32f1xx_hal_hcd.c ****       tmpreg |= USB_OTG_HCCHAR_CHENA;
1481:Drivers/STM32F1xx_HAL_Driver/Src/stm32f1xx_hal_hcd.c ****       USBx_HC(ch_num)->HCCHAR = tmpreg;
1482:Drivers/STM32F1xx_HAL_Driver/Src/stm32f1xx_hal_hcd.c ****     }
1483:Drivers/STM32F1xx_HAL_Driver/Src/stm32f1xx_hal_hcd.c ****     else
1484:Drivers/STM32F1xx_HAL_Driver/Src/stm32f1xx_hal_hcd.c ****     {
1485:Drivers/STM32F1xx_HAL_Driver/Src/stm32f1xx_hal_hcd.c ****       /* ... */
1486:Drivers/STM32F1xx_HAL_Driver/Src/stm32f1xx_hal_hcd.c ****     }
1487:Drivers/STM32F1xx_HAL_Driver/Src/stm32f1xx_hal_hcd.c **** 
1488:Drivers/STM32F1xx_HAL_Driver/Src/stm32f1xx_hal_hcd.c ****     __HAL_HCD_CLEAR_HC_INT(ch_num, USB_OTG_HCINT_CHH);
1489:Drivers/STM32F1xx_HAL_Driver/Src/stm32f1xx_hal_hcd.c ****     HAL_HCD_HC_NotifyURBChange_Callback(hhcd, (uint8_t)ch_num, hhcd->hc[ch_num].urb_state);
1490:Drivers/STM32F1xx_HAL_Driver/Src/stm32f1xx_hal_hcd.c ****   }
1491:Drivers/STM32F1xx_HAL_Driver/Src/stm32f1xx_hal_hcd.c ****   else
1492:Drivers/STM32F1xx_HAL_Driver/Src/stm32f1xx_hal_hcd.c ****   {
1493:Drivers/STM32F1xx_HAL_Driver/Src/stm32f1xx_hal_hcd.c ****     /* ... */
1494:Drivers/STM32F1xx_HAL_Driver/Src/stm32f1xx_hal_hcd.c ****   }
1495:Drivers/STM32F1xx_HAL_Driver/Src/stm32f1xx_hal_hcd.c **** }
1496:Drivers/STM32F1xx_HAL_Driver/Src/stm32f1xx_hal_hcd.c **** 
1497:Drivers/STM32F1xx_HAL_Driver/Src/stm32f1xx_hal_hcd.c **** /**
1498:Drivers/STM32F1xx_HAL_Driver/Src/stm32f1xx_hal_hcd.c ****   * @brief  Handle Rx Queue Level interrupt requests.
1499:Drivers/STM32F1xx_HAL_Driver/Src/stm32f1xx_hal_hcd.c ****   * @param  hhcd HCD handle
1500:Drivers/STM32F1xx_HAL_Driver/Src/stm32f1xx_hal_hcd.c ****   * @retval none
1501:Drivers/STM32F1xx_HAL_Driver/Src/stm32f1xx_hal_hcd.c ****   */
1502:Drivers/STM32F1xx_HAL_Driver/Src/stm32f1xx_hal_hcd.c **** static void HCD_RXQLVL_IRQHandler(HCD_HandleTypeDef *hhcd)
1503:Drivers/STM32F1xx_HAL_Driver/Src/stm32f1xx_hal_hcd.c **** {
  27              		.loc 1 1503 1 view -0
  28              		.cfi_startproc
  29              		@ args = 0, pretend = 0, frame = 0
  30              		@ frame_needed = 0, uses_anonymous_args = 0
  31              		.loc 1 1503 1 is_stmt 0 view .LVU1
  32 0000 F8B5     		push	{r3, r4, r5, r6, r7, lr}
  33              	.LCFI0:
  34              		.cfi_def_cfa_offset 24
  35              		.cfi_offset 3, -24
  36              		.cfi_offset 4, -20
  37              		.cfi_offset 5, -16
ARM GAS  /tmp/ccldPFyH.s 			page 28


  38              		.cfi_offset 6, -12
  39              		.cfi_offset 7, -8
  40              		.cfi_offset 14, -4
1504:Drivers/STM32F1xx_HAL_Driver/Src/stm32f1xx_hal_hcd.c ****   USB_OTG_GlobalTypeDef *USBx = hhcd->Instance;
  41              		.loc 1 1504 3 is_stmt 1 view .LVU2
  42              		.loc 1 1504 26 is_stmt 0 view .LVU3
  43 0002 0668     		ldr	r6, [r0]
  44              	.LVL1:
1505:Drivers/STM32F1xx_HAL_Driver/Src/stm32f1xx_hal_hcd.c ****   uint32_t USBx_BASE = (uint32_t)USBx;
  45              		.loc 1 1505 3 is_stmt 1 view .LVU4
1506:Drivers/STM32F1xx_HAL_Driver/Src/stm32f1xx_hal_hcd.c ****   uint32_t pktsts;
  46              		.loc 1 1506 3 view .LVU5
1507:Drivers/STM32F1xx_HAL_Driver/Src/stm32f1xx_hal_hcd.c ****   uint32_t pktcnt;
  47              		.loc 1 1507 3 view .LVU6
1508:Drivers/STM32F1xx_HAL_Driver/Src/stm32f1xx_hal_hcd.c ****   uint32_t temp;
  48              		.loc 1 1508 3 view .LVU7
1509:Drivers/STM32F1xx_HAL_Driver/Src/stm32f1xx_hal_hcd.c ****   uint32_t tmpreg;
  49              		.loc 1 1509 3 view .LVU8
1510:Drivers/STM32F1xx_HAL_Driver/Src/stm32f1xx_hal_hcd.c ****   uint32_t ch_num;
  50              		.loc 1 1510 3 view .LVU9
1511:Drivers/STM32F1xx_HAL_Driver/Src/stm32f1xx_hal_hcd.c **** 
1512:Drivers/STM32F1xx_HAL_Driver/Src/stm32f1xx_hal_hcd.c ****   temp = hhcd->Instance->GRXSTSP;
  51              		.loc 1 1512 3 view .LVU10
  52              		.loc 1 1512 8 is_stmt 0 view .LVU11
  53 0004 346A     		ldr	r4, [r6, #32]
  54              	.LVL2:
1513:Drivers/STM32F1xx_HAL_Driver/Src/stm32f1xx_hal_hcd.c ****   ch_num = temp & USB_OTG_GRXSTSP_EPNUM;
  55              		.loc 1 1513 3 is_stmt 1 view .LVU12
  56              		.loc 1 1513 10 is_stmt 0 view .LVU13
  57 0006 04F00F07 		and	r7, r4, #15
  58              	.LVL3:
1514:Drivers/STM32F1xx_HAL_Driver/Src/stm32f1xx_hal_hcd.c ****   pktsts = (temp & USB_OTG_GRXSTSP_PKTSTS) >> 17;
  59              		.loc 1 1514 3 is_stmt 1 view .LVU14
  60              		.loc 1 1514 10 is_stmt 0 view .LVU15
  61 000a C4F34343 		ubfx	r3, r4, #17, #4
  62              	.LVL4:
1515:Drivers/STM32F1xx_HAL_Driver/Src/stm32f1xx_hal_hcd.c ****   pktcnt = (temp & USB_OTG_GRXSTSP_BCNT) >> 4;
  63              		.loc 1 1515 3 is_stmt 1 view .LVU16
  64              		.loc 1 1515 10 is_stmt 0 view .LVU17
  65 000e C4F30A14 		ubfx	r4, r4, #4, #11
  66              	.LVL5:
1516:Drivers/STM32F1xx_HAL_Driver/Src/stm32f1xx_hal_hcd.c **** 
1517:Drivers/STM32F1xx_HAL_Driver/Src/stm32f1xx_hal_hcd.c ****   switch (pktsts)
  67              		.loc 1 1517 3 is_stmt 1 view .LVU18
  68 0012 022B     		cmp	r3, #2
  69 0014 00D0     		beq	.L4
  70              	.LVL6:
  71              	.L1:
1518:Drivers/STM32F1xx_HAL_Driver/Src/stm32f1xx_hal_hcd.c ****   {
1519:Drivers/STM32F1xx_HAL_Driver/Src/stm32f1xx_hal_hcd.c ****     case GRXSTS_PKTSTS_IN:
1520:Drivers/STM32F1xx_HAL_Driver/Src/stm32f1xx_hal_hcd.c ****       /* Read the data into the host buffer. */
1521:Drivers/STM32F1xx_HAL_Driver/Src/stm32f1xx_hal_hcd.c ****       if ((pktcnt > 0U) && (hhcd->hc[ch_num].xfer_buff != (void *)0))
1522:Drivers/STM32F1xx_HAL_Driver/Src/stm32f1xx_hal_hcd.c ****       {
1523:Drivers/STM32F1xx_HAL_Driver/Src/stm32f1xx_hal_hcd.c ****         (void)USB_ReadPacket(hhcd->Instance, hhcd->hc[ch_num].xfer_buff, (uint16_t)pktcnt);
1524:Drivers/STM32F1xx_HAL_Driver/Src/stm32f1xx_hal_hcd.c **** 
1525:Drivers/STM32F1xx_HAL_Driver/Src/stm32f1xx_hal_hcd.c ****         /*manage multiple Xfer */
1526:Drivers/STM32F1xx_HAL_Driver/Src/stm32f1xx_hal_hcd.c ****         hhcd->hc[ch_num].xfer_buff += pktcnt;
ARM GAS  /tmp/ccldPFyH.s 			page 29


1527:Drivers/STM32F1xx_HAL_Driver/Src/stm32f1xx_hal_hcd.c ****         hhcd->hc[ch_num].xfer_count  += pktcnt;
1528:Drivers/STM32F1xx_HAL_Driver/Src/stm32f1xx_hal_hcd.c **** 
1529:Drivers/STM32F1xx_HAL_Driver/Src/stm32f1xx_hal_hcd.c ****         if ((USBx_HC(ch_num)->HCTSIZ & USB_OTG_HCTSIZ_PKTCNT) > 0U)
1530:Drivers/STM32F1xx_HAL_Driver/Src/stm32f1xx_hal_hcd.c ****         {
1531:Drivers/STM32F1xx_HAL_Driver/Src/stm32f1xx_hal_hcd.c ****           /* re-activate the channel when more packets are expected */
1532:Drivers/STM32F1xx_HAL_Driver/Src/stm32f1xx_hal_hcd.c ****           tmpreg = USBx_HC(ch_num)->HCCHAR;
1533:Drivers/STM32F1xx_HAL_Driver/Src/stm32f1xx_hal_hcd.c ****           tmpreg &= ~USB_OTG_HCCHAR_CHDIS;
1534:Drivers/STM32F1xx_HAL_Driver/Src/stm32f1xx_hal_hcd.c ****           tmpreg |= USB_OTG_HCCHAR_CHENA;
1535:Drivers/STM32F1xx_HAL_Driver/Src/stm32f1xx_hal_hcd.c ****           USBx_HC(ch_num)->HCCHAR = tmpreg;
1536:Drivers/STM32F1xx_HAL_Driver/Src/stm32f1xx_hal_hcd.c ****           hhcd->hc[ch_num].toggle_in ^= 1U;
1537:Drivers/STM32F1xx_HAL_Driver/Src/stm32f1xx_hal_hcd.c ****         }
1538:Drivers/STM32F1xx_HAL_Driver/Src/stm32f1xx_hal_hcd.c ****       }
1539:Drivers/STM32F1xx_HAL_Driver/Src/stm32f1xx_hal_hcd.c ****       break;
1540:Drivers/STM32F1xx_HAL_Driver/Src/stm32f1xx_hal_hcd.c **** 
1541:Drivers/STM32F1xx_HAL_Driver/Src/stm32f1xx_hal_hcd.c ****     case GRXSTS_PKTSTS_DATA_TOGGLE_ERR:
1542:Drivers/STM32F1xx_HAL_Driver/Src/stm32f1xx_hal_hcd.c ****       break;
1543:Drivers/STM32F1xx_HAL_Driver/Src/stm32f1xx_hal_hcd.c **** 
1544:Drivers/STM32F1xx_HAL_Driver/Src/stm32f1xx_hal_hcd.c ****     case GRXSTS_PKTSTS_IN_XFER_COMP:
1545:Drivers/STM32F1xx_HAL_Driver/Src/stm32f1xx_hal_hcd.c ****     case GRXSTS_PKTSTS_CH_HALTED:
1546:Drivers/STM32F1xx_HAL_Driver/Src/stm32f1xx_hal_hcd.c ****     default:
1547:Drivers/STM32F1xx_HAL_Driver/Src/stm32f1xx_hal_hcd.c ****       break;
1548:Drivers/STM32F1xx_HAL_Driver/Src/stm32f1xx_hal_hcd.c ****   }
1549:Drivers/STM32F1xx_HAL_Driver/Src/stm32f1xx_hal_hcd.c **** }
  72              		.loc 1 1549 1 is_stmt 0 view .LVU19
  73 0016 F8BD     		pop	{r3, r4, r5, r6, r7, pc}
  74              	.LVL7:
  75              	.L4:
  76              		.loc 1 1549 1 view .LVU20
  77 0018 0546     		mov	r5, r0
1521:Drivers/STM32F1xx_HAL_Driver/Src/stm32f1xx_hal_hcd.c ****       {
  78              		.loc 1 1521 7 is_stmt 1 view .LVU21
1521:Drivers/STM32F1xx_HAL_Driver/Src/stm32f1xx_hal_hcd.c ****       {
  79              		.loc 1 1521 10 is_stmt 0 view .LVU22
  80 001a 002C     		cmp	r4, #0
  81 001c FBD0     		beq	.L1
1521:Drivers/STM32F1xx_HAL_Driver/Src/stm32f1xx_hal_hcd.c ****       {
  82              		.loc 1 1521 45 discriminator 1 view .LVU23
  83 001e 07EB8703 		add	r3, r7, r7, lsl #2
  84              	.LVL8:
1521:Drivers/STM32F1xx_HAL_Driver/Src/stm32f1xx_hal_hcd.c ****       {
  85              		.loc 1 1521 45 discriminator 1 view .LVU24
  86 0022 00EBC303 		add	r3, r0, r3, lsl #3
  87 0026 596C     		ldr	r1, [r3, #68]
1521:Drivers/STM32F1xx_HAL_Driver/Src/stm32f1xx_hal_hcd.c ****       {
  88              		.loc 1 1521 25 discriminator 1 view .LVU25
  89 0028 0029     		cmp	r1, #0
  90 002a F4D0     		beq	.L1
1523:Drivers/STM32F1xx_HAL_Driver/Src/stm32f1xx_hal_hcd.c **** 
  91              		.loc 1 1523 9 is_stmt 1 view .LVU26
1523:Drivers/STM32F1xx_HAL_Driver/Src/stm32f1xx_hal_hcd.c **** 
  92              		.loc 1 1523 15 is_stmt 0 view .LVU27
  93 002c 2246     		mov	r2, r4
  94 002e 3046     		mov	r0, r6
  95              	.LVL9:
1523:Drivers/STM32F1xx_HAL_Driver/Src/stm32f1xx_hal_hcd.c **** 
  96              		.loc 1 1523 15 view .LVU28
  97 0030 FFF7FEFF 		bl	USB_ReadPacket
ARM GAS  /tmp/ccldPFyH.s 			page 30


  98              	.LVL10:
1526:Drivers/STM32F1xx_HAL_Driver/Src/stm32f1xx_hal_hcd.c ****         hhcd->hc[ch_num].xfer_count  += pktcnt;
  99              		.loc 1 1526 9 is_stmt 1 view .LVU29
1526:Drivers/STM32F1xx_HAL_Driver/Src/stm32f1xx_hal_hcd.c ****         hhcd->hc[ch_num].xfer_count  += pktcnt;
 100              		.loc 1 1526 36 is_stmt 0 view .LVU30
 101 0034 07EB8703 		add	r3, r7, r7, lsl #2
 102 0038 05EBC303 		add	r3, r5, r3, lsl #3
 103 003c 5A6C     		ldr	r2, [r3, #68]
 104 003e 2244     		add	r2, r2, r4
 105 0040 5A64     		str	r2, [r3, #68]
1527:Drivers/STM32F1xx_HAL_Driver/Src/stm32f1xx_hal_hcd.c **** 
 106              		.loc 1 1527 9 is_stmt 1 view .LVU31
1527:Drivers/STM32F1xx_HAL_Driver/Src/stm32f1xx_hal_hcd.c **** 
 107              		.loc 1 1527 38 is_stmt 0 view .LVU32
 108 0042 DA6C     		ldr	r2, [r3, #76]
 109 0044 2244     		add	r2, r2, r4
 110 0046 DA64     		str	r2, [r3, #76]
1529:Drivers/STM32F1xx_HAL_Driver/Src/stm32f1xx_hal_hcd.c ****         {
 111              		.loc 1 1529 9 is_stmt 1 view .LVU33
1529:Drivers/STM32F1xx_HAL_Driver/Src/stm32f1xx_hal_hcd.c ****         {
 112              		.loc 1 1529 14 is_stmt 0 view .LVU34
 113 0048 06EB4716 		add	r6, r6, r7, lsl #5
 114              	.LVL11:
1529:Drivers/STM32F1xx_HAL_Driver/Src/stm32f1xx_hal_hcd.c ****         {
 115              		.loc 1 1529 29 view .LVU35
 116 004c D6F81025 		ldr	r2, [r6, #1296]
1529:Drivers/STM32F1xx_HAL_Driver/Src/stm32f1xx_hal_hcd.c ****         {
 117              		.loc 1 1529 38 view .LVU36
 118 0050 0B4B     		ldr	r3, .L5
 119 0052 1340     		ands	r3, r3, r2
1529:Drivers/STM32F1xx_HAL_Driver/Src/stm32f1xx_hal_hcd.c ****         {
 120              		.loc 1 1529 12 view .LVU37
 121 0054 002B     		cmp	r3, #0
 122 0056 DED0     		beq	.L1
1532:Drivers/STM32F1xx_HAL_Driver/Src/stm32f1xx_hal_hcd.c ****           tmpreg &= ~USB_OTG_HCCHAR_CHDIS;
 123              		.loc 1 1532 11 is_stmt 1 view .LVU38
1532:Drivers/STM32F1xx_HAL_Driver/Src/stm32f1xx_hal_hcd.c ****           tmpreg &= ~USB_OTG_HCCHAR_CHDIS;
 124              		.loc 1 1532 18 is_stmt 0 view .LVU39
 125 0058 D6F80035 		ldr	r3, [r6, #1280]
 126              	.LVL12:
1533:Drivers/STM32F1xx_HAL_Driver/Src/stm32f1xx_hal_hcd.c ****           tmpreg |= USB_OTG_HCCHAR_CHENA;
 127              		.loc 1 1533 11 is_stmt 1 view .LVU40
1533:Drivers/STM32F1xx_HAL_Driver/Src/stm32f1xx_hal_hcd.c ****           tmpreg |= USB_OTG_HCCHAR_CHENA;
 128              		.loc 1 1533 18 is_stmt 0 view .LVU41
 129 005c 23F08043 		bic	r3, r3, #1073741824
 130              	.LVL13:
1534:Drivers/STM32F1xx_HAL_Driver/Src/stm32f1xx_hal_hcd.c ****           USBx_HC(ch_num)->HCCHAR = tmpreg;
 131              		.loc 1 1534 11 is_stmt 1 view .LVU42
1534:Drivers/STM32F1xx_HAL_Driver/Src/stm32f1xx_hal_hcd.c ****           USBx_HC(ch_num)->HCCHAR = tmpreg;
 132              		.loc 1 1534 18 is_stmt 0 view .LVU43
 133 0060 43F00043 		orr	r3, r3, #-2147483648
 134              	.LVL14:
1535:Drivers/STM32F1xx_HAL_Driver/Src/stm32f1xx_hal_hcd.c ****           hhcd->hc[ch_num].toggle_in ^= 1U;
 135              		.loc 1 1535 11 is_stmt 1 view .LVU44
1535:Drivers/STM32F1xx_HAL_Driver/Src/stm32f1xx_hal_hcd.c ****           hhcd->hc[ch_num].toggle_in ^= 1U;
 136              		.loc 1 1535 35 is_stmt 0 view .LVU45
 137 0064 C6F80035 		str	r3, [r6, #1280]
ARM GAS  /tmp/ccldPFyH.s 			page 31


1536:Drivers/STM32F1xx_HAL_Driver/Src/stm32f1xx_hal_hcd.c ****         }
 138              		.loc 1 1536 11 is_stmt 1 view .LVU46
1536:Drivers/STM32F1xx_HAL_Driver/Src/stm32f1xx_hal_hcd.c ****         }
 139              		.loc 1 1536 38 is_stmt 0 view .LVU47
 140 0068 07EB8703 		add	r3, r7, r7, lsl #2
 141              	.LVL15:
1536:Drivers/STM32F1xx_HAL_Driver/Src/stm32f1xx_hal_hcd.c ****         }
 142              		.loc 1 1536 38 view .LVU48
 143 006c 05EBC303 		add	r3, r5, r3, lsl #3
 144 0070 93F85020 		ldrb	r2, [r3, #80]	@ zero_extendqisi2
 145 0074 82F00102 		eor	r2, r2, #1
 146 0078 83F85020 		strb	r2, [r3, #80]
 147              	.LVL16:
 148              		.loc 1 1549 1 view .LVU49
 149 007c CBE7     		b	.L1
 150              	.L6:
 151 007e 00BF     		.align	2
 152              	.L5:
 153 0080 0000F81F 		.word	536346624
 154              		.cfi_endproc
 155              	.LFE91:
 157              		.section	.text.HAL_HCD_HC_Init,"ax",%progbits
 158              		.align	1
 159              		.global	HAL_HCD_HC_Init
 160              		.syntax unified
 161              		.thumb
 162              		.thumb_func
 163              		.fpu softvfp
 165              	HAL_HCD_HC_Init:
 166              	.LVL17:
 167              	.LFB66:
 204:Drivers/STM32F1xx_HAL_Driver/Src/stm32f1xx_hal_hcd.c ****   HAL_StatusTypeDef status;
 168              		.loc 1 204 1 is_stmt 1 view -0
 169              		.cfi_startproc
 170              		@ args = 12, pretend = 0, frame = 0
 171              		@ frame_needed = 0, uses_anonymous_args = 0
 204:Drivers/STM32F1xx_HAL_Driver/Src/stm32f1xx_hal_hcd.c ****   HAL_StatusTypeDef status;
 172              		.loc 1 204 1 is_stmt 0 view .LVU51
 173 0000 F0B5     		push	{r4, r5, r6, r7, lr}
 174              	.LCFI1:
 175              		.cfi_def_cfa_offset 20
 176              		.cfi_offset 4, -20
 177              		.cfi_offset 5, -16
 178              		.cfi_offset 6, -12
 179              		.cfi_offset 7, -8
 180              		.cfi_offset 14, -4
 181 0002 85B0     		sub	sp, sp, #20
 182              	.LCFI2:
 183              		.cfi_def_cfa_offset 40
 184 0004 0446     		mov	r4, r0
 185 0006 9DF82850 		ldrb	r5, [sp, #40]	@ zero_extendqisi2
 186 000a 9DF82C60 		ldrb	r6, [sp, #44]	@ zero_extendqisi2
 187 000e BDF83070 		ldrh	r7, [sp, #48]
 205:Drivers/STM32F1xx_HAL_Driver/Src/stm32f1xx_hal_hcd.c **** 
 188              		.loc 1 205 3 is_stmt 1 view .LVU52
 207:Drivers/STM32F1xx_HAL_Driver/Src/stm32f1xx_hal_hcd.c ****   hhcd->hc[ch_num].do_ping = 0U;
 189              		.loc 1 207 3 view .LVU53
ARM GAS  /tmp/ccldPFyH.s 			page 32


 207:Drivers/STM32F1xx_HAL_Driver/Src/stm32f1xx_hal_hcd.c ****   hhcd->hc[ch_num].do_ping = 0U;
 190              		.loc 1 207 3 view .LVU54
 191 0012 90F8B802 		ldrb	r0, [r0, #696]	@ zero_extendqisi2
 192              	.LVL18:
 207:Drivers/STM32F1xx_HAL_Driver/Src/stm32f1xx_hal_hcd.c ****   hhcd->hc[ch_num].do_ping = 0U;
 193              		.loc 1 207 3 is_stmt 0 view .LVU55
 194 0016 0128     		cmp	r0, #1
 195 0018 3BD0     		beq	.L11
 207:Drivers/STM32F1xx_HAL_Driver/Src/stm32f1xx_hal_hcd.c ****   hhcd->hc[ch_num].do_ping = 0U;
 196              		.loc 1 207 3 is_stmt 1 discriminator 2 view .LVU56
 197 001a 0120     		movs	r0, #1
 198 001c 84F8B802 		strb	r0, [r4, #696]
 207:Drivers/STM32F1xx_HAL_Driver/Src/stm32f1xx_hal_hcd.c ****   hhcd->hc[ch_num].do_ping = 0U;
 199              		.loc 1 207 3 discriminator 2 view .LVU57
 208:Drivers/STM32F1xx_HAL_Driver/Src/stm32f1xx_hal_hcd.c ****   hhcd->hc[ch_num].dev_addr = dev_address;
 200              		.loc 1 208 3 discriminator 2 view .LVU58
 208:Drivers/STM32F1xx_HAL_Driver/Src/stm32f1xx_hal_hcd.c ****   hhcd->hc[ch_num].dev_addr = dev_address;
 201              		.loc 1 208 28 is_stmt 0 discriminator 2 view .LVU59
 202 0020 01EB8100 		add	r0, r1, r1, lsl #2
 203 0024 04EBC000 		add	r0, r4, r0, lsl #3
 204 0028 4FF0000C 		mov	ip, #0
 205 002c 80F83DC0 		strb	ip, [r0, #61]
 209:Drivers/STM32F1xx_HAL_Driver/Src/stm32f1xx_hal_hcd.c ****   hhcd->hc[ch_num].max_packet = mps;
 206              		.loc 1 209 3 is_stmt 1 discriminator 2 view .LVU60
 209:Drivers/STM32F1xx_HAL_Driver/Src/stm32f1xx_hal_hcd.c ****   hhcd->hc[ch_num].max_packet = mps;
 207              		.loc 1 209 29 is_stmt 0 discriminator 2 view .LVU61
 208 0030 80F83830 		strb	r3, [r0, #56]
 210:Drivers/STM32F1xx_HAL_Driver/Src/stm32f1xx_hal_hcd.c ****   hhcd->hc[ch_num].ch_num = ch_num;
 209              		.loc 1 210 3 is_stmt 1 discriminator 2 view .LVU62
 210:Drivers/STM32F1xx_HAL_Driver/Src/stm32f1xx_hal_hcd.c ****   hhcd->hc[ch_num].ch_num = ch_num;
 210              		.loc 1 210 31 is_stmt 0 discriminator 2 view .LVU63
 211 0034 A0F84070 		strh	r7, [r0, #64]	@ movhi
 211:Drivers/STM32F1xx_HAL_Driver/Src/stm32f1xx_hal_hcd.c ****   hhcd->hc[ch_num].ep_type = ep_type;
 212              		.loc 1 211 3 is_stmt 1 discriminator 2 view .LVU64
 211:Drivers/STM32F1xx_HAL_Driver/Src/stm32f1xx_hal_hcd.c ****   hhcd->hc[ch_num].ep_type = ep_type;
 213              		.loc 1 211 27 is_stmt 0 discriminator 2 view .LVU65
 214 0038 80F83910 		strb	r1, [r0, #57]
 212:Drivers/STM32F1xx_HAL_Driver/Src/stm32f1xx_hal_hcd.c ****   hhcd->hc[ch_num].ep_num = epnum & 0x7FU;
 215              		.loc 1 212 3 is_stmt 1 discriminator 2 view .LVU66
 212:Drivers/STM32F1xx_HAL_Driver/Src/stm32f1xx_hal_hcd.c ****   hhcd->hc[ch_num].ep_num = epnum & 0x7FU;
 216              		.loc 1 212 28 is_stmt 0 discriminator 2 view .LVU67
 217 003c 80F83F60 		strb	r6, [r0, #63]
 213:Drivers/STM32F1xx_HAL_Driver/Src/stm32f1xx_hal_hcd.c **** 
 218              		.loc 1 213 3 is_stmt 1 discriminator 2 view .LVU68
 213:Drivers/STM32F1xx_HAL_Driver/Src/stm32f1xx_hal_hcd.c **** 
 219              		.loc 1 213 35 is_stmt 0 discriminator 2 view .LVU69
 220 0040 02F07F0C 		and	ip, r2, #127
 213:Drivers/STM32F1xx_HAL_Driver/Src/stm32f1xx_hal_hcd.c **** 
 221              		.loc 1 213 27 discriminator 2 view .LVU70
 222 0044 80F83AC0 		strb	ip, [r0, #58]
 215:Drivers/STM32F1xx_HAL_Driver/Src/stm32f1xx_hal_hcd.c ****   {
 223              		.loc 1 215 3 is_stmt 1 discriminator 2 view .LVU71
 215:Drivers/STM32F1xx_HAL_Driver/Src/stm32f1xx_hal_hcd.c ****   {
 224              		.loc 1 215 6 is_stmt 0 discriminator 2 view .LVU72
 225 0048 12F0800F 		tst	r2, #128
 226 004c 18D1     		bne	.L13
 221:Drivers/STM32F1xx_HAL_Driver/Src/stm32f1xx_hal_hcd.c ****   }
ARM GAS  /tmp/ccldPFyH.s 			page 33


 227              		.loc 1 221 5 is_stmt 1 view .LVU73
 221:Drivers/STM32F1xx_HAL_Driver/Src/stm32f1xx_hal_hcd.c ****   }
 228              		.loc 1 221 31 is_stmt 0 view .LVU74
 229 004e 01EB8100 		add	r0, r1, r1, lsl #2
 230 0052 04EBC000 		add	r0, r4, r0, lsl #3
 231 0056 4FF0000C 		mov	ip, #0
 232 005a 80F83BC0 		strb	ip, [r0, #59]
 233              	.L10:
 224:Drivers/STM32F1xx_HAL_Driver/Src/stm32f1xx_hal_hcd.c **** 
 234              		.loc 1 224 3 is_stmt 1 view .LVU75
 224:Drivers/STM32F1xx_HAL_Driver/Src/stm32f1xx_hal_hcd.c **** 
 235              		.loc 1 224 26 is_stmt 0 view .LVU76
 236 005e 01EB8100 		add	r0, r1, r1, lsl #2
 237 0062 04EBC000 		add	r0, r4, r0, lsl #3
 238 0066 80F83C50 		strb	r5, [r0, #60]
 226:Drivers/STM32F1xx_HAL_Driver/Src/stm32f1xx_hal_hcd.c ****                         ch_num,
 239              		.loc 1 226 3 is_stmt 1 view .LVU77
 226:Drivers/STM32F1xx_HAL_Driver/Src/stm32f1xx_hal_hcd.c ****                         ch_num,
 240              		.loc 1 226 13 is_stmt 0 view .LVU78
 241 006a 0297     		str	r7, [sp, #8]
 242 006c 0196     		str	r6, [sp, #4]
 243 006e 0095     		str	r5, [sp]
 244 0070 2068     		ldr	r0, [r4]
 245 0072 FFF7FEFF 		bl	USB_HC_Init
 246              	.LVL19:
 233:Drivers/STM32F1xx_HAL_Driver/Src/stm32f1xx_hal_hcd.c **** 
 247              		.loc 1 233 3 is_stmt 1 view .LVU79
 233:Drivers/STM32F1xx_HAL_Driver/Src/stm32f1xx_hal_hcd.c **** 
 248              		.loc 1 233 3 view .LVU80
 249 0076 0023     		movs	r3, #0
 250 0078 84F8B832 		strb	r3, [r4, #696]
 233:Drivers/STM32F1xx_HAL_Driver/Src/stm32f1xx_hal_hcd.c **** 
 251              		.loc 1 233 3 view .LVU81
 235:Drivers/STM32F1xx_HAL_Driver/Src/stm32f1xx_hal_hcd.c **** }
 252              		.loc 1 235 3 view .LVU82
 253              	.LVL20:
 254              	.L8:
 236:Drivers/STM32F1xx_HAL_Driver/Src/stm32f1xx_hal_hcd.c **** 
 255              		.loc 1 236 1 is_stmt 0 view .LVU83
 256 007c 05B0     		add	sp, sp, #20
 257              	.LCFI3:
 258              		.cfi_remember_state
 259              		.cfi_def_cfa_offset 20
 260              		@ sp needed
 261 007e F0BD     		pop	{r4, r5, r6, r7, pc}
 262              	.LVL21:
 263              	.L13:
 264              	.LCFI4:
 265              		.cfi_restore_state
 217:Drivers/STM32F1xx_HAL_Driver/Src/stm32f1xx_hal_hcd.c ****   }
 266              		.loc 1 217 5 is_stmt 1 view .LVU84
 217:Drivers/STM32F1xx_HAL_Driver/Src/stm32f1xx_hal_hcd.c ****   }
 267              		.loc 1 217 31 is_stmt 0 view .LVU85
 268 0080 01EB8100 		add	r0, r1, r1, lsl #2
 269 0084 04EBC000 		add	r0, r4, r0, lsl #3
 270 0088 4FF0010C 		mov	ip, #1
 271 008c 80F83BC0 		strb	ip, [r0, #59]
ARM GAS  /tmp/ccldPFyH.s 			page 34


 272 0090 E5E7     		b	.L10
 273              	.L11:
 207:Drivers/STM32F1xx_HAL_Driver/Src/stm32f1xx_hal_hcd.c ****   hhcd->hc[ch_num].do_ping = 0U;
 274              		.loc 1 207 3 view .LVU86
 275 0092 0220     		movs	r0, #2
 276 0094 F2E7     		b	.L8
 277              		.cfi_endproc
 278              	.LFE66:
 280              		.section	.text.HAL_HCD_HC_Halt,"ax",%progbits
 281              		.align	1
 282              		.global	HAL_HCD_HC_Halt
 283              		.syntax unified
 284              		.thumb
 285              		.thumb_func
 286              		.fpu softvfp
 288              	HAL_HCD_HC_Halt:
 289              	.LVL22:
 290              	.LFB67:
 246:Drivers/STM32F1xx_HAL_Driver/Src/stm32f1xx_hal_hcd.c ****   HAL_StatusTypeDef status = HAL_OK;
 291              		.loc 1 246 1 is_stmt 1 view -0
 292              		.cfi_startproc
 293              		@ args = 0, pretend = 0, frame = 0
 294              		@ frame_needed = 0, uses_anonymous_args = 0
 247:Drivers/STM32F1xx_HAL_Driver/Src/stm32f1xx_hal_hcd.c **** 
 295              		.loc 1 247 3 view .LVU88
 249:Drivers/STM32F1xx_HAL_Driver/Src/stm32f1xx_hal_hcd.c ****   (void)USB_HC_Halt(hhcd->Instance, (uint8_t)ch_num);
 296              		.loc 1 249 3 view .LVU89
 249:Drivers/STM32F1xx_HAL_Driver/Src/stm32f1xx_hal_hcd.c ****   (void)USB_HC_Halt(hhcd->Instance, (uint8_t)ch_num);
 297              		.loc 1 249 3 view .LVU90
 298 0000 90F8B832 		ldrb	r3, [r0, #696]	@ zero_extendqisi2
 299 0004 012B     		cmp	r3, #1
 300 0006 0BD0     		beq	.L16
 246:Drivers/STM32F1xx_HAL_Driver/Src/stm32f1xx_hal_hcd.c ****   HAL_StatusTypeDef status = HAL_OK;
 301              		.loc 1 246 1 is_stmt 0 discriminator 2 view .LVU91
 302 0008 10B5     		push	{r4, lr}
 303              	.LCFI5:
 304              		.cfi_def_cfa_offset 8
 305              		.cfi_offset 4, -8
 306              		.cfi_offset 14, -4
 307 000a 0446     		mov	r4, r0
 249:Drivers/STM32F1xx_HAL_Driver/Src/stm32f1xx_hal_hcd.c ****   (void)USB_HC_Halt(hhcd->Instance, (uint8_t)ch_num);
 308              		.loc 1 249 3 is_stmt 1 discriminator 2 view .LVU92
 309 000c 0123     		movs	r3, #1
 310 000e 80F8B832 		strb	r3, [r0, #696]
 249:Drivers/STM32F1xx_HAL_Driver/Src/stm32f1xx_hal_hcd.c ****   (void)USB_HC_Halt(hhcd->Instance, (uint8_t)ch_num);
 311              		.loc 1 249 3 discriminator 2 view .LVU93
 250:Drivers/STM32F1xx_HAL_Driver/Src/stm32f1xx_hal_hcd.c ****   __HAL_UNLOCK(hhcd);
 312              		.loc 1 250 3 discriminator 2 view .LVU94
 250:Drivers/STM32F1xx_HAL_Driver/Src/stm32f1xx_hal_hcd.c ****   __HAL_UNLOCK(hhcd);
 313              		.loc 1 250 9 is_stmt 0 discriminator 2 view .LVU95
 314 0012 0068     		ldr	r0, [r0]
 315              	.LVL23:
 250:Drivers/STM32F1xx_HAL_Driver/Src/stm32f1xx_hal_hcd.c ****   __HAL_UNLOCK(hhcd);
 316              		.loc 1 250 9 discriminator 2 view .LVU96
 317 0014 FFF7FEFF 		bl	USB_HC_Halt
 318              	.LVL24:
 251:Drivers/STM32F1xx_HAL_Driver/Src/stm32f1xx_hal_hcd.c **** 
ARM GAS  /tmp/ccldPFyH.s 			page 35


 319              		.loc 1 251 3 is_stmt 1 discriminator 2 view .LVU97
 251:Drivers/STM32F1xx_HAL_Driver/Src/stm32f1xx_hal_hcd.c **** 
 320              		.loc 1 251 3 discriminator 2 view .LVU98
 321 0018 0020     		movs	r0, #0
 322 001a 84F8B802 		strb	r0, [r4, #696]
 251:Drivers/STM32F1xx_HAL_Driver/Src/stm32f1xx_hal_hcd.c **** 
 323              		.loc 1 251 3 discriminator 2 view .LVU99
 253:Drivers/STM32F1xx_HAL_Driver/Src/stm32f1xx_hal_hcd.c **** }
 324              		.loc 1 253 3 discriminator 2 view .LVU100
 254:Drivers/STM32F1xx_HAL_Driver/Src/stm32f1xx_hal_hcd.c **** 
 325              		.loc 1 254 1 is_stmt 0 discriminator 2 view .LVU101
 326 001e 10BD     		pop	{r4, pc}
 327              	.LVL25:
 328              	.L16:
 329              	.LCFI6:
 330              		.cfi_def_cfa_offset 0
 331              		.cfi_restore 4
 332              		.cfi_restore 14
 249:Drivers/STM32F1xx_HAL_Driver/Src/stm32f1xx_hal_hcd.c ****   (void)USB_HC_Halt(hhcd->Instance, (uint8_t)ch_num);
 333              		.loc 1 249 3 view .LVU102
 334 0020 0220     		movs	r0, #2
 335              	.LVL26:
 254:Drivers/STM32F1xx_HAL_Driver/Src/stm32f1xx_hal_hcd.c **** 
 336              		.loc 1 254 1 view .LVU103
 337 0022 7047     		bx	lr
 338              		.cfi_endproc
 339              	.LFE67:
 341              		.section	.text.HAL_HCD_MspInit,"ax",%progbits
 342              		.align	1
 343              		.weak	HAL_HCD_MspInit
 344              		.syntax unified
 345              		.thumb
 346              		.thumb_func
 347              		.fpu softvfp
 349              	HAL_HCD_MspInit:
 350              	.LVL27:
 351              	.LFB69:
 297:Drivers/STM32F1xx_HAL_Driver/Src/stm32f1xx_hal_hcd.c ****   /* Prevent unused argument(s) compilation warning */
 352              		.loc 1 297 1 is_stmt 1 view -0
 353              		.cfi_startproc
 354              		@ args = 0, pretend = 0, frame = 0
 355              		@ frame_needed = 0, uses_anonymous_args = 0
 356              		@ link register save eliminated.
 299:Drivers/STM32F1xx_HAL_Driver/Src/stm32f1xx_hal_hcd.c **** 
 357              		.loc 1 299 3 view .LVU105
 304:Drivers/STM32F1xx_HAL_Driver/Src/stm32f1xx_hal_hcd.c **** 
 358              		.loc 1 304 1 is_stmt 0 view .LVU106
 359 0000 7047     		bx	lr
 360              		.cfi_endproc
 361              	.LFE69:
 363              		.section	.text.HAL_HCD_Init,"ax",%progbits
 364              		.align	1
 365              		.global	HAL_HCD_Init
 366              		.syntax unified
 367              		.thumb
 368              		.thumb_func
 369              		.fpu softvfp
ARM GAS  /tmp/ccldPFyH.s 			page 36


 371              	HAL_HCD_Init:
 372              	.LVL28:
 373              	.LFB65:
 109:Drivers/STM32F1xx_HAL_Driver/Src/stm32f1xx_hal_hcd.c ****   USB_OTG_GlobalTypeDef *USBx;
 374              		.loc 1 109 1 is_stmt 1 view -0
 375              		.cfi_startproc
 376              		@ args = 0, pretend = 0, frame = 0
 377              		@ frame_needed = 0, uses_anonymous_args = 0
 110:Drivers/STM32F1xx_HAL_Driver/Src/stm32f1xx_hal_hcd.c **** 
 378              		.loc 1 110 3 view .LVU108
 113:Drivers/STM32F1xx_HAL_Driver/Src/stm32f1xx_hal_hcd.c ****   {
 379              		.loc 1 113 3 view .LVU109
 113:Drivers/STM32F1xx_HAL_Driver/Src/stm32f1xx_hal_hcd.c ****   {
 380              		.loc 1 113 6 is_stmt 0 view .LVU110
 381 0000 0028     		cmp	r0, #0
 382 0002 45D0     		beq	.L26
 109:Drivers/STM32F1xx_HAL_Driver/Src/stm32f1xx_hal_hcd.c ****   USB_OTG_GlobalTypeDef *USBx;
 383              		.loc 1 109 1 view .LVU111
 384 0004 F0B5     		push	{r4, r5, r6, r7, lr}
 385              	.LCFI7:
 386              		.cfi_def_cfa_offset 20
 387              		.cfi_offset 4, -20
 388              		.cfi_offset 5, -16
 389              		.cfi_offset 6, -12
 390              		.cfi_offset 7, -8
 391              		.cfi_offset 14, -4
 392 0006 8BB0     		sub	sp, sp, #44
 393              	.LCFI8:
 394              		.cfi_def_cfa_offset 64
 395 0008 0646     		mov	r6, r0
 119:Drivers/STM32F1xx_HAL_Driver/Src/stm32f1xx_hal_hcd.c **** 
 396              		.loc 1 119 3 is_stmt 1 view .LVU112
 121:Drivers/STM32F1xx_HAL_Driver/Src/stm32f1xx_hal_hcd.c **** 
 397              		.loc 1 121 3 view .LVU113
 121:Drivers/STM32F1xx_HAL_Driver/Src/stm32f1xx_hal_hcd.c **** 
 398              		.loc 1 121 8 is_stmt 0 view .LVU114
 399 000a 0468     		ldr	r4, [r0]
 400              	.LVL29:
 123:Drivers/STM32F1xx_HAL_Driver/Src/stm32f1xx_hal_hcd.c ****   {
 401              		.loc 1 123 3 is_stmt 1 view .LVU115
 123:Drivers/STM32F1xx_HAL_Driver/Src/stm32f1xx_hal_hcd.c ****   {
 402              		.loc 1 123 11 is_stmt 0 view .LVU116
 403 000c 90F8B932 		ldrb	r3, [r0, #697]	@ zero_extendqisi2
 123:Drivers/STM32F1xx_HAL_Driver/Src/stm32f1xx_hal_hcd.c ****   {
 404              		.loc 1 123 6 view .LVU117
 405 0010 002B     		cmp	r3, #0
 406 0012 38D0     		beq	.L31
 407              	.LVL30:
 408              	.L24:
 149:Drivers/STM32F1xx_HAL_Driver/Src/stm32f1xx_hal_hcd.c **** 
 409              		.loc 1 149 3 is_stmt 1 view .LVU118
 149:Drivers/STM32F1xx_HAL_Driver/Src/stm32f1xx_hal_hcd.c **** 
 410              		.loc 1 149 15 is_stmt 0 view .LVU119
 411 0014 0323     		movs	r3, #3
 412 0016 86F8B932 		strb	r3, [r6, #697]
 152:Drivers/STM32F1xx_HAL_Driver/Src/stm32f1xx_hal_hcd.c ****   {
 413              		.loc 1 152 3 is_stmt 1 view .LVU120
ARM GAS  /tmp/ccldPFyH.s 			page 37


 152:Drivers/STM32F1xx_HAL_Driver/Src/stm32f1xx_hal_hcd.c ****   {
 414              		.loc 1 152 12 is_stmt 0 view .LVU121
 415 001a E36B     		ldr	r3, [r4, #60]
 152:Drivers/STM32F1xx_HAL_Driver/Src/stm32f1xx_hal_hcd.c ****   {
 416              		.loc 1 152 6 view .LVU122
 417 001c 13F4807F 		tst	r3, #256
 418 0020 01D1     		bne	.L25
 154:Drivers/STM32F1xx_HAL_Driver/Src/stm32f1xx_hal_hcd.c ****   }
 419              		.loc 1 154 5 is_stmt 1 view .LVU123
 154:Drivers/STM32F1xx_HAL_Driver/Src/stm32f1xx_hal_hcd.c ****   }
 420              		.loc 1 154 27 is_stmt 0 view .LVU124
 421 0022 0023     		movs	r3, #0
 422 0024 3361     		str	r3, [r6, #16]
 423              	.L25:
 158:Drivers/STM32F1xx_HAL_Driver/Src/stm32f1xx_hal_hcd.c **** 
 424              		.loc 1 158 3 is_stmt 1 view .LVU125
 425 0026 3068     		ldr	r0, [r6]
 426 0028 FFF7FEFF 		bl	USB_DisableGlobalInt
 427              	.LVL31:
 161:Drivers/STM32F1xx_HAL_Driver/Src/stm32f1xx_hal_hcd.c **** 
 428              		.loc 1 161 3 view .LVU126
 161:Drivers/STM32F1xx_HAL_Driver/Src/stm32f1xx_hal_hcd.c **** 
 429              		.loc 1 161 26 is_stmt 0 view .LVU127
 430 002c 3446     		mov	r4, r6
 431              	.LVL32:
 161:Drivers/STM32F1xx_HAL_Driver/Src/stm32f1xx_hal_hcd.c **** 
 432              		.loc 1 161 26 view .LVU128
 433 002e 54F810CB 		ldr	ip, [r4], #16
 161:Drivers/STM32F1xx_HAL_Driver/Src/stm32f1xx_hal_hcd.c **** 
 434              		.loc 1 161 9 view .LVU129
 435 0032 6D46     		mov	r5, sp
 436 0034 0FCC     		ldmia	r4!, {r0, r1, r2, r3}
 437 0036 0FC5     		stmia	r5!, {r0, r1, r2, r3}
 438 0038 0FCC     		ldmia	r4!, {r0, r1, r2, r3}
 439 003a 0FC5     		stmia	r5!, {r0, r1, r2, r3}
 440 003c 94E80300 		ldm	r4, {r0, r1}
 441 0040 85E80300 		stm	r5, {r0, r1}
 442 0044 371D     		adds	r7, r6, #4
 443 0046 97E80E00 		ldm	r7, {r1, r2, r3}
 444 004a 6046     		mov	r0, ip
 445 004c FFF7FEFF 		bl	USB_CoreInit
 446              	.LVL33:
 164:Drivers/STM32F1xx_HAL_Driver/Src/stm32f1xx_hal_hcd.c **** 
 447              		.loc 1 164 3 is_stmt 1 view .LVU130
 164:Drivers/STM32F1xx_HAL_Driver/Src/stm32f1xx_hal_hcd.c **** 
 448              		.loc 1 164 9 is_stmt 0 view .LVU131
 449 0050 0121     		movs	r1, #1
 450 0052 3068     		ldr	r0, [r6]
 451 0054 FFF7FEFF 		bl	USB_SetCurrentMode
 452              	.LVL34:
 167:Drivers/STM32F1xx_HAL_Driver/Src/stm32f1xx_hal_hcd.c **** 
 453              		.loc 1 167 3 is_stmt 1 view .LVU132
 167:Drivers/STM32F1xx_HAL_Driver/Src/stm32f1xx_hal_hcd.c **** 
 454              		.loc 1 167 26 is_stmt 0 view .LVU133
 455 0058 3446     		mov	r4, r6
 456 005a 54F810CB 		ldr	ip, [r4], #16
 167:Drivers/STM32F1xx_HAL_Driver/Src/stm32f1xx_hal_hcd.c **** 
ARM GAS  /tmp/ccldPFyH.s 			page 38


 457              		.loc 1 167 9 view .LVU134
 458 005e 6D46     		mov	r5, sp
 459 0060 0FCC     		ldmia	r4!, {r0, r1, r2, r3}
 460 0062 0FC5     		stmia	r5!, {r0, r1, r2, r3}
 461 0064 0FCC     		ldmia	r4!, {r0, r1, r2, r3}
 462 0066 0FC5     		stmia	r5!, {r0, r1, r2, r3}
 463 0068 94E80300 		ldm	r4, {r0, r1}
 464 006c 85E80300 		stm	r5, {r0, r1}
 465 0070 97E80E00 		ldm	r7, {r1, r2, r3}
 466 0074 6046     		mov	r0, ip
 467 0076 FFF7FEFF 		bl	USB_HostInit
 468              	.LVL35:
 169:Drivers/STM32F1xx_HAL_Driver/Src/stm32f1xx_hal_hcd.c **** 
 469              		.loc 1 169 3 is_stmt 1 view .LVU135
 169:Drivers/STM32F1xx_HAL_Driver/Src/stm32f1xx_hal_hcd.c **** 
 470              		.loc 1 169 15 is_stmt 0 view .LVU136
 471 007a 0123     		movs	r3, #1
 472 007c 86F8B932 		strb	r3, [r6, #697]
 171:Drivers/STM32F1xx_HAL_Driver/Src/stm32f1xx_hal_hcd.c **** }
 473              		.loc 1 171 3 is_stmt 1 view .LVU137
 171:Drivers/STM32F1xx_HAL_Driver/Src/stm32f1xx_hal_hcd.c **** }
 474              		.loc 1 171 10 is_stmt 0 view .LVU138
 475 0080 0020     		movs	r0, #0
 172:Drivers/STM32F1xx_HAL_Driver/Src/stm32f1xx_hal_hcd.c **** 
 476              		.loc 1 172 1 view .LVU139
 477 0082 0BB0     		add	sp, sp, #44
 478              	.LCFI9:
 479              		.cfi_remember_state
 480              		.cfi_def_cfa_offset 20
 481              		@ sp needed
 482 0084 F0BD     		pop	{r4, r5, r6, r7, pc}
 483              	.LVL36:
 484              	.L31:
 485              	.LCFI10:
 486              		.cfi_restore_state
 126:Drivers/STM32F1xx_HAL_Driver/Src/stm32f1xx_hal_hcd.c **** 
 487              		.loc 1 126 5 is_stmt 1 view .LVU140
 126:Drivers/STM32F1xx_HAL_Driver/Src/stm32f1xx_hal_hcd.c **** 
 488              		.loc 1 126 16 is_stmt 0 view .LVU141
 489 0086 80F8B832 		strb	r3, [r0, #696]
 145:Drivers/STM32F1xx_HAL_Driver/Src/stm32f1xx_hal_hcd.c **** #endif /* (USE_HAL_HCD_REGISTER_CALLBACKS) */
 490              		.loc 1 145 5 is_stmt 1 view .LVU142
 491 008a FFF7FEFF 		bl	HAL_HCD_MspInit
 492              	.LVL37:
 145:Drivers/STM32F1xx_HAL_Driver/Src/stm32f1xx_hal_hcd.c **** #endif /* (USE_HAL_HCD_REGISTER_CALLBACKS) */
 493              		.loc 1 145 5 is_stmt 0 view .LVU143
 494 008e C1E7     		b	.L24
 495              	.LVL38:
 496              	.L26:
 497              	.LCFI11:
 498              		.cfi_def_cfa_offset 0
 499              		.cfi_restore 4
 500              		.cfi_restore 5
 501              		.cfi_restore 6
 502              		.cfi_restore 7
 503              		.cfi_restore 14
 115:Drivers/STM32F1xx_HAL_Driver/Src/stm32f1xx_hal_hcd.c ****   }
ARM GAS  /tmp/ccldPFyH.s 			page 39


 504              		.loc 1 115 12 view .LVU144
 505 0090 0120     		movs	r0, #1
 506              	.LVL39:
 172:Drivers/STM32F1xx_HAL_Driver/Src/stm32f1xx_hal_hcd.c **** 
 507              		.loc 1 172 1 view .LVU145
 508 0092 7047     		bx	lr
 509              		.cfi_endproc
 510              	.LFE65:
 512              		.section	.text.HAL_HCD_MspDeInit,"ax",%progbits
 513              		.align	1
 514              		.weak	HAL_HCD_MspDeInit
 515              		.syntax unified
 516              		.thumb
 517              		.thumb_func
 518              		.fpu softvfp
 520              	HAL_HCD_MspDeInit:
 521              	.LVL40:
 522              	.LFB70:
 312:Drivers/STM32F1xx_HAL_Driver/Src/stm32f1xx_hal_hcd.c ****   /* Prevent unused argument(s) compilation warning */
 523              		.loc 1 312 1 is_stmt 1 view -0
 524              		.cfi_startproc
 525              		@ args = 0, pretend = 0, frame = 0
 526              		@ frame_needed = 0, uses_anonymous_args = 0
 527              		@ link register save eliminated.
 314:Drivers/STM32F1xx_HAL_Driver/Src/stm32f1xx_hal_hcd.c **** 
 528              		.loc 1 314 3 view .LVU147
 319:Drivers/STM32F1xx_HAL_Driver/Src/stm32f1xx_hal_hcd.c **** 
 529              		.loc 1 319 1 is_stmt 0 view .LVU148
 530 0000 7047     		bx	lr
 531              		.cfi_endproc
 532              	.LFE70:
 534              		.section	.text.HAL_HCD_DeInit,"ax",%progbits
 535              		.align	1
 536              		.global	HAL_HCD_DeInit
 537              		.syntax unified
 538              		.thumb
 539              		.thumb_func
 540              		.fpu softvfp
 542              	HAL_HCD_DeInit:
 543              	.LVL41:
 544              	.LFB68:
 262:Drivers/STM32F1xx_HAL_Driver/Src/stm32f1xx_hal_hcd.c ****   /* Check the HCD handle allocation */
 545              		.loc 1 262 1 is_stmt 1 view -0
 546              		.cfi_startproc
 547              		@ args = 0, pretend = 0, frame = 0
 548              		@ frame_needed = 0, uses_anonymous_args = 0
 264:Drivers/STM32F1xx_HAL_Driver/Src/stm32f1xx_hal_hcd.c ****   {
 549              		.loc 1 264 3 view .LVU150
 264:Drivers/STM32F1xx_HAL_Driver/Src/stm32f1xx_hal_hcd.c ****   {
 550              		.loc 1 264 6 is_stmt 0 view .LVU151
 551 0000 68B1     		cbz	r0, .L35
 262:Drivers/STM32F1xx_HAL_Driver/Src/stm32f1xx_hal_hcd.c ****   /* Check the HCD handle allocation */
 552              		.loc 1 262 1 view .LVU152
 553 0002 10B5     		push	{r4, lr}
 554              	.LCFI12:
 555              		.cfi_def_cfa_offset 8
 556              		.cfi_offset 4, -8
ARM GAS  /tmp/ccldPFyH.s 			page 40


 557              		.cfi_offset 14, -4
 558 0004 0446     		mov	r4, r0
 269:Drivers/STM32F1xx_HAL_Driver/Src/stm32f1xx_hal_hcd.c **** 
 559              		.loc 1 269 3 is_stmt 1 view .LVU153
 269:Drivers/STM32F1xx_HAL_Driver/Src/stm32f1xx_hal_hcd.c **** 
 560              		.loc 1 269 15 is_stmt 0 view .LVU154
 561 0006 0323     		movs	r3, #3
 562 0008 80F8B932 		strb	r3, [r0, #697]
 281:Drivers/STM32F1xx_HAL_Driver/Src/stm32f1xx_hal_hcd.c **** #endif /* USE_HAL_HCD_REGISTER_CALLBACKS */
 563              		.loc 1 281 3 is_stmt 1 view .LVU155
 564 000c FFF7FEFF 		bl	HAL_HCD_MspDeInit
 565              	.LVL42:
 284:Drivers/STM32F1xx_HAL_Driver/Src/stm32f1xx_hal_hcd.c **** 
 566              		.loc 1 284 3 view .LVU156
 567 0010 2068     		ldr	r0, [r4]
 568 0012 FFF7FEFF 		bl	USB_DisableGlobalInt
 569              	.LVL43:
 286:Drivers/STM32F1xx_HAL_Driver/Src/stm32f1xx_hal_hcd.c **** 
 570              		.loc 1 286 3 view .LVU157
 286:Drivers/STM32F1xx_HAL_Driver/Src/stm32f1xx_hal_hcd.c **** 
 571              		.loc 1 286 15 is_stmt 0 view .LVU158
 572 0016 0020     		movs	r0, #0
 573 0018 84F8B902 		strb	r0, [r4, #697]
 288:Drivers/STM32F1xx_HAL_Driver/Src/stm32f1xx_hal_hcd.c **** }
 574              		.loc 1 288 3 is_stmt 1 view .LVU159
 289:Drivers/STM32F1xx_HAL_Driver/Src/stm32f1xx_hal_hcd.c **** 
 575              		.loc 1 289 1 is_stmt 0 view .LVU160
 576 001c 10BD     		pop	{r4, pc}
 577              	.LVL44:
 578              	.L35:
 579              	.LCFI13:
 580              		.cfi_def_cfa_offset 0
 581              		.cfi_restore 4
 582              		.cfi_restore 14
 266:Drivers/STM32F1xx_HAL_Driver/Src/stm32f1xx_hal_hcd.c ****   }
 583              		.loc 1 266 12 view .LVU161
 584 001e 0120     		movs	r0, #1
 585              	.LVL45:
 289:Drivers/STM32F1xx_HAL_Driver/Src/stm32f1xx_hal_hcd.c **** 
 586              		.loc 1 289 1 view .LVU162
 587 0020 7047     		bx	lr
 588              		.cfi_endproc
 589              	.LFE68:
 591              		.section	.text.HAL_HCD_HC_SubmitRequest,"ax",%progbits
 592              		.align	1
 593              		.global	HAL_HCD_HC_SubmitRequest
 594              		.syntax unified
 595              		.thumb
 596              		.thumb_func
 597              		.fpu softvfp
 599              	HAL_HCD_HC_SubmitRequest:
 600              	.LVL46:
 601              	.LFB71:
 371:Drivers/STM32F1xx_HAL_Driver/Src/stm32f1xx_hal_hcd.c ****   hhcd->hc[ch_num].ep_is_in = direction;
 602              		.loc 1 371 1 is_stmt 1 view -0
 603              		.cfi_startproc
 604              		@ args = 16, pretend = 0, frame = 0
ARM GAS  /tmp/ccldPFyH.s 			page 41


 605              		@ frame_needed = 0, uses_anonymous_args = 0
 371:Drivers/STM32F1xx_HAL_Driver/Src/stm32f1xx_hal_hcd.c ****   hhcd->hc[ch_num].ep_is_in = direction;
 606              		.loc 1 371 1 is_stmt 0 view .LVU164
 607 0000 F8B5     		push	{r3, r4, r5, r6, r7, lr}
 608              	.LCFI14:
 609              		.cfi_def_cfa_offset 24
 610              		.cfi_offset 3, -24
 611              		.cfi_offset 4, -20
 612              		.cfi_offset 5, -16
 613              		.cfi_offset 6, -12
 614              		.cfi_offset 7, -8
 615              		.cfi_offset 14, -4
 616 0002 9DF81850 		ldrb	r5, [sp, #24]	@ zero_extendqisi2
 617 0006 BDF82060 		ldrh	r6, [sp, #32]
 372:Drivers/STM32F1xx_HAL_Driver/Src/stm32f1xx_hal_hcd.c ****   hhcd->hc[ch_num].ep_type  = ep_type;
 618              		.loc 1 372 3 is_stmt 1 view .LVU165
 372:Drivers/STM32F1xx_HAL_Driver/Src/stm32f1xx_hal_hcd.c ****   hhcd->hc[ch_num].ep_type  = ep_type;
 619              		.loc 1 372 29 is_stmt 0 view .LVU166
 620 000a 01EB8104 		add	r4, r1, r1, lsl #2
 621 000e 00EBC404 		add	r4, r0, r4, lsl #3
 622 0012 84F83B20 		strb	r2, [r4, #59]
 373:Drivers/STM32F1xx_HAL_Driver/Src/stm32f1xx_hal_hcd.c **** 
 623              		.loc 1 373 3 is_stmt 1 view .LVU167
 373:Drivers/STM32F1xx_HAL_Driver/Src/stm32f1xx_hal_hcd.c **** 
 624              		.loc 1 373 29 is_stmt 0 view .LVU168
 625 0016 84F83F30 		strb	r3, [r4, #63]
 375:Drivers/STM32F1xx_HAL_Driver/Src/stm32f1xx_hal_hcd.c ****   {
 626              		.loc 1 375 3 is_stmt 1 view .LVU169
 375:Drivers/STM32F1xx_HAL_Driver/Src/stm32f1xx_hal_hcd.c ****   {
 627              		.loc 1 375 6 is_stmt 0 view .LVU170
 628 001a 8DB9     		cbnz	r5, .L41
 377:Drivers/STM32F1xx_HAL_Driver/Src/stm32f1xx_hal_hcd.c ****     hhcd->hc[ch_num].do_ping = do_ping;
 629              		.loc 1 377 5 is_stmt 1 view .LVU171
 377:Drivers/STM32F1xx_HAL_Driver/Src/stm32f1xx_hal_hcd.c ****     hhcd->hc[ch_num].do_ping = do_ping;
 630              		.loc 1 377 31 is_stmt 0 view .LVU172
 631 001c 01EB8104 		add	r4, r1, r1, lsl #2
 632 0020 00EBC404 		add	r4, r0, r4, lsl #3
 633 0024 0327     		movs	r7, #3
 634 0026 84F84270 		strb	r7, [r4, #66]
 378:Drivers/STM32F1xx_HAL_Driver/Src/stm32f1xx_hal_hcd.c ****   }
 635              		.loc 1 378 5 is_stmt 1 view .LVU173
 378:Drivers/STM32F1xx_HAL_Driver/Src/stm32f1xx_hal_hcd.c ****   }
 636              		.loc 1 378 30 is_stmt 0 view .LVU174
 637 002a 9DF82470 		ldrb	r7, [sp, #36]	@ zero_extendqisi2
 638 002e 84F83D70 		strb	r7, [r4, #61]
 639              	.L42:
 386:Drivers/STM32F1xx_HAL_Driver/Src/stm32f1xx_hal_hcd.c ****   {
 640              		.loc 1 386 3 is_stmt 1 view .LVU175
 641 0032 032B     		cmp	r3, #3
 642 0034 00F29480 		bhi	.L43
 643 0038 DFE803F0 		tbb	[pc, r3]
 644              	.L45:
 645 003c 0A       		.byte	(.L48-.L45)/2
 646 003d 8B       		.byte	(.L47-.L45)/2
 647 003e 2F       		.byte	(.L46-.L45)/2
 648 003f 5D       		.byte	(.L44-.L45)/2
 649              		.p2align 1
ARM GAS  /tmp/ccldPFyH.s 			page 42


 650              	.L41:
 382:Drivers/STM32F1xx_HAL_Driver/Src/stm32f1xx_hal_hcd.c ****   }
 651              		.loc 1 382 5 view .LVU176
 382:Drivers/STM32F1xx_HAL_Driver/Src/stm32f1xx_hal_hcd.c ****   }
 652              		.loc 1 382 31 is_stmt 0 view .LVU177
 653 0040 01EB8104 		add	r4, r1, r1, lsl #2
 654 0044 00EBC404 		add	r4, r0, r4, lsl #3
 655 0048 0227     		movs	r7, #2
 656 004a 84F84270 		strb	r7, [r4, #66]
 657 004e F0E7     		b	.L42
 658              	.L48:
 389:Drivers/STM32F1xx_HAL_Driver/Src/stm32f1xx_hal_hcd.c ****       {
 659              		.loc 1 389 7 is_stmt 1 view .LVU178
 389:Drivers/STM32F1xx_HAL_Driver/Src/stm32f1xx_hal_hcd.c ****       {
 660              		.loc 1 389 10 is_stmt 0 view .LVU179
 661 0050 012D     		cmp	r5, #1
 662 0052 40F08580 		bne	.L43
 389:Drivers/STM32F1xx_HAL_Driver/Src/stm32f1xx_hal_hcd.c ****       {
 663              		.loc 1 389 25 discriminator 1 view .LVU180
 664 0056 002A     		cmp	r2, #0
 665 0058 40F08280 		bne	.L43
 391:Drivers/STM32F1xx_HAL_Driver/Src/stm32f1xx_hal_hcd.c ****         {
 666              		.loc 1 391 9 is_stmt 1 view .LVU181
 391:Drivers/STM32F1xx_HAL_Driver/Src/stm32f1xx_hal_hcd.c ****         {
 667              		.loc 1 391 12 is_stmt 0 view .LVU182
 668 005c 36B9     		cbnz	r6, .L49
 394:Drivers/STM32F1xx_HAL_Driver/Src/stm32f1xx_hal_hcd.c ****         }
 669              		.loc 1 394 11 is_stmt 1 view .LVU183
 394:Drivers/STM32F1xx_HAL_Driver/Src/stm32f1xx_hal_hcd.c ****         }
 670              		.loc 1 394 39 is_stmt 0 view .LVU184
 671 005e 01EB8103 		add	r3, r1, r1, lsl #2
 672              	.LVL47:
 394:Drivers/STM32F1xx_HAL_Driver/Src/stm32f1xx_hal_hcd.c ****         }
 673              		.loc 1 394 39 view .LVU185
 674 0062 00EBC303 		add	r3, r0, r3, lsl #3
 675 0066 0122     		movs	r2, #1
 676              	.LVL48:
 394:Drivers/STM32F1xx_HAL_Driver/Src/stm32f1xx_hal_hcd.c ****         }
 677              		.loc 1 394 39 view .LVU186
 678 0068 83F85120 		strb	r2, [r3, #81]
 679              	.L49:
 398:Drivers/STM32F1xx_HAL_Driver/Src/stm32f1xx_hal_hcd.c ****         {
 680              		.loc 1 398 9 is_stmt 1 view .LVU187
 398:Drivers/STM32F1xx_HAL_Driver/Src/stm32f1xx_hal_hcd.c ****         {
 681              		.loc 1 398 29 is_stmt 0 view .LVU188
 682 006c 01EB8103 		add	r3, r1, r1, lsl #2
 683 0070 00EBC303 		add	r3, r0, r3, lsl #3
 684 0074 93F85130 		ldrb	r3, [r3, #81]	@ zero_extendqisi2
 398:Drivers/STM32F1xx_HAL_Driver/Src/stm32f1xx_hal_hcd.c ****         {
 685              		.loc 1 398 12 view .LVU189
 686 0078 3BB9     		cbnz	r3, .L50
 401:Drivers/STM32F1xx_HAL_Driver/Src/stm32f1xx_hal_hcd.c ****         }
 687              		.loc 1 401 11 is_stmt 1 view .LVU190
 401:Drivers/STM32F1xx_HAL_Driver/Src/stm32f1xx_hal_hcd.c ****         }
 688              		.loc 1 401 37 is_stmt 0 view .LVU191
 689 007a 01EB8103 		add	r3, r1, r1, lsl #2
 690 007e 00EBC303 		add	r3, r0, r3, lsl #3
ARM GAS  /tmp/ccldPFyH.s 			page 43


 691 0082 0022     		movs	r2, #0
 692 0084 83F84220 		strb	r2, [r3, #66]
 693 0088 6AE0     		b	.L43
 694              	.L50:
 406:Drivers/STM32F1xx_HAL_Driver/Src/stm32f1xx_hal_hcd.c ****         }
 695              		.loc 1 406 11 is_stmt 1 view .LVU192
 406:Drivers/STM32F1xx_HAL_Driver/Src/stm32f1xx_hal_hcd.c ****         }
 696              		.loc 1 406 37 is_stmt 0 view .LVU193
 697 008a 01EB8103 		add	r3, r1, r1, lsl #2
 698 008e 00EBC303 		add	r3, r0, r3, lsl #3
 699 0092 0222     		movs	r2, #2
 700 0094 83F84220 		strb	r2, [r3, #66]
 701 0098 62E0     		b	.L43
 702              	.LVL49:
 703              	.L46:
 412:Drivers/STM32F1xx_HAL_Driver/Src/stm32f1xx_hal_hcd.c ****       {
 704              		.loc 1 412 7 is_stmt 1 view .LVU194
 412:Drivers/STM32F1xx_HAL_Driver/Src/stm32f1xx_hal_hcd.c ****       {
 705              		.loc 1 412 10 is_stmt 0 view .LVU195
 706 009a AAB9     		cbnz	r2, .L51
 415:Drivers/STM32F1xx_HAL_Driver/Src/stm32f1xx_hal_hcd.c ****         {
 707              		.loc 1 415 9 is_stmt 1 view .LVU196
 415:Drivers/STM32F1xx_HAL_Driver/Src/stm32f1xx_hal_hcd.c ****         {
 708              		.loc 1 415 29 is_stmt 0 view .LVU197
 709 009c 01EB8103 		add	r3, r1, r1, lsl #2
 710              	.LVL50:
 415:Drivers/STM32F1xx_HAL_Driver/Src/stm32f1xx_hal_hcd.c ****         {
 711              		.loc 1 415 29 view .LVU198
 712 00a0 00EBC303 		add	r3, r0, r3, lsl #3
 713 00a4 93F85130 		ldrb	r3, [r3, #81]	@ zero_extendqisi2
 415:Drivers/STM32F1xx_HAL_Driver/Src/stm32f1xx_hal_hcd.c ****         {
 714              		.loc 1 415 12 view .LVU199
 715 00a8 33B9     		cbnz	r3, .L52
 418:Drivers/STM32F1xx_HAL_Driver/Src/stm32f1xx_hal_hcd.c ****         }
 716              		.loc 1 418 11 is_stmt 1 view .LVU200
 418:Drivers/STM32F1xx_HAL_Driver/Src/stm32f1xx_hal_hcd.c ****         }
 717              		.loc 1 418 37 is_stmt 0 view .LVU201
 718 00aa 01EB8103 		add	r3, r1, r1, lsl #2
 719 00ae 00EBC303 		add	r3, r0, r3, lsl #3
 720 00b2 83F84220 		strb	r2, [r3, #66]
 721 00b6 53E0     		b	.L43
 722              	.L52:
 423:Drivers/STM32F1xx_HAL_Driver/Src/stm32f1xx_hal_hcd.c ****         }
 723              		.loc 1 423 11 is_stmt 1 view .LVU202
 423:Drivers/STM32F1xx_HAL_Driver/Src/stm32f1xx_hal_hcd.c ****         }
 724              		.loc 1 423 37 is_stmt 0 view .LVU203
 725 00b8 01EB8103 		add	r3, r1, r1, lsl #2
 726 00bc 00EBC303 		add	r3, r0, r3, lsl #3
 727 00c0 0222     		movs	r2, #2
 728              	.LVL51:
 423:Drivers/STM32F1xx_HAL_Driver/Src/stm32f1xx_hal_hcd.c ****         }
 729              		.loc 1 423 37 view .LVU204
 730 00c2 83F84220 		strb	r2, [r3, #66]
 731 00c6 4BE0     		b	.L43
 732              	.LVL52:
 733              	.L51:
 428:Drivers/STM32F1xx_HAL_Driver/Src/stm32f1xx_hal_hcd.c ****         {
ARM GAS  /tmp/ccldPFyH.s 			page 44


 734              		.loc 1 428 9 is_stmt 1 view .LVU205
 428:Drivers/STM32F1xx_HAL_Driver/Src/stm32f1xx_hal_hcd.c ****         {
 735              		.loc 1 428 29 is_stmt 0 view .LVU206
 736 00c8 01EB8103 		add	r3, r1, r1, lsl #2
 737              	.LVL53:
 428:Drivers/STM32F1xx_HAL_Driver/Src/stm32f1xx_hal_hcd.c ****         {
 738              		.loc 1 428 29 view .LVU207
 739 00cc 00EBC303 		add	r3, r0, r3, lsl #3
 740 00d0 93F85030 		ldrb	r3, [r3, #80]	@ zero_extendqisi2
 428:Drivers/STM32F1xx_HAL_Driver/Src/stm32f1xx_hal_hcd.c ****         {
 741              		.loc 1 428 12 view .LVU208
 742 00d4 3BB9     		cbnz	r3, .L53
 430:Drivers/STM32F1xx_HAL_Driver/Src/stm32f1xx_hal_hcd.c ****         }
 743              		.loc 1 430 11 is_stmt 1 view .LVU209
 430:Drivers/STM32F1xx_HAL_Driver/Src/stm32f1xx_hal_hcd.c ****         }
 744              		.loc 1 430 37 is_stmt 0 view .LVU210
 745 00d6 01EB8103 		add	r3, r1, r1, lsl #2
 746 00da 00EBC303 		add	r3, r0, r3, lsl #3
 747 00de 0022     		movs	r2, #0
 748              	.LVL54:
 430:Drivers/STM32F1xx_HAL_Driver/Src/stm32f1xx_hal_hcd.c ****         }
 749              		.loc 1 430 37 view .LVU211
 750 00e0 83F84220 		strb	r2, [r3, #66]
 751 00e4 3CE0     		b	.L43
 752              	.LVL55:
 753              	.L53:
 434:Drivers/STM32F1xx_HAL_Driver/Src/stm32f1xx_hal_hcd.c ****         }
 754              		.loc 1 434 11 is_stmt 1 view .LVU212
 434:Drivers/STM32F1xx_HAL_Driver/Src/stm32f1xx_hal_hcd.c ****         }
 755              		.loc 1 434 37 is_stmt 0 view .LVU213
 756 00e6 01EB8103 		add	r3, r1, r1, lsl #2
 757 00ea 00EBC303 		add	r3, r0, r3, lsl #3
 758 00ee 0222     		movs	r2, #2
 759              	.LVL56:
 434:Drivers/STM32F1xx_HAL_Driver/Src/stm32f1xx_hal_hcd.c ****         }
 760              		.loc 1 434 37 view .LVU214
 761 00f0 83F84220 		strb	r2, [r3, #66]
 762 00f4 34E0     		b	.L43
 763              	.LVL57:
 764              	.L44:
 440:Drivers/STM32F1xx_HAL_Driver/Src/stm32f1xx_hal_hcd.c ****       {
 765              		.loc 1 440 7 is_stmt 1 view .LVU215
 440:Drivers/STM32F1xx_HAL_Driver/Src/stm32f1xx_hal_hcd.c ****       {
 766              		.loc 1 440 10 is_stmt 0 view .LVU216
 767 00f6 AAB9     		cbnz	r2, .L54
 443:Drivers/STM32F1xx_HAL_Driver/Src/stm32f1xx_hal_hcd.c ****         {
 768              		.loc 1 443 9 is_stmt 1 view .LVU217
 443:Drivers/STM32F1xx_HAL_Driver/Src/stm32f1xx_hal_hcd.c ****         {
 769              		.loc 1 443 29 is_stmt 0 view .LVU218
 770 00f8 01EB8103 		add	r3, r1, r1, lsl #2
 771              	.LVL58:
 443:Drivers/STM32F1xx_HAL_Driver/Src/stm32f1xx_hal_hcd.c ****         {
 772              		.loc 1 443 29 view .LVU219
 773 00fc 00EBC303 		add	r3, r0, r3, lsl #3
 774 0100 93F85130 		ldrb	r3, [r3, #81]	@ zero_extendqisi2
 443:Drivers/STM32F1xx_HAL_Driver/Src/stm32f1xx_hal_hcd.c ****         {
 775              		.loc 1 443 12 view .LVU220
ARM GAS  /tmp/ccldPFyH.s 			page 45


 776 0104 33B9     		cbnz	r3, .L55
 446:Drivers/STM32F1xx_HAL_Driver/Src/stm32f1xx_hal_hcd.c ****         }
 777              		.loc 1 446 11 is_stmt 1 view .LVU221
 446:Drivers/STM32F1xx_HAL_Driver/Src/stm32f1xx_hal_hcd.c ****         }
 778              		.loc 1 446 37 is_stmt 0 view .LVU222
 779 0106 01EB8103 		add	r3, r1, r1, lsl #2
 780 010a 00EBC303 		add	r3, r0, r3, lsl #3
 781 010e 83F84220 		strb	r2, [r3, #66]
 782 0112 25E0     		b	.L43
 783              	.L55:
 451:Drivers/STM32F1xx_HAL_Driver/Src/stm32f1xx_hal_hcd.c ****         }
 784              		.loc 1 451 11 is_stmt 1 view .LVU223
 451:Drivers/STM32F1xx_HAL_Driver/Src/stm32f1xx_hal_hcd.c ****         }
 785              		.loc 1 451 37 is_stmt 0 view .LVU224
 786 0114 01EB8103 		add	r3, r1, r1, lsl #2
 787 0118 00EBC303 		add	r3, r0, r3, lsl #3
 788 011c 0222     		movs	r2, #2
 789              	.LVL59:
 451:Drivers/STM32F1xx_HAL_Driver/Src/stm32f1xx_hal_hcd.c ****         }
 790              		.loc 1 451 37 view .LVU225
 791 011e 83F84220 		strb	r2, [r3, #66]
 792 0122 1DE0     		b	.L43
 793              	.LVL60:
 794              	.L54:
 456:Drivers/STM32F1xx_HAL_Driver/Src/stm32f1xx_hal_hcd.c ****         {
 795              		.loc 1 456 9 is_stmt 1 view .LVU226
 456:Drivers/STM32F1xx_HAL_Driver/Src/stm32f1xx_hal_hcd.c ****         {
 796              		.loc 1 456 29 is_stmt 0 view .LVU227
 797 0124 01EB8103 		add	r3, r1, r1, lsl #2
 798              	.LVL61:
 456:Drivers/STM32F1xx_HAL_Driver/Src/stm32f1xx_hal_hcd.c ****         {
 799              		.loc 1 456 29 view .LVU228
 800 0128 00EBC303 		add	r3, r0, r3, lsl #3
 801 012c 93F85030 		ldrb	r3, [r3, #80]	@ zero_extendqisi2
 456:Drivers/STM32F1xx_HAL_Driver/Src/stm32f1xx_hal_hcd.c ****         {
 802              		.loc 1 456 12 view .LVU229
 803 0130 3BB9     		cbnz	r3, .L56
 458:Drivers/STM32F1xx_HAL_Driver/Src/stm32f1xx_hal_hcd.c ****         }
 804              		.loc 1 458 11 is_stmt 1 view .LVU230
 458:Drivers/STM32F1xx_HAL_Driver/Src/stm32f1xx_hal_hcd.c ****         }
 805              		.loc 1 458 37 is_stmt 0 view .LVU231
 806 0132 01EB8103 		add	r3, r1, r1, lsl #2
 807 0136 00EBC303 		add	r3, r0, r3, lsl #3
 808 013a 0022     		movs	r2, #0
 809              	.LVL62:
 458:Drivers/STM32F1xx_HAL_Driver/Src/stm32f1xx_hal_hcd.c ****         }
 810              		.loc 1 458 37 view .LVU232
 811 013c 83F84220 		strb	r2, [r3, #66]
 812 0140 0EE0     		b	.L43
 813              	.LVL63:
 814              	.L56:
 462:Drivers/STM32F1xx_HAL_Driver/Src/stm32f1xx_hal_hcd.c ****         }
 815              		.loc 1 462 11 is_stmt 1 view .LVU233
 462:Drivers/STM32F1xx_HAL_Driver/Src/stm32f1xx_hal_hcd.c ****         }
 816              		.loc 1 462 37 is_stmt 0 view .LVU234
 817 0142 01EB8103 		add	r3, r1, r1, lsl #2
 818 0146 00EBC303 		add	r3, r0, r3, lsl #3
ARM GAS  /tmp/ccldPFyH.s 			page 46


 819 014a 0222     		movs	r2, #2
 820              	.LVL64:
 462:Drivers/STM32F1xx_HAL_Driver/Src/stm32f1xx_hal_hcd.c ****         }
 821              		.loc 1 462 37 view .LVU235
 822 014c 83F84220 		strb	r2, [r3, #66]
 823 0150 06E0     		b	.L43
 824              	.LVL65:
 825              	.L47:
 468:Drivers/STM32F1xx_HAL_Driver/Src/stm32f1xx_hal_hcd.c ****       break;
 826              		.loc 1 468 7 is_stmt 1 view .LVU236
 468:Drivers/STM32F1xx_HAL_Driver/Src/stm32f1xx_hal_hcd.c ****       break;
 827              		.loc 1 468 33 is_stmt 0 view .LVU237
 828 0152 01EB8103 		add	r3, r1, r1, lsl #2
 829              	.LVL66:
 468:Drivers/STM32F1xx_HAL_Driver/Src/stm32f1xx_hal_hcd.c ****       break;
 830              		.loc 1 468 33 view .LVU238
 831 0156 00EBC303 		add	r3, r0, r3, lsl #3
 832 015a 0022     		movs	r2, #0
 833              	.LVL67:
 468:Drivers/STM32F1xx_HAL_Driver/Src/stm32f1xx_hal_hcd.c ****       break;
 834              		.loc 1 468 33 view .LVU239
 835 015c 83F84220 		strb	r2, [r3, #66]
 469:Drivers/STM32F1xx_HAL_Driver/Src/stm32f1xx_hal_hcd.c **** 
 836              		.loc 1 469 7 is_stmt 1 view .LVU240
 837              	.L43:
 475:Drivers/STM32F1xx_HAL_Driver/Src/stm32f1xx_hal_hcd.c ****   hhcd->hc[ch_num].xfer_len  = length;
 838              		.loc 1 475 3 view .LVU241
 475:Drivers/STM32F1xx_HAL_Driver/Src/stm32f1xx_hal_hcd.c ****   hhcd->hc[ch_num].xfer_len  = length;
 839              		.loc 1 475 30 is_stmt 0 view .LVU242
 840 0160 01EB8103 		add	r3, r1, r1, lsl #2
 841 0164 00EBC303 		add	r3, r0, r3, lsl #3
 842 0168 079A     		ldr	r2, [sp, #28]
 843 016a 5A64     		str	r2, [r3, #68]
 476:Drivers/STM32F1xx_HAL_Driver/Src/stm32f1xx_hal_hcd.c ****   hhcd->hc[ch_num].urb_state = URB_IDLE;
 844              		.loc 1 476 3 is_stmt 1 view .LVU243
 476:Drivers/STM32F1xx_HAL_Driver/Src/stm32f1xx_hal_hcd.c ****   hhcd->hc[ch_num].urb_state = URB_IDLE;
 845              		.loc 1 476 30 is_stmt 0 view .LVU244
 846 016c 9E64     		str	r6, [r3, #72]
 477:Drivers/STM32F1xx_HAL_Driver/Src/stm32f1xx_hal_hcd.c ****   hhcd->hc[ch_num].xfer_count = 0U;
 847              		.loc 1 477 3 is_stmt 1 view .LVU245
 477:Drivers/STM32F1xx_HAL_Driver/Src/stm32f1xx_hal_hcd.c ****   hhcd->hc[ch_num].xfer_count = 0U;
 848              		.loc 1 477 30 is_stmt 0 view .LVU246
 849 016e 0022     		movs	r2, #0
 850 0170 83F85C20 		strb	r2, [r3, #92]
 478:Drivers/STM32F1xx_HAL_Driver/Src/stm32f1xx_hal_hcd.c ****   hhcd->hc[ch_num].ch_num = ch_num;
 851              		.loc 1 478 3 is_stmt 1 view .LVU247
 478:Drivers/STM32F1xx_HAL_Driver/Src/stm32f1xx_hal_hcd.c ****   hhcd->hc[ch_num].ch_num = ch_num;
 852              		.loc 1 478 31 is_stmt 0 view .LVU248
 853 0174 DA64     		str	r2, [r3, #76]
 479:Drivers/STM32F1xx_HAL_Driver/Src/stm32f1xx_hal_hcd.c ****   hhcd->hc[ch_num].state = HC_IDLE;
 854              		.loc 1 479 3 is_stmt 1 view .LVU249
 479:Drivers/STM32F1xx_HAL_Driver/Src/stm32f1xx_hal_hcd.c ****   hhcd->hc[ch_num].state = HC_IDLE;
 855              		.loc 1 479 27 is_stmt 0 view .LVU250
 856 0176 83F83910 		strb	r1, [r3, #57]
 480:Drivers/STM32F1xx_HAL_Driver/Src/stm32f1xx_hal_hcd.c **** 
 857              		.loc 1 480 3 is_stmt 1 view .LVU251
 480:Drivers/STM32F1xx_HAL_Driver/Src/stm32f1xx_hal_hcd.c **** 
ARM GAS  /tmp/ccldPFyH.s 			page 47


 858              		.loc 1 480 26 is_stmt 0 view .LVU252
 859 017a 83F85D20 		strb	r2, [r3, #93]
 482:Drivers/STM32F1xx_HAL_Driver/Src/stm32f1xx_hal_hcd.c **** }
 860              		.loc 1 482 3 is_stmt 1 view .LVU253
 482:Drivers/STM32F1xx_HAL_Driver/Src/stm32f1xx_hal_hcd.c **** }
 861              		.loc 1 482 43 is_stmt 0 view .LVU254
 862 017e 01EB8101 		add	r1, r1, r1, lsl #2
 863              	.LVL68:
 482:Drivers/STM32F1xx_HAL_Driver/Src/stm32f1xx_hal_hcd.c **** }
 864              		.loc 1 482 43 view .LVU255
 865 0182 C900     		lsls	r1, r1, #3
 866 0184 3831     		adds	r1, r1, #56
 482:Drivers/STM32F1xx_HAL_Driver/Src/stm32f1xx_hal_hcd.c **** }
 867              		.loc 1 482 10 view .LVU256
 868 0186 0144     		add	r1, r1, r0
 869 0188 0068     		ldr	r0, [r0]
 870              	.LVL69:
 482:Drivers/STM32F1xx_HAL_Driver/Src/stm32f1xx_hal_hcd.c **** }
 871              		.loc 1 482 10 view .LVU257
 872 018a FFF7FEFF 		bl	USB_HC_StartXfer
 873              	.LVL70:
 483:Drivers/STM32F1xx_HAL_Driver/Src/stm32f1xx_hal_hcd.c **** 
 874              		.loc 1 483 1 view .LVU258
 875 018e F8BD     		pop	{r3, r4, r5, r6, r7, pc}
 483:Drivers/STM32F1xx_HAL_Driver/Src/stm32f1xx_hal_hcd.c **** 
 876              		.loc 1 483 1 view .LVU259
 877              		.cfi_endproc
 878              	.LFE71:
 880              		.section	.text.HAL_HCD_WKUP_IRQHandler,"ax",%progbits
 881              		.align	1
 882              		.global	HAL_HCD_WKUP_IRQHandler
 883              		.syntax unified
 884              		.thumb
 885              		.thumb_func
 886              		.fpu softvfp
 888              	HAL_HCD_WKUP_IRQHandler:
 889              	.LVL71:
 890              	.LFB73:
 605:Drivers/STM32F1xx_HAL_Driver/Src/stm32f1xx_hal_hcd.c ****   UNUSED(hhcd);
 891              		.loc 1 605 1 is_stmt 1 view -0
 892              		.cfi_startproc
 893              		@ args = 0, pretend = 0, frame = 0
 894              		@ frame_needed = 0, uses_anonymous_args = 0
 895              		@ link register save eliminated.
 606:Drivers/STM32F1xx_HAL_Driver/Src/stm32f1xx_hal_hcd.c **** }
 896              		.loc 1 606 3 view .LVU261
 607:Drivers/STM32F1xx_HAL_Driver/Src/stm32f1xx_hal_hcd.c **** 
 897              		.loc 1 607 1 is_stmt 0 view .LVU262
 898 0000 7047     		bx	lr
 899              		.cfi_endproc
 900              	.LFE73:
 902              		.section	.text.HAL_HCD_SOF_Callback,"ax",%progbits
 903              		.align	1
 904              		.weak	HAL_HCD_SOF_Callback
 905              		.syntax unified
 906              		.thumb
 907              		.thumb_func
ARM GAS  /tmp/ccldPFyH.s 			page 48


 908              		.fpu softvfp
 910              	HAL_HCD_SOF_Callback:
 911              	.LVL72:
 912              	.LFB74:
 616:Drivers/STM32F1xx_HAL_Driver/Src/stm32f1xx_hal_hcd.c ****   /* Prevent unused argument(s) compilation warning */
 913              		.loc 1 616 1 is_stmt 1 view -0
 914              		.cfi_startproc
 915              		@ args = 0, pretend = 0, frame = 0
 916              		@ frame_needed = 0, uses_anonymous_args = 0
 917              		@ link register save eliminated.
 618:Drivers/STM32F1xx_HAL_Driver/Src/stm32f1xx_hal_hcd.c **** 
 918              		.loc 1 618 3 view .LVU264
 623:Drivers/STM32F1xx_HAL_Driver/Src/stm32f1xx_hal_hcd.c **** 
 919              		.loc 1 623 1 is_stmt 0 view .LVU265
 920 0000 7047     		bx	lr
 921              		.cfi_endproc
 922              	.LFE74:
 924              		.section	.text.HAL_HCD_Connect_Callback,"ax",%progbits
 925              		.align	1
 926              		.weak	HAL_HCD_Connect_Callback
 927              		.syntax unified
 928              		.thumb
 929              		.thumb_func
 930              		.fpu softvfp
 932              	HAL_HCD_Connect_Callback:
 933              	.LVL73:
 934              	.LFB75:
 631:Drivers/STM32F1xx_HAL_Driver/Src/stm32f1xx_hal_hcd.c ****   /* Prevent unused argument(s) compilation warning */
 935              		.loc 1 631 1 is_stmt 1 view -0
 936              		.cfi_startproc
 937              		@ args = 0, pretend = 0, frame = 0
 938              		@ frame_needed = 0, uses_anonymous_args = 0
 939              		@ link register save eliminated.
 633:Drivers/STM32F1xx_HAL_Driver/Src/stm32f1xx_hal_hcd.c **** 
 940              		.loc 1 633 3 view .LVU267
 638:Drivers/STM32F1xx_HAL_Driver/Src/stm32f1xx_hal_hcd.c **** 
 941              		.loc 1 638 1 is_stmt 0 view .LVU268
 942 0000 7047     		bx	lr
 943              		.cfi_endproc
 944              	.LFE75:
 946              		.section	.text.HAL_HCD_Disconnect_Callback,"ax",%progbits
 947              		.align	1
 948              		.weak	HAL_HCD_Disconnect_Callback
 949              		.syntax unified
 950              		.thumb
 951              		.thumb_func
 952              		.fpu softvfp
 954              	HAL_HCD_Disconnect_Callback:
 955              	.LVL74:
 956              	.LFB76:
 646:Drivers/STM32F1xx_HAL_Driver/Src/stm32f1xx_hal_hcd.c ****   /* Prevent unused argument(s) compilation warning */
 957              		.loc 1 646 1 is_stmt 1 view -0
 958              		.cfi_startproc
 959              		@ args = 0, pretend = 0, frame = 0
 960              		@ frame_needed = 0, uses_anonymous_args = 0
 961              		@ link register save eliminated.
 648:Drivers/STM32F1xx_HAL_Driver/Src/stm32f1xx_hal_hcd.c **** 
ARM GAS  /tmp/ccldPFyH.s 			page 49


 962              		.loc 1 648 3 view .LVU270
 653:Drivers/STM32F1xx_HAL_Driver/Src/stm32f1xx_hal_hcd.c **** 
 963              		.loc 1 653 1 is_stmt 0 view .LVU271
 964 0000 7047     		bx	lr
 965              		.cfi_endproc
 966              	.LFE76:
 968              		.section	.text.HAL_HCD_PortEnabled_Callback,"ax",%progbits
 969              		.align	1
 970              		.weak	HAL_HCD_PortEnabled_Callback
 971              		.syntax unified
 972              		.thumb
 973              		.thumb_func
 974              		.fpu softvfp
 976              	HAL_HCD_PortEnabled_Callback:
 977              	.LVL75:
 978              	.LFB77:
 661:Drivers/STM32F1xx_HAL_Driver/Src/stm32f1xx_hal_hcd.c ****   /* Prevent unused argument(s) compilation warning */
 979              		.loc 1 661 1 is_stmt 1 view -0
 980              		.cfi_startproc
 981              		@ args = 0, pretend = 0, frame = 0
 982              		@ frame_needed = 0, uses_anonymous_args = 0
 983              		@ link register save eliminated.
 663:Drivers/STM32F1xx_HAL_Driver/Src/stm32f1xx_hal_hcd.c **** 
 984              		.loc 1 663 3 view .LVU273
 668:Drivers/STM32F1xx_HAL_Driver/Src/stm32f1xx_hal_hcd.c **** 
 985              		.loc 1 668 1 is_stmt 0 view .LVU274
 986 0000 7047     		bx	lr
 987              		.cfi_endproc
 988              	.LFE77:
 990              		.section	.text.HAL_HCD_PortDisabled_Callback,"ax",%progbits
 991              		.align	1
 992              		.weak	HAL_HCD_PortDisabled_Callback
 993              		.syntax unified
 994              		.thumb
 995              		.thumb_func
 996              		.fpu softvfp
 998              	HAL_HCD_PortDisabled_Callback:
 999              	.LVL76:
 1000              	.LFB78:
 676:Drivers/STM32F1xx_HAL_Driver/Src/stm32f1xx_hal_hcd.c ****   /* Prevent unused argument(s) compilation warning */
 1001              		.loc 1 676 1 is_stmt 1 view -0
 1002              		.cfi_startproc
 1003              		@ args = 0, pretend = 0, frame = 0
 1004              		@ frame_needed = 0, uses_anonymous_args = 0
 1005              		@ link register save eliminated.
 678:Drivers/STM32F1xx_HAL_Driver/Src/stm32f1xx_hal_hcd.c **** 
 1006              		.loc 1 678 3 view .LVU276
 683:Drivers/STM32F1xx_HAL_Driver/Src/stm32f1xx_hal_hcd.c **** 
 1007              		.loc 1 683 1 is_stmt 0 view .LVU277
 1008 0000 7047     		bx	lr
 1009              		.cfi_endproc
 1010              	.LFE78:
 1012              		.section	.text.HCD_Port_IRQHandler,"ax",%progbits
 1013              		.align	1
 1014              		.syntax unified
 1015              		.thumb
 1016              		.thumb_func
ARM GAS  /tmp/ccldPFyH.s 			page 50


 1017              		.fpu softvfp
 1019              	HCD_Port_IRQHandler:
 1020              	.LVL77:
 1021              	.LFB92:
1550:Drivers/STM32F1xx_HAL_Driver/Src/stm32f1xx_hal_hcd.c **** 
1551:Drivers/STM32F1xx_HAL_Driver/Src/stm32f1xx_hal_hcd.c **** /**
1552:Drivers/STM32F1xx_HAL_Driver/Src/stm32f1xx_hal_hcd.c ****   * @brief  Handle Host Port interrupt requests.
1553:Drivers/STM32F1xx_HAL_Driver/Src/stm32f1xx_hal_hcd.c ****   * @param  hhcd HCD handle
1554:Drivers/STM32F1xx_HAL_Driver/Src/stm32f1xx_hal_hcd.c ****   * @retval None
1555:Drivers/STM32F1xx_HAL_Driver/Src/stm32f1xx_hal_hcd.c ****   */
1556:Drivers/STM32F1xx_HAL_Driver/Src/stm32f1xx_hal_hcd.c **** static void HCD_Port_IRQHandler(HCD_HandleTypeDef *hhcd)
1557:Drivers/STM32F1xx_HAL_Driver/Src/stm32f1xx_hal_hcd.c **** {
 1022              		.loc 1 1557 1 is_stmt 1 view -0
 1023              		.cfi_startproc
 1024              		@ args = 0, pretend = 0, frame = 8
 1025              		@ frame_needed = 0, uses_anonymous_args = 0
 1026              		.loc 1 1557 1 is_stmt 0 view .LVU279
 1027 0000 30B5     		push	{r4, r5, lr}
 1028              	.LCFI15:
 1029              		.cfi_def_cfa_offset 12
 1030              		.cfi_offset 4, -12
 1031              		.cfi_offset 5, -8
 1032              		.cfi_offset 14, -4
 1033 0002 83B0     		sub	sp, sp, #12
 1034              	.LCFI16:
 1035              		.cfi_def_cfa_offset 24
 1036 0004 0446     		mov	r4, r0
1558:Drivers/STM32F1xx_HAL_Driver/Src/stm32f1xx_hal_hcd.c ****   USB_OTG_GlobalTypeDef *USBx = hhcd->Instance;
 1037              		.loc 1 1558 3 is_stmt 1 view .LVU280
 1038              		.loc 1 1558 26 is_stmt 0 view .LVU281
 1039 0006 0568     		ldr	r5, [r0]
1559:Drivers/STM32F1xx_HAL_Driver/Src/stm32f1xx_hal_hcd.c ****   uint32_t USBx_BASE = (uint32_t)USBx;
 1040              		.loc 1 1559 3 is_stmt 1 view .LVU282
 1041              	.LVL78:
1560:Drivers/STM32F1xx_HAL_Driver/Src/stm32f1xx_hal_hcd.c ****   __IO uint32_t hprt0, hprt0_dup;
 1042              		.loc 1 1560 3 view .LVU283
1561:Drivers/STM32F1xx_HAL_Driver/Src/stm32f1xx_hal_hcd.c **** 
1562:Drivers/STM32F1xx_HAL_Driver/Src/stm32f1xx_hal_hcd.c ****   /* Handle Host Port Interrupts */
1563:Drivers/STM32F1xx_HAL_Driver/Src/stm32f1xx_hal_hcd.c ****   hprt0 = USBx_HPRT0;
 1043              		.loc 1 1563 3 view .LVU284
 1044              		.loc 1 1563 11 is_stmt 0 view .LVU285
 1045 0008 D5F84034 		ldr	r3, [r5, #1088]
 1046              		.loc 1 1563 9 view .LVU286
 1047 000c 0193     		str	r3, [sp, #4]
1564:Drivers/STM32F1xx_HAL_Driver/Src/stm32f1xx_hal_hcd.c ****   hprt0_dup = USBx_HPRT0;
 1048              		.loc 1 1564 3 is_stmt 1 view .LVU287
 1049              		.loc 1 1564 15 is_stmt 0 view .LVU288
 1050 000e D5F84034 		ldr	r3, [r5, #1088]
 1051              		.loc 1 1564 13 view .LVU289
 1052 0012 0093     		str	r3, [sp]
1565:Drivers/STM32F1xx_HAL_Driver/Src/stm32f1xx_hal_hcd.c **** 
1566:Drivers/STM32F1xx_HAL_Driver/Src/stm32f1xx_hal_hcd.c ****   hprt0_dup &= ~(USB_OTG_HPRT_PENA | USB_OTG_HPRT_PCDET | \
 1053              		.loc 1 1566 3 is_stmt 1 view .LVU290
 1054              		.loc 1 1566 13 is_stmt 0 view .LVU291
 1055 0014 009B     		ldr	r3, [sp]
 1056 0016 23F02E03 		bic	r3, r3, #46
 1057 001a 0093     		str	r3, [sp]
ARM GAS  /tmp/ccldPFyH.s 			page 51


1567:Drivers/STM32F1xx_HAL_Driver/Src/stm32f1xx_hal_hcd.c ****                  USB_OTG_HPRT_PENCHNG | USB_OTG_HPRT_POCCHNG);
1568:Drivers/STM32F1xx_HAL_Driver/Src/stm32f1xx_hal_hcd.c **** 
1569:Drivers/STM32F1xx_HAL_Driver/Src/stm32f1xx_hal_hcd.c ****   /* Check whether Port Connect detected */
1570:Drivers/STM32F1xx_HAL_Driver/Src/stm32f1xx_hal_hcd.c ****   if ((hprt0 & USB_OTG_HPRT_PCDET) == USB_OTG_HPRT_PCDET)
 1058              		.loc 1 1570 3 is_stmt 1 view .LVU292
 1059              		.loc 1 1570 14 is_stmt 0 view .LVU293
 1060 001c 019B     		ldr	r3, [sp, #4]
 1061              		.loc 1 1570 6 view .LVU294
 1062 001e 13F0020F 		tst	r3, #2
 1063 0022 07D0     		beq	.L65
1571:Drivers/STM32F1xx_HAL_Driver/Src/stm32f1xx_hal_hcd.c ****   {
1572:Drivers/STM32F1xx_HAL_Driver/Src/stm32f1xx_hal_hcd.c ****     if ((hprt0 & USB_OTG_HPRT_PCSTS) == USB_OTG_HPRT_PCSTS)
 1064              		.loc 1 1572 5 is_stmt 1 view .LVU295
 1065              		.loc 1 1572 16 is_stmt 0 view .LVU296
 1066 0024 019B     		ldr	r3, [sp, #4]
 1067              		.loc 1 1572 8 view .LVU297
 1068 0026 13F0010F 		tst	r3, #1
 1069 002a 25D1     		bne	.L74
 1070              	.LVL79:
 1071              	.L66:
1573:Drivers/STM32F1xx_HAL_Driver/Src/stm32f1xx_hal_hcd.c ****     {
1574:Drivers/STM32F1xx_HAL_Driver/Src/stm32f1xx_hal_hcd.c **** #if (USE_HAL_HCD_REGISTER_CALLBACKS == 1U)
1575:Drivers/STM32F1xx_HAL_Driver/Src/stm32f1xx_hal_hcd.c ****       hhcd->ConnectCallback(hhcd);
1576:Drivers/STM32F1xx_HAL_Driver/Src/stm32f1xx_hal_hcd.c **** #else
1577:Drivers/STM32F1xx_HAL_Driver/Src/stm32f1xx_hal_hcd.c ****       HAL_HCD_Connect_Callback(hhcd);
1578:Drivers/STM32F1xx_HAL_Driver/Src/stm32f1xx_hal_hcd.c **** #endif /* USE_HAL_HCD_REGISTER_CALLBACKS */
1579:Drivers/STM32F1xx_HAL_Driver/Src/stm32f1xx_hal_hcd.c ****     }
1580:Drivers/STM32F1xx_HAL_Driver/Src/stm32f1xx_hal_hcd.c ****     hprt0_dup  |= USB_OTG_HPRT_PCDET;
 1072              		.loc 1 1580 5 is_stmt 1 view .LVU298
 1073              		.loc 1 1580 16 is_stmt 0 view .LVU299
 1074 002c 009B     		ldr	r3, [sp]
 1075 002e 43F00203 		orr	r3, r3, #2
 1076 0032 0093     		str	r3, [sp]
 1077              	.L65:
1581:Drivers/STM32F1xx_HAL_Driver/Src/stm32f1xx_hal_hcd.c ****   }
1582:Drivers/STM32F1xx_HAL_Driver/Src/stm32f1xx_hal_hcd.c **** 
1583:Drivers/STM32F1xx_HAL_Driver/Src/stm32f1xx_hal_hcd.c ****   /* Check whether Port Enable Changed */
1584:Drivers/STM32F1xx_HAL_Driver/Src/stm32f1xx_hal_hcd.c ****   if ((hprt0 & USB_OTG_HPRT_PENCHNG) == USB_OTG_HPRT_PENCHNG)
 1078              		.loc 1 1584 3 is_stmt 1 view .LVU300
 1079              		.loc 1 1584 14 is_stmt 0 view .LVU301
 1080 0034 019B     		ldr	r3, [sp, #4]
 1081              		.loc 1 1584 6 view .LVU302
 1082 0036 13F0080F 		tst	r3, #8
 1083 003a 10D0     		beq	.L67
1585:Drivers/STM32F1xx_HAL_Driver/Src/stm32f1xx_hal_hcd.c ****   {
1586:Drivers/STM32F1xx_HAL_Driver/Src/stm32f1xx_hal_hcd.c ****     hprt0_dup |= USB_OTG_HPRT_PENCHNG;
 1084              		.loc 1 1586 5 is_stmt 1 view .LVU303
 1085              		.loc 1 1586 15 is_stmt 0 view .LVU304
 1086 003c 009B     		ldr	r3, [sp]
 1087 003e 43F00803 		orr	r3, r3, #8
 1088 0042 0093     		str	r3, [sp]
1587:Drivers/STM32F1xx_HAL_Driver/Src/stm32f1xx_hal_hcd.c **** 
1588:Drivers/STM32F1xx_HAL_Driver/Src/stm32f1xx_hal_hcd.c ****     if ((hprt0 & USB_OTG_HPRT_PENA) == USB_OTG_HPRT_PENA)
 1089              		.loc 1 1588 5 is_stmt 1 view .LVU305
 1090              		.loc 1 1588 16 is_stmt 0 view .LVU306
 1091 0044 019B     		ldr	r3, [sp, #4]
 1092              		.loc 1 1588 8 view .LVU307
ARM GAS  /tmp/ccldPFyH.s 			page 52


 1093 0046 13F0040F 		tst	r3, #4
 1094 004a 2DD0     		beq	.L68
1589:Drivers/STM32F1xx_HAL_Driver/Src/stm32f1xx_hal_hcd.c ****     {
1590:Drivers/STM32F1xx_HAL_Driver/Src/stm32f1xx_hal_hcd.c ****       if (hhcd->Init.phy_itface  == USB_OTG_EMBEDDED_PHY)
 1095              		.loc 1 1590 7 is_stmt 1 view .LVU308
 1096              		.loc 1 1590 21 is_stmt 0 view .LVU309
 1097 004c A369     		ldr	r3, [r4, #24]
 1098              		.loc 1 1590 10 view .LVU310
 1099 004e 022B     		cmp	r3, #2
 1100 0050 15D0     		beq	.L75
1591:Drivers/STM32F1xx_HAL_Driver/Src/stm32f1xx_hal_hcd.c ****       {
1592:Drivers/STM32F1xx_HAL_Driver/Src/stm32f1xx_hal_hcd.c ****         if ((hprt0 & USB_OTG_HPRT_PSPD) == (HPRT0_PRTSPD_LOW_SPEED << 17))
1593:Drivers/STM32F1xx_HAL_Driver/Src/stm32f1xx_hal_hcd.c ****         {
1594:Drivers/STM32F1xx_HAL_Driver/Src/stm32f1xx_hal_hcd.c ****           (void)USB_InitFSLSPClkSel(hhcd->Instance, HCFG_6_MHZ);
1595:Drivers/STM32F1xx_HAL_Driver/Src/stm32f1xx_hal_hcd.c ****         }
1596:Drivers/STM32F1xx_HAL_Driver/Src/stm32f1xx_hal_hcd.c ****         else
1597:Drivers/STM32F1xx_HAL_Driver/Src/stm32f1xx_hal_hcd.c ****         {
1598:Drivers/STM32F1xx_HAL_Driver/Src/stm32f1xx_hal_hcd.c ****           (void)USB_InitFSLSPClkSel(hhcd->Instance, HCFG_48_MHZ);
1599:Drivers/STM32F1xx_HAL_Driver/Src/stm32f1xx_hal_hcd.c ****         }
1600:Drivers/STM32F1xx_HAL_Driver/Src/stm32f1xx_hal_hcd.c ****       }
1601:Drivers/STM32F1xx_HAL_Driver/Src/stm32f1xx_hal_hcd.c ****       else
1602:Drivers/STM32F1xx_HAL_Driver/Src/stm32f1xx_hal_hcd.c ****       {
1603:Drivers/STM32F1xx_HAL_Driver/Src/stm32f1xx_hal_hcd.c ****         if (hhcd->Init.speed == HCD_SPEED_FULL)
 1101              		.loc 1 1603 9 is_stmt 1 view .LVU311
 1102              		.loc 1 1603 23 is_stmt 0 view .LVU312
 1103 0052 E368     		ldr	r3, [r4, #12]
 1104              		.loc 1 1603 12 view .LVU313
 1105 0054 012B     		cmp	r3, #1
 1106 0056 22D0     		beq	.L76
 1107              	.L71:
1604:Drivers/STM32F1xx_HAL_Driver/Src/stm32f1xx_hal_hcd.c ****         {
1605:Drivers/STM32F1xx_HAL_Driver/Src/stm32f1xx_hal_hcd.c ****           USBx_HOST->HFIR = 60000U;
1606:Drivers/STM32F1xx_HAL_Driver/Src/stm32f1xx_hal_hcd.c ****         }
1607:Drivers/STM32F1xx_HAL_Driver/Src/stm32f1xx_hal_hcd.c ****       }
1608:Drivers/STM32F1xx_HAL_Driver/Src/stm32f1xx_hal_hcd.c **** #if (USE_HAL_HCD_REGISTER_CALLBACKS == 1U)
1609:Drivers/STM32F1xx_HAL_Driver/Src/stm32f1xx_hal_hcd.c ****       hhcd->PortEnabledCallback(hhcd);
1610:Drivers/STM32F1xx_HAL_Driver/Src/stm32f1xx_hal_hcd.c **** #else
1611:Drivers/STM32F1xx_HAL_Driver/Src/stm32f1xx_hal_hcd.c ****       HAL_HCD_PortEnabled_Callback(hhcd);
 1108              		.loc 1 1611 7 is_stmt 1 view .LVU314
 1109 0058 2046     		mov	r0, r4
 1110 005a FFF7FEFF 		bl	HAL_HCD_PortEnabled_Callback
 1111              	.LVL80:
 1112              	.L67:
1612:Drivers/STM32F1xx_HAL_Driver/Src/stm32f1xx_hal_hcd.c **** #endif /* USE_HAL_HCD_REGISTER_CALLBACKS */
1613:Drivers/STM32F1xx_HAL_Driver/Src/stm32f1xx_hal_hcd.c **** 
1614:Drivers/STM32F1xx_HAL_Driver/Src/stm32f1xx_hal_hcd.c ****     }
1615:Drivers/STM32F1xx_HAL_Driver/Src/stm32f1xx_hal_hcd.c ****     else
1616:Drivers/STM32F1xx_HAL_Driver/Src/stm32f1xx_hal_hcd.c ****     {
1617:Drivers/STM32F1xx_HAL_Driver/Src/stm32f1xx_hal_hcd.c **** #if (USE_HAL_HCD_REGISTER_CALLBACKS == 1U)
1618:Drivers/STM32F1xx_HAL_Driver/Src/stm32f1xx_hal_hcd.c ****       hhcd->PortDisabledCallback(hhcd);
1619:Drivers/STM32F1xx_HAL_Driver/Src/stm32f1xx_hal_hcd.c **** #else
1620:Drivers/STM32F1xx_HAL_Driver/Src/stm32f1xx_hal_hcd.c ****       HAL_HCD_PortDisabled_Callback(hhcd);
1621:Drivers/STM32F1xx_HAL_Driver/Src/stm32f1xx_hal_hcd.c **** #endif /* USE_HAL_HCD_REGISTER_CALLBACKS */
1622:Drivers/STM32F1xx_HAL_Driver/Src/stm32f1xx_hal_hcd.c ****     }
1623:Drivers/STM32F1xx_HAL_Driver/Src/stm32f1xx_hal_hcd.c ****   }
1624:Drivers/STM32F1xx_HAL_Driver/Src/stm32f1xx_hal_hcd.c **** 
1625:Drivers/STM32F1xx_HAL_Driver/Src/stm32f1xx_hal_hcd.c ****   /* Check for an overcurrent */
ARM GAS  /tmp/ccldPFyH.s 			page 53


1626:Drivers/STM32F1xx_HAL_Driver/Src/stm32f1xx_hal_hcd.c ****   if ((hprt0 & USB_OTG_HPRT_POCCHNG) == USB_OTG_HPRT_POCCHNG)
 1113              		.loc 1 1626 3 view .LVU315
 1114              		.loc 1 1626 14 is_stmt 0 view .LVU316
 1115 005e 019B     		ldr	r3, [sp, #4]
 1116              		.loc 1 1626 6 view .LVU317
 1117 0060 13F0200F 		tst	r3, #32
 1118 0064 03D0     		beq	.L72
1627:Drivers/STM32F1xx_HAL_Driver/Src/stm32f1xx_hal_hcd.c ****   {
1628:Drivers/STM32F1xx_HAL_Driver/Src/stm32f1xx_hal_hcd.c ****     hprt0_dup |= USB_OTG_HPRT_POCCHNG;
 1119              		.loc 1 1628 5 is_stmt 1 view .LVU318
 1120              		.loc 1 1628 15 is_stmt 0 view .LVU319
 1121 0066 009B     		ldr	r3, [sp]
 1122 0068 43F02003 		orr	r3, r3, #32
 1123 006c 0093     		str	r3, [sp]
 1124              	.L72:
1629:Drivers/STM32F1xx_HAL_Driver/Src/stm32f1xx_hal_hcd.c ****   }
1630:Drivers/STM32F1xx_HAL_Driver/Src/stm32f1xx_hal_hcd.c **** 
1631:Drivers/STM32F1xx_HAL_Driver/Src/stm32f1xx_hal_hcd.c ****   /* Clear Port Interrupts */
1632:Drivers/STM32F1xx_HAL_Driver/Src/stm32f1xx_hal_hcd.c ****   USBx_HPRT0 = hprt0_dup;
 1125              		.loc 1 1632 3 is_stmt 1 view .LVU320
 1126              		.loc 1 1632 14 is_stmt 0 view .LVU321
 1127 006e 009B     		ldr	r3, [sp]
 1128 0070 C5F84034 		str	r3, [r5, #1088]
1633:Drivers/STM32F1xx_HAL_Driver/Src/stm32f1xx_hal_hcd.c **** }
 1129              		.loc 1 1633 1 view .LVU322
 1130 0074 03B0     		add	sp, sp, #12
 1131              	.LCFI17:
 1132              		.cfi_remember_state
 1133              		.cfi_def_cfa_offset 12
 1134              		@ sp needed
 1135 0076 30BD     		pop	{r4, r5, pc}
 1136              	.LVL81:
 1137              	.L74:
 1138              	.LCFI18:
 1139              		.cfi_restore_state
1577:Drivers/STM32F1xx_HAL_Driver/Src/stm32f1xx_hal_hcd.c **** #endif /* USE_HAL_HCD_REGISTER_CALLBACKS */
 1140              		.loc 1 1577 7 is_stmt 1 view .LVU323
 1141 0078 FFF7FEFF 		bl	HAL_HCD_Connect_Callback
 1142              	.LVL82:
1577:Drivers/STM32F1xx_HAL_Driver/Src/stm32f1xx_hal_hcd.c **** #endif /* USE_HAL_HCD_REGISTER_CALLBACKS */
 1143              		.loc 1 1577 7 is_stmt 0 view .LVU324
 1144 007c D6E7     		b	.L66
 1145              	.L75:
1592:Drivers/STM32F1xx_HAL_Driver/Src/stm32f1xx_hal_hcd.c ****         {
 1146              		.loc 1 1592 9 is_stmt 1 view .LVU325
1592:Drivers/STM32F1xx_HAL_Driver/Src/stm32f1xx_hal_hcd.c ****         {
 1147              		.loc 1 1592 20 is_stmt 0 view .LVU326
 1148 007e 019B     		ldr	r3, [sp, #4]
 1149 0080 03F4C023 		and	r3, r3, #393216
1592:Drivers/STM32F1xx_HAL_Driver/Src/stm32f1xx_hal_hcd.c ****         {
 1150              		.loc 1 1592 12 view .LVU327
 1151 0084 B3F5802F 		cmp	r3, #262144
 1152 0088 04D0     		beq	.L77
1598:Drivers/STM32F1xx_HAL_Driver/Src/stm32f1xx_hal_hcd.c ****         }
 1153              		.loc 1 1598 11 is_stmt 1 view .LVU328
1598:Drivers/STM32F1xx_HAL_Driver/Src/stm32f1xx_hal_hcd.c ****         }
 1154              		.loc 1 1598 17 is_stmt 0 view .LVU329
ARM GAS  /tmp/ccldPFyH.s 			page 54


 1155 008a 0121     		movs	r1, #1
 1156 008c 2068     		ldr	r0, [r4]
 1157 008e FFF7FEFF 		bl	USB_InitFSLSPClkSel
 1158              	.LVL83:
 1159 0092 E1E7     		b	.L71
 1160              	.L77:
1594:Drivers/STM32F1xx_HAL_Driver/Src/stm32f1xx_hal_hcd.c ****         }
 1161              		.loc 1 1594 11 is_stmt 1 view .LVU330
1594:Drivers/STM32F1xx_HAL_Driver/Src/stm32f1xx_hal_hcd.c ****         }
 1162              		.loc 1 1594 17 is_stmt 0 view .LVU331
 1163 0094 0221     		movs	r1, #2
 1164 0096 2068     		ldr	r0, [r4]
 1165 0098 FFF7FEFF 		bl	USB_InitFSLSPClkSel
 1166              	.LVL84:
 1167 009c DCE7     		b	.L71
 1168              	.L76:
1605:Drivers/STM32F1xx_HAL_Driver/Src/stm32f1xx_hal_hcd.c ****         }
 1169              		.loc 1 1605 11 is_stmt 1 view .LVU332
1605:Drivers/STM32F1xx_HAL_Driver/Src/stm32f1xx_hal_hcd.c ****         }
 1170              		.loc 1 1605 27 is_stmt 0 view .LVU333
 1171 009e 4EF66022 		movw	r2, #60000
 1172 00a2 C5F80424 		str	r2, [r5, #1028]
 1173 00a6 D7E7     		b	.L71
 1174              	.L68:
1620:Drivers/STM32F1xx_HAL_Driver/Src/stm32f1xx_hal_hcd.c **** #endif /* USE_HAL_HCD_REGISTER_CALLBACKS */
 1175              		.loc 1 1620 7 is_stmt 1 view .LVU334
 1176 00a8 2046     		mov	r0, r4
 1177 00aa FFF7FEFF 		bl	HAL_HCD_PortDisabled_Callback
 1178              	.LVL85:
 1179 00ae D6E7     		b	.L67
 1180              		.cfi_endproc
 1181              	.LFE92:
 1183              		.section	.text.HAL_HCD_HC_NotifyURBChange_Callback,"ax",%progbits
 1184              		.align	1
 1185              		.weak	HAL_HCD_HC_NotifyURBChange_Callback
 1186              		.syntax unified
 1187              		.thumb
 1188              		.thumb_func
 1189              		.fpu softvfp
 1191              	HAL_HCD_HC_NotifyURBChange_Callback:
 1192              	.LVL86:
 1193              	.LFB79:
 701:Drivers/STM32F1xx_HAL_Driver/Src/stm32f1xx_hal_hcd.c ****   /* Prevent unused argument(s) compilation warning */
 1194              		.loc 1 701 1 view -0
 1195              		.cfi_startproc
 1196              		@ args = 0, pretend = 0, frame = 0
 1197              		@ frame_needed = 0, uses_anonymous_args = 0
 1198              		@ link register save eliminated.
 703:Drivers/STM32F1xx_HAL_Driver/Src/stm32f1xx_hal_hcd.c ****   UNUSED(chnum);
 1199              		.loc 1 703 3 view .LVU336
 704:Drivers/STM32F1xx_HAL_Driver/Src/stm32f1xx_hal_hcd.c ****   UNUSED(urb_state);
 1200              		.loc 1 704 3 view .LVU337
 705:Drivers/STM32F1xx_HAL_Driver/Src/stm32f1xx_hal_hcd.c **** 
 1201              		.loc 1 705 3 view .LVU338
 710:Drivers/STM32F1xx_HAL_Driver/Src/stm32f1xx_hal_hcd.c **** 
 1202              		.loc 1 710 1 is_stmt 0 view .LVU339
 1203 0000 7047     		bx	lr
ARM GAS  /tmp/ccldPFyH.s 			page 55


 1204              		.cfi_endproc
 1205              	.LFE79:
 1207              		.section	.text.HCD_HC_IN_IRQHandler,"ax",%progbits
 1208              		.align	1
 1209              		.syntax unified
 1210              		.thumb
 1211              		.thumb_func
 1212              		.fpu softvfp
 1214              	HCD_HC_IN_IRQHandler:
 1215              	.LVL87:
 1216              	.LFB89:
1172:Drivers/STM32F1xx_HAL_Driver/Src/stm32f1xx_hal_hcd.c ****   USB_OTG_GlobalTypeDef *USBx = hhcd->Instance;
 1217              		.loc 1 1172 1 is_stmt 1 view -0
 1218              		.cfi_startproc
 1219              		@ args = 0, pretend = 0, frame = 0
 1220              		@ frame_needed = 0, uses_anonymous_args = 0
1172:Drivers/STM32F1xx_HAL_Driver/Src/stm32f1xx_hal_hcd.c ****   USB_OTG_GlobalTypeDef *USBx = hhcd->Instance;
 1221              		.loc 1 1172 1 is_stmt 0 view .LVU341
 1222 0000 F8B5     		push	{r3, r4, r5, r6, r7, lr}
 1223              	.LCFI19:
 1224              		.cfi_def_cfa_offset 24
 1225              		.cfi_offset 3, -24
 1226              		.cfi_offset 4, -20
 1227              		.cfi_offset 5, -16
 1228              		.cfi_offset 6, -12
 1229              		.cfi_offset 7, -8
 1230              		.cfi_offset 14, -4
 1231 0002 0646     		mov	r6, r0
 1232 0004 0D46     		mov	r5, r1
1173:Drivers/STM32F1xx_HAL_Driver/Src/stm32f1xx_hal_hcd.c ****   uint32_t USBx_BASE = (uint32_t)USBx;
 1233              		.loc 1 1173 3 is_stmt 1 view .LVU342
1173:Drivers/STM32F1xx_HAL_Driver/Src/stm32f1xx_hal_hcd.c ****   uint32_t USBx_BASE = (uint32_t)USBx;
 1234              		.loc 1 1173 26 is_stmt 0 view .LVU343
 1235 0006 0768     		ldr	r7, [r0]
 1236              	.LVL88:
1174:Drivers/STM32F1xx_HAL_Driver/Src/stm32f1xx_hal_hcd.c ****   uint32_t ch_num = (uint32_t)chnum;
 1237              		.loc 1 1174 3 is_stmt 1 view .LVU344
1175:Drivers/STM32F1xx_HAL_Driver/Src/stm32f1xx_hal_hcd.c **** 
 1238              		.loc 1 1175 3 view .LVU345
1177:Drivers/STM32F1xx_HAL_Driver/Src/stm32f1xx_hal_hcd.c **** 
 1239              		.loc 1 1177 3 view .LVU346
1179:Drivers/STM32F1xx_HAL_Driver/Src/stm32f1xx_hal_hcd.c ****   {
 1240              		.loc 1 1179 3 view .LVU347
1179:Drivers/STM32F1xx_HAL_Driver/Src/stm32f1xx_hal_hcd.c ****   {
 1241              		.loc 1 1179 8 is_stmt 0 view .LVU348
 1242 0008 07EB4117 		add	r7, r7, r1, lsl #5
 1243              	.LVL89:
1179:Drivers/STM32F1xx_HAL_Driver/Src/stm32f1xx_hal_hcd.c ****   {
 1244              		.loc 1 1179 8 view .LVU349
 1245 000c 07F5A064 		add	r4, r7, #1280
1179:Drivers/STM32F1xx_HAL_Driver/Src/stm32f1xx_hal_hcd.c ****   {
 1246              		.loc 1 1179 23 view .LVU350
 1247 0010 A368     		ldr	r3, [r4, #8]
1179:Drivers/STM32F1xx_HAL_Driver/Src/stm32f1xx_hal_hcd.c ****   {
 1248              		.loc 1 1179 6 view .LVU351
 1249 0012 13F0040F 		tst	r3, #4
 1250 0016 33D0     		beq	.L80
ARM GAS  /tmp/ccldPFyH.s 			page 56


1181:Drivers/STM32F1xx_HAL_Driver/Src/stm32f1xx_hal_hcd.c ****     __HAL_HCD_UNMASK_HALT_HC_INT(ch_num);
 1251              		.loc 1 1181 5 is_stmt 1 view .LVU352
 1252 0018 0423     		movs	r3, #4
 1253 001a A360     		str	r3, [r4, #8]
 1254              	.LVL90:
1182:Drivers/STM32F1xx_HAL_Driver/Src/stm32f1xx_hal_hcd.c ****   }
 1255              		.loc 1 1182 5 view .LVU353
 1256 001c E368     		ldr	r3, [r4, #12]
 1257 001e 43F00203 		orr	r3, r3, #2
 1258 0022 E360     		str	r3, [r4, #12]
 1259              	.LVL91:
 1260              	.L81:
1214:Drivers/STM32F1xx_HAL_Driver/Src/stm32f1xx_hal_hcd.c **** 
 1261              		.loc 1 1214 3 view .LVU354
1216:Drivers/STM32F1xx_HAL_Driver/Src/stm32f1xx_hal_hcd.c ****   {
 1262              		.loc 1 1216 3 view .LVU355
1216:Drivers/STM32F1xx_HAL_Driver/Src/stm32f1xx_hal_hcd.c ****   {
 1263              		.loc 1 1216 23 is_stmt 0 view .LVU356
 1264 0024 A368     		ldr	r3, [r4, #8]
1216:Drivers/STM32F1xx_HAL_Driver/Src/stm32f1xx_hal_hcd.c ****   {
 1265              		.loc 1 1216 6 view .LVU357
 1266 0026 13F4007F 		tst	r3, #512
 1267 002a 75D1     		bne	.L106
1222:Drivers/STM32F1xx_HAL_Driver/Src/stm32f1xx_hal_hcd.c ****   {
 1268              		.loc 1 1222 8 is_stmt 1 view .LVU358
1222:Drivers/STM32F1xx_HAL_Driver/Src/stm32f1xx_hal_hcd.c ****   {
 1269              		.loc 1 1222 28 is_stmt 0 view .LVU359
 1270 002c A368     		ldr	r3, [r4, #8]
1222:Drivers/STM32F1xx_HAL_Driver/Src/stm32f1xx_hal_hcd.c ****   {
 1271              		.loc 1 1222 11 view .LVU360
 1272 002e 13F0010F 		tst	r3, #1
 1273 0032 00F0A480 		beq	.L87
1224:Drivers/STM32F1xx_HAL_Driver/Src/stm32f1xx_hal_hcd.c ****     hhcd->hc[ch_num].ErrCnt = 0U;
 1274              		.loc 1 1224 5 is_stmt 1 view .LVU361
1224:Drivers/STM32F1xx_HAL_Driver/Src/stm32f1xx_hal_hcd.c ****     hhcd->hc[ch_num].ErrCnt = 0U;
 1275              		.loc 1 1224 28 is_stmt 0 view .LVU362
 1276 0036 05EB8503 		add	r3, r5, r5, lsl #2
 1277 003a 06EBC303 		add	r3, r6, r3, lsl #3
 1278 003e 0122     		movs	r2, #1
 1279 0040 83F85D20 		strb	r2, [r3, #93]
1225:Drivers/STM32F1xx_HAL_Driver/Src/stm32f1xx_hal_hcd.c ****     __HAL_HCD_CLEAR_HC_INT(ch_num, USB_OTG_HCINT_XFRC);
 1280              		.loc 1 1225 5 is_stmt 1 view .LVU363
1225:Drivers/STM32F1xx_HAL_Driver/Src/stm32f1xx_hal_hcd.c ****     __HAL_HCD_CLEAR_HC_INT(ch_num, USB_OTG_HCINT_XFRC);
 1281              		.loc 1 1225 29 is_stmt 0 view .LVU364
 1282 0044 0021     		movs	r1, #0
 1283 0046 9965     		str	r1, [r3, #88]
1226:Drivers/STM32F1xx_HAL_Driver/Src/stm32f1xx_hal_hcd.c **** 
 1284              		.loc 1 1226 5 is_stmt 1 view .LVU365
 1285 0048 A260     		str	r2, [r4, #8]
1228:Drivers/STM32F1xx_HAL_Driver/Src/stm32f1xx_hal_hcd.c ****         (hhcd->hc[ch_num].ep_type == EP_TYPE_BULK))
 1286              		.loc 1 1228 5 view .LVU366
1228:Drivers/STM32F1xx_HAL_Driver/Src/stm32f1xx_hal_hcd.c ****         (hhcd->hc[ch_num].ep_type == EP_TYPE_BULK))
 1287              		.loc 1 1228 26 is_stmt 0 view .LVU367
 1288 004a 93F83F30 		ldrb	r3, [r3, #63]	@ zero_extendqisi2
1228:Drivers/STM32F1xx_HAL_Driver/Src/stm32f1xx_hal_hcd.c ****         (hhcd->hc[ch_num].ep_type == EP_TYPE_BULK))
 1289              		.loc 1 1228 8 view .LVU368
 1290 004e 002B     		cmp	r3, #0
ARM GAS  /tmp/ccldPFyH.s 			page 57


 1291 0050 6ED0     		beq	.L88
1228:Drivers/STM32F1xx_HAL_Driver/Src/stm32f1xx_hal_hcd.c ****         (hhcd->hc[ch_num].ep_type == EP_TYPE_BULK))
 1292              		.loc 1 1228 52 discriminator 1 view .LVU369
 1293 0052 022B     		cmp	r3, #2
 1294 0054 6CD0     		beq	.L88
1235:Drivers/STM32F1xx_HAL_Driver/Src/stm32f1xx_hal_hcd.c ****     {
 1295              		.loc 1 1235 10 is_stmt 1 view .LVU370
1235:Drivers/STM32F1xx_HAL_Driver/Src/stm32f1xx_hal_hcd.c ****     {
 1296              		.loc 1 1235 13 is_stmt 0 view .LVU371
 1297 0056 032B     		cmp	r3, #3
 1298 0058 7FD0     		beq	.L107
1246:Drivers/STM32F1xx_HAL_Driver/Src/stm32f1xx_hal_hcd.c ****     {
 1299              		.loc 1 1246 10 is_stmt 1 view .LVU372
1246:Drivers/STM32F1xx_HAL_Driver/Src/stm32f1xx_hal_hcd.c ****     {
 1300              		.loc 1 1246 13 is_stmt 0 view .LVU373
 1301 005a 012B     		cmp	r3, #1
 1302 005c 72D1     		bne	.L90
1248:Drivers/STM32F1xx_HAL_Driver/Src/stm32f1xx_hal_hcd.c ****       hhcd->hc[ch_num].toggle_in ^= 1U;
 1303              		.loc 1 1248 7 is_stmt 1 view .LVU374
1248:Drivers/STM32F1xx_HAL_Driver/Src/stm32f1xx_hal_hcd.c ****       hhcd->hc[ch_num].toggle_in ^= 1U;
 1304              		.loc 1 1248 34 is_stmt 0 view .LVU375
 1305 005e 05EB8503 		add	r3, r5, r5, lsl #2
 1306 0062 06EBC303 		add	r3, r6, r3, lsl #3
 1307 0066 0122     		movs	r2, #1
 1308 0068 83F85C20 		strb	r2, [r3, #92]
1249:Drivers/STM32F1xx_HAL_Driver/Src/stm32f1xx_hal_hcd.c **** 
 1309              		.loc 1 1249 7 is_stmt 1 view .LVU376
1249:Drivers/STM32F1xx_HAL_Driver/Src/stm32f1xx_hal_hcd.c **** 
 1310              		.loc 1 1249 34 is_stmt 0 view .LVU377
 1311 006c 93F85010 		ldrb	r1, [r3, #80]	@ zero_extendqisi2
 1312 0070 5140     		eors	r1, r1, r2
 1313 0072 83F85010 		strb	r1, [r3, #80]
1254:Drivers/STM32F1xx_HAL_Driver/Src/stm32f1xx_hal_hcd.c **** #endif /* USE_HAL_HCD_REGISTER_CALLBACKS */
 1314              		.loc 1 1254 7 is_stmt 1 view .LVU378
 1315 0076 2946     		mov	r1, r5
 1316 0078 3046     		mov	r0, r6
 1317 007a FFF7FEFF 		bl	HAL_HCD_HC_NotifyURBChange_Callback
 1318              	.LVL92:
 1319 007e 61E0     		b	.L90
 1320              	.LVL93:
 1321              	.L80:
1184:Drivers/STM32F1xx_HAL_Driver/Src/stm32f1xx_hal_hcd.c ****   {
 1322              		.loc 1 1184 8 view .LVU379
1184:Drivers/STM32F1xx_HAL_Driver/Src/stm32f1xx_hal_hcd.c ****   {
 1323              		.loc 1 1184 28 is_stmt 0 view .LVU380
 1324 0080 A368     		ldr	r3, [r4, #8]
1184:Drivers/STM32F1xx_HAL_Driver/Src/stm32f1xx_hal_hcd.c ****   {
 1325              		.loc 1 1184 11 view .LVU381
 1326 0082 13F4807F 		tst	r3, #256
 1327 0086 06D1     		bne	.L108
1191:Drivers/STM32F1xx_HAL_Driver/Src/stm32f1xx_hal_hcd.c ****   {
 1328              		.loc 1 1191 8 is_stmt 1 view .LVU382
1191:Drivers/STM32F1xx_HAL_Driver/Src/stm32f1xx_hal_hcd.c ****   {
 1329              		.loc 1 1191 28 is_stmt 0 view .LVU383
 1330 0088 A368     		ldr	r3, [r4, #8]
1191:Drivers/STM32F1xx_HAL_Driver/Src/stm32f1xx_hal_hcd.c ****   {
 1331              		.loc 1 1191 11 view .LVU384
ARM GAS  /tmp/ccldPFyH.s 			page 58


 1332 008a 13F0200F 		tst	r3, #32
 1333 008e 14D0     		beq	.L83
1193:Drivers/STM32F1xx_HAL_Driver/Src/stm32f1xx_hal_hcd.c ****   }
 1334              		.loc 1 1193 5 is_stmt 1 view .LVU385
 1335 0090 2023     		movs	r3, #32
 1336 0092 A360     		str	r3, [r4, #8]
 1337              	.LVL94:
1193:Drivers/STM32F1xx_HAL_Driver/Src/stm32f1xx_hal_hcd.c ****   }
 1338              		.loc 1 1193 5 is_stmt 0 view .LVU386
 1339 0094 C6E7     		b	.L81
 1340              	.LVL95:
 1341              	.L108:
1186:Drivers/STM32F1xx_HAL_Driver/Src/stm32f1xx_hal_hcd.c ****     hhcd->hc[ch_num].state = HC_BBLERR;
 1342              		.loc 1 1186 5 is_stmt 1 view .LVU387
 1343 0096 4FF48073 		mov	r3, #256
 1344 009a A360     		str	r3, [r4, #8]
 1345              	.LVL96:
1187:Drivers/STM32F1xx_HAL_Driver/Src/stm32f1xx_hal_hcd.c ****     __HAL_HCD_UNMASK_HALT_HC_INT(ch_num);
 1346              		.loc 1 1187 5 view .LVU388
1187:Drivers/STM32F1xx_HAL_Driver/Src/stm32f1xx_hal_hcd.c ****     __HAL_HCD_UNMASK_HALT_HC_INT(ch_num);
 1347              		.loc 1 1187 28 is_stmt 0 view .LVU389
 1348 009c 01EB8103 		add	r3, r1, r1, lsl #2
 1349 00a0 00EBC303 		add	r3, r0, r3, lsl #3
 1350 00a4 0722     		movs	r2, #7
 1351 00a6 83F85D20 		strb	r2, [r3, #93]
1188:Drivers/STM32F1xx_HAL_Driver/Src/stm32f1xx_hal_hcd.c ****     (void)USB_HC_Halt(hhcd->Instance, (uint8_t)ch_num);
 1352              		.loc 1 1188 5 is_stmt 1 view .LVU390
 1353 00aa E368     		ldr	r3, [r4, #12]
 1354 00ac 43F00203 		orr	r3, r3, #2
 1355 00b0 E360     		str	r3, [r4, #12]
1189:Drivers/STM32F1xx_HAL_Driver/Src/stm32f1xx_hal_hcd.c ****   }
 1356              		.loc 1 1189 5 view .LVU391
1189:Drivers/STM32F1xx_HAL_Driver/Src/stm32f1xx_hal_hcd.c ****   }
 1357              		.loc 1 1189 11 is_stmt 0 view .LVU392
 1358 00b2 0068     		ldr	r0, [r0]
 1359              	.LVL97:
1189:Drivers/STM32F1xx_HAL_Driver/Src/stm32f1xx_hal_hcd.c ****   }
 1360              		.loc 1 1189 11 view .LVU393
 1361 00b4 FFF7FEFF 		bl	USB_HC_Halt
 1362              	.LVL98:
1189:Drivers/STM32F1xx_HAL_Driver/Src/stm32f1xx_hal_hcd.c ****   }
 1363              		.loc 1 1189 11 view .LVU394
 1364 00b8 B4E7     		b	.L81
 1365              	.LVL99:
 1366              	.L83:
1195:Drivers/STM32F1xx_HAL_Driver/Src/stm32f1xx_hal_hcd.c ****   {
 1367              		.loc 1 1195 8 is_stmt 1 view .LVU395
1195:Drivers/STM32F1xx_HAL_Driver/Src/stm32f1xx_hal_hcd.c ****   {
 1368              		.loc 1 1195 28 is_stmt 0 view .LVU396
 1369 00ba A368     		ldr	r3, [r4, #8]
1195:Drivers/STM32F1xx_HAL_Driver/Src/stm32f1xx_hal_hcd.c ****   {
 1370              		.loc 1 1195 11 view .LVU397
 1371 00bc 13F0080F 		tst	r3, #8
 1372 00c0 17D1     		bne	.L109
1203:Drivers/STM32F1xx_HAL_Driver/Src/stm32f1xx_hal_hcd.c ****   {
 1373              		.loc 1 1203 8 is_stmt 1 view .LVU398
1203:Drivers/STM32F1xx_HAL_Driver/Src/stm32f1xx_hal_hcd.c ****   {
ARM GAS  /tmp/ccldPFyH.s 			page 59


 1374              		.loc 1 1203 28 is_stmt 0 view .LVU399
 1375 00c2 A368     		ldr	r3, [r4, #8]
1203:Drivers/STM32F1xx_HAL_Driver/Src/stm32f1xx_hal_hcd.c ****   {
 1376              		.loc 1 1203 11 view .LVU400
 1377 00c4 13F4806F 		tst	r3, #1024
 1378 00c8 ACD0     		beq	.L81
1205:Drivers/STM32F1xx_HAL_Driver/Src/stm32f1xx_hal_hcd.c ****     (void)USB_HC_Halt(hhcd->Instance, (uint8_t)ch_num);
 1379              		.loc 1 1205 5 is_stmt 1 view .LVU401
 1380 00ca E368     		ldr	r3, [r4, #12]
 1381 00cc 43F00203 		orr	r3, r3, #2
 1382 00d0 E360     		str	r3, [r4, #12]
 1383              	.LVL100:
1206:Drivers/STM32F1xx_HAL_Driver/Src/stm32f1xx_hal_hcd.c ****     __HAL_HCD_CLEAR_HC_INT(ch_num, USB_OTG_HCINT_NAK);
 1384              		.loc 1 1206 5 view .LVU402
1206:Drivers/STM32F1xx_HAL_Driver/Src/stm32f1xx_hal_hcd.c ****     __HAL_HCD_CLEAR_HC_INT(ch_num, USB_OTG_HCINT_NAK);
 1385              		.loc 1 1206 11 is_stmt 0 view .LVU403
 1386 00d2 0068     		ldr	r0, [r0]
 1387              	.LVL101:
1206:Drivers/STM32F1xx_HAL_Driver/Src/stm32f1xx_hal_hcd.c ****     __HAL_HCD_CLEAR_HC_INT(ch_num, USB_OTG_HCINT_NAK);
 1388              		.loc 1 1206 11 view .LVU404
 1389 00d4 FFF7FEFF 		bl	USB_HC_Halt
 1390              	.LVL102:
1207:Drivers/STM32F1xx_HAL_Driver/Src/stm32f1xx_hal_hcd.c ****     hhcd->hc[ch_num].state = HC_DATATGLERR;
 1391              		.loc 1 1207 5 is_stmt 1 view .LVU405
 1392 00d8 1023     		movs	r3, #16
 1393 00da A360     		str	r3, [r4, #8]
1208:Drivers/STM32F1xx_HAL_Driver/Src/stm32f1xx_hal_hcd.c ****     __HAL_HCD_CLEAR_HC_INT(ch_num, USB_OTG_HCINT_DTERR);
 1394              		.loc 1 1208 5 view .LVU406
1208:Drivers/STM32F1xx_HAL_Driver/Src/stm32f1xx_hal_hcd.c ****     __HAL_HCD_CLEAR_HC_INT(ch_num, USB_OTG_HCINT_DTERR);
 1395              		.loc 1 1208 28 is_stmt 0 view .LVU407
 1396 00dc 05EB8503 		add	r3, r5, r5, lsl #2
 1397 00e0 06EBC303 		add	r3, r6, r3, lsl #3
 1398 00e4 0822     		movs	r2, #8
 1399 00e6 83F85D20 		strb	r2, [r3, #93]
1209:Drivers/STM32F1xx_HAL_Driver/Src/stm32f1xx_hal_hcd.c ****   }
 1400              		.loc 1 1209 5 is_stmt 1 view .LVU408
 1401 00ea 4FF48063 		mov	r3, #1024
 1402 00ee A360     		str	r3, [r4, #8]
 1403 00f0 98E7     		b	.L81
 1404              	.LVL103:
 1405              	.L109:
1197:Drivers/STM32F1xx_HAL_Driver/Src/stm32f1xx_hal_hcd.c ****     hhcd->hc[ch_num].state = HC_STALL;
 1406              		.loc 1 1197 5 view .LVU409
 1407 00f2 E368     		ldr	r3, [r4, #12]
 1408 00f4 43F00203 		orr	r3, r3, #2
 1409 00f8 E360     		str	r3, [r4, #12]
 1410              	.LVL104:
1198:Drivers/STM32F1xx_HAL_Driver/Src/stm32f1xx_hal_hcd.c ****     __HAL_HCD_CLEAR_HC_INT(ch_num, USB_OTG_HCINT_NAK);
 1411              		.loc 1 1198 5 view .LVU410
1198:Drivers/STM32F1xx_HAL_Driver/Src/stm32f1xx_hal_hcd.c ****     __HAL_HCD_CLEAR_HC_INT(ch_num, USB_OTG_HCINT_NAK);
 1412              		.loc 1 1198 28 is_stmt 0 view .LVU411
 1413 00fa 01EB8103 		add	r3, r1, r1, lsl #2
 1414 00fe 00EBC303 		add	r3, r0, r3, lsl #3
 1415 0102 0522     		movs	r2, #5
 1416 0104 83F85D20 		strb	r2, [r3, #93]
1199:Drivers/STM32F1xx_HAL_Driver/Src/stm32f1xx_hal_hcd.c ****     __HAL_HCD_CLEAR_HC_INT(ch_num, USB_OTG_HCINT_STALL);
 1417              		.loc 1 1199 5 is_stmt 1 view .LVU412
ARM GAS  /tmp/ccldPFyH.s 			page 60


 1418 0108 1023     		movs	r3, #16
 1419 010a A360     		str	r3, [r4, #8]
1200:Drivers/STM32F1xx_HAL_Driver/Src/stm32f1xx_hal_hcd.c ****     (void)USB_HC_Halt(hhcd->Instance, (uint8_t)ch_num);
 1420              		.loc 1 1200 5 view .LVU413
 1421 010c 0823     		movs	r3, #8
 1422 010e A360     		str	r3, [r4, #8]
1201:Drivers/STM32F1xx_HAL_Driver/Src/stm32f1xx_hal_hcd.c ****   }
 1423              		.loc 1 1201 5 view .LVU414
1201:Drivers/STM32F1xx_HAL_Driver/Src/stm32f1xx_hal_hcd.c ****   }
 1424              		.loc 1 1201 11 is_stmt 0 view .LVU415
 1425 0110 0068     		ldr	r0, [r0]
 1426              	.LVL105:
1201:Drivers/STM32F1xx_HAL_Driver/Src/stm32f1xx_hal_hcd.c ****   }
 1427              		.loc 1 1201 11 view .LVU416
 1428 0112 FFF7FEFF 		bl	USB_HC_Halt
 1429              	.LVL106:
1201:Drivers/STM32F1xx_HAL_Driver/Src/stm32f1xx_hal_hcd.c ****   }
 1430              		.loc 1 1201 11 view .LVU417
 1431 0116 85E7     		b	.L81
 1432              	.L106:
1218:Drivers/STM32F1xx_HAL_Driver/Src/stm32f1xx_hal_hcd.c ****     (void)USB_HC_Halt(hhcd->Instance, (uint8_t)ch_num);
 1433              		.loc 1 1218 5 is_stmt 1 view .LVU418
 1434 0118 E368     		ldr	r3, [r4, #12]
 1435 011a 43F00203 		orr	r3, r3, #2
 1436 011e E360     		str	r3, [r4, #12]
1219:Drivers/STM32F1xx_HAL_Driver/Src/stm32f1xx_hal_hcd.c ****     __HAL_HCD_CLEAR_HC_INT(ch_num, USB_OTG_HCINT_FRMOR);
 1437              		.loc 1 1219 5 view .LVU419
1219:Drivers/STM32F1xx_HAL_Driver/Src/stm32f1xx_hal_hcd.c ****     __HAL_HCD_CLEAR_HC_INT(ch_num, USB_OTG_HCINT_FRMOR);
 1438              		.loc 1 1219 11 is_stmt 0 view .LVU420
 1439 0120 2946     		mov	r1, r5
 1440 0122 3068     		ldr	r0, [r6]
 1441 0124 FFF7FEFF 		bl	USB_HC_Halt
 1442              	.LVL107:
1220:Drivers/STM32F1xx_HAL_Driver/Src/stm32f1xx_hal_hcd.c ****   }
 1443              		.loc 1 1220 5 is_stmt 1 view .LVU421
 1444 0128 4FF40073 		mov	r3, #512
 1445 012c A360     		str	r3, [r4, #8]
 1446 012e 13E0     		b	.L79
 1447              	.L88:
1231:Drivers/STM32F1xx_HAL_Driver/Src/stm32f1xx_hal_hcd.c ****       (void)USB_HC_Halt(hhcd->Instance, (uint8_t)ch_num);
 1448              		.loc 1 1231 7 view .LVU422
 1449 0130 E368     		ldr	r3, [r4, #12]
 1450 0132 43F00203 		orr	r3, r3, #2
 1451 0136 E360     		str	r3, [r4, #12]
1232:Drivers/STM32F1xx_HAL_Driver/Src/stm32f1xx_hal_hcd.c ****       __HAL_HCD_CLEAR_HC_INT(ch_num, USB_OTG_HCINT_NAK);
 1452              		.loc 1 1232 7 view .LVU423
1232:Drivers/STM32F1xx_HAL_Driver/Src/stm32f1xx_hal_hcd.c ****       __HAL_HCD_CLEAR_HC_INT(ch_num, USB_OTG_HCINT_NAK);
 1453              		.loc 1 1232 13 is_stmt 0 view .LVU424
 1454 0138 2946     		mov	r1, r5
 1455 013a 3068     		ldr	r0, [r6]
 1456 013c FFF7FEFF 		bl	USB_HC_Halt
 1457              	.LVL108:
1233:Drivers/STM32F1xx_HAL_Driver/Src/stm32f1xx_hal_hcd.c ****     }
 1458              		.loc 1 1233 7 is_stmt 1 view .LVU425
 1459 0140 1023     		movs	r3, #16
 1460 0142 A360     		str	r3, [r4, #8]
 1461              	.L90:
ARM GAS  /tmp/ccldPFyH.s 			page 61


1260:Drivers/STM32F1xx_HAL_Driver/Src/stm32f1xx_hal_hcd.c ****     hhcd->hc[ch_num].toggle_in ^= 1U;
 1462              		.loc 1 1260 5 view .LVU426
1261:Drivers/STM32F1xx_HAL_Driver/Src/stm32f1xx_hal_hcd.c **** 
 1463              		.loc 1 1261 5 view .LVU427
1261:Drivers/STM32F1xx_HAL_Driver/Src/stm32f1xx_hal_hcd.c **** 
 1464              		.loc 1 1261 32 is_stmt 0 view .LVU428
 1465 0144 05EB8503 		add	r3, r5, r5, lsl #2
 1466 0148 06EBC303 		add	r3, r6, r3, lsl #3
 1467 014c 93F85020 		ldrb	r2, [r3, #80]	@ zero_extendqisi2
 1468 0150 82F00102 		eor	r2, r2, #1
 1469 0154 83F85020 		strb	r2, [r3, #80]
 1470              	.L79:
1351:Drivers/STM32F1xx_HAL_Driver/Src/stm32f1xx_hal_hcd.c **** 
 1471              		.loc 1 1351 1 view .LVU429
 1472 0158 F8BD     		pop	{r3, r4, r5, r6, r7, pc}
 1473              	.LVL109:
 1474              	.L107:
1237:Drivers/STM32F1xx_HAL_Driver/Src/stm32f1xx_hal_hcd.c ****       hhcd->hc[ch_num].urb_state = URB_DONE;
 1475              		.loc 1 1237 7 is_stmt 1 view .LVU430
1237:Drivers/STM32F1xx_HAL_Driver/Src/stm32f1xx_hal_hcd.c ****       hhcd->hc[ch_num].urb_state = URB_DONE;
 1476              		.loc 1 1237 31 is_stmt 0 view .LVU431
 1477 015a D7F80035 		ldr	r3, [r7, #1280]
 1478 015e 43F00053 		orr	r3, r3, #536870912
 1479 0162 C7F80035 		str	r3, [r7, #1280]
1238:Drivers/STM32F1xx_HAL_Driver/Src/stm32f1xx_hal_hcd.c **** 
 1480              		.loc 1 1238 7 is_stmt 1 view .LVU432
1238:Drivers/STM32F1xx_HAL_Driver/Src/stm32f1xx_hal_hcd.c **** 
 1481              		.loc 1 1238 34 is_stmt 0 view .LVU433
 1482 0166 05EB8503 		add	r3, r5, r5, lsl #2
 1483 016a 06EBC303 		add	r3, r6, r3, lsl #3
 1484 016e 0122     		movs	r2, #1
 1485 0170 83F85C20 		strb	r2, [r3, #92]
1243:Drivers/STM32F1xx_HAL_Driver/Src/stm32f1xx_hal_hcd.c **** #endif /* USE_HAL_HCD_REGISTER_CALLBACKS */
 1486              		.loc 1 1243 7 is_stmt 1 view .LVU434
 1487 0174 2946     		mov	r1, r5
 1488 0176 3046     		mov	r0, r6
 1489 0178 FFF7FEFF 		bl	HAL_HCD_HC_NotifyURBChange_Callback
 1490              	.LVL110:
 1491 017c E2E7     		b	.L90
 1492              	.L87:
1264:Drivers/STM32F1xx_HAL_Driver/Src/stm32f1xx_hal_hcd.c ****   {
 1493              		.loc 1 1264 8 view .LVU435
1264:Drivers/STM32F1xx_HAL_Driver/Src/stm32f1xx_hal_hcd.c ****   {
 1494              		.loc 1 1264 28 is_stmt 0 view .LVU436
 1495 017e A368     		ldr	r3, [r4, #8]
1264:Drivers/STM32F1xx_HAL_Driver/Src/stm32f1xx_hal_hcd.c ****   {
 1496              		.loc 1 1264 11 view .LVU437
 1497 0180 13F0020F 		tst	r3, #2
 1498 0184 6CD0     		beq	.L92
1266:Drivers/STM32F1xx_HAL_Driver/Src/stm32f1xx_hal_hcd.c **** 
 1499              		.loc 1 1266 5 is_stmt 1 view .LVU438
 1500 0186 E368     		ldr	r3, [r4, #12]
 1501 0188 23F00203 		bic	r3, r3, #2
 1502 018c E360     		str	r3, [r4, #12]
1268:Drivers/STM32F1xx_HAL_Driver/Src/stm32f1xx_hal_hcd.c ****     {
 1503              		.loc 1 1268 5 view .LVU439
1268:Drivers/STM32F1xx_HAL_Driver/Src/stm32f1xx_hal_hcd.c ****     {
ARM GAS  /tmp/ccldPFyH.s 			page 62


 1504              		.loc 1 1268 25 is_stmt 0 view .LVU440
 1505 018e 05EB8503 		add	r3, r5, r5, lsl #2
 1506 0192 06EBC303 		add	r3, r6, r3, lsl #3
 1507 0196 93F85D30 		ldrb	r3, [r3, #93]	@ zero_extendqisi2
1268:Drivers/STM32F1xx_HAL_Driver/Src/stm32f1xx_hal_hcd.c ****     {
 1508              		.loc 1 1268 8 view .LVU441
 1509 019a 012B     		cmp	r3, #1
 1510 019c 14D0     		beq	.L110
1272:Drivers/STM32F1xx_HAL_Driver/Src/stm32f1xx_hal_hcd.c ****     {
 1511              		.loc 1 1272 10 is_stmt 1 view .LVU442
1272:Drivers/STM32F1xx_HAL_Driver/Src/stm32f1xx_hal_hcd.c ****     {
 1512              		.loc 1 1272 13 is_stmt 0 view .LVU443
 1513 019e 052B     		cmp	r3, #5
 1514 01a0 26D0     		beq	.L111
1276:Drivers/STM32F1xx_HAL_Driver/Src/stm32f1xx_hal_hcd.c ****              (hhcd->hc[ch_num].state == HC_DATATGLERR))
 1515              		.loc 1 1276 10 is_stmt 1 view .LVU444
1276:Drivers/STM32F1xx_HAL_Driver/Src/stm32f1xx_hal_hcd.c ****              (hhcd->hc[ch_num].state == HC_DATATGLERR))
 1516              		.loc 1 1276 13 is_stmt 0 view .LVU445
 1517 01a2 062B     		cmp	r3, #6
 1518 01a4 2CD0     		beq	.L96
1276:Drivers/STM32F1xx_HAL_Driver/Src/stm32f1xx_hal_hcd.c ****              (hhcd->hc[ch_num].state == HC_DATATGLERR))
 1519              		.loc 1 1276 53 discriminator 1 view .LVU446
 1520 01a6 082B     		cmp	r3, #8
 1521 01a8 2AD0     		beq	.L96
1296:Drivers/STM32F1xx_HAL_Driver/Src/stm32f1xx_hal_hcd.c ****     {
 1522              		.loc 1 1296 10 is_stmt 1 view .LVU447
1296:Drivers/STM32F1xx_HAL_Driver/Src/stm32f1xx_hal_hcd.c ****     {
 1523              		.loc 1 1296 13 is_stmt 0 view .LVU448
 1524 01aa 032B     		cmp	r3, #3
 1525 01ac 48D0     		beq	.L112
1305:Drivers/STM32F1xx_HAL_Driver/Src/stm32f1xx_hal_hcd.c ****     {
 1526              		.loc 1 1305 10 is_stmt 1 view .LVU449
1305:Drivers/STM32F1xx_HAL_Driver/Src/stm32f1xx_hal_hcd.c ****     {
 1527              		.loc 1 1305 13 is_stmt 0 view .LVU450
 1528 01ae 072B     		cmp	r3, #7
 1529 01b0 11D1     		bne	.L94
1307:Drivers/STM32F1xx_HAL_Driver/Src/stm32f1xx_hal_hcd.c ****       hhcd->hc[ch_num].urb_state = URB_ERROR;
 1530              		.loc 1 1307 7 is_stmt 1 view .LVU451
1307:Drivers/STM32F1xx_HAL_Driver/Src/stm32f1xx_hal_hcd.c ****       hhcd->hc[ch_num].urb_state = URB_ERROR;
 1531              		.loc 1 1307 23 is_stmt 0 view .LVU452
 1532 01b2 05EB8503 		add	r3, r5, r5, lsl #2
 1533 01b6 06EBC303 		add	r3, r6, r3, lsl #3
 1534 01ba 9A6D     		ldr	r2, [r3, #88]
1307:Drivers/STM32F1xx_HAL_Driver/Src/stm32f1xx_hal_hcd.c ****       hhcd->hc[ch_num].urb_state = URB_ERROR;
 1535              		.loc 1 1307 30 view .LVU453
 1536 01bc 0132     		adds	r2, r2, #1
 1537 01be 9A65     		str	r2, [r3, #88]
1308:Drivers/STM32F1xx_HAL_Driver/Src/stm32f1xx_hal_hcd.c ****     }
 1538              		.loc 1 1308 7 is_stmt 1 view .LVU454
1308:Drivers/STM32F1xx_HAL_Driver/Src/stm32f1xx_hal_hcd.c ****     }
 1539              		.loc 1 1308 34 is_stmt 0 view .LVU455
 1540 01c0 0422     		movs	r2, #4
 1541 01c2 83F85C20 		strb	r2, [r3, #92]
 1542 01c6 06E0     		b	.L94
 1543              	.L110:
1270:Drivers/STM32F1xx_HAL_Driver/Src/stm32f1xx_hal_hcd.c ****     }
 1544              		.loc 1 1270 7 is_stmt 1 view .LVU456
ARM GAS  /tmp/ccldPFyH.s 			page 63


1270:Drivers/STM32F1xx_HAL_Driver/Src/stm32f1xx_hal_hcd.c ****     }
 1545              		.loc 1 1270 35 is_stmt 0 view .LVU457
 1546 01c8 05EB8503 		add	r3, r5, r5, lsl #2
 1547 01cc 06EBC303 		add	r3, r6, r3, lsl #3
 1548 01d0 0122     		movs	r2, #1
 1549 01d2 83F85C20 		strb	r2, [r3, #92]
 1550              	.L94:
1313:Drivers/STM32F1xx_HAL_Driver/Src/stm32f1xx_hal_hcd.c ****     __HAL_HCD_CLEAR_HC_INT(ch_num, USB_OTG_HCINT_CHH);
 1551              		.loc 1 1313 5 is_stmt 1 view .LVU458
1314:Drivers/STM32F1xx_HAL_Driver/Src/stm32f1xx_hal_hcd.c ****     HAL_HCD_HC_NotifyURBChange_Callback(hhcd, (uint8_t)ch_num, hhcd->hc[ch_num].urb_state);
 1552              		.loc 1 1314 5 view .LVU459
 1553 01d6 0223     		movs	r3, #2
 1554 01d8 A360     		str	r3, [r4, #8]
1315:Drivers/STM32F1xx_HAL_Driver/Src/stm32f1xx_hal_hcd.c ****   }
 1555              		.loc 1 1315 5 view .LVU460
 1556 01da 05EB8503 		add	r3, r5, r5, lsl #2
 1557 01de 06EBC303 		add	r3, r6, r3, lsl #3
 1558 01e2 93F85C20 		ldrb	r2, [r3, #92]	@ zero_extendqisi2
 1559 01e6 2946     		mov	r1, r5
 1560 01e8 3046     		mov	r0, r6
 1561 01ea FFF7FEFF 		bl	HAL_HCD_HC_NotifyURBChange_Callback
 1562              	.LVL111:
 1563 01ee B3E7     		b	.L79
 1564              	.L111:
1274:Drivers/STM32F1xx_HAL_Driver/Src/stm32f1xx_hal_hcd.c ****     }
 1565              		.loc 1 1274 7 view .LVU461
1274:Drivers/STM32F1xx_HAL_Driver/Src/stm32f1xx_hal_hcd.c ****     }
 1566              		.loc 1 1274 35 is_stmt 0 view .LVU462
 1567 01f0 05EB8503 		add	r3, r5, r5, lsl #2
 1568 01f4 06EBC303 		add	r3, r6, r3, lsl #3
 1569 01f8 0522     		movs	r2, #5
 1570 01fa 83F85C20 		strb	r2, [r3, #92]
 1571 01fe EAE7     		b	.L94
 1572              	.L96:
1279:Drivers/STM32F1xx_HAL_Driver/Src/stm32f1xx_hal_hcd.c ****       if (hhcd->hc[ch_num].ErrCnt > 3U)
 1573              		.loc 1 1279 7 is_stmt 1 view .LVU463
1279:Drivers/STM32F1xx_HAL_Driver/Src/stm32f1xx_hal_hcd.c ****       if (hhcd->hc[ch_num].ErrCnt > 3U)
 1574              		.loc 1 1279 23 is_stmt 0 view .LVU464
 1575 0200 05EB8502 		add	r2, r5, r5, lsl #2
 1576 0204 06EBC202 		add	r2, r6, r2, lsl #3
 1577 0208 936D     		ldr	r3, [r2, #88]
1279:Drivers/STM32F1xx_HAL_Driver/Src/stm32f1xx_hal_hcd.c ****       if (hhcd->hc[ch_num].ErrCnt > 3U)
 1578              		.loc 1 1279 30 view .LVU465
 1579 020a 0133     		adds	r3, r3, #1
 1580 020c 9365     		str	r3, [r2, #88]
1280:Drivers/STM32F1xx_HAL_Driver/Src/stm32f1xx_hal_hcd.c ****       {
 1581              		.loc 1 1280 7 is_stmt 1 view .LVU466
1280:Drivers/STM32F1xx_HAL_Driver/Src/stm32f1xx_hal_hcd.c ****       {
 1582              		.loc 1 1280 10 is_stmt 0 view .LVU467
 1583 020e 032B     		cmp	r3, #3
 1584 0210 0ED9     		bls	.L98
1282:Drivers/STM32F1xx_HAL_Driver/Src/stm32f1xx_hal_hcd.c ****         hhcd->hc[ch_num].urb_state = URB_ERROR;
 1585              		.loc 1 1282 9 is_stmt 1 view .LVU468
1282:Drivers/STM32F1xx_HAL_Driver/Src/stm32f1xx_hal_hcd.c ****         hhcd->hc[ch_num].urb_state = URB_ERROR;
 1586              		.loc 1 1282 33 is_stmt 0 view .LVU469
 1587 0212 1346     		mov	r3, r2
 1588 0214 0022     		movs	r2, #0
ARM GAS  /tmp/ccldPFyH.s 			page 64


 1589 0216 9A65     		str	r2, [r3, #88]
1283:Drivers/STM32F1xx_HAL_Driver/Src/stm32f1xx_hal_hcd.c ****       }
 1590              		.loc 1 1283 9 is_stmt 1 view .LVU470
1283:Drivers/STM32F1xx_HAL_Driver/Src/stm32f1xx_hal_hcd.c ****       }
 1591              		.loc 1 1283 36 is_stmt 0 view .LVU471
 1592 0218 0422     		movs	r2, #4
 1593 021a 83F85C20 		strb	r2, [r3, #92]
 1594              	.L99:
1291:Drivers/STM32F1xx_HAL_Driver/Src/stm32f1xx_hal_hcd.c ****       tmpreg &= ~USB_OTG_HCCHAR_CHDIS;
 1595              		.loc 1 1291 7 is_stmt 1 view .LVU472
1291:Drivers/STM32F1xx_HAL_Driver/Src/stm32f1xx_hal_hcd.c ****       tmpreg &= ~USB_OTG_HCCHAR_CHDIS;
 1596              		.loc 1 1291 14 is_stmt 0 view .LVU473
 1597 021e D7F80035 		ldr	r3, [r7, #1280]
 1598              	.LVL112:
1292:Drivers/STM32F1xx_HAL_Driver/Src/stm32f1xx_hal_hcd.c ****       tmpreg |= USB_OTG_HCCHAR_CHENA;
 1599              		.loc 1 1292 7 is_stmt 1 view .LVU474
1292:Drivers/STM32F1xx_HAL_Driver/Src/stm32f1xx_hal_hcd.c ****       tmpreg |= USB_OTG_HCCHAR_CHENA;
 1600              		.loc 1 1292 14 is_stmt 0 view .LVU475
 1601 0222 23F08043 		bic	r3, r3, #1073741824
 1602              	.LVL113:
1293:Drivers/STM32F1xx_HAL_Driver/Src/stm32f1xx_hal_hcd.c ****       USBx_HC(ch_num)->HCCHAR = tmpreg;
 1603              		.loc 1 1293 7 is_stmt 1 view .LVU476
1293:Drivers/STM32F1xx_HAL_Driver/Src/stm32f1xx_hal_hcd.c ****       USBx_HC(ch_num)->HCCHAR = tmpreg;
 1604              		.loc 1 1293 14 is_stmt 0 view .LVU477
 1605 0226 43F00043 		orr	r3, r3, #-2147483648
 1606              	.LVL114:
1294:Drivers/STM32F1xx_HAL_Driver/Src/stm32f1xx_hal_hcd.c ****     }
 1607              		.loc 1 1294 7 is_stmt 1 view .LVU478
1294:Drivers/STM32F1xx_HAL_Driver/Src/stm32f1xx_hal_hcd.c ****     }
 1608              		.loc 1 1294 31 is_stmt 0 view .LVU479
 1609 022a C7F80035 		str	r3, [r7, #1280]
 1610 022e D2E7     		b	.L94
 1611              	.LVL115:
 1612              	.L98:
1287:Drivers/STM32F1xx_HAL_Driver/Src/stm32f1xx_hal_hcd.c ****       }
 1613              		.loc 1 1287 9 is_stmt 1 view .LVU480
1287:Drivers/STM32F1xx_HAL_Driver/Src/stm32f1xx_hal_hcd.c ****       }
 1614              		.loc 1 1287 36 is_stmt 0 view .LVU481
 1615 0230 05EB8503 		add	r3, r5, r5, lsl #2
 1616 0234 06EBC303 		add	r3, r6, r3, lsl #3
 1617 0238 0222     		movs	r2, #2
 1618 023a 83F85C20 		strb	r2, [r3, #92]
 1619 023e EEE7     		b	.L99
 1620              	.L112:
1298:Drivers/STM32F1xx_HAL_Driver/Src/stm32f1xx_hal_hcd.c ****       /* re-activate the channel  */
 1621              		.loc 1 1298 7 is_stmt 1 view .LVU482
1298:Drivers/STM32F1xx_HAL_Driver/Src/stm32f1xx_hal_hcd.c ****       /* re-activate the channel  */
 1622              		.loc 1 1298 35 is_stmt 0 view .LVU483
 1623 0240 05EB8503 		add	r3, r5, r5, lsl #2
 1624 0244 06EBC303 		add	r3, r6, r3, lsl #3
 1625 0248 0222     		movs	r2, #2
 1626 024a 83F85C20 		strb	r2, [r3, #92]
1300:Drivers/STM32F1xx_HAL_Driver/Src/stm32f1xx_hal_hcd.c ****       tmpreg &= ~USB_OTG_HCCHAR_CHDIS;
 1627              		.loc 1 1300 7 is_stmt 1 view .LVU484
1300:Drivers/STM32F1xx_HAL_Driver/Src/stm32f1xx_hal_hcd.c ****       tmpreg &= ~USB_OTG_HCCHAR_CHDIS;
 1628              		.loc 1 1300 14 is_stmt 0 view .LVU485
 1629 024e D7F80035 		ldr	r3, [r7, #1280]
ARM GAS  /tmp/ccldPFyH.s 			page 65


 1630              	.LVL116:
1301:Drivers/STM32F1xx_HAL_Driver/Src/stm32f1xx_hal_hcd.c ****       tmpreg |= USB_OTG_HCCHAR_CHENA;
 1631              		.loc 1 1301 7 is_stmt 1 view .LVU486
1301:Drivers/STM32F1xx_HAL_Driver/Src/stm32f1xx_hal_hcd.c ****       tmpreg |= USB_OTG_HCCHAR_CHENA;
 1632              		.loc 1 1301 14 is_stmt 0 view .LVU487
 1633 0252 23F08043 		bic	r3, r3, #1073741824
 1634              	.LVL117:
1302:Drivers/STM32F1xx_HAL_Driver/Src/stm32f1xx_hal_hcd.c ****       USBx_HC(ch_num)->HCCHAR = tmpreg;
 1635              		.loc 1 1302 7 is_stmt 1 view .LVU488
1302:Drivers/STM32F1xx_HAL_Driver/Src/stm32f1xx_hal_hcd.c ****       USBx_HC(ch_num)->HCCHAR = tmpreg;
 1636              		.loc 1 1302 14 is_stmt 0 view .LVU489
 1637 0256 43F00043 		orr	r3, r3, #-2147483648
 1638              	.LVL118:
1303:Drivers/STM32F1xx_HAL_Driver/Src/stm32f1xx_hal_hcd.c ****     }
 1639              		.loc 1 1303 7 is_stmt 1 view .LVU490
1303:Drivers/STM32F1xx_HAL_Driver/Src/stm32f1xx_hal_hcd.c ****     }
 1640              		.loc 1 1303 31 is_stmt 0 view .LVU491
 1641 025a C7F80035 		str	r3, [r7, #1280]
 1642 025e BAE7     		b	.L94
 1643              	.LVL119:
 1644              	.L92:
1317:Drivers/STM32F1xx_HAL_Driver/Src/stm32f1xx_hal_hcd.c ****   {
 1645              		.loc 1 1317 8 is_stmt 1 view .LVU492
1317:Drivers/STM32F1xx_HAL_Driver/Src/stm32f1xx_hal_hcd.c ****   {
 1646              		.loc 1 1317 28 is_stmt 0 view .LVU493
 1647 0260 A368     		ldr	r3, [r4, #8]
1317:Drivers/STM32F1xx_HAL_Driver/Src/stm32f1xx_hal_hcd.c ****   {
 1648              		.loc 1 1317 11 view .LVU494
 1649 0262 13F0800F 		tst	r3, #128
 1650 0266 27D1     		bne	.L113
1325:Drivers/STM32F1xx_HAL_Driver/Src/stm32f1xx_hal_hcd.c ****   {
 1651              		.loc 1 1325 8 is_stmt 1 view .LVU495
1325:Drivers/STM32F1xx_HAL_Driver/Src/stm32f1xx_hal_hcd.c ****   {
 1652              		.loc 1 1325 28 is_stmt 0 view .LVU496
 1653 0268 A368     		ldr	r3, [r4, #8]
1325:Drivers/STM32F1xx_HAL_Driver/Src/stm32f1xx_hal_hcd.c ****   {
 1654              		.loc 1 1325 11 view .LVU497
 1655 026a 13F0100F 		tst	r3, #16
 1656 026e 3FF473AF 		beq	.L79
1327:Drivers/STM32F1xx_HAL_Driver/Src/stm32f1xx_hal_hcd.c ****     {
 1657              		.loc 1 1327 5 is_stmt 1 view .LVU498
1327:Drivers/STM32F1xx_HAL_Driver/Src/stm32f1xx_hal_hcd.c ****     {
 1658              		.loc 1 1327 25 is_stmt 0 view .LVU499
 1659 0272 05EB8503 		add	r3, r5, r5, lsl #2
 1660 0276 06EBC303 		add	r3, r6, r3, lsl #3
 1661 027a 93F83F30 		ldrb	r3, [r3, #63]	@ zero_extendqisi2
1327:Drivers/STM32F1xx_HAL_Driver/Src/stm32f1xx_hal_hcd.c ****     {
 1662              		.loc 1 1327 8 view .LVU500
 1663 027e 032B     		cmp	r3, #3
 1664 0280 33D0     		beq	.L114
1333:Drivers/STM32F1xx_HAL_Driver/Src/stm32f1xx_hal_hcd.c ****              (hhcd->hc[ch_num].ep_type == EP_TYPE_BULK))
 1665              		.loc 1 1333 10 is_stmt 1 view .LVU501
1333:Drivers/STM32F1xx_HAL_Driver/Src/stm32f1xx_hal_hcd.c ****              (hhcd->hc[ch_num].ep_type == EP_TYPE_BULK))
 1666              		.loc 1 1333 13 is_stmt 0 view .LVU502
 1667 0282 0BB1     		cbz	r3, .L104
1333:Drivers/STM32F1xx_HAL_Driver/Src/stm32f1xx_hal_hcd.c ****              (hhcd->hc[ch_num].ep_type == EP_TYPE_BULK))
 1668              		.loc 1 1333 57 discriminator 1 view .LVU503
ARM GAS  /tmp/ccldPFyH.s 			page 66


 1669 0284 022B     		cmp	r3, #2
 1670 0286 14D1     		bne	.L103
 1671              	.L104:
1336:Drivers/STM32F1xx_HAL_Driver/Src/stm32f1xx_hal_hcd.c ****       hhcd->hc[ch_num].state = HC_NAK;
 1672              		.loc 1 1336 7 is_stmt 1 view .LVU504
1336:Drivers/STM32F1xx_HAL_Driver/Src/stm32f1xx_hal_hcd.c ****       hhcd->hc[ch_num].state = HC_NAK;
 1673              		.loc 1 1336 31 is_stmt 0 view .LVU505
 1674 0288 05EB8503 		add	r3, r5, r5, lsl #2
 1675 028c 06EBC303 		add	r3, r6, r3, lsl #3
 1676 0290 0022     		movs	r2, #0
 1677 0292 9A65     		str	r2, [r3, #88]
1337:Drivers/STM32F1xx_HAL_Driver/Src/stm32f1xx_hal_hcd.c ****       __HAL_HCD_UNMASK_HALT_HC_INT(ch_num);
 1678              		.loc 1 1337 7 is_stmt 1 view .LVU506
1337:Drivers/STM32F1xx_HAL_Driver/Src/stm32f1xx_hal_hcd.c ****       __HAL_HCD_UNMASK_HALT_HC_INT(ch_num);
 1679              		.loc 1 1337 30 is_stmt 0 view .LVU507
 1680 0294 05EB8503 		add	r3, r5, r5, lsl #2
 1681 0298 06EBC303 		add	r3, r6, r3, lsl #3
 1682 029c 0322     		movs	r2, #3
 1683 029e 83F85D20 		strb	r2, [r3, #93]
1338:Drivers/STM32F1xx_HAL_Driver/Src/stm32f1xx_hal_hcd.c ****       (void)USB_HC_Halt(hhcd->Instance, (uint8_t)ch_num);
 1684              		.loc 1 1338 7 is_stmt 1 view .LVU508
 1685 02a2 E368     		ldr	r3, [r4, #12]
 1686 02a4 43F00203 		orr	r3, r3, #2
 1687 02a8 E360     		str	r3, [r4, #12]
1339:Drivers/STM32F1xx_HAL_Driver/Src/stm32f1xx_hal_hcd.c ****     }
 1688              		.loc 1 1339 7 view .LVU509
1339:Drivers/STM32F1xx_HAL_Driver/Src/stm32f1xx_hal_hcd.c ****     }
 1689              		.loc 1 1339 13 is_stmt 0 view .LVU510
 1690 02aa 2946     		mov	r1, r5
 1691 02ac 3068     		ldr	r0, [r6]
 1692 02ae FFF7FEFF 		bl	USB_HC_Halt
 1693              	.LVL120:
 1694              	.L103:
1345:Drivers/STM32F1xx_HAL_Driver/Src/stm32f1xx_hal_hcd.c ****   }
 1695              		.loc 1 1345 5 is_stmt 1 view .LVU511
 1696 02b2 1023     		movs	r3, #16
 1697 02b4 A360     		str	r3, [r4, #8]
1350:Drivers/STM32F1xx_HAL_Driver/Src/stm32f1xx_hal_hcd.c **** }
 1698              		.loc 1 1350 3 view .LVU512
1351:Drivers/STM32F1xx_HAL_Driver/Src/stm32f1xx_hal_hcd.c **** 
 1699              		.loc 1 1351 1 is_stmt 0 view .LVU513
 1700 02b6 4FE7     		b	.L79
 1701              	.L113:
1319:Drivers/STM32F1xx_HAL_Driver/Src/stm32f1xx_hal_hcd.c ****     hhcd->hc[ch_num].ErrCnt++;
 1702              		.loc 1 1319 5 is_stmt 1 view .LVU514
 1703 02b8 E368     		ldr	r3, [r4, #12]
 1704 02ba 43F00203 		orr	r3, r3, #2
 1705 02be E360     		str	r3, [r4, #12]
1320:Drivers/STM32F1xx_HAL_Driver/Src/stm32f1xx_hal_hcd.c ****     hhcd->hc[ch_num].state = HC_XACTERR;
 1706              		.loc 1 1320 5 view .LVU515
1320:Drivers/STM32F1xx_HAL_Driver/Src/stm32f1xx_hal_hcd.c ****     hhcd->hc[ch_num].state = HC_XACTERR;
 1707              		.loc 1 1320 21 is_stmt 0 view .LVU516
 1708 02c0 05EB8503 		add	r3, r5, r5, lsl #2
 1709 02c4 06EBC303 		add	r3, r6, r3, lsl #3
 1710 02c8 9A6D     		ldr	r2, [r3, #88]
1320:Drivers/STM32F1xx_HAL_Driver/Src/stm32f1xx_hal_hcd.c ****     hhcd->hc[ch_num].state = HC_XACTERR;
 1711              		.loc 1 1320 28 view .LVU517
ARM GAS  /tmp/ccldPFyH.s 			page 67


 1712 02ca 0132     		adds	r2, r2, #1
 1713 02cc 9A65     		str	r2, [r3, #88]
1321:Drivers/STM32F1xx_HAL_Driver/Src/stm32f1xx_hal_hcd.c ****     (void)USB_HC_Halt(hhcd->Instance, (uint8_t)ch_num);
 1714              		.loc 1 1321 5 is_stmt 1 view .LVU518
1321:Drivers/STM32F1xx_HAL_Driver/Src/stm32f1xx_hal_hcd.c ****     (void)USB_HC_Halt(hhcd->Instance, (uint8_t)ch_num);
 1715              		.loc 1 1321 28 is_stmt 0 view .LVU519
 1716 02ce 05EB8503 		add	r3, r5, r5, lsl #2
 1717 02d2 06EBC303 		add	r3, r6, r3, lsl #3
 1718 02d6 0622     		movs	r2, #6
 1719 02d8 83F85D20 		strb	r2, [r3, #93]
1322:Drivers/STM32F1xx_HAL_Driver/Src/stm32f1xx_hal_hcd.c ****     __HAL_HCD_CLEAR_HC_INT(ch_num, USB_OTG_HCINT_TXERR);
 1720              		.loc 1 1322 5 is_stmt 1 view .LVU520
1322:Drivers/STM32F1xx_HAL_Driver/Src/stm32f1xx_hal_hcd.c ****     __HAL_HCD_CLEAR_HC_INT(ch_num, USB_OTG_HCINT_TXERR);
 1721              		.loc 1 1322 11 is_stmt 0 view .LVU521
 1722 02dc 2946     		mov	r1, r5
 1723 02de 3068     		ldr	r0, [r6]
 1724 02e0 FFF7FEFF 		bl	USB_HC_Halt
 1725              	.LVL121:
1323:Drivers/STM32F1xx_HAL_Driver/Src/stm32f1xx_hal_hcd.c ****   }
 1726              		.loc 1 1323 5 is_stmt 1 view .LVU522
 1727 02e4 8023     		movs	r3, #128
 1728 02e6 A360     		str	r3, [r4, #8]
 1729 02e8 36E7     		b	.L79
 1730              	.L114:
1329:Drivers/STM32F1xx_HAL_Driver/Src/stm32f1xx_hal_hcd.c ****       __HAL_HCD_UNMASK_HALT_HC_INT(ch_num);
 1731              		.loc 1 1329 7 view .LVU523
1329:Drivers/STM32F1xx_HAL_Driver/Src/stm32f1xx_hal_hcd.c ****       __HAL_HCD_UNMASK_HALT_HC_INT(ch_num);
 1732              		.loc 1 1329 31 is_stmt 0 view .LVU524
 1733 02ea 05EB8503 		add	r3, r5, r5, lsl #2
 1734 02ee 06EBC303 		add	r3, r6, r3, lsl #3
 1735 02f2 0022     		movs	r2, #0
 1736 02f4 9A65     		str	r2, [r3, #88]
1330:Drivers/STM32F1xx_HAL_Driver/Src/stm32f1xx_hal_hcd.c ****       (void)USB_HC_Halt(hhcd->Instance, (uint8_t)ch_num);
 1737              		.loc 1 1330 7 is_stmt 1 view .LVU525
 1738 02f6 E368     		ldr	r3, [r4, #12]
 1739 02f8 43F00203 		orr	r3, r3, #2
 1740 02fc E360     		str	r3, [r4, #12]
1331:Drivers/STM32F1xx_HAL_Driver/Src/stm32f1xx_hal_hcd.c ****     }
 1741              		.loc 1 1331 7 view .LVU526
1331:Drivers/STM32F1xx_HAL_Driver/Src/stm32f1xx_hal_hcd.c ****     }
 1742              		.loc 1 1331 13 is_stmt 0 view .LVU527
 1743 02fe 2946     		mov	r1, r5
 1744 0300 3068     		ldr	r0, [r6]
 1745 0302 FFF7FEFF 		bl	USB_HC_Halt
 1746              	.LVL122:
 1747 0306 D4E7     		b	.L103
 1748              		.cfi_endproc
 1749              	.LFE89:
 1751              		.section	.text.HCD_HC_OUT_IRQHandler,"ax",%progbits
 1752              		.align	1
 1753              		.syntax unified
 1754              		.thumb
 1755              		.thumb_func
 1756              		.fpu softvfp
 1758              	HCD_HC_OUT_IRQHandler:
 1759              	.LVL123:
 1760              	.LFB90:
ARM GAS  /tmp/ccldPFyH.s 			page 68


1361:Drivers/STM32F1xx_HAL_Driver/Src/stm32f1xx_hal_hcd.c ****   USB_OTG_GlobalTypeDef *USBx = hhcd->Instance;
 1761              		.loc 1 1361 1 is_stmt 1 view -0
 1762              		.cfi_startproc
 1763              		@ args = 0, pretend = 0, frame = 0
 1764              		@ frame_needed = 0, uses_anonymous_args = 0
1361:Drivers/STM32F1xx_HAL_Driver/Src/stm32f1xx_hal_hcd.c ****   USB_OTG_GlobalTypeDef *USBx = hhcd->Instance;
 1765              		.loc 1 1361 1 is_stmt 0 view .LVU529
 1766 0000 F8B5     		push	{r3, r4, r5, r6, r7, lr}
 1767              	.LCFI20:
 1768              		.cfi_def_cfa_offset 24
 1769              		.cfi_offset 3, -24
 1770              		.cfi_offset 4, -20
 1771              		.cfi_offset 5, -16
 1772              		.cfi_offset 6, -12
 1773              		.cfi_offset 7, -8
 1774              		.cfi_offset 14, -4
1362:Drivers/STM32F1xx_HAL_Driver/Src/stm32f1xx_hal_hcd.c ****   uint32_t USBx_BASE = (uint32_t)USBx;
 1775              		.loc 1 1362 3 is_stmt 1 view .LVU530
1362:Drivers/STM32F1xx_HAL_Driver/Src/stm32f1xx_hal_hcd.c ****   uint32_t USBx_BASE = (uint32_t)USBx;
 1776              		.loc 1 1362 26 is_stmt 0 view .LVU531
 1777 0002 0368     		ldr	r3, [r0]
 1778              	.LVL124:
1363:Drivers/STM32F1xx_HAL_Driver/Src/stm32f1xx_hal_hcd.c ****   uint32_t ch_num = (uint32_t)chnum;
 1779              		.loc 1 1363 3 is_stmt 1 view .LVU532
1364:Drivers/STM32F1xx_HAL_Driver/Src/stm32f1xx_hal_hcd.c ****   uint32_t tmpreg;
 1780              		.loc 1 1364 3 view .LVU533
1365:Drivers/STM32F1xx_HAL_Driver/Src/stm32f1xx_hal_hcd.c **** 
 1781              		.loc 1 1365 3 view .LVU534
1367:Drivers/STM32F1xx_HAL_Driver/Src/stm32f1xx_hal_hcd.c ****   {
 1782              		.loc 1 1367 3 view .LVU535
1367:Drivers/STM32F1xx_HAL_Driver/Src/stm32f1xx_hal_hcd.c ****   {
 1783              		.loc 1 1367 8 is_stmt 0 view .LVU536
 1784 0004 03EB4113 		add	r3, r3, r1, lsl #5
 1785              	.LVL125:
1367:Drivers/STM32F1xx_HAL_Driver/Src/stm32f1xx_hal_hcd.c ****   {
 1786              		.loc 1 1367 8 view .LVU537
 1787 0008 03F5A065 		add	r5, r3, #1280
1367:Drivers/STM32F1xx_HAL_Driver/Src/stm32f1xx_hal_hcd.c ****   {
 1788              		.loc 1 1367 23 view .LVU538
 1789 000c AA68     		ldr	r2, [r5, #8]
1367:Drivers/STM32F1xx_HAL_Driver/Src/stm32f1xx_hal_hcd.c ****   {
 1790              		.loc 1 1367 6 view .LVU539
 1791 000e 12F0040F 		tst	r2, #4
 1792 0012 06D0     		beq	.L116
1369:Drivers/STM32F1xx_HAL_Driver/Src/stm32f1xx_hal_hcd.c ****     __HAL_HCD_UNMASK_HALT_HC_INT(ch_num);
 1793              		.loc 1 1369 5 is_stmt 1 view .LVU540
 1794 0014 0423     		movs	r3, #4
 1795 0016 AB60     		str	r3, [r5, #8]
 1796              	.LVL126:
1370:Drivers/STM32F1xx_HAL_Driver/Src/stm32f1xx_hal_hcd.c ****   }
 1797              		.loc 1 1370 5 view .LVU541
 1798 0018 EB68     		ldr	r3, [r5, #12]
 1799 001a 43F00203 		orr	r3, r3, #2
 1800 001e EB60     		str	r3, [r5, #12]
 1801              	.LVL127:
 1802              	.L115:
1495:Drivers/STM32F1xx_HAL_Driver/Src/stm32f1xx_hal_hcd.c **** 
ARM GAS  /tmp/ccldPFyH.s 			page 69


 1803              		.loc 1 1495 1 is_stmt 0 view .LVU542
 1804 0020 F8BD     		pop	{r3, r4, r5, r6, r7, pc}
 1805              	.LVL128:
 1806              	.L116:
1495:Drivers/STM32F1xx_HAL_Driver/Src/stm32f1xx_hal_hcd.c **** 
 1807              		.loc 1 1495 1 view .LVU543
 1808 0022 0646     		mov	r6, r0
 1809 0024 0C46     		mov	r4, r1
1372:Drivers/STM32F1xx_HAL_Driver/Src/stm32f1xx_hal_hcd.c ****   {
 1810              		.loc 1 1372 8 is_stmt 1 view .LVU544
1372:Drivers/STM32F1xx_HAL_Driver/Src/stm32f1xx_hal_hcd.c ****   {
 1811              		.loc 1 1372 28 is_stmt 0 view .LVU545
 1812 0026 AA68     		ldr	r2, [r5, #8]
1372:Drivers/STM32F1xx_HAL_Driver/Src/stm32f1xx_hal_hcd.c ****   {
 1813              		.loc 1 1372 11 view .LVU546
 1814 0028 12F0200F 		tst	r2, #32
 1815 002c 1ED0     		beq	.L118
1374:Drivers/STM32F1xx_HAL_Driver/Src/stm32f1xx_hal_hcd.c **** 
 1816              		.loc 1 1374 5 is_stmt 1 view .LVU547
 1817 002e 2023     		movs	r3, #32
 1818 0030 AB60     		str	r3, [r5, #8]
 1819              	.LVL129:
1376:Drivers/STM32F1xx_HAL_Driver/Src/stm32f1xx_hal_hcd.c ****     {
 1820              		.loc 1 1376 5 view .LVU548
1376:Drivers/STM32F1xx_HAL_Driver/Src/stm32f1xx_hal_hcd.c ****     {
 1821              		.loc 1 1376 25 is_stmt 0 view .LVU549
 1822 0032 01EB8103 		add	r3, r1, r1, lsl #2
 1823 0036 00EBC303 		add	r3, r0, r3, lsl #3
 1824 003a 93F83D30 		ldrb	r3, [r3, #61]	@ zero_extendqisi2
1376:Drivers/STM32F1xx_HAL_Driver/Src/stm32f1xx_hal_hcd.c ****     {
 1825              		.loc 1 1376 8 view .LVU550
 1826 003e 012B     		cmp	r3, #1
 1827 0040 EED1     		bne	.L115
1378:Drivers/STM32F1xx_HAL_Driver/Src/stm32f1xx_hal_hcd.c ****       hhcd->hc[ch_num].urb_state  = URB_NOTREADY;
 1828              		.loc 1 1378 7 is_stmt 1 view .LVU551
1378:Drivers/STM32F1xx_HAL_Driver/Src/stm32f1xx_hal_hcd.c ****       hhcd->hc[ch_num].urb_state  = URB_NOTREADY;
 1829              		.loc 1 1378 32 is_stmt 0 view .LVU552
 1830 0042 01EB8103 		add	r3, r1, r1, lsl #2
 1831 0046 00EBC303 		add	r3, r0, r3, lsl #3
 1832 004a 0022     		movs	r2, #0
 1833 004c 83F83D20 		strb	r2, [r3, #61]
1379:Drivers/STM32F1xx_HAL_Driver/Src/stm32f1xx_hal_hcd.c ****       __HAL_HCD_UNMASK_HALT_HC_INT(ch_num);
 1834              		.loc 1 1379 7 is_stmt 1 view .LVU553
1379:Drivers/STM32F1xx_HAL_Driver/Src/stm32f1xx_hal_hcd.c ****       __HAL_HCD_UNMASK_HALT_HC_INT(ch_num);
 1835              		.loc 1 1379 35 is_stmt 0 view .LVU554
 1836 0050 01EB8103 		add	r3, r1, r1, lsl #2
 1837 0054 00EBC303 		add	r3, r0, r3, lsl #3
 1838 0058 0222     		movs	r2, #2
 1839 005a 83F85C20 		strb	r2, [r3, #92]
1380:Drivers/STM32F1xx_HAL_Driver/Src/stm32f1xx_hal_hcd.c ****       (void)USB_HC_Halt(hhcd->Instance, (uint8_t)ch_num);
 1840              		.loc 1 1380 7 is_stmt 1 view .LVU555
 1841 005e EB68     		ldr	r3, [r5, #12]
 1842 0060 1343     		orrs	r3, r3, r2
 1843 0062 EB60     		str	r3, [r5, #12]
1381:Drivers/STM32F1xx_HAL_Driver/Src/stm32f1xx_hal_hcd.c ****     }
 1844              		.loc 1 1381 7 view .LVU556
1381:Drivers/STM32F1xx_HAL_Driver/Src/stm32f1xx_hal_hcd.c ****     }
ARM GAS  /tmp/ccldPFyH.s 			page 70


 1845              		.loc 1 1381 13 is_stmt 0 view .LVU557
 1846 0064 0068     		ldr	r0, [r0]
 1847              	.LVL130:
1381:Drivers/STM32F1xx_HAL_Driver/Src/stm32f1xx_hal_hcd.c ****     }
 1848              		.loc 1 1381 13 view .LVU558
 1849 0066 FFF7FEFF 		bl	USB_HC_Halt
 1850              	.LVL131:
1381:Drivers/STM32F1xx_HAL_Driver/Src/stm32f1xx_hal_hcd.c ****     }
 1851              		.loc 1 1381 13 view .LVU559
 1852 006a D9E7     		b	.L115
 1853              	.LVL132:
 1854              	.L118:
1384:Drivers/STM32F1xx_HAL_Driver/Src/stm32f1xx_hal_hcd.c ****   {
 1855              		.loc 1 1384 8 is_stmt 1 view .LVU560
1384:Drivers/STM32F1xx_HAL_Driver/Src/stm32f1xx_hal_hcd.c ****   {
 1856              		.loc 1 1384 28 is_stmt 0 view .LVU561
 1857 006c AA68     		ldr	r2, [r5, #8]
1384:Drivers/STM32F1xx_HAL_Driver/Src/stm32f1xx_hal_hcd.c ****   {
 1858              		.loc 1 1384 11 view .LVU562
 1859 006e 12F0400F 		tst	r2, #64
 1860 0072 52D1     		bne	.L135
1393:Drivers/STM32F1xx_HAL_Driver/Src/stm32f1xx_hal_hcd.c ****   {
 1861              		.loc 1 1393 8 is_stmt 1 view .LVU563
1393:Drivers/STM32F1xx_HAL_Driver/Src/stm32f1xx_hal_hcd.c ****   {
 1862              		.loc 1 1393 28 is_stmt 0 view .LVU564
 1863 0074 AA68     		ldr	r2, [r5, #8]
1393:Drivers/STM32F1xx_HAL_Driver/Src/stm32f1xx_hal_hcd.c ****   {
 1864              		.loc 1 1393 11 view .LVU565
 1865 0076 12F4007F 		tst	r2, #512
 1866 007a 68D1     		bne	.L136
1399:Drivers/STM32F1xx_HAL_Driver/Src/stm32f1xx_hal_hcd.c ****   {
 1867              		.loc 1 1399 8 is_stmt 1 view .LVU566
1399:Drivers/STM32F1xx_HAL_Driver/Src/stm32f1xx_hal_hcd.c ****   {
 1868              		.loc 1 1399 28 is_stmt 0 view .LVU567
 1869 007c AA68     		ldr	r2, [r5, #8]
1399:Drivers/STM32F1xx_HAL_Driver/Src/stm32f1xx_hal_hcd.c ****   {
 1870              		.loc 1 1399 11 view .LVU568
 1871 007e 12F0010F 		tst	r2, #1
 1872 0082 6FD1     		bne	.L137
1407:Drivers/STM32F1xx_HAL_Driver/Src/stm32f1xx_hal_hcd.c ****   {
 1873              		.loc 1 1407 8 is_stmt 1 view .LVU569
1407:Drivers/STM32F1xx_HAL_Driver/Src/stm32f1xx_hal_hcd.c ****   {
 1874              		.loc 1 1407 28 is_stmt 0 view .LVU570
 1875 0084 AA68     		ldr	r2, [r5, #8]
1407:Drivers/STM32F1xx_HAL_Driver/Src/stm32f1xx_hal_hcd.c ****   {
 1876              		.loc 1 1407 11 view .LVU571
 1877 0086 12F0080F 		tst	r2, #8
 1878 008a 40F08180 		bne	.L138
1414:Drivers/STM32F1xx_HAL_Driver/Src/stm32f1xx_hal_hcd.c ****   {
 1879              		.loc 1 1414 8 is_stmt 1 view .LVU572
1414:Drivers/STM32F1xx_HAL_Driver/Src/stm32f1xx_hal_hcd.c ****   {
 1880              		.loc 1 1414 28 is_stmt 0 view .LVU573
 1881 008e AA68     		ldr	r2, [r5, #8]
1414:Drivers/STM32F1xx_HAL_Driver/Src/stm32f1xx_hal_hcd.c ****   {
 1882              		.loc 1 1414 11 view .LVU574
 1883 0090 12F0100F 		tst	r2, #16
 1884 0094 40F08D80 		bne	.L139
ARM GAS  /tmp/ccldPFyH.s 			page 71


1423:Drivers/STM32F1xx_HAL_Driver/Src/stm32f1xx_hal_hcd.c ****   {
 1885              		.loc 1 1423 8 is_stmt 1 view .LVU575
1423:Drivers/STM32F1xx_HAL_Driver/Src/stm32f1xx_hal_hcd.c ****   {
 1886              		.loc 1 1423 28 is_stmt 0 view .LVU576
 1887 0098 AA68     		ldr	r2, [r5, #8]
1423:Drivers/STM32F1xx_HAL_Driver/Src/stm32f1xx_hal_hcd.c ****   {
 1888              		.loc 1 1423 11 view .LVU577
 1889 009a 12F0800F 		tst	r2, #128
 1890 009e 40F09F80 		bne	.L140
1430:Drivers/STM32F1xx_HAL_Driver/Src/stm32f1xx_hal_hcd.c ****   {
 1891              		.loc 1 1430 8 is_stmt 1 view .LVU578
1430:Drivers/STM32F1xx_HAL_Driver/Src/stm32f1xx_hal_hcd.c ****   {
 1892              		.loc 1 1430 28 is_stmt 0 view .LVU579
 1893 00a2 AA68     		ldr	r2, [r5, #8]
1430:Drivers/STM32F1xx_HAL_Driver/Src/stm32f1xx_hal_hcd.c ****   {
 1894              		.loc 1 1430 11 view .LVU580
 1895 00a4 12F4806F 		tst	r2, #1024
 1896 00a8 40F0AB80 		bne	.L141
1438:Drivers/STM32F1xx_HAL_Driver/Src/stm32f1xx_hal_hcd.c ****   {
 1897              		.loc 1 1438 8 is_stmt 1 view .LVU581
1438:Drivers/STM32F1xx_HAL_Driver/Src/stm32f1xx_hal_hcd.c ****   {
 1898              		.loc 1 1438 28 is_stmt 0 view .LVU582
 1899 00ac AA68     		ldr	r2, [r5, #8]
1438:Drivers/STM32F1xx_HAL_Driver/Src/stm32f1xx_hal_hcd.c ****   {
 1900              		.loc 1 1438 11 view .LVU583
 1901 00ae 12F0020F 		tst	r2, #2
 1902 00b2 B5D0     		beq	.L115
1440:Drivers/STM32F1xx_HAL_Driver/Src/stm32f1xx_hal_hcd.c **** 
 1903              		.loc 1 1440 5 is_stmt 1 view .LVU584
 1904 00b4 EA68     		ldr	r2, [r5, #12]
 1905 00b6 22F00202 		bic	r2, r2, #2
 1906 00ba EA60     		str	r2, [r5, #12]
 1907              	.LVL133:
1442:Drivers/STM32F1xx_HAL_Driver/Src/stm32f1xx_hal_hcd.c ****     {
 1908              		.loc 1 1442 5 view .LVU585
1442:Drivers/STM32F1xx_HAL_Driver/Src/stm32f1xx_hal_hcd.c ****     {
 1909              		.loc 1 1442 25 is_stmt 0 view .LVU586
 1910 00bc 01EB8102 		add	r2, r1, r1, lsl #2
 1911 00c0 00EBC202 		add	r2, r0, r2, lsl #3
 1912 00c4 92F85D20 		ldrb	r2, [r2, #93]	@ zero_extendqisi2
1442:Drivers/STM32F1xx_HAL_Driver/Src/stm32f1xx_hal_hcd.c ****     {
 1913              		.loc 1 1442 8 view .LVU587
 1914 00c8 012A     		cmp	r2, #1
 1915 00ca 00F0AE80 		beq	.L142
1451:Drivers/STM32F1xx_HAL_Driver/Src/stm32f1xx_hal_hcd.c ****     {
 1916              		.loc 1 1451 10 is_stmt 1 view .LVU588
1451:Drivers/STM32F1xx_HAL_Driver/Src/stm32f1xx_hal_hcd.c ****     {
 1917              		.loc 1 1451 13 is_stmt 0 view .LVU589
 1918 00ce 032A     		cmp	r2, #3
 1919 00d0 00F0C280 		beq	.L143
1455:Drivers/STM32F1xx_HAL_Driver/Src/stm32f1xx_hal_hcd.c ****     {
 1920              		.loc 1 1455 10 is_stmt 1 view .LVU590
1455:Drivers/STM32F1xx_HAL_Driver/Src/stm32f1xx_hal_hcd.c ****     {
 1921              		.loc 1 1455 13 is_stmt 0 view .LVU591
 1922 00d4 042A     		cmp	r2, #4
 1923 00d6 00F0D380 		beq	.L144
1459:Drivers/STM32F1xx_HAL_Driver/Src/stm32f1xx_hal_hcd.c ****     {
ARM GAS  /tmp/ccldPFyH.s 			page 72


 1924              		.loc 1 1459 10 is_stmt 1 view .LVU592
1459:Drivers/STM32F1xx_HAL_Driver/Src/stm32f1xx_hal_hcd.c ****     {
 1925              		.loc 1 1459 13 is_stmt 0 view .LVU593
 1926 00da 052A     		cmp	r2, #5
 1927 00dc 00F0D880 		beq	.L145
1463:Drivers/STM32F1xx_HAL_Driver/Src/stm32f1xx_hal_hcd.c ****              (hhcd->hc[ch_num].state == HC_DATATGLERR))
 1928              		.loc 1 1463 10 is_stmt 1 view .LVU594
1463:Drivers/STM32F1xx_HAL_Driver/Src/stm32f1xx_hal_hcd.c ****              (hhcd->hc[ch_num].state == HC_DATATGLERR))
 1929              		.loc 1 1463 13 is_stmt 0 view .LVU595
 1930 00e0 062A     		cmp	r2, #6
 1931 00e2 02D0     		beq	.L131
1463:Drivers/STM32F1xx_HAL_Driver/Src/stm32f1xx_hal_hcd.c ****              (hhcd->hc[ch_num].state == HC_DATATGLERR))
 1932              		.loc 1 1463 53 discriminator 1 view .LVU596
 1933 00e4 082A     		cmp	r2, #8
 1934 00e6 40F0BE80 		bne	.L127
 1935              	.L131:
1466:Drivers/STM32F1xx_HAL_Driver/Src/stm32f1xx_hal_hcd.c ****       if (hhcd->hc[ch_num].ErrCnt > 3U)
 1936              		.loc 1 1466 7 is_stmt 1 view .LVU597
1466:Drivers/STM32F1xx_HAL_Driver/Src/stm32f1xx_hal_hcd.c ****       if (hhcd->hc[ch_num].ErrCnt > 3U)
 1937              		.loc 1 1466 23 is_stmt 0 view .LVU598
 1938 00ea 2821     		movs	r1, #40
 1939              	.LVL134:
1466:Drivers/STM32F1xx_HAL_Driver/Src/stm32f1xx_hal_hcd.c ****       if (hhcd->hc[ch_num].ErrCnt > 3U)
 1940              		.loc 1 1466 23 view .LVU599
 1941 00ec 01FB0461 		mla	r1, r1, r4, r6
 1942 00f0 8A6D     		ldr	r2, [r1, #88]
1466:Drivers/STM32F1xx_HAL_Driver/Src/stm32f1xx_hal_hcd.c ****       if (hhcd->hc[ch_num].ErrCnt > 3U)
 1943              		.loc 1 1466 30 view .LVU600
 1944 00f2 0132     		adds	r2, r2, #1
 1945 00f4 8A65     		str	r2, [r1, #88]
1467:Drivers/STM32F1xx_HAL_Driver/Src/stm32f1xx_hal_hcd.c ****       {
 1946              		.loc 1 1467 7 is_stmt 1 view .LVU601
1467:Drivers/STM32F1xx_HAL_Driver/Src/stm32f1xx_hal_hcd.c ****       {
 1947              		.loc 1 1467 10 is_stmt 0 view .LVU602
 1948 00f6 032A     		cmp	r2, #3
 1949 00f8 40F2D080 		bls	.L132
1469:Drivers/STM32F1xx_HAL_Driver/Src/stm32f1xx_hal_hcd.c ****         hhcd->hc[ch_num].urb_state = URB_ERROR;
 1950              		.loc 1 1469 9 is_stmt 1 view .LVU603
1469:Drivers/STM32F1xx_HAL_Driver/Src/stm32f1xx_hal_hcd.c ****         hhcd->hc[ch_num].urb_state = URB_ERROR;
 1951              		.loc 1 1469 33 is_stmt 0 view .LVU604
 1952 00fc 0A46     		mov	r2, r1
 1953 00fe 0021     		movs	r1, #0
 1954 0100 9165     		str	r1, [r2, #88]
1470:Drivers/STM32F1xx_HAL_Driver/Src/stm32f1xx_hal_hcd.c ****       }
 1955              		.loc 1 1470 9 is_stmt 1 view .LVU605
1470:Drivers/STM32F1xx_HAL_Driver/Src/stm32f1xx_hal_hcd.c ****       }
 1956              		.loc 1 1470 36 is_stmt 0 view .LVU606
 1957 0102 0421     		movs	r1, #4
 1958 0104 82F85C10 		strb	r1, [r2, #92]
 1959              	.L133:
1478:Drivers/STM32F1xx_HAL_Driver/Src/stm32f1xx_hal_hcd.c ****       tmpreg &= ~USB_OTG_HCCHAR_CHDIS;
 1960              		.loc 1 1478 7 is_stmt 1 view .LVU607
1478:Drivers/STM32F1xx_HAL_Driver/Src/stm32f1xx_hal_hcd.c ****       tmpreg &= ~USB_OTG_HCCHAR_CHDIS;
 1961              		.loc 1 1478 14 is_stmt 0 view .LVU608
 1962 0108 D3F80025 		ldr	r2, [r3, #1280]
 1963              	.LVL135:
1479:Drivers/STM32F1xx_HAL_Driver/Src/stm32f1xx_hal_hcd.c ****       tmpreg |= USB_OTG_HCCHAR_CHENA;
ARM GAS  /tmp/ccldPFyH.s 			page 73


 1964              		.loc 1 1479 7 is_stmt 1 view .LVU609
1479:Drivers/STM32F1xx_HAL_Driver/Src/stm32f1xx_hal_hcd.c ****       tmpreg |= USB_OTG_HCCHAR_CHENA;
 1965              		.loc 1 1479 14 is_stmt 0 view .LVU610
 1966 010c 22F08042 		bic	r2, r2, #1073741824
 1967              	.LVL136:
1480:Drivers/STM32F1xx_HAL_Driver/Src/stm32f1xx_hal_hcd.c ****       USBx_HC(ch_num)->HCCHAR = tmpreg;
 1968              		.loc 1 1480 7 is_stmt 1 view .LVU611
1480:Drivers/STM32F1xx_HAL_Driver/Src/stm32f1xx_hal_hcd.c ****       USBx_HC(ch_num)->HCCHAR = tmpreg;
 1969              		.loc 1 1480 14 is_stmt 0 view .LVU612
 1970 0110 42F00042 		orr	r2, r2, #-2147483648
 1971              	.LVL137:
1481:Drivers/STM32F1xx_HAL_Driver/Src/stm32f1xx_hal_hcd.c ****     }
 1972              		.loc 1 1481 7 is_stmt 1 view .LVU613
1481:Drivers/STM32F1xx_HAL_Driver/Src/stm32f1xx_hal_hcd.c ****     }
 1973              		.loc 1 1481 31 is_stmt 0 view .LVU614
 1974 0114 C3F80025 		str	r2, [r3, #1280]
 1975 0118 A5E0     		b	.L127
 1976              	.LVL138:
 1977              	.L135:
1386:Drivers/STM32F1xx_HAL_Driver/Src/stm32f1xx_hal_hcd.c ****     hhcd->hc[ch_num].do_ping = 1U;
 1978              		.loc 1 1386 5 is_stmt 1 view .LVU615
1386:Drivers/STM32F1xx_HAL_Driver/Src/stm32f1xx_hal_hcd.c ****     hhcd->hc[ch_num].do_ping = 1U;
 1979              		.loc 1 1386 28 is_stmt 0 view .LVU616
 1980 011a 01EB8103 		add	r3, r1, r1, lsl #2
 1981 011e 00EBC303 		add	r3, r0, r3, lsl #3
 1982 0122 0422     		movs	r2, #4
 1983 0124 83F85D20 		strb	r2, [r3, #93]
 1984              	.LVL139:
1387:Drivers/STM32F1xx_HAL_Driver/Src/stm32f1xx_hal_hcd.c ****     hhcd->hc[ch_num].ErrCnt = 0U;
 1985              		.loc 1 1387 5 is_stmt 1 view .LVU617
1387:Drivers/STM32F1xx_HAL_Driver/Src/stm32f1xx_hal_hcd.c ****     hhcd->hc[ch_num].ErrCnt = 0U;
 1986              		.loc 1 1387 30 is_stmt 0 view .LVU618
 1987 0128 0122     		movs	r2, #1
 1988 012a 83F83D20 		strb	r2, [r3, #61]
1388:Drivers/STM32F1xx_HAL_Driver/Src/stm32f1xx_hal_hcd.c ****     __HAL_HCD_UNMASK_HALT_HC_INT(ch_num);
 1989              		.loc 1 1388 5 is_stmt 1 view .LVU619
1388:Drivers/STM32F1xx_HAL_Driver/Src/stm32f1xx_hal_hcd.c ****     __HAL_HCD_UNMASK_HALT_HC_INT(ch_num);
 1990              		.loc 1 1388 29 is_stmt 0 view .LVU620
 1991 012e 01EB8103 		add	r3, r1, r1, lsl #2
 1992 0132 00EBC303 		add	r3, r0, r3, lsl #3
 1993 0136 0022     		movs	r2, #0
 1994 0138 9A65     		str	r2, [r3, #88]
1389:Drivers/STM32F1xx_HAL_Driver/Src/stm32f1xx_hal_hcd.c ****     (void)USB_HC_Halt(hhcd->Instance, (uint8_t)ch_num);
 1995              		.loc 1 1389 5 is_stmt 1 view .LVU621
 1996 013a EB68     		ldr	r3, [r5, #12]
 1997 013c 43F00203 		orr	r3, r3, #2
 1998 0140 EB60     		str	r3, [r5, #12]
1390:Drivers/STM32F1xx_HAL_Driver/Src/stm32f1xx_hal_hcd.c ****     __HAL_HCD_CLEAR_HC_INT(ch_num, USB_OTG_HCINT_NYET);
 1999              		.loc 1 1390 5 view .LVU622
1390:Drivers/STM32F1xx_HAL_Driver/Src/stm32f1xx_hal_hcd.c ****     __HAL_HCD_CLEAR_HC_INT(ch_num, USB_OTG_HCINT_NYET);
 2000              		.loc 1 1390 11 is_stmt 0 view .LVU623
 2001 0142 0068     		ldr	r0, [r0]
 2002              	.LVL140:
1390:Drivers/STM32F1xx_HAL_Driver/Src/stm32f1xx_hal_hcd.c ****     __HAL_HCD_CLEAR_HC_INT(ch_num, USB_OTG_HCINT_NYET);
 2003              		.loc 1 1390 11 view .LVU624
 2004 0144 FFF7FEFF 		bl	USB_HC_Halt
 2005              	.LVL141:
ARM GAS  /tmp/ccldPFyH.s 			page 74


1391:Drivers/STM32F1xx_HAL_Driver/Src/stm32f1xx_hal_hcd.c ****   }
 2006              		.loc 1 1391 5 is_stmt 1 view .LVU625
 2007 0148 4023     		movs	r3, #64
 2008 014a AB60     		str	r3, [r5, #8]
 2009 014c 68E7     		b	.L115
 2010              	.LVL142:
 2011              	.L136:
1395:Drivers/STM32F1xx_HAL_Driver/Src/stm32f1xx_hal_hcd.c ****     (void)USB_HC_Halt(hhcd->Instance, (uint8_t)ch_num);
 2012              		.loc 1 1395 5 view .LVU626
 2013 014e EB68     		ldr	r3, [r5, #12]
 2014 0150 43F00203 		orr	r3, r3, #2
 2015 0154 EB60     		str	r3, [r5, #12]
 2016              	.LVL143:
1396:Drivers/STM32F1xx_HAL_Driver/Src/stm32f1xx_hal_hcd.c ****     __HAL_HCD_CLEAR_HC_INT(ch_num, USB_OTG_HCINT_FRMOR);
 2017              		.loc 1 1396 5 view .LVU627
1396:Drivers/STM32F1xx_HAL_Driver/Src/stm32f1xx_hal_hcd.c ****     __HAL_HCD_CLEAR_HC_INT(ch_num, USB_OTG_HCINT_FRMOR);
 2018              		.loc 1 1396 11 is_stmt 0 view .LVU628
 2019 0156 0068     		ldr	r0, [r0]
 2020              	.LVL144:
1396:Drivers/STM32F1xx_HAL_Driver/Src/stm32f1xx_hal_hcd.c ****     __HAL_HCD_CLEAR_HC_INT(ch_num, USB_OTG_HCINT_FRMOR);
 2021              		.loc 1 1396 11 view .LVU629
 2022 0158 FFF7FEFF 		bl	USB_HC_Halt
 2023              	.LVL145:
1397:Drivers/STM32F1xx_HAL_Driver/Src/stm32f1xx_hal_hcd.c ****   }
 2024              		.loc 1 1397 5 is_stmt 1 view .LVU630
 2025 015c 4FF40073 		mov	r3, #512
 2026 0160 AB60     		str	r3, [r5, #8]
 2027 0162 5DE7     		b	.L115
 2028              	.LVL146:
 2029              	.L137:
1401:Drivers/STM32F1xx_HAL_Driver/Src/stm32f1xx_hal_hcd.c ****     __HAL_HCD_UNMASK_HALT_HC_INT(ch_num);
 2030              		.loc 1 1401 5 view .LVU631
1401:Drivers/STM32F1xx_HAL_Driver/Src/stm32f1xx_hal_hcd.c ****     __HAL_HCD_UNMASK_HALT_HC_INT(ch_num);
 2031              		.loc 1 1401 29 is_stmt 0 view .LVU632
 2032 0164 8F00     		lsls	r7, r1, #2
 2033 0166 01EB8103 		add	r3, r1, r1, lsl #2
 2034 016a 00EBC303 		add	r3, r0, r3, lsl #3
 2035 016e 0022     		movs	r2, #0
 2036 0170 9A65     		str	r2, [r3, #88]
 2037              	.LVL147:
1402:Drivers/STM32F1xx_HAL_Driver/Src/stm32f1xx_hal_hcd.c ****     (void)USB_HC_Halt(hhcd->Instance, (uint8_t)ch_num);
 2038              		.loc 1 1402 5 is_stmt 1 view .LVU633
 2039 0172 EB68     		ldr	r3, [r5, #12]
 2040 0174 43F00203 		orr	r3, r3, #2
 2041 0178 EB60     		str	r3, [r5, #12]
1403:Drivers/STM32F1xx_HAL_Driver/Src/stm32f1xx_hal_hcd.c ****     __HAL_HCD_CLEAR_HC_INT(ch_num, USB_OTG_HCINT_XFRC);
 2042              		.loc 1 1403 5 view .LVU634
1403:Drivers/STM32F1xx_HAL_Driver/Src/stm32f1xx_hal_hcd.c ****     __HAL_HCD_CLEAR_HC_INT(ch_num, USB_OTG_HCINT_XFRC);
 2043              		.loc 1 1403 11 is_stmt 0 view .LVU635
 2044 017a 0068     		ldr	r0, [r0]
 2045              	.LVL148:
1403:Drivers/STM32F1xx_HAL_Driver/Src/stm32f1xx_hal_hcd.c ****     __HAL_HCD_CLEAR_HC_INT(ch_num, USB_OTG_HCINT_XFRC);
 2046              		.loc 1 1403 11 view .LVU636
 2047 017c FFF7FEFF 		bl	USB_HC_Halt
 2048              	.LVL149:
1404:Drivers/STM32F1xx_HAL_Driver/Src/stm32f1xx_hal_hcd.c ****     hhcd->hc[ch_num].state = HC_XFRC;
 2049              		.loc 1 1404 5 is_stmt 1 view .LVU637
ARM GAS  /tmp/ccldPFyH.s 			page 75


 2050 0180 0123     		movs	r3, #1
 2051 0182 AB60     		str	r3, [r5, #8]
1405:Drivers/STM32F1xx_HAL_Driver/Src/stm32f1xx_hal_hcd.c ****   }
 2052              		.loc 1 1405 5 view .LVU638
1405:Drivers/STM32F1xx_HAL_Driver/Src/stm32f1xx_hal_hcd.c ****   }
 2053              		.loc 1 1405 28 is_stmt 0 view .LVU639
 2054 0184 3C44     		add	r4, r4, r7
 2055              	.LVL150:
1405:Drivers/STM32F1xx_HAL_Driver/Src/stm32f1xx_hal_hcd.c ****   }
 2056              		.loc 1 1405 28 view .LVU640
 2057 0186 06EBC406 		add	r6, r6, r4, lsl #3
 2058              	.LVL151:
1405:Drivers/STM32F1xx_HAL_Driver/Src/stm32f1xx_hal_hcd.c ****   }
 2059              		.loc 1 1405 28 view .LVU641
 2060 018a 86F85D30 		strb	r3, [r6, #93]
 2061 018e 47E7     		b	.L115
 2062              	.LVL152:
 2063              	.L138:
1409:Drivers/STM32F1xx_HAL_Driver/Src/stm32f1xx_hal_hcd.c ****     __HAL_HCD_UNMASK_HALT_HC_INT(ch_num);
 2064              		.loc 1 1409 5 is_stmt 1 view .LVU642
 2065 0190 0823     		movs	r3, #8
 2066 0192 AB60     		str	r3, [r5, #8]
 2067              	.LVL153:
1410:Drivers/STM32F1xx_HAL_Driver/Src/stm32f1xx_hal_hcd.c ****     (void)USB_HC_Halt(hhcd->Instance, (uint8_t)ch_num);
 2068              		.loc 1 1410 5 view .LVU643
 2069 0194 EB68     		ldr	r3, [r5, #12]
 2070 0196 43F00203 		orr	r3, r3, #2
 2071 019a EB60     		str	r3, [r5, #12]
1411:Drivers/STM32F1xx_HAL_Driver/Src/stm32f1xx_hal_hcd.c ****     hhcd->hc[ch_num].state = HC_STALL;
 2072              		.loc 1 1411 5 view .LVU644
1411:Drivers/STM32F1xx_HAL_Driver/Src/stm32f1xx_hal_hcd.c ****     hhcd->hc[ch_num].state = HC_STALL;
 2073              		.loc 1 1411 11 is_stmt 0 view .LVU645
 2074 019c 0068     		ldr	r0, [r0]
 2075              	.LVL154:
1411:Drivers/STM32F1xx_HAL_Driver/Src/stm32f1xx_hal_hcd.c ****     hhcd->hc[ch_num].state = HC_STALL;
 2076              		.loc 1 1411 11 view .LVU646
 2077 019e FFF7FEFF 		bl	USB_HC_Halt
 2078              	.LVL155:
1412:Drivers/STM32F1xx_HAL_Driver/Src/stm32f1xx_hal_hcd.c ****   }
 2079              		.loc 1 1412 5 is_stmt 1 view .LVU647
1412:Drivers/STM32F1xx_HAL_Driver/Src/stm32f1xx_hal_hcd.c ****   }
 2080              		.loc 1 1412 28 is_stmt 0 view .LVU648
 2081 01a2 04EB8404 		add	r4, r4, r4, lsl #2
 2082              	.LVL156:
1412:Drivers/STM32F1xx_HAL_Driver/Src/stm32f1xx_hal_hcd.c ****   }
 2083              		.loc 1 1412 28 view .LVU649
 2084 01a6 06EBC406 		add	r6, r6, r4, lsl #3
 2085              	.LVL157:
1412:Drivers/STM32F1xx_HAL_Driver/Src/stm32f1xx_hal_hcd.c ****   }
 2086              		.loc 1 1412 28 view .LVU650
 2087 01aa 0523     		movs	r3, #5
 2088 01ac 86F85D30 		strb	r3, [r6, #93]
 2089 01b0 36E7     		b	.L115
 2090              	.LVL158:
 2091              	.L139:
1416:Drivers/STM32F1xx_HAL_Driver/Src/stm32f1xx_hal_hcd.c ****     hhcd->hc[ch_num].state = HC_NAK;
 2092              		.loc 1 1416 5 is_stmt 1 view .LVU651
ARM GAS  /tmp/ccldPFyH.s 			page 76


1416:Drivers/STM32F1xx_HAL_Driver/Src/stm32f1xx_hal_hcd.c ****     hhcd->hc[ch_num].state = HC_NAK;
 2093              		.loc 1 1416 29 is_stmt 0 view .LVU652
 2094 01b2 01EB8103 		add	r3, r1, r1, lsl #2
 2095 01b6 00EBC303 		add	r3, r0, r3, lsl #3
 2096 01ba 0022     		movs	r2, #0
 2097 01bc 9A65     		str	r2, [r3, #88]
 2098              	.LVL159:
1417:Drivers/STM32F1xx_HAL_Driver/Src/stm32f1xx_hal_hcd.c **** 
 2099              		.loc 1 1417 5 is_stmt 1 view .LVU653
1417:Drivers/STM32F1xx_HAL_Driver/Src/stm32f1xx_hal_hcd.c **** 
 2100              		.loc 1 1417 28 is_stmt 0 view .LVU654
 2101 01be 01EB8103 		add	r3, r1, r1, lsl #2
 2102 01c2 00EBC303 		add	r3, r0, r3, lsl #3
 2103 01c6 0322     		movs	r2, #3
 2104 01c8 83F85D20 		strb	r2, [r3, #93]
1419:Drivers/STM32F1xx_HAL_Driver/Src/stm32f1xx_hal_hcd.c ****     (void)USB_HC_Halt(hhcd->Instance, (uint8_t)ch_num);
 2105              		.loc 1 1419 5 is_stmt 1 view .LVU655
 2106 01cc EB68     		ldr	r3, [r5, #12]
 2107 01ce 43F00203 		orr	r3, r3, #2
 2108 01d2 EB60     		str	r3, [r5, #12]
1420:Drivers/STM32F1xx_HAL_Driver/Src/stm32f1xx_hal_hcd.c ****     __HAL_HCD_CLEAR_HC_INT(ch_num, USB_OTG_HCINT_NAK);
 2109              		.loc 1 1420 5 view .LVU656
1420:Drivers/STM32F1xx_HAL_Driver/Src/stm32f1xx_hal_hcd.c ****     __HAL_HCD_CLEAR_HC_INT(ch_num, USB_OTG_HCINT_NAK);
 2110              		.loc 1 1420 11 is_stmt 0 view .LVU657
 2111 01d4 0068     		ldr	r0, [r0]
 2112              	.LVL160:
1420:Drivers/STM32F1xx_HAL_Driver/Src/stm32f1xx_hal_hcd.c ****     __HAL_HCD_CLEAR_HC_INT(ch_num, USB_OTG_HCINT_NAK);
 2113              		.loc 1 1420 11 view .LVU658
 2114 01d6 FFF7FEFF 		bl	USB_HC_Halt
 2115              	.LVL161:
1421:Drivers/STM32F1xx_HAL_Driver/Src/stm32f1xx_hal_hcd.c ****   }
 2116              		.loc 1 1421 5 is_stmt 1 view .LVU659
 2117 01da 1023     		movs	r3, #16
 2118 01dc AB60     		str	r3, [r5, #8]
 2119 01de 1FE7     		b	.L115
 2120              	.LVL162:
 2121              	.L140:
1425:Drivers/STM32F1xx_HAL_Driver/Src/stm32f1xx_hal_hcd.c ****     (void)USB_HC_Halt(hhcd->Instance, (uint8_t)ch_num);
 2122              		.loc 1 1425 5 view .LVU660
 2123 01e0 EB68     		ldr	r3, [r5, #12]
 2124 01e2 43F00203 		orr	r3, r3, #2
 2125 01e6 EB60     		str	r3, [r5, #12]
 2126              	.LVL163:
1426:Drivers/STM32F1xx_HAL_Driver/Src/stm32f1xx_hal_hcd.c ****     hhcd->hc[ch_num].state = HC_XACTERR;
 2127              		.loc 1 1426 5 view .LVU661
1426:Drivers/STM32F1xx_HAL_Driver/Src/stm32f1xx_hal_hcd.c ****     hhcd->hc[ch_num].state = HC_XACTERR;
 2128              		.loc 1 1426 11 is_stmt 0 view .LVU662
 2129 01e8 0068     		ldr	r0, [r0]
 2130              	.LVL164:
1426:Drivers/STM32F1xx_HAL_Driver/Src/stm32f1xx_hal_hcd.c ****     hhcd->hc[ch_num].state = HC_XACTERR;
 2131              		.loc 1 1426 11 view .LVU663
 2132 01ea FFF7FEFF 		bl	USB_HC_Halt
 2133              	.LVL165:
1427:Drivers/STM32F1xx_HAL_Driver/Src/stm32f1xx_hal_hcd.c ****     __HAL_HCD_CLEAR_HC_INT(ch_num, USB_OTG_HCINT_TXERR);
 2134              		.loc 1 1427 5 is_stmt 1 view .LVU664
1427:Drivers/STM32F1xx_HAL_Driver/Src/stm32f1xx_hal_hcd.c ****     __HAL_HCD_CLEAR_HC_INT(ch_num, USB_OTG_HCINT_TXERR);
 2135              		.loc 1 1427 28 is_stmt 0 view .LVU665
ARM GAS  /tmp/ccldPFyH.s 			page 77


 2136 01ee 04EB8404 		add	r4, r4, r4, lsl #2
 2137              	.LVL166:
1427:Drivers/STM32F1xx_HAL_Driver/Src/stm32f1xx_hal_hcd.c ****     __HAL_HCD_CLEAR_HC_INT(ch_num, USB_OTG_HCINT_TXERR);
 2138              		.loc 1 1427 28 view .LVU666
 2139 01f2 06EBC406 		add	r6, r6, r4, lsl #3
 2140              	.LVL167:
1427:Drivers/STM32F1xx_HAL_Driver/Src/stm32f1xx_hal_hcd.c ****     __HAL_HCD_CLEAR_HC_INT(ch_num, USB_OTG_HCINT_TXERR);
 2141              		.loc 1 1427 28 view .LVU667
 2142 01f6 0623     		movs	r3, #6
 2143 01f8 86F85D30 		strb	r3, [r6, #93]
1428:Drivers/STM32F1xx_HAL_Driver/Src/stm32f1xx_hal_hcd.c ****   }
 2144              		.loc 1 1428 5 is_stmt 1 view .LVU668
 2145 01fc 8023     		movs	r3, #128
 2146 01fe AB60     		str	r3, [r5, #8]
 2147 0200 0EE7     		b	.L115
 2148              	.LVL168:
 2149              	.L141:
1432:Drivers/STM32F1xx_HAL_Driver/Src/stm32f1xx_hal_hcd.c ****     (void)USB_HC_Halt(hhcd->Instance, (uint8_t)ch_num);
 2150              		.loc 1 1432 5 view .LVU669
 2151 0202 EB68     		ldr	r3, [r5, #12]
 2152 0204 43F00203 		orr	r3, r3, #2
 2153 0208 EB60     		str	r3, [r5, #12]
 2154              	.LVL169:
1433:Drivers/STM32F1xx_HAL_Driver/Src/stm32f1xx_hal_hcd.c ****     __HAL_HCD_CLEAR_HC_INT(ch_num, USB_OTG_HCINT_NAK);
 2155              		.loc 1 1433 5 view .LVU670
1433:Drivers/STM32F1xx_HAL_Driver/Src/stm32f1xx_hal_hcd.c ****     __HAL_HCD_CLEAR_HC_INT(ch_num, USB_OTG_HCINT_NAK);
 2156              		.loc 1 1433 11 is_stmt 0 view .LVU671
 2157 020a 0068     		ldr	r0, [r0]
 2158              	.LVL170:
1433:Drivers/STM32F1xx_HAL_Driver/Src/stm32f1xx_hal_hcd.c ****     __HAL_HCD_CLEAR_HC_INT(ch_num, USB_OTG_HCINT_NAK);
 2159              		.loc 1 1433 11 view .LVU672
 2160 020c FFF7FEFF 		bl	USB_HC_Halt
 2161              	.LVL171:
1434:Drivers/STM32F1xx_HAL_Driver/Src/stm32f1xx_hal_hcd.c ****     __HAL_HCD_CLEAR_HC_INT(ch_num, USB_OTG_HCINT_DTERR);
 2162              		.loc 1 1434 5 is_stmt 1 view .LVU673
 2163 0210 1023     		movs	r3, #16
 2164 0212 AB60     		str	r3, [r5, #8]
1435:Drivers/STM32F1xx_HAL_Driver/Src/stm32f1xx_hal_hcd.c ****     hhcd->hc[ch_num].state = HC_DATATGLERR;
 2165              		.loc 1 1435 5 view .LVU674
 2166 0214 4FF48063 		mov	r3, #1024
 2167 0218 AB60     		str	r3, [r5, #8]
1436:Drivers/STM32F1xx_HAL_Driver/Src/stm32f1xx_hal_hcd.c ****   }
 2168              		.loc 1 1436 5 view .LVU675
1436:Drivers/STM32F1xx_HAL_Driver/Src/stm32f1xx_hal_hcd.c ****   }
 2169              		.loc 1 1436 28 is_stmt 0 view .LVU676
 2170 021a 04EB8404 		add	r4, r4, r4, lsl #2
 2171              	.LVL172:
1436:Drivers/STM32F1xx_HAL_Driver/Src/stm32f1xx_hal_hcd.c ****   }
 2172              		.loc 1 1436 28 view .LVU677
 2173 021e 06EBC406 		add	r6, r6, r4, lsl #3
 2174              	.LVL173:
1436:Drivers/STM32F1xx_HAL_Driver/Src/stm32f1xx_hal_hcd.c ****   }
 2175              		.loc 1 1436 28 view .LVU678
 2176 0222 0823     		movs	r3, #8
 2177 0224 86F85D30 		strb	r3, [r6, #93]
 2178 0228 FAE6     		b	.L115
 2179              	.LVL174:
ARM GAS  /tmp/ccldPFyH.s 			page 78


 2180              	.L142:
1444:Drivers/STM32F1xx_HAL_Driver/Src/stm32f1xx_hal_hcd.c ****       if ((hhcd->hc[ch_num].ep_type == EP_TYPE_BULK) ||
 2181              		.loc 1 1444 7 is_stmt 1 view .LVU679
1444:Drivers/STM32F1xx_HAL_Driver/Src/stm32f1xx_hal_hcd.c ****       if ((hhcd->hc[ch_num].ep_type == EP_TYPE_BULK) ||
 2182              		.loc 1 1444 35 is_stmt 0 view .LVU680
 2183 022a 01EB8103 		add	r3, r1, r1, lsl #2
 2184 022e 00EBC303 		add	r3, r0, r3, lsl #3
 2185 0232 83F85C20 		strb	r2, [r3, #92]
1445:Drivers/STM32F1xx_HAL_Driver/Src/stm32f1xx_hal_hcd.c ****           (hhcd->hc[ch_num].ep_type == EP_TYPE_INTR))
 2186              		.loc 1 1445 7 is_stmt 1 view .LVU681
1445:Drivers/STM32F1xx_HAL_Driver/Src/stm32f1xx_hal_hcd.c ****           (hhcd->hc[ch_num].ep_type == EP_TYPE_INTR))
 2187              		.loc 1 1445 28 is_stmt 0 view .LVU682
 2188 0236 93F83F30 		ldrb	r3, [r3, #63]	@ zero_extendqisi2
1445:Drivers/STM32F1xx_HAL_Driver/Src/stm32f1xx_hal_hcd.c ****           (hhcd->hc[ch_num].ep_type == EP_TYPE_INTR))
 2189              		.loc 1 1445 54 view .LVU683
 2190 023a 023B     		subs	r3, r3, #2
 2191 023c DBB2     		uxtb	r3, r3
1445:Drivers/STM32F1xx_HAL_Driver/Src/stm32f1xx_hal_hcd.c ****           (hhcd->hc[ch_num].ep_type == EP_TYPE_INTR))
 2192              		.loc 1 1445 10 view .LVU684
 2193 023e 9342     		cmp	r3, r2
 2194 0240 11D8     		bhi	.L127
1448:Drivers/STM32F1xx_HAL_Driver/Src/stm32f1xx_hal_hcd.c ****       }
 2195              		.loc 1 1448 9 is_stmt 1 view .LVU685
1448:Drivers/STM32F1xx_HAL_Driver/Src/stm32f1xx_hal_hcd.c ****       }
 2196              		.loc 1 1448 37 is_stmt 0 view .LVU686
 2197 0242 01EB8103 		add	r3, r1, r1, lsl #2
 2198 0246 00EBC303 		add	r3, r0, r3, lsl #3
 2199 024a 93F85120 		ldrb	r2, [r3, #81]	@ zero_extendqisi2
 2200 024e 82F00102 		eor	r2, r2, #1
 2201 0252 83F85120 		strb	r2, [r3, #81]
 2202 0256 06E0     		b	.L127
 2203              	.L143:
1453:Drivers/STM32F1xx_HAL_Driver/Src/stm32f1xx_hal_hcd.c ****     }
 2204              		.loc 1 1453 7 is_stmt 1 view .LVU687
1453:Drivers/STM32F1xx_HAL_Driver/Src/stm32f1xx_hal_hcd.c ****     }
 2205              		.loc 1 1453 34 is_stmt 0 view .LVU688
 2206 0258 01EB8103 		add	r3, r1, r1, lsl #2
 2207 025c 00EBC303 		add	r3, r0, r3, lsl #3
 2208 0260 0222     		movs	r2, #2
 2209 0262 83F85C20 		strb	r2, [r3, #92]
 2210              	.LVL175:
 2211              	.L127:
1488:Drivers/STM32F1xx_HAL_Driver/Src/stm32f1xx_hal_hcd.c ****     HAL_HCD_HC_NotifyURBChange_Callback(hhcd, (uint8_t)ch_num, hhcd->hc[ch_num].urb_state);
 2212              		.loc 1 1488 5 is_stmt 1 view .LVU689
 2213 0266 0223     		movs	r3, #2
 2214 0268 AB60     		str	r3, [r5, #8]
1489:Drivers/STM32F1xx_HAL_Driver/Src/stm32f1xx_hal_hcd.c ****   }
 2215              		.loc 1 1489 5 view .LVU690
 2216 026a 04EB8403 		add	r3, r4, r4, lsl #2
 2217 026e 06EBC303 		add	r3, r6, r3, lsl #3
 2218 0272 93F85C20 		ldrb	r2, [r3, #92]	@ zero_extendqisi2
 2219 0276 2146     		mov	r1, r4
 2220 0278 3046     		mov	r0, r6
 2221              	.LVL176:
1489:Drivers/STM32F1xx_HAL_Driver/Src/stm32f1xx_hal_hcd.c ****   }
 2222              		.loc 1 1489 5 is_stmt 0 view .LVU691
 2223 027a FFF7FEFF 		bl	HAL_HCD_HC_NotifyURBChange_Callback
ARM GAS  /tmp/ccldPFyH.s 			page 79


 2224              	.LVL177:
1494:Drivers/STM32F1xx_HAL_Driver/Src/stm32f1xx_hal_hcd.c **** }
 2225              		.loc 1 1494 3 is_stmt 1 view .LVU692
1495:Drivers/STM32F1xx_HAL_Driver/Src/stm32f1xx_hal_hcd.c **** 
 2226              		.loc 1 1495 1 is_stmt 0 view .LVU693
 2227 027e CFE6     		b	.L115
 2228              	.LVL178:
 2229              	.L144:
1457:Drivers/STM32F1xx_HAL_Driver/Src/stm32f1xx_hal_hcd.c ****     }
 2230              		.loc 1 1457 7 is_stmt 1 view .LVU694
1457:Drivers/STM32F1xx_HAL_Driver/Src/stm32f1xx_hal_hcd.c ****     }
 2231              		.loc 1 1457 35 is_stmt 0 view .LVU695
 2232 0280 01EB8103 		add	r3, r1, r1, lsl #2
 2233 0284 00EBC303 		add	r3, r0, r3, lsl #3
 2234 0288 0222     		movs	r2, #2
 2235 028a 83F85C20 		strb	r2, [r3, #92]
 2236 028e EAE7     		b	.L127
 2237              	.L145:
1461:Drivers/STM32F1xx_HAL_Driver/Src/stm32f1xx_hal_hcd.c ****     }
 2238              		.loc 1 1461 7 is_stmt 1 view .LVU696
1461:Drivers/STM32F1xx_HAL_Driver/Src/stm32f1xx_hal_hcd.c ****     }
 2239              		.loc 1 1461 35 is_stmt 0 view .LVU697
 2240 0290 2823     		movs	r3, #40
 2241 0292 03FB0103 		mla	r3, r3, r1, r0
 2242 0296 83F85C20 		strb	r2, [r3, #92]
 2243 029a E4E7     		b	.L127
 2244              	.LVL179:
 2245              	.L132:
1474:Drivers/STM32F1xx_HAL_Driver/Src/stm32f1xx_hal_hcd.c ****       }
 2246              		.loc 1 1474 9 is_stmt 1 view .LVU698
1474:Drivers/STM32F1xx_HAL_Driver/Src/stm32f1xx_hal_hcd.c ****       }
 2247              		.loc 1 1474 36 is_stmt 0 view .LVU699
 2248 029c 2822     		movs	r2, #40
 2249 029e 02FB0462 		mla	r2, r2, r4, r6
 2250 02a2 0221     		movs	r1, #2
 2251 02a4 82F85C10 		strb	r1, [r2, #92]
 2252 02a8 2EE7     		b	.L133
 2253              		.cfi_endproc
 2254              	.LFE90:
 2256              		.section	.text.HAL_HCD_IRQHandler,"ax",%progbits
 2257              		.align	1
 2258              		.global	HAL_HCD_IRQHandler
 2259              		.syntax unified
 2260              		.thumb
 2261              		.thumb_func
 2262              		.fpu softvfp
 2264              	HAL_HCD_IRQHandler:
 2265              	.LVL180:
 2266              	.LFB72:
 491:Drivers/STM32F1xx_HAL_Driver/Src/stm32f1xx_hal_hcd.c ****   USB_OTG_GlobalTypeDef *USBx = hhcd->Instance;
 2267              		.loc 1 491 1 is_stmt 1 view -0
 2268              		.cfi_startproc
 2269              		@ args = 0, pretend = 0, frame = 0
 2270              		@ frame_needed = 0, uses_anonymous_args = 0
 491:Drivers/STM32F1xx_HAL_Driver/Src/stm32f1xx_hal_hcd.c ****   USB_OTG_GlobalTypeDef *USBx = hhcd->Instance;
 2271              		.loc 1 491 1 is_stmt 0 view .LVU701
 2272 0000 F8B5     		push	{r3, r4, r5, r6, r7, lr}
ARM GAS  /tmp/ccldPFyH.s 			page 80


 2273              	.LCFI21:
 2274              		.cfi_def_cfa_offset 24
 2275              		.cfi_offset 3, -24
 2276              		.cfi_offset 4, -20
 2277              		.cfi_offset 5, -16
 2278              		.cfi_offset 6, -12
 2279              		.cfi_offset 7, -8
 2280              		.cfi_offset 14, -4
 2281 0002 0446     		mov	r4, r0
 492:Drivers/STM32F1xx_HAL_Driver/Src/stm32f1xx_hal_hcd.c ****   uint32_t USBx_BASE = (uint32_t)USBx;
 2282              		.loc 1 492 3 is_stmt 1 view .LVU702
 492:Drivers/STM32F1xx_HAL_Driver/Src/stm32f1xx_hal_hcd.c ****   uint32_t USBx_BASE = (uint32_t)USBx;
 2283              		.loc 1 492 26 is_stmt 0 view .LVU703
 2284 0004 0568     		ldr	r5, [r0]
 493:Drivers/STM32F1xx_HAL_Driver/Src/stm32f1xx_hal_hcd.c ****   uint32_t i, interrupt;
 2285              		.loc 1 493 3 is_stmt 1 view .LVU704
 2286              	.LVL181:
 494:Drivers/STM32F1xx_HAL_Driver/Src/stm32f1xx_hal_hcd.c **** 
 2287              		.loc 1 494 3 view .LVU705
 497:Drivers/STM32F1xx_HAL_Driver/Src/stm32f1xx_hal_hcd.c ****   {
 2288              		.loc 1 497 3 view .LVU706
 497:Drivers/STM32F1xx_HAL_Driver/Src/stm32f1xx_hal_hcd.c ****   {
 2289              		.loc 1 497 7 is_stmt 0 view .LVU707
 2290 0006 2846     		mov	r0, r5
 2291              	.LVL182:
 497:Drivers/STM32F1xx_HAL_Driver/Src/stm32f1xx_hal_hcd.c ****   {
 2292              		.loc 1 497 7 view .LVU708
 2293 0008 FFF7FEFF 		bl	USB_GetMode
 2294              	.LVL183:
 497:Drivers/STM32F1xx_HAL_Driver/Src/stm32f1xx_hal_hcd.c ****   {
 2295              		.loc 1 497 6 view .LVU709
 2296 000c 0128     		cmp	r0, #1
 2297 000e 00D0     		beq	.L161
 2298              	.L146:
 596:Drivers/STM32F1xx_HAL_Driver/Src/stm32f1xx_hal_hcd.c **** 
 2299              		.loc 1 596 1 view .LVU710
 2300 0010 F8BD     		pop	{r3, r4, r5, r6, r7, pc}
 2301              	.LVL184:
 2302              	.L161:
 500:Drivers/STM32F1xx_HAL_Driver/Src/stm32f1xx_hal_hcd.c ****     {
 2303              		.loc 1 500 5 is_stmt 1 view .LVU711
 500:Drivers/STM32F1xx_HAL_Driver/Src/stm32f1xx_hal_hcd.c ****     {
 2304              		.loc 1 500 9 is_stmt 0 view .LVU712
 2305 0012 2068     		ldr	r0, [r4]
 2306 0014 FFF7FEFF 		bl	USB_ReadInterrupts
 2307              	.LVL185:
 500:Drivers/STM32F1xx_HAL_Driver/Src/stm32f1xx_hal_hcd.c ****     {
 2308              		.loc 1 500 8 view .LVU713
 2309 0018 0028     		cmp	r0, #0
 2310 001a F9D0     		beq	.L146
 505:Drivers/STM32F1xx_HAL_Driver/Src/stm32f1xx_hal_hcd.c ****     {
 2311              		.loc 1 505 5 is_stmt 1 view .LVU714
 505:Drivers/STM32F1xx_HAL_Driver/Src/stm32f1xx_hal_hcd.c ****     {
 2312              		.loc 1 505 9 is_stmt 0 view .LVU715
 2313 001c 2068     		ldr	r0, [r4]
 2314 001e FFF7FEFF 		bl	USB_ReadInterrupts
 2315              	.LVL186:
ARM GAS  /tmp/ccldPFyH.s 			page 81


 505:Drivers/STM32F1xx_HAL_Driver/Src/stm32f1xx_hal_hcd.c ****     {
 2316              		.loc 1 505 8 view .LVU716
 2317 0022 10F4001F 		tst	r0, #2097152
 2318 0026 03D0     		beq	.L148
 508:Drivers/STM32F1xx_HAL_Driver/Src/stm32f1xx_hal_hcd.c ****     }
 2319              		.loc 1 508 7 is_stmt 1 view .LVU717
 2320 0028 2368     		ldr	r3, [r4]
 2321 002a 4FF40012 		mov	r2, #2097152
 2322 002e 5A61     		str	r2, [r3, #20]
 2323              	.L148:
 511:Drivers/STM32F1xx_HAL_Driver/Src/stm32f1xx_hal_hcd.c ****     {
 2324              		.loc 1 511 5 view .LVU718
 511:Drivers/STM32F1xx_HAL_Driver/Src/stm32f1xx_hal_hcd.c ****     {
 2325              		.loc 1 511 9 is_stmt 0 view .LVU719
 2326 0030 2068     		ldr	r0, [r4]
 2327 0032 FFF7FEFF 		bl	USB_ReadInterrupts
 2328              	.LVL187:
 511:Drivers/STM32F1xx_HAL_Driver/Src/stm32f1xx_hal_hcd.c ****     {
 2329              		.loc 1 511 8 view .LVU720
 2330 0036 10F4801F 		tst	r0, #1048576
 2331 003a 03D0     		beq	.L149
 514:Drivers/STM32F1xx_HAL_Driver/Src/stm32f1xx_hal_hcd.c ****     }
 2332              		.loc 1 514 7 is_stmt 1 view .LVU721
 2333 003c 2368     		ldr	r3, [r4]
 2334 003e 4FF48012 		mov	r2, #1048576
 2335 0042 5A61     		str	r2, [r3, #20]
 2336              	.L149:
 517:Drivers/STM32F1xx_HAL_Driver/Src/stm32f1xx_hal_hcd.c ****     {
 2337              		.loc 1 517 5 view .LVU722
 517:Drivers/STM32F1xx_HAL_Driver/Src/stm32f1xx_hal_hcd.c ****     {
 2338              		.loc 1 517 9 is_stmt 0 view .LVU723
 2339 0044 2068     		ldr	r0, [r4]
 2340 0046 FFF7FEFF 		bl	USB_ReadInterrupts
 2341              	.LVL188:
 517:Drivers/STM32F1xx_HAL_Driver/Src/stm32f1xx_hal_hcd.c ****     {
 2342              		.loc 1 517 8 view .LVU724
 2343 004a 10F0806F 		tst	r0, #67108864
 2344 004e 03D0     		beq	.L150
 520:Drivers/STM32F1xx_HAL_Driver/Src/stm32f1xx_hal_hcd.c ****     }
 2345              		.loc 1 520 7 is_stmt 1 view .LVU725
 2346 0050 2368     		ldr	r3, [r4]
 2347 0052 4FF08062 		mov	r2, #67108864
 2348 0056 5A61     		str	r2, [r3, #20]
 2349              	.L150:
 523:Drivers/STM32F1xx_HAL_Driver/Src/stm32f1xx_hal_hcd.c ****     {
 2350              		.loc 1 523 5 view .LVU726
 523:Drivers/STM32F1xx_HAL_Driver/Src/stm32f1xx_hal_hcd.c ****     {
 2351              		.loc 1 523 9 is_stmt 0 view .LVU727
 2352 0058 2068     		ldr	r0, [r4]
 2353 005a FFF7FEFF 		bl	USB_ReadInterrupts
 2354              	.LVL189:
 523:Drivers/STM32F1xx_HAL_Driver/Src/stm32f1xx_hal_hcd.c ****     {
 2355              		.loc 1 523 8 view .LVU728
 2356 005e 10F0020F 		tst	r0, #2
 2357 0062 02D0     		beq	.L151
 526:Drivers/STM32F1xx_HAL_Driver/Src/stm32f1xx_hal_hcd.c ****     }
 2358              		.loc 1 526 7 is_stmt 1 view .LVU729
ARM GAS  /tmp/ccldPFyH.s 			page 82


 2359 0064 2368     		ldr	r3, [r4]
 2360 0066 0222     		movs	r2, #2
 2361 0068 5A61     		str	r2, [r3, #20]
 2362              	.L151:
 530:Drivers/STM32F1xx_HAL_Driver/Src/stm32f1xx_hal_hcd.c ****     {
 2363              		.loc 1 530 5 view .LVU730
 530:Drivers/STM32F1xx_HAL_Driver/Src/stm32f1xx_hal_hcd.c ****     {
 2364              		.loc 1 530 9 is_stmt 0 view .LVU731
 2365 006a 2068     		ldr	r0, [r4]
 2366 006c FFF7FEFF 		bl	USB_ReadInterrupts
 2367              	.LVL190:
 530:Drivers/STM32F1xx_HAL_Driver/Src/stm32f1xx_hal_hcd.c ****     {
 2368              		.loc 1 530 8 view .LVU732
 2369 0070 10F0005F 		tst	r0, #536870912
 2370 0074 08D0     		beq	.L152
 532:Drivers/STM32F1xx_HAL_Driver/Src/stm32f1xx_hal_hcd.c **** 
 2371              		.loc 1 532 7 is_stmt 1 view .LVU733
 2372 0076 2368     		ldr	r3, [r4]
 2373 0078 4FF00052 		mov	r2, #536870912
 2374 007c 5A61     		str	r2, [r3, #20]
 534:Drivers/STM32F1xx_HAL_Driver/Src/stm32f1xx_hal_hcd.c ****       {
 2375              		.loc 1 534 7 view .LVU734
 534:Drivers/STM32F1xx_HAL_Driver/Src/stm32f1xx_hal_hcd.c ****       {
 2376              		.loc 1 534 12 is_stmt 0 view .LVU735
 2377 007e D5F84034 		ldr	r3, [r5, #1088]
 534:Drivers/STM32F1xx_HAL_Driver/Src/stm32f1xx_hal_hcd.c ****       {
 2378              		.loc 1 534 10 view .LVU736
 2379 0082 13F0010F 		tst	r3, #1
 2380 0086 25D0     		beq	.L162
 2381              	.L152:
 548:Drivers/STM32F1xx_HAL_Driver/Src/stm32f1xx_hal_hcd.c ****     {
 2382              		.loc 1 548 5 is_stmt 1 view .LVU737
 548:Drivers/STM32F1xx_HAL_Driver/Src/stm32f1xx_hal_hcd.c ****     {
 2383              		.loc 1 548 9 is_stmt 0 view .LVU738
 2384 0088 2068     		ldr	r0, [r4]
 2385 008a FFF7FEFF 		bl	USB_ReadInterrupts
 2386              	.LVL191:
 548:Drivers/STM32F1xx_HAL_Driver/Src/stm32f1xx_hal_hcd.c ****     {
 2387              		.loc 1 548 8 view .LVU739
 2388 008e 10F0807F 		tst	r0, #16777216
 2389 0092 27D1     		bne	.L163
 2390              	.L153:
 554:Drivers/STM32F1xx_HAL_Driver/Src/stm32f1xx_hal_hcd.c ****     {
 2391              		.loc 1 554 5 is_stmt 1 view .LVU740
 554:Drivers/STM32F1xx_HAL_Driver/Src/stm32f1xx_hal_hcd.c ****     {
 2392              		.loc 1 554 9 is_stmt 0 view .LVU741
 2393 0094 2068     		ldr	r0, [r4]
 2394 0096 FFF7FEFF 		bl	USB_ReadInterrupts
 2395              	.LVL192:
 554:Drivers/STM32F1xx_HAL_Driver/Src/stm32f1xx_hal_hcd.c ****     {
 2396              		.loc 1 554 8 view .LVU742
 2397 009a 10F0080F 		tst	r0, #8
 2398 009e 25D1     		bne	.L164
 2399              	.L154:
 566:Drivers/STM32F1xx_HAL_Driver/Src/stm32f1xx_hal_hcd.c ****     {
 2400              		.loc 1 566 5 is_stmt 1 view .LVU743
 566:Drivers/STM32F1xx_HAL_Driver/Src/stm32f1xx_hal_hcd.c ****     {
ARM GAS  /tmp/ccldPFyH.s 			page 83


 2401              		.loc 1 566 9 is_stmt 0 view .LVU744
 2402 00a0 2068     		ldr	r0, [r4]
 2403 00a2 FFF7FEFF 		bl	USB_ReadInterrupts
 2404              	.LVL193:
 566:Drivers/STM32F1xx_HAL_Driver/Src/stm32f1xx_hal_hcd.c ****     {
 2405              		.loc 1 566 8 view .LVU745
 2406 00a6 10F0007F 		tst	r0, #33554432
 2407 00aa 26D1     		bne	.L165
 2408              	.L155:
 587:Drivers/STM32F1xx_HAL_Driver/Src/stm32f1xx_hal_hcd.c ****     {
 2409              		.loc 1 587 5 is_stmt 1 view .LVU746
 587:Drivers/STM32F1xx_HAL_Driver/Src/stm32f1xx_hal_hcd.c ****     {
 2410              		.loc 1 587 10 is_stmt 0 view .LVU747
 2411 00ac 2068     		ldr	r0, [r4]
 2412 00ae FFF7FEFF 		bl	USB_ReadInterrupts
 2413              	.LVL194:
 587:Drivers/STM32F1xx_HAL_Driver/Src/stm32f1xx_hal_hcd.c ****     {
 2414              		.loc 1 587 60 view .LVU748
 2415 00b2 10F0100F 		tst	r0, #16
 2416 00b6 ABD0     		beq	.L146
 589:Drivers/STM32F1xx_HAL_Driver/Src/stm32f1xx_hal_hcd.c **** 
 2417              		.loc 1 589 7 is_stmt 1 view .LVU749
 2418 00b8 2268     		ldr	r2, [r4]
 2419 00ba 9369     		ldr	r3, [r2, #24]
 2420 00bc 23F01003 		bic	r3, r3, #16
 2421 00c0 9361     		str	r3, [r2, #24]
 591:Drivers/STM32F1xx_HAL_Driver/Src/stm32f1xx_hal_hcd.c **** 
 2422              		.loc 1 591 7 view .LVU750
 2423 00c2 2046     		mov	r0, r4
 2424 00c4 FFF7FEFF 		bl	HCD_RXQLVL_IRQHandler
 2425              	.LVL195:
 593:Drivers/STM32F1xx_HAL_Driver/Src/stm32f1xx_hal_hcd.c ****     }
 2426              		.loc 1 593 7 view .LVU751
 2427 00c8 2268     		ldr	r2, [r4]
 2428 00ca 9369     		ldr	r3, [r2, #24]
 2429 00cc 43F01003 		orr	r3, r3, #16
 2430 00d0 9361     		str	r3, [r2, #24]
 2431 00d2 9DE7     		b	.L146
 2432              	.L162:
 540:Drivers/STM32F1xx_HAL_Driver/Src/stm32f1xx_hal_hcd.c **** #endif /* USE_HAL_HCD_REGISTER_CALLBACKS */
 2433              		.loc 1 540 9 view .LVU752
 2434 00d4 2046     		mov	r0, r4
 2435 00d6 FFF7FEFF 		bl	HAL_HCD_Disconnect_Callback
 2436              	.LVL196:
 543:Drivers/STM32F1xx_HAL_Driver/Src/stm32f1xx_hal_hcd.c ****       }
 2437              		.loc 1 543 9 view .LVU753
 543:Drivers/STM32F1xx_HAL_Driver/Src/stm32f1xx_hal_hcd.c ****       }
 2438              		.loc 1 543 15 is_stmt 0 view .LVU754
 2439 00da 0121     		movs	r1, #1
 2440 00dc 2068     		ldr	r0, [r4]
 2441 00de FFF7FEFF 		bl	USB_InitFSLSPClkSel
 2442              	.LVL197:
 2443 00e2 D1E7     		b	.L152
 2444              	.L163:
 550:Drivers/STM32F1xx_HAL_Driver/Src/stm32f1xx_hal_hcd.c ****     }
 2445              		.loc 1 550 7 is_stmt 1 view .LVU755
 2446 00e4 2046     		mov	r0, r4
ARM GAS  /tmp/ccldPFyH.s 			page 84


 2447 00e6 FFF7FEFF 		bl	HCD_Port_IRQHandler
 2448              	.LVL198:
 2449 00ea D3E7     		b	.L153
 2450              	.L164:
 559:Drivers/STM32F1xx_HAL_Driver/Src/stm32f1xx_hal_hcd.c **** #endif /* USE_HAL_HCD_REGISTER_CALLBACKS */
 2451              		.loc 1 559 7 view .LVU756
 2452 00ec 2046     		mov	r0, r4
 2453 00ee FFF7FEFF 		bl	HAL_HCD_SOF_Callback
 2454              	.LVL199:
 562:Drivers/STM32F1xx_HAL_Driver/Src/stm32f1xx_hal_hcd.c ****     }
 2455              		.loc 1 562 7 view .LVU757
 2456 00f2 2368     		ldr	r3, [r4]
 2457 00f4 0822     		movs	r2, #8
 2458 00f6 5A61     		str	r2, [r3, #20]
 2459 00f8 D2E7     		b	.L154
 2460              	.L165:
 568:Drivers/STM32F1xx_HAL_Driver/Src/stm32f1xx_hal_hcd.c ****       for (i = 0U; i < hhcd->Init.Host_channels; i++)
 2461              		.loc 1 568 7 view .LVU758
 568:Drivers/STM32F1xx_HAL_Driver/Src/stm32f1xx_hal_hcd.c ****       for (i = 0U; i < hhcd->Init.Host_channels; i++)
 2462              		.loc 1 568 19 is_stmt 0 view .LVU759
 2463 00fa 2068     		ldr	r0, [r4]
 2464 00fc FFF7FEFF 		bl	USB_HC_ReadInterrupt
 2465              	.LVL200:
 2466 0100 0746     		mov	r7, r0
 2467              	.LVL201:
 569:Drivers/STM32F1xx_HAL_Driver/Src/stm32f1xx_hal_hcd.c ****       {
 2468              		.loc 1 569 7 is_stmt 1 view .LVU760
 569:Drivers/STM32F1xx_HAL_Driver/Src/stm32f1xx_hal_hcd.c ****       {
 2469              		.loc 1 569 14 is_stmt 0 view .LVU761
 2470 0102 0026     		movs	r6, #0
 569:Drivers/STM32F1xx_HAL_Driver/Src/stm32f1xx_hal_hcd.c ****       {
 2471              		.loc 1 569 7 view .LVU762
 2472 0104 04E0     		b	.L156
 2473              	.LVL202:
 2474              	.L158:
 579:Drivers/STM32F1xx_HAL_Driver/Src/stm32f1xx_hal_hcd.c ****           }
 2475              		.loc 1 579 13 is_stmt 1 view .LVU763
 2476 0106 F1B2     		uxtb	r1, r6
 2477 0108 2046     		mov	r0, r4
 2478 010a FFF7FEFF 		bl	HCD_HC_OUT_IRQHandler
 2479              	.LVL203:
 2480              	.L157:
 569:Drivers/STM32F1xx_HAL_Driver/Src/stm32f1xx_hal_hcd.c ****       {
 2481              		.loc 1 569 50 discriminator 2 view .LVU764
 569:Drivers/STM32F1xx_HAL_Driver/Src/stm32f1xx_hal_hcd.c ****       {
 2482              		.loc 1 569 51 is_stmt 0 discriminator 2 view .LVU765
 2483 010e 0136     		adds	r6, r6, #1
 2484              	.LVL204:
 2485              	.L156:
 569:Drivers/STM32F1xx_HAL_Driver/Src/stm32f1xx_hal_hcd.c ****       {
 2486              		.loc 1 569 20 is_stmt 1 discriminator 1 view .LVU766
 569:Drivers/STM32F1xx_HAL_Driver/Src/stm32f1xx_hal_hcd.c ****       {
 2487              		.loc 1 569 34 is_stmt 0 discriminator 1 view .LVU767
 2488 0110 A368     		ldr	r3, [r4, #8]
 569:Drivers/STM32F1xx_HAL_Driver/Src/stm32f1xx_hal_hcd.c ****       {
 2489              		.loc 1 569 7 discriminator 1 view .LVU768
 2490 0112 B342     		cmp	r3, r6
ARM GAS  /tmp/ccldPFyH.s 			page 85


 2491 0114 12D9     		bls	.L166
 571:Drivers/STM32F1xx_HAL_Driver/Src/stm32f1xx_hal_hcd.c ****         {
 2492              		.loc 1 571 9 is_stmt 1 view .LVU769
 571:Drivers/STM32F1xx_HAL_Driver/Src/stm32f1xx_hal_hcd.c ****         {
 2493              		.loc 1 571 37 is_stmt 0 view .LVU770
 2494 0116 06F00F03 		and	r3, r6, #15
 571:Drivers/STM32F1xx_HAL_Driver/Src/stm32f1xx_hal_hcd.c ****         {
 2495              		.loc 1 571 47 view .LVU771
 2496 011a 27FA03F3 		lsr	r3, r7, r3
 571:Drivers/STM32F1xx_HAL_Driver/Src/stm32f1xx_hal_hcd.c ****         {
 2497              		.loc 1 571 12 view .LVU772
 2498 011e 13F0010F 		tst	r3, #1
 2499 0122 F4D0     		beq	.L157
 573:Drivers/STM32F1xx_HAL_Driver/Src/stm32f1xx_hal_hcd.c ****           {
 2500              		.loc 1 573 11 is_stmt 1 view .LVU773
 573:Drivers/STM32F1xx_HAL_Driver/Src/stm32f1xx_hal_hcd.c ****           {
 2501              		.loc 1 573 16 is_stmt 0 view .LVU774
 2502 0124 05EB4613 		add	r3, r5, r6, lsl #5
 573:Drivers/STM32F1xx_HAL_Driver/Src/stm32f1xx_hal_hcd.c ****           {
 2503              		.loc 1 573 26 view .LVU775
 2504 0128 D3F80035 		ldr	r3, [r3, #1280]
 573:Drivers/STM32F1xx_HAL_Driver/Src/stm32f1xx_hal_hcd.c ****           {
 2505              		.loc 1 573 14 view .LVU776
 2506 012c 13F4004F 		tst	r3, #32768
 2507 0130 E9D0     		beq	.L158
 575:Drivers/STM32F1xx_HAL_Driver/Src/stm32f1xx_hal_hcd.c ****           }
 2508              		.loc 1 575 13 is_stmt 1 view .LVU777
 2509 0132 F1B2     		uxtb	r1, r6
 2510 0134 2046     		mov	r0, r4
 2511 0136 FFF7FEFF 		bl	HCD_HC_IN_IRQHandler
 2512              	.LVL205:
 2513 013a E8E7     		b	.L157
 2514              	.L166:
 583:Drivers/STM32F1xx_HAL_Driver/Src/stm32f1xx_hal_hcd.c ****     }
 2515              		.loc 1 583 7 view .LVU778
 2516 013c 2368     		ldr	r3, [r4]
 2517 013e 4FF00072 		mov	r2, #33554432
 2518 0142 5A61     		str	r2, [r3, #20]
 2519 0144 B2E7     		b	.L155
 2520              		.cfi_endproc
 2521              	.LFE72:
 2523              		.section	.text.HAL_HCD_Start,"ax",%progbits
 2524              		.align	1
 2525              		.global	HAL_HCD_Start
 2526              		.syntax unified
 2527              		.thumb
 2528              		.thumb_func
 2529              		.fpu softvfp
 2531              	HAL_HCD_Start:
 2532              	.LVL206:
 2533              	.LFB80:
1016:Drivers/STM32F1xx_HAL_Driver/Src/stm32f1xx_hal_hcd.c ****   __HAL_LOCK(hhcd);
 2534              		.loc 1 1016 1 view -0
 2535              		.cfi_startproc
 2536              		@ args = 0, pretend = 0, frame = 0
 2537              		@ frame_needed = 0, uses_anonymous_args = 0
1016:Drivers/STM32F1xx_HAL_Driver/Src/stm32f1xx_hal_hcd.c ****   __HAL_LOCK(hhcd);
ARM GAS  /tmp/ccldPFyH.s 			page 86


 2538              		.loc 1 1016 1 is_stmt 0 view .LVU780
 2539 0000 38B5     		push	{r3, r4, r5, lr}
 2540              	.LCFI22:
 2541              		.cfi_def_cfa_offset 16
 2542              		.cfi_offset 3, -16
 2543              		.cfi_offset 4, -12
 2544              		.cfi_offset 5, -8
 2545              		.cfi_offset 14, -4
1017:Drivers/STM32F1xx_HAL_Driver/Src/stm32f1xx_hal_hcd.c ****   __HAL_HCD_ENABLE(hhcd);
 2546              		.loc 1 1017 3 is_stmt 1 view .LVU781
1017:Drivers/STM32F1xx_HAL_Driver/Src/stm32f1xx_hal_hcd.c ****   __HAL_HCD_ENABLE(hhcd);
 2547              		.loc 1 1017 3 view .LVU782
 2548 0002 90F8B832 		ldrb	r3, [r0, #696]	@ zero_extendqisi2
 2549 0006 012B     		cmp	r3, #1
 2550 0008 0ED0     		beq	.L169
 2551 000a 0446     		mov	r4, r0
1017:Drivers/STM32F1xx_HAL_Driver/Src/stm32f1xx_hal_hcd.c ****   __HAL_HCD_ENABLE(hhcd);
 2552              		.loc 1 1017 3 discriminator 2 view .LVU783
 2553 000c 0125     		movs	r5, #1
 2554 000e 80F8B852 		strb	r5, [r0, #696]
1017:Drivers/STM32F1xx_HAL_Driver/Src/stm32f1xx_hal_hcd.c ****   __HAL_HCD_ENABLE(hhcd);
 2555              		.loc 1 1017 3 discriminator 2 view .LVU784
1018:Drivers/STM32F1xx_HAL_Driver/Src/stm32f1xx_hal_hcd.c ****   (void)USB_DriveVbus(hhcd->Instance, 1U);
 2556              		.loc 1 1018 3 discriminator 2 view .LVU785
 2557 0012 0068     		ldr	r0, [r0]
 2558              	.LVL207:
1018:Drivers/STM32F1xx_HAL_Driver/Src/stm32f1xx_hal_hcd.c ****   (void)USB_DriveVbus(hhcd->Instance, 1U);
 2559              		.loc 1 1018 3 is_stmt 0 discriminator 2 view .LVU786
 2560 0014 FFF7FEFF 		bl	USB_EnableGlobalInt
 2561              	.LVL208:
1019:Drivers/STM32F1xx_HAL_Driver/Src/stm32f1xx_hal_hcd.c ****   __HAL_UNLOCK(hhcd);
 2562              		.loc 1 1019 3 is_stmt 1 discriminator 2 view .LVU787
1019:Drivers/STM32F1xx_HAL_Driver/Src/stm32f1xx_hal_hcd.c ****   __HAL_UNLOCK(hhcd);
 2563              		.loc 1 1019 9 is_stmt 0 discriminator 2 view .LVU788
 2564 0018 2946     		mov	r1, r5
 2565 001a 2068     		ldr	r0, [r4]
 2566 001c FFF7FEFF 		bl	USB_DriveVbus
 2567              	.LVL209:
1020:Drivers/STM32F1xx_HAL_Driver/Src/stm32f1xx_hal_hcd.c **** 
 2568              		.loc 1 1020 3 is_stmt 1 discriminator 2 view .LVU789
1020:Drivers/STM32F1xx_HAL_Driver/Src/stm32f1xx_hal_hcd.c **** 
 2569              		.loc 1 1020 3 discriminator 2 view .LVU790
 2570 0020 0020     		movs	r0, #0
 2571 0022 84F8B802 		strb	r0, [r4, #696]
1020:Drivers/STM32F1xx_HAL_Driver/Src/stm32f1xx_hal_hcd.c **** 
 2572              		.loc 1 1020 3 discriminator 2 view .LVU791
1022:Drivers/STM32F1xx_HAL_Driver/Src/stm32f1xx_hal_hcd.c **** }
 2573              		.loc 1 1022 3 discriminator 2 view .LVU792
 2574              	.LVL210:
 2575              	.L168:
1023:Drivers/STM32F1xx_HAL_Driver/Src/stm32f1xx_hal_hcd.c **** 
 2576              		.loc 1 1023 1 is_stmt 0 view .LVU793
 2577 0026 38BD     		pop	{r3, r4, r5, pc}
 2578              	.LVL211:
 2579              	.L169:
1017:Drivers/STM32F1xx_HAL_Driver/Src/stm32f1xx_hal_hcd.c ****   __HAL_HCD_ENABLE(hhcd);
 2580              		.loc 1 1017 3 view .LVU794
ARM GAS  /tmp/ccldPFyH.s 			page 87


 2581 0028 0220     		movs	r0, #2
 2582              	.LVL212:
1017:Drivers/STM32F1xx_HAL_Driver/Src/stm32f1xx_hal_hcd.c ****   __HAL_HCD_ENABLE(hhcd);
 2583              		.loc 1 1017 3 view .LVU795
 2584 002a FCE7     		b	.L168
 2585              		.cfi_endproc
 2586              	.LFE80:
 2588              		.section	.text.HAL_HCD_Stop,"ax",%progbits
 2589              		.align	1
 2590              		.global	HAL_HCD_Stop
 2591              		.syntax unified
 2592              		.thumb
 2593              		.thumb_func
 2594              		.fpu softvfp
 2596              	HAL_HCD_Stop:
 2597              	.LVL213:
 2598              	.LFB81:
1032:Drivers/STM32F1xx_HAL_Driver/Src/stm32f1xx_hal_hcd.c ****   __HAL_LOCK(hhcd);
 2599              		.loc 1 1032 1 is_stmt 1 view -0
 2600              		.cfi_startproc
 2601              		@ args = 0, pretend = 0, frame = 0
 2602              		@ frame_needed = 0, uses_anonymous_args = 0
1033:Drivers/STM32F1xx_HAL_Driver/Src/stm32f1xx_hal_hcd.c ****   (void)USB_StopHost(hhcd->Instance);
 2603              		.loc 1 1033 3 view .LVU797
1033:Drivers/STM32F1xx_HAL_Driver/Src/stm32f1xx_hal_hcd.c ****   (void)USB_StopHost(hhcd->Instance);
 2604              		.loc 1 1033 3 view .LVU798
 2605 0000 90F8B832 		ldrb	r3, [r0, #696]	@ zero_extendqisi2
 2606 0004 012B     		cmp	r3, #1
 2607 0006 0BD0     		beq	.L173
1032:Drivers/STM32F1xx_HAL_Driver/Src/stm32f1xx_hal_hcd.c ****   __HAL_LOCK(hhcd);
 2608              		.loc 1 1032 1 is_stmt 0 discriminator 2 view .LVU799
 2609 0008 10B5     		push	{r4, lr}
 2610              	.LCFI23:
 2611              		.cfi_def_cfa_offset 8
 2612              		.cfi_offset 4, -8
 2613              		.cfi_offset 14, -4
 2614 000a 0446     		mov	r4, r0
1033:Drivers/STM32F1xx_HAL_Driver/Src/stm32f1xx_hal_hcd.c ****   (void)USB_StopHost(hhcd->Instance);
 2615              		.loc 1 1033 3 is_stmt 1 discriminator 2 view .LVU800
 2616 000c 0123     		movs	r3, #1
 2617 000e 80F8B832 		strb	r3, [r0, #696]
1033:Drivers/STM32F1xx_HAL_Driver/Src/stm32f1xx_hal_hcd.c ****   (void)USB_StopHost(hhcd->Instance);
 2618              		.loc 1 1033 3 discriminator 2 view .LVU801
1034:Drivers/STM32F1xx_HAL_Driver/Src/stm32f1xx_hal_hcd.c ****   __HAL_UNLOCK(hhcd);
 2619              		.loc 1 1034 3 discriminator 2 view .LVU802
1034:Drivers/STM32F1xx_HAL_Driver/Src/stm32f1xx_hal_hcd.c ****   __HAL_UNLOCK(hhcd);
 2620              		.loc 1 1034 9 is_stmt 0 discriminator 2 view .LVU803
 2621 0012 0068     		ldr	r0, [r0]
 2622              	.LVL214:
1034:Drivers/STM32F1xx_HAL_Driver/Src/stm32f1xx_hal_hcd.c ****   __HAL_UNLOCK(hhcd);
 2623              		.loc 1 1034 9 discriminator 2 view .LVU804
 2624 0014 FFF7FEFF 		bl	USB_StopHost
 2625              	.LVL215:
1035:Drivers/STM32F1xx_HAL_Driver/Src/stm32f1xx_hal_hcd.c **** 
 2626              		.loc 1 1035 3 is_stmt 1 discriminator 2 view .LVU805
1035:Drivers/STM32F1xx_HAL_Driver/Src/stm32f1xx_hal_hcd.c **** 
 2627              		.loc 1 1035 3 discriminator 2 view .LVU806
ARM GAS  /tmp/ccldPFyH.s 			page 88


 2628 0018 0020     		movs	r0, #0
 2629 001a 84F8B802 		strb	r0, [r4, #696]
1035:Drivers/STM32F1xx_HAL_Driver/Src/stm32f1xx_hal_hcd.c **** 
 2630              		.loc 1 1035 3 discriminator 2 view .LVU807
1037:Drivers/STM32F1xx_HAL_Driver/Src/stm32f1xx_hal_hcd.c **** }
 2631              		.loc 1 1037 3 discriminator 2 view .LVU808
1038:Drivers/STM32F1xx_HAL_Driver/Src/stm32f1xx_hal_hcd.c **** 
 2632              		.loc 1 1038 1 is_stmt 0 discriminator 2 view .LVU809
 2633 001e 10BD     		pop	{r4, pc}
 2634              	.LVL216:
 2635              	.L173:
 2636              	.LCFI24:
 2637              		.cfi_def_cfa_offset 0
 2638              		.cfi_restore 4
 2639              		.cfi_restore 14
1033:Drivers/STM32F1xx_HAL_Driver/Src/stm32f1xx_hal_hcd.c ****   (void)USB_StopHost(hhcd->Instance);
 2640              		.loc 1 1033 3 view .LVU810
 2641 0020 0220     		movs	r0, #2
 2642              	.LVL217:
1038:Drivers/STM32F1xx_HAL_Driver/Src/stm32f1xx_hal_hcd.c **** 
 2643              		.loc 1 1038 1 view .LVU811
 2644 0022 7047     		bx	lr
 2645              		.cfi_endproc
 2646              	.LFE81:
 2648              		.section	.text.HAL_HCD_ResetPort,"ax",%progbits
 2649              		.align	1
 2650              		.global	HAL_HCD_ResetPort
 2651              		.syntax unified
 2652              		.thumb
 2653              		.thumb_func
 2654              		.fpu softvfp
 2656              	HAL_HCD_ResetPort:
 2657              	.LVL218:
 2658              	.LFB82:
1046:Drivers/STM32F1xx_HAL_Driver/Src/stm32f1xx_hal_hcd.c ****   return (USB_ResetPort(hhcd->Instance));
 2659              		.loc 1 1046 1 is_stmt 1 view -0
 2660              		.cfi_startproc
 2661              		@ args = 0, pretend = 0, frame = 0
 2662              		@ frame_needed = 0, uses_anonymous_args = 0
1046:Drivers/STM32F1xx_HAL_Driver/Src/stm32f1xx_hal_hcd.c ****   return (USB_ResetPort(hhcd->Instance));
 2663              		.loc 1 1046 1 is_stmt 0 view .LVU813
 2664 0000 08B5     		push	{r3, lr}
 2665              	.LCFI25:
 2666              		.cfi_def_cfa_offset 8
 2667              		.cfi_offset 3, -8
 2668              		.cfi_offset 14, -4
1047:Drivers/STM32F1xx_HAL_Driver/Src/stm32f1xx_hal_hcd.c **** }
 2669              		.loc 1 1047 3 is_stmt 1 view .LVU814
1047:Drivers/STM32F1xx_HAL_Driver/Src/stm32f1xx_hal_hcd.c **** }
 2670              		.loc 1 1047 11 is_stmt 0 view .LVU815
 2671 0002 0068     		ldr	r0, [r0]
 2672              	.LVL219:
1047:Drivers/STM32F1xx_HAL_Driver/Src/stm32f1xx_hal_hcd.c **** }
 2673              		.loc 1 1047 11 view .LVU816
 2674 0004 FFF7FEFF 		bl	USB_ResetPort
 2675              	.LVL220:
1048:Drivers/STM32F1xx_HAL_Driver/Src/stm32f1xx_hal_hcd.c **** 
ARM GAS  /tmp/ccldPFyH.s 			page 89


 2676              		.loc 1 1048 1 view .LVU817
 2677 0008 08BD     		pop	{r3, pc}
 2678              		.cfi_endproc
 2679              	.LFE82:
 2681              		.section	.text.HAL_HCD_GetState,"ax",%progbits
 2682              		.align	1
 2683              		.global	HAL_HCD_GetState
 2684              		.syntax unified
 2685              		.thumb
 2686              		.thumb_func
 2687              		.fpu softvfp
 2689              	HAL_HCD_GetState:
 2690              	.LVL221:
 2691              	.LFB83:
1075:Drivers/STM32F1xx_HAL_Driver/Src/stm32f1xx_hal_hcd.c ****   return hhcd->State;
 2692              		.loc 1 1075 1 is_stmt 1 view -0
 2693              		.cfi_startproc
 2694              		@ args = 0, pretend = 0, frame = 0
 2695              		@ frame_needed = 0, uses_anonymous_args = 0
 2696              		@ link register save eliminated.
1076:Drivers/STM32F1xx_HAL_Driver/Src/stm32f1xx_hal_hcd.c **** }
 2697              		.loc 1 1076 3 view .LVU819
1076:Drivers/STM32F1xx_HAL_Driver/Src/stm32f1xx_hal_hcd.c **** }
 2698              		.loc 1 1076 14 is_stmt 0 view .LVU820
 2699 0000 90F8B902 		ldrb	r0, [r0, #697]	@ zero_extendqisi2
 2700              	.LVL222:
1077:Drivers/STM32F1xx_HAL_Driver/Src/stm32f1xx_hal_hcd.c **** 
 2701              		.loc 1 1077 1 view .LVU821
 2702 0004 7047     		bx	lr
 2703              		.cfi_endproc
 2704              	.LFE83:
 2706              		.section	.text.HAL_HCD_HC_GetURBState,"ax",%progbits
 2707              		.align	1
 2708              		.global	HAL_HCD_HC_GetURBState
 2709              		.syntax unified
 2710              		.thumb
 2711              		.thumb_func
 2712              		.fpu softvfp
 2714              	HAL_HCD_HC_GetURBState:
 2715              	.LVL223:
 2716              	.LFB84:
1094:Drivers/STM32F1xx_HAL_Driver/Src/stm32f1xx_hal_hcd.c ****   return hhcd->hc[chnum].urb_state;
 2717              		.loc 1 1094 1 is_stmt 1 view -0
 2718              		.cfi_startproc
 2719              		@ args = 0, pretend = 0, frame = 0
 2720              		@ frame_needed = 0, uses_anonymous_args = 0
 2721              		@ link register save eliminated.
1095:Drivers/STM32F1xx_HAL_Driver/Src/stm32f1xx_hal_hcd.c **** }
 2722              		.loc 1 1095 3 view .LVU823
1095:Drivers/STM32F1xx_HAL_Driver/Src/stm32f1xx_hal_hcd.c **** }
 2723              		.loc 1 1095 25 is_stmt 0 view .LVU824
 2724 0000 01EB8101 		add	r1, r1, r1, lsl #2
 2725              	.LVL224:
1095:Drivers/STM32F1xx_HAL_Driver/Src/stm32f1xx_hal_hcd.c **** }
 2726              		.loc 1 1095 25 view .LVU825
 2727 0004 00EBC101 		add	r1, r0, r1, lsl #3
1096:Drivers/STM32F1xx_HAL_Driver/Src/stm32f1xx_hal_hcd.c **** 
ARM GAS  /tmp/ccldPFyH.s 			page 90


 2728              		.loc 1 1096 1 view .LVU826
 2729 0008 91F85C00 		ldrb	r0, [r1, #92]	@ zero_extendqisi2
 2730              	.LVL225:
1096:Drivers/STM32F1xx_HAL_Driver/Src/stm32f1xx_hal_hcd.c **** 
 2731              		.loc 1 1096 1 view .LVU827
 2732 000c 7047     		bx	lr
 2733              		.cfi_endproc
 2734              	.LFE84:
 2736              		.section	.text.HAL_HCD_HC_GetXferCount,"ax",%progbits
 2737              		.align	1
 2738              		.global	HAL_HCD_HC_GetXferCount
 2739              		.syntax unified
 2740              		.thumb
 2741              		.thumb_func
 2742              		.fpu softvfp
 2744              	HAL_HCD_HC_GetXferCount:
 2745              	.LVL226:
 2746              	.LFB85:
1107:Drivers/STM32F1xx_HAL_Driver/Src/stm32f1xx_hal_hcd.c ****   return hhcd->hc[chnum].xfer_count;
 2747              		.loc 1 1107 1 is_stmt 1 view -0
 2748              		.cfi_startproc
 2749              		@ args = 0, pretend = 0, frame = 0
 2750              		@ frame_needed = 0, uses_anonymous_args = 0
 2751              		@ link register save eliminated.
1108:Drivers/STM32F1xx_HAL_Driver/Src/stm32f1xx_hal_hcd.c **** }
 2752              		.loc 1 1108 3 view .LVU829
1108:Drivers/STM32F1xx_HAL_Driver/Src/stm32f1xx_hal_hcd.c **** }
 2753              		.loc 1 1108 25 is_stmt 0 view .LVU830
 2754 0000 01EB8101 		add	r1, r1, r1, lsl #2
 2755              	.LVL227:
1108:Drivers/STM32F1xx_HAL_Driver/Src/stm32f1xx_hal_hcd.c **** }
 2756              		.loc 1 1108 25 view .LVU831
 2757 0004 00EBC101 		add	r1, r0, r1, lsl #3
1109:Drivers/STM32F1xx_HAL_Driver/Src/stm32f1xx_hal_hcd.c **** 
 2758              		.loc 1 1109 1 view .LVU832
 2759 0008 C86C     		ldr	r0, [r1, #76]
 2760              	.LVL228:
1109:Drivers/STM32F1xx_HAL_Driver/Src/stm32f1xx_hal_hcd.c **** 
 2761              		.loc 1 1109 1 view .LVU833
 2762 000a 7047     		bx	lr
 2763              		.cfi_endproc
 2764              	.LFE85:
 2766              		.section	.text.HAL_HCD_HC_GetState,"ax",%progbits
 2767              		.align	1
 2768              		.global	HAL_HCD_HC_GetState
 2769              		.syntax unified
 2770              		.thumb
 2771              		.thumb_func
 2772              		.fpu softvfp
 2774              	HAL_HCD_HC_GetState:
 2775              	.LVL229:
 2776              	.LFB86:
1129:Drivers/STM32F1xx_HAL_Driver/Src/stm32f1xx_hal_hcd.c ****   return hhcd->hc[chnum].state;
 2777              		.loc 1 1129 1 is_stmt 1 view -0
 2778              		.cfi_startproc
 2779              		@ args = 0, pretend = 0, frame = 0
 2780              		@ frame_needed = 0, uses_anonymous_args = 0
ARM GAS  /tmp/ccldPFyH.s 			page 91


 2781              		@ link register save eliminated.
1130:Drivers/STM32F1xx_HAL_Driver/Src/stm32f1xx_hal_hcd.c **** }
 2782              		.loc 1 1130 3 view .LVU835
1130:Drivers/STM32F1xx_HAL_Driver/Src/stm32f1xx_hal_hcd.c **** }
 2783              		.loc 1 1130 25 is_stmt 0 view .LVU836
 2784 0000 01EB8101 		add	r1, r1, r1, lsl #2
 2785              	.LVL230:
1130:Drivers/STM32F1xx_HAL_Driver/Src/stm32f1xx_hal_hcd.c **** }
 2786              		.loc 1 1130 25 view .LVU837
 2787 0004 00EBC101 		add	r1, r0, r1, lsl #3
1131:Drivers/STM32F1xx_HAL_Driver/Src/stm32f1xx_hal_hcd.c **** 
 2788              		.loc 1 1131 1 view .LVU838
 2789 0008 91F85D00 		ldrb	r0, [r1, #93]	@ zero_extendqisi2
 2790              	.LVL231:
1131:Drivers/STM32F1xx_HAL_Driver/Src/stm32f1xx_hal_hcd.c **** 
 2791              		.loc 1 1131 1 view .LVU839
 2792 000c 7047     		bx	lr
 2793              		.cfi_endproc
 2794              	.LFE86:
 2796              		.section	.text.HAL_HCD_GetCurrentFrame,"ax",%progbits
 2797              		.align	1
 2798              		.global	HAL_HCD_GetCurrentFrame
 2799              		.syntax unified
 2800              		.thumb
 2801              		.thumb_func
 2802              		.fpu softvfp
 2804              	HAL_HCD_GetCurrentFrame:
 2805              	.LVL232:
 2806              	.LFB87:
1139:Drivers/STM32F1xx_HAL_Driver/Src/stm32f1xx_hal_hcd.c ****   return (USB_GetCurrentFrame(hhcd->Instance));
 2807              		.loc 1 1139 1 is_stmt 1 view -0
 2808              		.cfi_startproc
 2809              		@ args = 0, pretend = 0, frame = 0
 2810              		@ frame_needed = 0, uses_anonymous_args = 0
1139:Drivers/STM32F1xx_HAL_Driver/Src/stm32f1xx_hal_hcd.c ****   return (USB_GetCurrentFrame(hhcd->Instance));
 2811              		.loc 1 1139 1 is_stmt 0 view .LVU841
 2812 0000 08B5     		push	{r3, lr}
 2813              	.LCFI26:
 2814              		.cfi_def_cfa_offset 8
 2815              		.cfi_offset 3, -8
 2816              		.cfi_offset 14, -4
1140:Drivers/STM32F1xx_HAL_Driver/Src/stm32f1xx_hal_hcd.c **** }
 2817              		.loc 1 1140 3 is_stmt 1 view .LVU842
1140:Drivers/STM32F1xx_HAL_Driver/Src/stm32f1xx_hal_hcd.c **** }
 2818              		.loc 1 1140 11 is_stmt 0 view .LVU843
 2819 0002 0068     		ldr	r0, [r0]
 2820              	.LVL233:
1140:Drivers/STM32F1xx_HAL_Driver/Src/stm32f1xx_hal_hcd.c **** }
 2821              		.loc 1 1140 11 view .LVU844
 2822 0004 FFF7FEFF 		bl	USB_GetCurrentFrame
 2823              	.LVL234:
1141:Drivers/STM32F1xx_HAL_Driver/Src/stm32f1xx_hal_hcd.c **** 
 2824              		.loc 1 1141 1 view .LVU845
 2825 0008 08BD     		pop	{r3, pc}
 2826              		.cfi_endproc
 2827              	.LFE87:
 2829              		.section	.text.HAL_HCD_GetCurrentSpeed,"ax",%progbits
ARM GAS  /tmp/ccldPFyH.s 			page 92


 2830              		.align	1
 2831              		.global	HAL_HCD_GetCurrentSpeed
 2832              		.syntax unified
 2833              		.thumb
 2834              		.thumb_func
 2835              		.fpu softvfp
 2837              	HAL_HCD_GetCurrentSpeed:
 2838              	.LVL235:
 2839              	.LFB88:
1149:Drivers/STM32F1xx_HAL_Driver/Src/stm32f1xx_hal_hcd.c ****   return (USB_GetHostSpeed(hhcd->Instance));
 2840              		.loc 1 1149 1 is_stmt 1 view -0
 2841              		.cfi_startproc
 2842              		@ args = 0, pretend = 0, frame = 0
 2843              		@ frame_needed = 0, uses_anonymous_args = 0
1149:Drivers/STM32F1xx_HAL_Driver/Src/stm32f1xx_hal_hcd.c ****   return (USB_GetHostSpeed(hhcd->Instance));
 2844              		.loc 1 1149 1 is_stmt 0 view .LVU847
 2845 0000 08B5     		push	{r3, lr}
 2846              	.LCFI27:
 2847              		.cfi_def_cfa_offset 8
 2848              		.cfi_offset 3, -8
 2849              		.cfi_offset 14, -4
1150:Drivers/STM32F1xx_HAL_Driver/Src/stm32f1xx_hal_hcd.c **** }
 2850              		.loc 1 1150 3 is_stmt 1 view .LVU848
1150:Drivers/STM32F1xx_HAL_Driver/Src/stm32f1xx_hal_hcd.c **** }
 2851              		.loc 1 1150 11 is_stmt 0 view .LVU849
 2852 0002 0068     		ldr	r0, [r0]
 2853              	.LVL236:
1150:Drivers/STM32F1xx_HAL_Driver/Src/stm32f1xx_hal_hcd.c **** }
 2854              		.loc 1 1150 11 view .LVU850
 2855 0004 FFF7FEFF 		bl	USB_GetHostSpeed
 2856              	.LVL237:
1151:Drivers/STM32F1xx_HAL_Driver/Src/stm32f1xx_hal_hcd.c **** 
 2857              		.loc 1 1151 1 view .LVU851
 2858 0008 08BD     		pop	{r3, pc}
 2859              		.cfi_endproc
 2860              	.LFE88:
 2862              		.text
 2863              	.Letext0:
 2864              		.file 2 "/usr/lib/gcc/arm-none-eabi/9.2.1/include/stdint.h"
 2865              		.file 3 "Drivers/CMSIS/Include/core_cm3.h"
 2866              		.file 4 "Drivers/CMSIS/Device/ST/STM32F1xx/Include/system_stm32f1xx.h"
 2867              		.file 5 "Drivers/CMSIS/Device/ST/STM32F1xx/Include/stm32f105xc.h"
 2868              		.file 6 "Drivers/STM32F1xx_HAL_Driver/Inc/stm32f1xx_hal_def.h"
 2869              		.file 7 "Drivers/STM32F1xx_HAL_Driver/Inc/stm32f1xx_ll_usb.h"
 2870              		.file 8 "Drivers/STM32F1xx_HAL_Driver/Inc/stm32f1xx_hal_hcd.h"
 2871              		.file 9 "Drivers/STM32F1xx_HAL_Driver/Inc/stm32f1xx_hal.h"
ARM GAS  /tmp/ccldPFyH.s 			page 93


DEFINED SYMBOLS
                            *ABS*:0000000000000000 stm32f1xx_hal_hcd.c
     /tmp/ccldPFyH.s:16     .text.HCD_RXQLVL_IRQHandler:0000000000000000 $t
     /tmp/ccldPFyH.s:23     .text.HCD_RXQLVL_IRQHandler:0000000000000000 HCD_RXQLVL_IRQHandler
     /tmp/ccldPFyH.s:153    .text.HCD_RXQLVL_IRQHandler:0000000000000080 $d
     /tmp/ccldPFyH.s:158    .text.HAL_HCD_HC_Init:0000000000000000 $t
     /tmp/ccldPFyH.s:165    .text.HAL_HCD_HC_Init:0000000000000000 HAL_HCD_HC_Init
     /tmp/ccldPFyH.s:281    .text.HAL_HCD_HC_Halt:0000000000000000 $t
     /tmp/ccldPFyH.s:288    .text.HAL_HCD_HC_Halt:0000000000000000 HAL_HCD_HC_Halt
     /tmp/ccldPFyH.s:342    .text.HAL_HCD_MspInit:0000000000000000 $t
     /tmp/ccldPFyH.s:349    .text.HAL_HCD_MspInit:0000000000000000 HAL_HCD_MspInit
     /tmp/ccldPFyH.s:364    .text.HAL_HCD_Init:0000000000000000 $t
     /tmp/ccldPFyH.s:371    .text.HAL_HCD_Init:0000000000000000 HAL_HCD_Init
     /tmp/ccldPFyH.s:513    .text.HAL_HCD_MspDeInit:0000000000000000 $t
     /tmp/ccldPFyH.s:520    .text.HAL_HCD_MspDeInit:0000000000000000 HAL_HCD_MspDeInit
     /tmp/ccldPFyH.s:535    .text.HAL_HCD_DeInit:0000000000000000 $t
     /tmp/ccldPFyH.s:542    .text.HAL_HCD_DeInit:0000000000000000 HAL_HCD_DeInit
     /tmp/ccldPFyH.s:592    .text.HAL_HCD_HC_SubmitRequest:0000000000000000 $t
     /tmp/ccldPFyH.s:599    .text.HAL_HCD_HC_SubmitRequest:0000000000000000 HAL_HCD_HC_SubmitRequest
     /tmp/ccldPFyH.s:645    .text.HAL_HCD_HC_SubmitRequest:000000000000003c $d
     /tmp/ccldPFyH.s:649    .text.HAL_HCD_HC_SubmitRequest:0000000000000040 $t
     /tmp/ccldPFyH.s:881    .text.HAL_HCD_WKUP_IRQHandler:0000000000000000 $t
     /tmp/ccldPFyH.s:888    .text.HAL_HCD_WKUP_IRQHandler:0000000000000000 HAL_HCD_WKUP_IRQHandler
     /tmp/ccldPFyH.s:903    .text.HAL_HCD_SOF_Callback:0000000000000000 $t
     /tmp/ccldPFyH.s:910    .text.HAL_HCD_SOF_Callback:0000000000000000 HAL_HCD_SOF_Callback
     /tmp/ccldPFyH.s:925    .text.HAL_HCD_Connect_Callback:0000000000000000 $t
     /tmp/ccldPFyH.s:932    .text.HAL_HCD_Connect_Callback:0000000000000000 HAL_HCD_Connect_Callback
     /tmp/ccldPFyH.s:947    .text.HAL_HCD_Disconnect_Callback:0000000000000000 $t
     /tmp/ccldPFyH.s:954    .text.HAL_HCD_Disconnect_Callback:0000000000000000 HAL_HCD_Disconnect_Callback
     /tmp/ccldPFyH.s:969    .text.HAL_HCD_PortEnabled_Callback:0000000000000000 $t
     /tmp/ccldPFyH.s:976    .text.HAL_HCD_PortEnabled_Callback:0000000000000000 HAL_HCD_PortEnabled_Callback
     /tmp/ccldPFyH.s:991    .text.HAL_HCD_PortDisabled_Callback:0000000000000000 $t
     /tmp/ccldPFyH.s:998    .text.HAL_HCD_PortDisabled_Callback:0000000000000000 HAL_HCD_PortDisabled_Callback
     /tmp/ccldPFyH.s:1013   .text.HCD_Port_IRQHandler:0000000000000000 $t
     /tmp/ccldPFyH.s:1019   .text.HCD_Port_IRQHandler:0000000000000000 HCD_Port_IRQHandler
     /tmp/ccldPFyH.s:1184   .text.HAL_HCD_HC_NotifyURBChange_Callback:0000000000000000 $t
     /tmp/ccldPFyH.s:1191   .text.HAL_HCD_HC_NotifyURBChange_Callback:0000000000000000 HAL_HCD_HC_NotifyURBChange_Callback
     /tmp/ccldPFyH.s:1208   .text.HCD_HC_IN_IRQHandler:0000000000000000 $t
     /tmp/ccldPFyH.s:1214   .text.HCD_HC_IN_IRQHandler:0000000000000000 HCD_HC_IN_IRQHandler
     /tmp/ccldPFyH.s:1752   .text.HCD_HC_OUT_IRQHandler:0000000000000000 $t
     /tmp/ccldPFyH.s:1758   .text.HCD_HC_OUT_IRQHandler:0000000000000000 HCD_HC_OUT_IRQHandler
     /tmp/ccldPFyH.s:2257   .text.HAL_HCD_IRQHandler:0000000000000000 $t
     /tmp/ccldPFyH.s:2264   .text.HAL_HCD_IRQHandler:0000000000000000 HAL_HCD_IRQHandler
     /tmp/ccldPFyH.s:2524   .text.HAL_HCD_Start:0000000000000000 $t
     /tmp/ccldPFyH.s:2531   .text.HAL_HCD_Start:0000000000000000 HAL_HCD_Start
     /tmp/ccldPFyH.s:2589   .text.HAL_HCD_Stop:0000000000000000 $t
     /tmp/ccldPFyH.s:2596   .text.HAL_HCD_Stop:0000000000000000 HAL_HCD_Stop
     /tmp/ccldPFyH.s:2649   .text.HAL_HCD_ResetPort:0000000000000000 $t
     /tmp/ccldPFyH.s:2656   .text.HAL_HCD_ResetPort:0000000000000000 HAL_HCD_ResetPort
     /tmp/ccldPFyH.s:2682   .text.HAL_HCD_GetState:0000000000000000 $t
     /tmp/ccldPFyH.s:2689   .text.HAL_HCD_GetState:0000000000000000 HAL_HCD_GetState
     /tmp/ccldPFyH.s:2707   .text.HAL_HCD_HC_GetURBState:0000000000000000 $t
     /tmp/ccldPFyH.s:2714   .text.HAL_HCD_HC_GetURBState:0000000000000000 HAL_HCD_HC_GetURBState
     /tmp/ccldPFyH.s:2737   .text.HAL_HCD_HC_GetXferCount:0000000000000000 $t
     /tmp/ccldPFyH.s:2744   .text.HAL_HCD_HC_GetXferCount:0000000000000000 HAL_HCD_HC_GetXferCount
     /tmp/ccldPFyH.s:2767   .text.HAL_HCD_HC_GetState:0000000000000000 $t
     /tmp/ccldPFyH.s:2774   .text.HAL_HCD_HC_GetState:0000000000000000 HAL_HCD_HC_GetState
ARM GAS  /tmp/ccldPFyH.s 			page 94


     /tmp/ccldPFyH.s:2797   .text.HAL_HCD_GetCurrentFrame:0000000000000000 $t
     /tmp/ccldPFyH.s:2804   .text.HAL_HCD_GetCurrentFrame:0000000000000000 HAL_HCD_GetCurrentFrame
     /tmp/ccldPFyH.s:2830   .text.HAL_HCD_GetCurrentSpeed:0000000000000000 $t
     /tmp/ccldPFyH.s:2837   .text.HAL_HCD_GetCurrentSpeed:0000000000000000 HAL_HCD_GetCurrentSpeed

UNDEFINED SYMBOLS
USB_ReadPacket
USB_HC_Init
USB_HC_Halt
USB_DisableGlobalInt
USB_CoreInit
USB_SetCurrentMode
USB_HostInit
USB_HC_StartXfer
USB_InitFSLSPClkSel
USB_GetMode
USB_ReadInterrupts
USB_HC_ReadInterrupt
USB_EnableGlobalInt
USB_DriveVbus
USB_StopHost
USB_ResetPort
USB_GetCurrentFrame
USB_GetHostSpeed
