Archive member included to satisfy reference by file (symbol)

/usr/lib/gcc/arm-none-eabi/6.3.1/../../../arm-none-eabi/lib/thumb/v7-m/libc_nano.a(lib_a-atexit.o)
                              /usr/lib/gcc/arm-none-eabi/6.3.1/../../../arm-none-eabi/lib/thumb/v7-m/crt0.o (atexit)
/usr/lib/gcc/arm-none-eabi/6.3.1/../../../arm-none-eabi/lib/thumb/v7-m/libc_nano.a(lib_a-atof.o)
                              build/GcodeConverter_Gcode.o (atof)
/usr/lib/gcc/arm-none-eabi/6.3.1/../../../arm-none-eabi/lib/thumb/v7-m/libc_nano.a(lib_a-atoi.o)
                              build/GcodeConverter_Gcode.o (atoi)
/usr/lib/gcc/arm-none-eabi/6.3.1/../../../arm-none-eabi/lib/thumb/v7-m/libc_nano.a(lib_a-exit.o)
                              /usr/lib/gcc/arm-none-eabi/6.3.1/../../../arm-none-eabi/lib/thumb/v7-m/crt0.o (exit)
/usr/lib/gcc/arm-none-eabi/6.3.1/../../../arm-none-eabi/lib/thumb/v7-m/libc_nano.a(lib_a-fini.o)
                              /usr/lib/gcc/arm-none-eabi/6.3.1/../../../arm-none-eabi/lib/thumb/v7-m/crt0.o (__libc_fini_array)
/usr/lib/gcc/arm-none-eabi/6.3.1/../../../arm-none-eabi/lib/thumb/v7-m/libc_nano.a(lib_a-impure.o)
                              /usr/lib/gcc/arm-none-eabi/6.3.1/../../../arm-none-eabi/lib/thumb/v7-m/libc_nano.a(lib_a-exit.o) (_global_impure_ptr)
/usr/lib/gcc/arm-none-eabi/6.3.1/../../../arm-none-eabi/lib/thumb/v7-m/libc_nano.a(lib_a-init.o)
                              /usr/lib/gcc/arm-none-eabi/6.3.1/../../../arm-none-eabi/lib/thumb/v7-m/crt0.o (__libc_init_array)
/usr/lib/gcc/arm-none-eabi/6.3.1/../../../arm-none-eabi/lib/thumb/v7-m/libc_nano.a(lib_a-malloc.o)
                              build/usbh_msc.o (malloc)
/usr/lib/gcc/arm-none-eabi/6.3.1/../../../arm-none-eabi/lib/thumb/v7-m/libc_nano.a(lib_a-memset.o)
                              /usr/lib/gcc/arm-none-eabi/6.3.1/../../../arm-none-eabi/lib/thumb/v7-m/crt0.o (memset)
/usr/lib/gcc/arm-none-eabi/6.3.1/../../../arm-none-eabi/lib/thumb/v7-m/libc_nano.a(lib_a-nano-freer.o)
                              /usr/lib/gcc/arm-none-eabi/6.3.1/../../../arm-none-eabi/lib/thumb/v7-m/libc_nano.a(lib_a-malloc.o) (_free_r)
/usr/lib/gcc/arm-none-eabi/6.3.1/../../../arm-none-eabi/lib/thumb/v7-m/libc_nano.a(lib_a-nano-mallocr.o)
                              /usr/lib/gcc/arm-none-eabi/6.3.1/../../../arm-none-eabi/lib/thumb/v7-m/libc_nano.a(lib_a-malloc.o) (_malloc_r)
/usr/lib/gcc/arm-none-eabi/6.3.1/../../../arm-none-eabi/lib/thumb/v7-m/libc_nano.a(lib_a-printf.o)
                              build/stm32f1xx_it.o (printf)
/usr/lib/gcc/arm-none-eabi/6.3.1/../../../arm-none-eabi/lib/thumb/v7-m/libc_nano.a(lib_a-sbrkr.o)
                              /usr/lib/gcc/arm-none-eabi/6.3.1/../../../arm-none-eabi/lib/thumb/v7-m/libc_nano.a(lib_a-nano-mallocr.o) (_sbrk_r)
/usr/lib/gcc/arm-none-eabi/6.3.1/../../../arm-none-eabi/lib/thumb/v7-m/libc_nano.a(lib_a-sprintf.o)
                              build/FunctionsForButtons.o (sprintf)
/usr/lib/gcc/arm-none-eabi/6.3.1/../../../arm-none-eabi/lib/thumb/v7-m/libc_nano.a(lib_a-strchr.o)
                              build/GcodeConverter_Gcode.o (strchr)
/usr/lib/gcc/arm-none-eabi/6.3.1/../../../arm-none-eabi/lib/thumb/v7-m/libc_nano.a(lib_a-strcpy.o)
                              build/Driver_USBdrive.o (strcpy)
/usr/lib/gcc/arm-none-eabi/6.3.1/../../../arm-none-eabi/lib/thumb/v7-m/libc_nano.a(lib_a-strtod.o)
                              /usr/lib/gcc/arm-none-eabi/6.3.1/../../../arm-none-eabi/lib/thumb/v7-m/libc_nano.a(lib_a-atof.o) (strtod)
/usr/lib/gcc/arm-none-eabi/6.3.1/../../../arm-none-eabi/lib/thumb/v7-m/libc_nano.a(lib_a-strtol.o)
                              /usr/lib/gcc/arm-none-eabi/6.3.1/../../../arm-none-eabi/lib/thumb/v7-m/libc_nano.a(lib_a-atoi.o) (_strtol_r)
/usr/lib/gcc/arm-none-eabi/6.3.1/../../../arm-none-eabi/lib/thumb/v7-m/libc_nano.a(lib_a-swprintf.o)
                              build/TextConverter_LCD.o (swprintf)
/usr/lib/gcc/arm-none-eabi/6.3.1/../../../arm-none-eabi/lib/thumb/v7-m/libc_nano.a(lib_a-wcscpy.o)
                              build/TextConverter_LCD.o (wcscpy)
/usr/lib/gcc/arm-none-eabi/6.3.1/../../../arm-none-eabi/lib/thumb/v7-m/libc_nano.a(lib_a-wcslen.o)
                              build/TextConverter_LCD.o (wcslen)
/usr/lib/gcc/arm-none-eabi/6.3.1/../../../arm-none-eabi/lib/thumb/v7-m/libc_nano.a(lib_a-wcsstr.o)
                              build/TextConverter_LCD.o (wcsstr)
/usr/lib/gcc/arm-none-eabi/6.3.1/../../../arm-none-eabi/lib/thumb/v7-m/libc_nano.a(lib_a-wmemcpy.o)
                              build/TextConverter_LCD.o (wmemcpy)
/usr/lib/gcc/arm-none-eabi/6.3.1/../../../arm-none-eabi/lib/thumb/v7-m/libc_nano.a(lib_a-__atexit.o)
                              /usr/lib/gcc/arm-none-eabi/6.3.1/../../../arm-none-eabi/lib/thumb/v7-m/libc_nano.a(lib_a-atexit.o) (__register_exitproc)
/usr/lib/gcc/arm-none-eabi/6.3.1/../../../arm-none-eabi/lib/thumb/v7-m/libc_nano.a(lib_a-__call_atexit.o)
                              /usr/lib/gcc/arm-none-eabi/6.3.1/../../../arm-none-eabi/lib/thumb/v7-m/libc_nano.a(lib_a-__atexit.o) (__call_exitprocs)
/usr/lib/gcc/arm-none-eabi/6.3.1/../../../arm-none-eabi/lib/thumb/v7-m/libc_nano.a(lib_a-findfp.o)
                              /usr/lib/gcc/arm-none-eabi/6.3.1/../../../arm-none-eabi/lib/thumb/v7-m/libc_nano.a(lib_a-printf.o) (__sinit)
/usr/lib/gcc/arm-none-eabi/6.3.1/../../../arm-none-eabi/lib/thumb/v7-m/libc_nano.a(lib_a-fwalk.o)
                              /usr/lib/gcc/arm-none-eabi/6.3.1/../../../arm-none-eabi/lib/thumb/v7-m/libc_nano.a(lib_a-findfp.o) (_fwalk)
/usr/lib/gcc/arm-none-eabi/6.3.1/../../../arm-none-eabi/lib/thumb/v7-m/libc_nano.a(lib_a-gdtoa-gethex.o)
                              /usr/lib/gcc/arm-none-eabi/6.3.1/../../../arm-none-eabi/lib/thumb/v7-m/libc_nano.a(lib_a-strtod.o) (__gethex)
/usr/lib/gcc/arm-none-eabi/6.3.1/../../../arm-none-eabi/lib/thumb/v7-m/libc_nano.a(lib_a-gdtoa-hexnan.o)
                              /usr/lib/gcc/arm-none-eabi/6.3.1/../../../arm-none-eabi/lib/thumb/v7-m/libc_nano.a(lib_a-strtod.o) (__match)
/usr/lib/gcc/arm-none-eabi/6.3.1/../../../arm-none-eabi/lib/thumb/v7-m/libc_nano.a(lib_a-locale.o)
                              /usr/lib/gcc/arm-none-eabi/6.3.1/../../../arm-none-eabi/lib/thumb/v7-m/libc_nano.a(lib_a-strtol.o) (__locale_ctype_ptr_l)
/usr/lib/gcc/arm-none-eabi/6.3.1/../../../arm-none-eabi/lib/thumb/v7-m/libc_nano.a(lib_a-localeconv.o)
                              /usr/lib/gcc/arm-none-eabi/6.3.1/../../../arm-none-eabi/lib/thumb/v7-m/libc_nano.a(lib_a-strtod.o) (__localeconv_l)
/usr/lib/gcc/arm-none-eabi/6.3.1/../../../arm-none-eabi/lib/thumb/v7-m/libc_nano.a(lib_a-mbtowc_r.o)
                              /usr/lib/gcc/arm-none-eabi/6.3.1/../../../arm-none-eabi/lib/thumb/v7-m/libc_nano.a(lib_a-locale.o) (__ascii_mbtowc)
/usr/lib/gcc/arm-none-eabi/6.3.1/../../../arm-none-eabi/lib/thumb/v7-m/libc_nano.a(lib_a-memcpy.o)
                              /usr/lib/gcc/arm-none-eabi/6.3.1/../../../arm-none-eabi/lib/thumb/v7-m/libc_nano.a(lib_a-strtod.o) (memcpy)
/usr/lib/gcc/arm-none-eabi/6.3.1/../../../arm-none-eabi/lib/thumb/v7-m/libc_nano.a(lib_a-mlock.o)
                              /usr/lib/gcc/arm-none-eabi/6.3.1/../../../arm-none-eabi/lib/thumb/v7-m/libc_nano.a(lib_a-nano-freer.o) (__malloc_lock)
/usr/lib/gcc/arm-none-eabi/6.3.1/../../../arm-none-eabi/lib/thumb/v7-m/libc_nano.a(lib_a-mprec.o)
                              /usr/lib/gcc/arm-none-eabi/6.3.1/../../../arm-none-eabi/lib/thumb/v7-m/libc_nano.a(lib_a-strtod.o) (_Balloc)
/usr/lib/gcc/arm-none-eabi/6.3.1/../../../arm-none-eabi/lib/thumb/v7-m/libc_nano.a(lib_a-nano-callocr.o)
                              /usr/lib/gcc/arm-none-eabi/6.3.1/../../../arm-none-eabi/lib/thumb/v7-m/libc_nano.a(lib_a-mprec.o) (_calloc_r)
/usr/lib/gcc/arm-none-eabi/6.3.1/../../../arm-none-eabi/lib/thumb/v7-m/libc_nano.a(lib_a-nano-svfprintf.o)
                              /usr/lib/gcc/arm-none-eabi/6.3.1/../../../arm-none-eabi/lib/thumb/v7-m/libc_nano.a(lib_a-sprintf.o) (_svfprintf_r)
/usr/lib/gcc/arm-none-eabi/6.3.1/../../../arm-none-eabi/lib/thumb/v7-m/libc_nano.a(lib_a-nano-vfprintf.o)
                              /usr/lib/gcc/arm-none-eabi/6.3.1/../../../arm-none-eabi/lib/thumb/v7-m/libc_nano.a(lib_a-printf.o) (_vfprintf_r)
/usr/lib/gcc/arm-none-eabi/6.3.1/../../../arm-none-eabi/lib/thumb/v7-m/libc_nano.a(lib_a-nano-vfprintf_i.o)
                              /usr/lib/gcc/arm-none-eabi/6.3.1/../../../arm-none-eabi/lib/thumb/v7-m/libc_nano.a(lib_a-nano-svfprintf.o) (_printf_i)
/usr/lib/gcc/arm-none-eabi/6.3.1/../../../arm-none-eabi/lib/thumb/v7-m/libc_nano.a(lib_a-reent.o)
                              /usr/lib/gcc/arm-none-eabi/6.3.1/../../../arm-none-eabi/lib/thumb/v7-m/libc_nano.a(lib_a-sbrkr.o) (errno)
/usr/lib/gcc/arm-none-eabi/6.3.1/../../../arm-none-eabi/lib/thumb/v7-m/libc_nano.a(lib_a-sf_nan.o)
                              /usr/lib/gcc/arm-none-eabi/6.3.1/../../../arm-none-eabi/lib/thumb/v7-m/libc_nano.a(lib_a-strtod.o) (nanf)
/usr/lib/gcc/arm-none-eabi/6.3.1/../../../arm-none-eabi/lib/thumb/v7-m/libc_nano.a(lib_a-stdio.o)
                              /usr/lib/gcc/arm-none-eabi/6.3.1/../../../arm-none-eabi/lib/thumb/v7-m/libc_nano.a(lib_a-findfp.o) (__sread)
/usr/lib/gcc/arm-none-eabi/6.3.1/../../../arm-none-eabi/lib/thumb/v7-m/libc_nano.a(lib_a-strcmp.o)
                              /usr/lib/gcc/arm-none-eabi/6.3.1/../../../arm-none-eabi/lib/thumb/v7-m/libc_nano.a(lib_a-locale.o) (strcmp)
/usr/lib/gcc/arm-none-eabi/6.3.1/../../../arm-none-eabi/lib/thumb/v7-m/libc_nano.a(lib_a-strlen-stub.o)
                              /usr/lib/gcc/arm-none-eabi/6.3.1/../../../arm-none-eabi/lib/thumb/v7-m/libc_nano.a(lib_a-strtod.o) (strlen)
/usr/lib/gcc/arm-none-eabi/6.3.1/../../../arm-none-eabi/lib/thumb/v7-m/libc_nano.a(lib_a-strncmp.o)
                              /usr/lib/gcc/arm-none-eabi/6.3.1/../../../arm-none-eabi/lib/thumb/v7-m/libc_nano.a(lib_a-strtod.o) (strncmp)
/usr/lib/gcc/arm-none-eabi/6.3.1/../../../arm-none-eabi/lib/thumb/v7-m/libc_nano.a(lib_a-svfwprintf.o)
                              /usr/lib/gcc/arm-none-eabi/6.3.1/../../../arm-none-eabi/lib/thumb/v7-m/libc_nano.a(lib_a-swprintf.o) (_svfwprintf_r)
/usr/lib/gcc/arm-none-eabi/6.3.1/../../../arm-none-eabi/lib/thumb/v7-m/libc_nano.a(lib_a-wbuf.o)
                              /usr/lib/gcc/arm-none-eabi/6.3.1/../../../arm-none-eabi/lib/thumb/v7-m/libc_nano.a(lib_a-nano-vfprintf.o) (__swbuf_r)
/usr/lib/gcc/arm-none-eabi/6.3.1/../../../arm-none-eabi/lib/thumb/v7-m/libc_nano.a(lib_a-wctomb_r.o)
                              /usr/lib/gcc/arm-none-eabi/6.3.1/../../../arm-none-eabi/lib/thumb/v7-m/libc_nano.a(lib_a-locale.o) (__ascii_wctomb)
/usr/lib/gcc/arm-none-eabi/6.3.1/../../../arm-none-eabi/lib/thumb/v7-m/libc_nano.a(lib_a-wmemchr.o)
                              /usr/lib/gcc/arm-none-eabi/6.3.1/../../../arm-none-eabi/lib/thumb/v7-m/libc_nano.a(lib_a-svfwprintf.o) (wmemchr)
/usr/lib/gcc/arm-none-eabi/6.3.1/../../../arm-none-eabi/lib/thumb/v7-m/libc_nano.a(lib_a-writer.o)
                              /usr/lib/gcc/arm-none-eabi/6.3.1/../../../arm-none-eabi/lib/thumb/v7-m/libc_nano.a(lib_a-stdio.o) (_write_r)
/usr/lib/gcc/arm-none-eabi/6.3.1/../../../arm-none-eabi/lib/thumb/v7-m/libc_nano.a(lib_a-wsetup.o)
                              /usr/lib/gcc/arm-none-eabi/6.3.1/../../../arm-none-eabi/lib/thumb/v7-m/libc_nano.a(lib_a-nano-vfprintf.o) (__swsetup_r)
/usr/lib/gcc/arm-none-eabi/6.3.1/../../../arm-none-eabi/lib/thumb/v7-m/libc_nano.a(lib_a-btowc.o)
                              /usr/lib/gcc/arm-none-eabi/6.3.1/../../../arm-none-eabi/lib/thumb/v7-m/libc_nano.a(lib_a-svfwprintf.o) (btowc)
/usr/lib/gcc/arm-none-eabi/6.3.1/../../../arm-none-eabi/lib/thumb/v7-m/libc_nano.a(lib_a-closer.o)
                              /usr/lib/gcc/arm-none-eabi/6.3.1/../../../arm-none-eabi/lib/thumb/v7-m/libc_nano.a(lib_a-stdio.o) (_close_r)
/usr/lib/gcc/arm-none-eabi/6.3.1/../../../arm-none-eabi/lib/thumb/v7-m/libc_nano.a(lib_a-ctype_.o)
                              /usr/lib/gcc/arm-none-eabi/6.3.1/../../../arm-none-eabi/lib/thumb/v7-m/libc_nano.a(lib_a-locale.o) (_ctype_)
/usr/lib/gcc/arm-none-eabi/6.3.1/../../../arm-none-eabi/lib/thumb/v7-m/libc_nano.a(lib_a-dtoa.o)
                              /usr/lib/gcc/arm-none-eabi/6.3.1/../../../arm-none-eabi/lib/thumb/v7-m/libc_nano.a(lib_a-svfwprintf.o) (_dtoa_r)
/usr/lib/gcc/arm-none-eabi/6.3.1/../../../arm-none-eabi/lib/thumb/v7-m/libc_nano.a(lib_a-fflush.o)
                              /usr/lib/gcc/arm-none-eabi/6.3.1/../../../arm-none-eabi/lib/thumb/v7-m/libc_nano.a(lib_a-findfp.o) (_fflush_r)
/usr/lib/gcc/arm-none-eabi/6.3.1/../../../arm-none-eabi/lib/thumb/v7-m/libc_nano.a(lib_a-fvwrite.o)
                              /usr/lib/gcc/arm-none-eabi/6.3.1/../../../arm-none-eabi/lib/thumb/v7-m/libc_nano.a(lib_a-nano-vfprintf.o) (__sfvwrite_r)
/usr/lib/gcc/arm-none-eabi/6.3.1/../../../arm-none-eabi/lib/thumb/v7-m/libc_nano.a(lib_a-lseekr.o)
                              /usr/lib/gcc/arm-none-eabi/6.3.1/../../../arm-none-eabi/lib/thumb/v7-m/libc_nano.a(lib_a-stdio.o) (_lseek_r)
/usr/lib/gcc/arm-none-eabi/6.3.1/../../../arm-none-eabi/lib/thumb/v7-m/libc_nano.a(lib_a-makebuf.o)
                              /usr/lib/gcc/arm-none-eabi/6.3.1/../../../arm-none-eabi/lib/thumb/v7-m/libc_nano.a(lib_a-wsetup.o) (__smakebuf_r)
/usr/lib/gcc/arm-none-eabi/6.3.1/../../../arm-none-eabi/lib/thumb/v7-m/libc_nano.a(lib_a-memchr-stub.o)
                              /usr/lib/gcc/arm-none-eabi/6.3.1/../../../arm-none-eabi/lib/thumb/v7-m/libc_nano.a(lib_a-nano-svfprintf.o) (memchr)
/usr/lib/gcc/arm-none-eabi/6.3.1/../../../arm-none-eabi/lib/thumb/v7-m/libc_nano.a(lib_a-memmove.o)
                              /usr/lib/gcc/arm-none-eabi/6.3.1/../../../arm-none-eabi/lib/thumb/v7-m/libc_nano.a(lib_a-nano-svfprintf.o) (memmove)
/usr/lib/gcc/arm-none-eabi/6.3.1/../../../arm-none-eabi/lib/thumb/v7-m/libc_nano.a(lib_a-nano-reallocr.o)
                              /usr/lib/gcc/arm-none-eabi/6.3.1/../../../arm-none-eabi/lib/thumb/v7-m/libc_nano.a(lib_a-nano-svfprintf.o) (_realloc_r)
/usr/lib/gcc/arm-none-eabi/6.3.1/../../../arm-none-eabi/lib/thumb/v7-m/libc_nano.a(lib_a-readr.o)
                              /usr/lib/gcc/arm-none-eabi/6.3.1/../../../arm-none-eabi/lib/thumb/v7-m/libc_nano.a(lib_a-stdio.o) (_read_r)
/usr/lib/gcc/arm-none-eabi/6.3.1/../../../arm-none-eabi/lib/thumb/v7-m/libc_nano.a(lib_a-fstatr.o)
                              /usr/lib/gcc/arm-none-eabi/6.3.1/../../../arm-none-eabi/lib/thumb/v7-m/libc_nano.a(lib_a-makebuf.o) (_fstat_r)
/usr/lib/gcc/arm-none-eabi/6.3.1/../../../arm-none-eabi/lib/thumb/v7-m/libc_nano.a(lib_a-isattyr.o)
                              /usr/lib/gcc/arm-none-eabi/6.3.1/../../../arm-none-eabi/lib/thumb/v7-m/libc_nano.a(lib_a-makebuf.o) (_isatty_r)
/usr/lib/gcc/arm-none-eabi/6.3.1/../../../arm-none-eabi/lib/thumb/v7-m/libc_nano.a(lib_a-nano-msizer.o)
                              /usr/lib/gcc/arm-none-eabi/6.3.1/../../../arm-none-eabi/lib/thumb/v7-m/libc_nano.a(lib_a-nano-reallocr.o) (_malloc_usable_size_r)
/usr/lib/gcc/arm-none-eabi/6.3.1/../../../arm-none-eabi/lib/thumb/v7-m/libm.a(lib_a-s_round.o)
                              build/TextConverter_LCD.o (round)
/usr/lib/gcc/arm-none-eabi/6.3.1/../../../arm-none-eabi/lib/thumb/v7-m/libm.a(lib_a-sf_lround.o)
                              build/Buffer_Gcode.o (lroundf)
/usr/lib/gcc/arm-none-eabi/6.3.1/../../../arm-none-eabi/lib/thumb/v7-m/libm.a(lib_a-w_pow.o)
                              build/Buffer_Gcode.o (pow)
/usr/lib/gcc/arm-none-eabi/6.3.1/../../../arm-none-eabi/lib/thumb/v7-m/libm.a(lib_a-w_sqrt.o)
                              build/Buffer_Gcode.o (sqrt)
/usr/lib/gcc/arm-none-eabi/6.3.1/../../../arm-none-eabi/lib/thumb/v7-m/libm.a(lib_a-wf_sqrt.o)
                              build/Buffer_Gcode.o (sqrtf)
/usr/lib/gcc/arm-none-eabi/6.3.1/../../../arm-none-eabi/lib/thumb/v7-m/libm.a(lib_a-e_pow.o)
                              /usr/lib/gcc/arm-none-eabi/6.3.1/../../../arm-none-eabi/lib/thumb/v7-m/libm.a(lib_a-w_pow.o) (__ieee754_pow)
/usr/lib/gcc/arm-none-eabi/6.3.1/../../../arm-none-eabi/lib/thumb/v7-m/libm.a(lib_a-e_sqrt.o)
                              /usr/lib/gcc/arm-none-eabi/6.3.1/../../../arm-none-eabi/lib/thumb/v7-m/libm.a(lib_a-w_sqrt.o) (__ieee754_sqrt)
/usr/lib/gcc/arm-none-eabi/6.3.1/../../../arm-none-eabi/lib/thumb/v7-m/libm.a(lib_a-ef_sqrt.o)
                              /usr/lib/gcc/arm-none-eabi/6.3.1/../../../arm-none-eabi/lib/thumb/v7-m/libm.a(lib_a-wf_sqrt.o) (__ieee754_sqrtf)
/usr/lib/gcc/arm-none-eabi/6.3.1/../../../arm-none-eabi/lib/thumb/v7-m/libm.a(lib_a-s_fabs.o)
                              /usr/lib/gcc/arm-none-eabi/6.3.1/../../../arm-none-eabi/lib/thumb/v7-m/libm.a(lib_a-e_pow.o) (fabs)
/usr/lib/gcc/arm-none-eabi/6.3.1/../../../arm-none-eabi/lib/thumb/v7-m/libm.a(lib_a-s_finite.o)
                              /usr/lib/gcc/arm-none-eabi/6.3.1/../../../arm-none-eabi/lib/thumb/v7-m/libm.a(lib_a-w_pow.o) (finite)
/usr/lib/gcc/arm-none-eabi/6.3.1/../../../arm-none-eabi/lib/thumb/v7-m/libm.a(lib_a-s_lib_ver.o)
                              /usr/lib/gcc/arm-none-eabi/6.3.1/../../../arm-none-eabi/lib/thumb/v7-m/libm.a(lib_a-w_pow.o) (__fdlib_version)
/usr/lib/gcc/arm-none-eabi/6.3.1/../../../arm-none-eabi/lib/thumb/v7-m/libm.a(lib_a-s_matherr.o)
                              /usr/lib/gcc/arm-none-eabi/6.3.1/../../../arm-none-eabi/lib/thumb/v7-m/libm.a(lib_a-w_pow.o) (matherr)
/usr/lib/gcc/arm-none-eabi/6.3.1/../../../arm-none-eabi/lib/thumb/v7-m/libm.a(lib_a-s_nan.o)
                              /usr/lib/gcc/arm-none-eabi/6.3.1/../../../arm-none-eabi/lib/thumb/v7-m/libm.a(lib_a-e_pow.o) (nan)
/usr/lib/gcc/arm-none-eabi/6.3.1/../../../arm-none-eabi/lib/thumb/v7-m/libm.a(lib_a-s_rint.o)
                              /usr/lib/gcc/arm-none-eabi/6.3.1/../../../arm-none-eabi/lib/thumb/v7-m/libm.a(lib_a-w_pow.o) (rint)
/usr/lib/gcc/arm-none-eabi/6.3.1/../../../arm-none-eabi/lib/thumb/v7-m/libm.a(lib_a-s_scalbn.o)
                              /usr/lib/gcc/arm-none-eabi/6.3.1/../../../arm-none-eabi/lib/thumb/v7-m/libm.a(lib_a-e_pow.o) (scalbn)
/usr/lib/gcc/arm-none-eabi/6.3.1/../../../arm-none-eabi/lib/thumb/v7-m/libnosys.a(close.o)
                              /usr/lib/gcc/arm-none-eabi/6.3.1/../../../arm-none-eabi/lib/thumb/v7-m/libc_nano.a(lib_a-closer.o) (_close)
/usr/lib/gcc/arm-none-eabi/6.3.1/../../../arm-none-eabi/lib/thumb/v7-m/libnosys.a(fstat.o)
                              /usr/lib/gcc/arm-none-eabi/6.3.1/../../../arm-none-eabi/lib/thumb/v7-m/libc_nano.a(lib_a-fstatr.o) (_fstat)
/usr/lib/gcc/arm-none-eabi/6.3.1/../../../arm-none-eabi/lib/thumb/v7-m/libnosys.a(isatty.o)
                              /usr/lib/gcc/arm-none-eabi/6.3.1/../../../arm-none-eabi/lib/thumb/v7-m/libc_nano.a(lib_a-isattyr.o) (_isatty)
/usr/lib/gcc/arm-none-eabi/6.3.1/../../../arm-none-eabi/lib/thumb/v7-m/libnosys.a(lseek.o)
                              /usr/lib/gcc/arm-none-eabi/6.3.1/../../../arm-none-eabi/lib/thumb/v7-m/libc_nano.a(lib_a-lseekr.o) (_lseek)
/usr/lib/gcc/arm-none-eabi/6.3.1/../../../arm-none-eabi/lib/thumb/v7-m/libnosys.a(read.o)
                              /usr/lib/gcc/arm-none-eabi/6.3.1/../../../arm-none-eabi/lib/thumb/v7-m/libc_nano.a(lib_a-readr.o) (_read)
/usr/lib/gcc/arm-none-eabi/6.3.1/../../../arm-none-eabi/lib/thumb/v7-m/libnosys.a(sbrk.o)
                              /usr/lib/gcc/arm-none-eabi/6.3.1/../../../arm-none-eabi/lib/thumb/v7-m/libc_nano.a(lib_a-sbrkr.o) (_sbrk)
/usr/lib/gcc/arm-none-eabi/6.3.1/../../../arm-none-eabi/lib/thumb/v7-m/libnosys.a(_exit.o)
                              /usr/lib/gcc/arm-none-eabi/6.3.1/../../../arm-none-eabi/lib/thumb/v7-m/libc_nano.a(lib_a-exit.o) (_exit)
/usr/lib/gcc/arm-none-eabi/6.3.1/thumb/v7-m/libgcc.a(_arm_addsubdf3.o)
                              build/Buffer_Gcode.o (__aeabi_dsub)
/usr/lib/gcc/arm-none-eabi/6.3.1/thumb/v7-m/libgcc.a(_arm_muldivdf3.o)
                              build/Buffer_Gcode.o (__aeabi_dmul)
/usr/lib/gcc/arm-none-eabi/6.3.1/thumb/v7-m/libgcc.a(_arm_cmpdf2.o)
                              /usr/lib/gcc/arm-none-eabi/6.3.1/../../../arm-none-eabi/lib/thumb/v7-m/libc_nano.a(lib_a-strtod.o) (__aeabi_dcmpeq)
/usr/lib/gcc/arm-none-eabi/6.3.1/thumb/v7-m/libgcc.a(_arm_unorddf2.o)
                              /usr/lib/gcc/arm-none-eabi/6.3.1/../../../arm-none-eabi/lib/thumb/v7-m/libc_nano.a(lib_a-strtod.o) (__aeabi_dcmpun)
/usr/lib/gcc/arm-none-eabi/6.3.1/thumb/v7-m/libgcc.a(_arm_fixdfsi.o)
                              build/TextConverter_LCD.o (__aeabi_d2iz)
/usr/lib/gcc/arm-none-eabi/6.3.1/thumb/v7-m/libgcc.a(_arm_fixunsdfsi.o)
                              /usr/lib/gcc/arm-none-eabi/6.3.1/../../../arm-none-eabi/lib/thumb/v7-m/libc_nano.a(lib_a-strtod.o) (__aeabi_d2uiz)
/usr/lib/gcc/arm-none-eabi/6.3.1/thumb/v7-m/libgcc.a(_arm_truncdfsf2.o)
                              build/Buffer_Gcode.o (__aeabi_d2f)
/usr/lib/gcc/arm-none-eabi/6.3.1/thumb/v7-m/libgcc.a(_arm_addsubsf3.o)
                              build/Buffer_Gcode.o (__aeabi_fsub)
/usr/lib/gcc/arm-none-eabi/6.3.1/thumb/v7-m/libgcc.a(_arm_muldivsf3.o)
                              build/Buffer_Gcode.o (__aeabi_fmul)
/usr/lib/gcc/arm-none-eabi/6.3.1/thumb/v7-m/libgcc.a(_arm_cmpsf2.o)
                              build/Buffer_Gcode.o (__aeabi_fcmplt)
/usr/lib/gcc/arm-none-eabi/6.3.1/thumb/v7-m/libgcc.a(_arm_unordsf2.o)
                              /usr/lib/gcc/arm-none-eabi/6.3.1/../../../arm-none-eabi/lib/thumb/v7-m/libc_nano.a(lib_a-strtod.o) (__aeabi_fcmpun)
/usr/lib/gcc/arm-none-eabi/6.3.1/thumb/v7-m/libgcc.a(_arm_fixsfsi.o)
                              build/TextConverter_LCD.o (__aeabi_f2iz)
/usr/lib/gcc/arm-none-eabi/6.3.1/thumb/v7-m/libgcc.a(_aeabi_uldivmod.o)
                              build/stm32f1xx_hal_rcc.o (__aeabi_uldivmod)
/usr/lib/gcc/arm-none-eabi/6.3.1/thumb/v7-m/libgcc.a(_fixdfdi.o)
                              /usr/lib/gcc/arm-none-eabi/6.3.1/../../../arm-none-eabi/lib/thumb/v7-m/libc_nano.a(lib_a-strtod.o) (__aeabi_d2lz)
/usr/lib/gcc/arm-none-eabi/6.3.1/thumb/v7-m/libgcc.a(_fixunsdfdi.o)
                              /usr/lib/gcc/arm-none-eabi/6.3.1/thumb/v7-m/libgcc.a(_fixdfdi.o) (__aeabi_d2ulz)
/usr/lib/gcc/arm-none-eabi/6.3.1/thumb/v7-m/libgcc.a(_udivmoddi4.o)
                              /usr/lib/gcc/arm-none-eabi/6.3.1/thumb/v7-m/libgcc.a(_aeabi_uldivmod.o) (__udivmoddi4)
/usr/lib/gcc/arm-none-eabi/6.3.1/thumb/v7-m/libgcc.a(_dvmd_tls.o)
                              /usr/lib/gcc/arm-none-eabi/6.3.1/thumb/v7-m/libgcc.a(_aeabi_uldivmod.o) (__aeabi_ldiv0)
/usr/lib/gcc/arm-none-eabi/6.3.1/../../../arm-none-eabi/lib/thumb/v7-m/libc_nano.a(lib_a-errno.o)
                              /usr/lib/gcc/arm-none-eabi/6.3.1/../../../arm-none-eabi/lib/thumb/v7-m/libm.a(lib_a-w_pow.o) (__errno)

Allocating common symbols
Common symbol       size              file

htim4               0x40              build/tim.o
errno               0x4               /usr/lib/gcc/arm-none-eabi/6.3.1/../../../arm-none-eabi/lib/thumb/v7-m/libc_nano.a(lib_a-reent.o)
USBHPath            0x4               build/fatfs.o
hUsbHostFS          0x3c8             build/usb_host.o
uwTick              0x4               build/stm32f1xx_hal.o
pFlash              0x20              build/stm32f1xx_hal_flash.o
htim5               0x40              build/tim.o
htim3               0x40              build/tim.o
USBHFile            0x102c            build/fatfs.o
htim2               0x40              build/tim.o
hhcd_USB_OTG_FS     0x284             build/usbh_conf.o
huart2              0x40              build/usart.o
USBHFatFS           0x1030            build/fatfs.o
retUSBH             0x1               build/fatfs.o

Discarded input sections

 .text          0x0000000000000000        0x0 /usr/lib/gcc/arm-none-eabi/6.3.1/thumb/v7-m/crti.o
 .data          0x0000000000000000        0x0 /usr/lib/gcc/arm-none-eabi/6.3.1/thumb/v7-m/crti.o
 .bss           0x0000000000000000        0x0 /usr/lib/gcc/arm-none-eabi/6.3.1/thumb/v7-m/crti.o
 .data          0x0000000000000000        0x4 /usr/lib/gcc/arm-none-eabi/6.3.1/thumb/v7-m/crtbegin.o
 .text          0x0000000000000000       0x68 /usr/lib/gcc/arm-none-eabi/6.3.1/../../../arm-none-eabi/lib/thumb/v7-m/crt0.o
 .data          0x0000000000000000        0x0 /usr/lib/gcc/arm-none-eabi/6.3.1/../../../arm-none-eabi/lib/thumb/v7-m/crt0.o
 .bss           0x0000000000000000        0x0 /usr/lib/gcc/arm-none-eabi/6.3.1/../../../arm-none-eabi/lib/thumb/v7-m/crt0.o
 .ARM.extab     0x0000000000000000        0x0 /usr/lib/gcc/arm-none-eabi/6.3.1/../../../arm-none-eabi/lib/thumb/v7-m/crt0.o
 .ARM.exidx     0x0000000000000000        0x8 /usr/lib/gcc/arm-none-eabi/6.3.1/../../../arm-none-eabi/lib/thumb/v7-m/crt0.o
 .debug_line    0x0000000000000000       0x81 /usr/lib/gcc/arm-none-eabi/6.3.1/../../../arm-none-eabi/lib/thumb/v7-m/crt0.o
 .debug_info    0x0000000000000000       0xaf /usr/lib/gcc/arm-none-eabi/6.3.1/../../../arm-none-eabi/lib/thumb/v7-m/crt0.o
 .debug_abbrev  0x0000000000000000       0x14 /usr/lib/gcc/arm-none-eabi/6.3.1/../../../arm-none-eabi/lib/thumb/v7-m/crt0.o
 .debug_aranges
                0x0000000000000000       0x20 /usr/lib/gcc/arm-none-eabi/6.3.1/../../../arm-none-eabi/lib/thumb/v7-m/crt0.o
 .ARM.attributes
                0x0000000000000000       0x1b /usr/lib/gcc/arm-none-eabi/6.3.1/../../../arm-none-eabi/lib/thumb/v7-m/crt0.o
 .text          0x0000000000000000        0x0 build/main.o
 .data          0x0000000000000000        0x0 build/main.o
 .bss           0x0000000000000000        0x0 build/main.o
 .text          0x0000000000000000        0x0 build/gpio.o
 .data          0x0000000000000000        0x0 build/gpio.o
 .bss           0x0000000000000000        0x0 build/gpio.o
 .text          0x0000000000000000        0x0 build/fatfs.o
 .data          0x0000000000000000        0x0 build/fatfs.o
 .bss           0x0000000000000000        0x0 build/fatfs.o
 .text          0x0000000000000000        0x0 build/sys.o
 .data          0x0000000000000000        0x0 build/sys.o
 .bss           0x0000000000000000        0x0 build/sys.o
 .text.MX_SYS_Init
                0x0000000000000000       0x14 build/sys.o
 .debug_info    0x0000000000000000      0xb17 build/sys.o
 .debug_abbrev  0x0000000000000000      0x1c4 build/sys.o
 .debug_aranges
                0x0000000000000000       0x20 build/sys.o
 .debug_ranges  0x0000000000000000       0x10 build/sys.o
 .debug_line    0x0000000000000000      0x19d build/sys.o
 .debug_str     0x0000000000000000      0x661 build/sys.o
 .comment       0x0000000000000000       0x80 build/sys.o
 .debug_frame   0x0000000000000000       0x20 build/sys.o
 .ARM.attributes
                0x0000000000000000       0x33 build/sys.o
 .text          0x0000000000000000        0x0 build/tim.o
 .data          0x0000000000000000        0x0 build/tim.o
 .bss           0x0000000000000000        0x0 build/tim.o
 .text.HAL_TIM_Base_MspDeInit
                0x0000000000000000       0x7c build/tim.o
 .text          0x0000000000000000        0x0 build/usart.o
 .data          0x0000000000000000        0x0 build/usart.o
 .bss           0x0000000000000000        0x0 build/usart.o
 .text.HAL_UART_MspDeInit
                0x0000000000000000       0x2c build/usart.o
 .text          0x0000000000000000        0x0 build/usb_host.o
 .data          0x0000000000000000        0x0 build/usb_host.o
 .bss           0x0000000000000000        0x0 build/usb_host.o
 .text          0x0000000000000000        0x0 build/usbh_conf.o
 .data          0x0000000000000000        0x0 build/usbh_conf.o
 .bss           0x0000000000000000        0x0 build/usbh_conf.o
 .text.HAL_HCD_MspDeInit
                0x0000000000000000       0x30 build/usbh_conf.o
 .text.USBH_LL_DeInit
                0x0000000000000000       0x10 build/usbh_conf.o
 .text          0x0000000000000000        0x0 build/usbh_platform.o
 .data          0x0000000000000000        0x0 build/usbh_platform.o
 .bss           0x0000000000000000        0x0 build/usbh_platform.o
 .text          0x0000000000000000        0x0 build/stm32f1xx_it.o
 .data          0x0000000000000000        0x0 build/stm32f1xx_it.o
 .bss           0x0000000000000000        0x0 build/stm32f1xx_it.o
 .text          0x0000000000000000        0x0 build/stm32f1xx_hal_msp.o
 .data          0x0000000000000000        0x0 build/stm32f1xx_hal_msp.o
 .bss           0x0000000000000000        0x0 build/stm32f1xx_hal_msp.o
 .text          0x0000000000000000        0x0 build/stm32f1xx_hal_gpio_ex.o
 .data          0x0000000000000000        0x0 build/stm32f1xx_hal_gpio_ex.o
 .bss           0x0000000000000000        0x0 build/stm32f1xx_hal_gpio_ex.o
 .text.HAL_GPIOEx_ConfigEventout
                0x0000000000000000       0x14 build/stm32f1xx_hal_gpio_ex.o
 .text.HAL_GPIOEx_EnableEventout
                0x0000000000000000       0x10 build/stm32f1xx_hal_gpio_ex.o
 .text.HAL_GPIOEx_DisableEventout
                0x0000000000000000       0x10 build/stm32f1xx_hal_gpio_ex.o
 .debug_info    0x0000000000000000      0xb46 build/stm32f1xx_hal_gpio_ex.o
 .debug_abbrev  0x0000000000000000      0x1e2 build/stm32f1xx_hal_gpio_ex.o
 .debug_loc     0x0000000000000000       0x21 build/stm32f1xx_hal_gpio_ex.o
 .debug_aranges
                0x0000000000000000       0x30 build/stm32f1xx_hal_gpio_ex.o
 .debug_ranges  0x0000000000000000       0x20 build/stm32f1xx_hal_gpio_ex.o
 .debug_line    0x0000000000000000      0x1f1 build/stm32f1xx_hal_gpio_ex.o
 .debug_str     0x0000000000000000      0x6eb build/stm32f1xx_hal_gpio_ex.o
 .comment       0x0000000000000000       0x80 build/stm32f1xx_hal_gpio_ex.o
 .debug_frame   0x0000000000000000       0x40 build/stm32f1xx_hal_gpio_ex.o
 .ARM.attributes
                0x0000000000000000       0x33 build/stm32f1xx_hal_gpio_ex.o
 .text          0x0000000000000000        0x0 build/stm32f1xx_hal_hcd.o
 .data          0x0000000000000000        0x0 build/stm32f1xx_hal_hcd.o
 .bss           0x0000000000000000        0x0 build/stm32f1xx_hal_hcd.o
 .text.HAL_HCD_MspInit
                0x0000000000000000        0x2 build/stm32f1xx_hal_hcd.o
 .text.HAL_HCD_MspDeInit
                0x0000000000000000        0x2 build/stm32f1xx_hal_hcd.o
 .text.HAL_HCD_DeInit
                0x0000000000000000       0x22 build/stm32f1xx_hal_hcd.o
 .text.HAL_HCD_SOF_Callback
                0x0000000000000000        0x2 build/stm32f1xx_hal_hcd.o
 .text.HAL_HCD_Connect_Callback
                0x0000000000000000        0x2 build/stm32f1xx_hal_hcd.o
 .text.HAL_HCD_Disconnect_Callback
                0x0000000000000000        0x2 build/stm32f1xx_hal_hcd.o
 .text.HAL_HCD_HC_NotifyURBChange_Callback
                0x0000000000000000        0x2 build/stm32f1xx_hal_hcd.o
 .text.HAL_HCD_GetState
                0x0000000000000000        0x6 build/stm32f1xx_hal_hcd.o
 .text.HAL_HCD_HC_GetState
                0x0000000000000000        0xe build/stm32f1xx_hal_hcd.o
 .text          0x0000000000000000        0x0 build/stm32f1xx_ll_usb.o
 .data          0x0000000000000000        0x0 build/stm32f1xx_ll_usb.o
 .bss           0x0000000000000000        0x0 build/stm32f1xx_ll_usb.o
 .text.USB_DevInit
                0x0000000000000000      0x118 build/stm32f1xx_ll_usb.o
 .text.USB_SetDevSpeed
                0x0000000000000000        0xe build/stm32f1xx_ll_usb.o
 .text.USB_GetDevSpeed
                0x0000000000000000       0x34 build/stm32f1xx_ll_usb.o
 .text.USB_ActivateEndpoint
                0x0000000000000000       0xa4 build/stm32f1xx_ll_usb.o
 .text.USB_DeactivateEndpoint
                0x0000000000000000       0x7e build/stm32f1xx_ll_usb.o
 .text.USB_EPStartXfer
                0x0000000000000000      0x234 build/stm32f1xx_ll_usb.o
 .text.USB_EP0StartXfer
                0x0000000000000000      0x13a build/stm32f1xx_ll_usb.o
 .text.USB_EPSetStall
                0x0000000000000000       0x64 build/stm32f1xx_ll_usb.o
 .text.USB_EPClearStall
                0x0000000000000000       0x6a build/stm32f1xx_ll_usb.o
 .text.USB_StopDevice
                0x0000000000000000       0x44 build/stm32f1xx_ll_usb.o
 .text.USB_SetDevAddress
                0x0000000000000000       0x20 build/stm32f1xx_ll_usb.o
 .text.USB_DevConnect
                0x0000000000000000       0x18 build/stm32f1xx_ll_usb.o
 .text.USB_DevDisconnect
                0x0000000000000000       0x18 build/stm32f1xx_ll_usb.o
 .text.USB_ReadDevAllOutEpInterrupt
                0x0000000000000000       0x10 build/stm32f1xx_ll_usb.o
 .text.USB_ReadDevAllInEpInterrupt
                0x0000000000000000       0x10 build/stm32f1xx_ll_usb.o
 .text.USB_ReadDevOutEPInterrupt
                0x0000000000000000       0x12 build/stm32f1xx_ll_usb.o
 .text.USB_ReadDevInEPInterrupt
                0x0000000000000000       0x22 build/stm32f1xx_ll_usb.o
 .text.USB_ClearInterrupts
                0x0000000000000000        0x8 build/stm32f1xx_ll_usb.o
 .text.USB_ActivateSetup
                0x0000000000000000       0x38 build/stm32f1xx_ll_usb.o
 .text.USB_EP0_OutStart
                0x0000000000000000       0x22 build/stm32f1xx_ll_usb.o
 .text.USB_DoPing
                0x0000000000000000       0x74 build/stm32f1xx_ll_usb.o
 .text.USB_ActivateRemoteWakeup
                0x0000000000000000       0x38 build/stm32f1xx_ll_usb.o
 .text.USB_DeActivateRemoteWakeup
                0x0000000000000000       0x28 build/stm32f1xx_ll_usb.o
 .text          0x0000000000000000        0x0 build/stm32f1xx_hal.o
 .data          0x0000000000000000        0x0 build/stm32f1xx_hal.o
 .bss           0x0000000000000000        0x0 build/stm32f1xx_hal.o
 .text.HAL_MspInit
                0x0000000000000000        0x2 build/stm32f1xx_hal.o
 .text.HAL_MspDeInit
                0x0000000000000000        0x2 build/stm32f1xx_hal.o
 .text.HAL_DeInit
                0x0000000000000000       0x24 build/stm32f1xx_hal.o
 .text.HAL_GetTickPrio
                0x0000000000000000        0xc build/stm32f1xx_hal.o
 .text.HAL_SetTickFreq
                0x0000000000000000       0x24 build/stm32f1xx_hal.o
 .text.HAL_GetTickFreq
                0x0000000000000000        0xc build/stm32f1xx_hal.o
 .text.HAL_SuspendTick
                0x0000000000000000       0x10 build/stm32f1xx_hal.o
 .text.HAL_ResumeTick
                0x0000000000000000       0x10 build/stm32f1xx_hal.o
 .text.HAL_GetHalVersion
                0x0000000000000000        0x8 build/stm32f1xx_hal.o
 .text.HAL_GetREVID
                0x0000000000000000        0xc build/stm32f1xx_hal.o
 .text.HAL_GetDEVID
                0x0000000000000000       0x10 build/stm32f1xx_hal.o
 .text.HAL_DBGMCU_EnableDBGSleepMode
                0x0000000000000000       0x10 build/stm32f1xx_hal.o
 .text.HAL_DBGMCU_DisableDBGSleepMode
                0x0000000000000000       0x10 build/stm32f1xx_hal.o
 .text.HAL_DBGMCU_EnableDBGStopMode
                0x0000000000000000       0x10 build/stm32f1xx_hal.o
 .text.HAL_DBGMCU_DisableDBGStopMode
                0x0000000000000000       0x10 build/stm32f1xx_hal.o
 .text.HAL_DBGMCU_EnableDBGStandbyMode
                0x0000000000000000       0x10 build/stm32f1xx_hal.o
 .text.HAL_DBGMCU_DisableDBGStandbyMode
                0x0000000000000000       0x10 build/stm32f1xx_hal.o
 .text.HAL_GetUID
                0x0000000000000000       0x20 build/stm32f1xx_hal.o
 .text          0x0000000000000000        0x0 build/stm32f1xx_hal_rcc.o
 .data          0x0000000000000000        0x0 build/stm32f1xx_hal_rcc.o
 .bss           0x0000000000000000        0x0 build/stm32f1xx_hal_rcc.o
 .text.HAL_RCC_DeInit
                0x0000000000000000      0x140 build/stm32f1xx_hal_rcc.o
 .text.HAL_RCC_MCOConfig
                0x0000000000000000       0x4c build/stm32f1xx_hal_rcc.o
 .text.HAL_RCC_EnableCSS
                0x0000000000000000        0xc build/stm32f1xx_hal_rcc.o
 .text.HAL_RCC_DisableCSS
                0x0000000000000000        0xc build/stm32f1xx_hal_rcc.o
 .text.HAL_RCC_GetOscConfig
                0x0000000000000000       0xe0 build/stm32f1xx_hal_rcc.o
 .text.HAL_RCC_GetClockConfig
                0x0000000000000000       0x3c build/stm32f1xx_hal_rcc.o
 .text.HAL_RCC_CSSCallback
                0x0000000000000000        0x2 build/stm32f1xx_hal_rcc.o
 .text.HAL_RCC_NMI_IRQHandler
                0x0000000000000000       0x24 build/stm32f1xx_hal_rcc.o
 .text          0x0000000000000000        0x0 build/stm32f1xx_hal_rcc_ex.o
 .data          0x0000000000000000        0x0 build/stm32f1xx_hal_rcc_ex.o
 .bss           0x0000000000000000        0x0 build/stm32f1xx_hal_rcc_ex.o
 .text.HAL_RCCEx_GetPeriphCLKConfig
                0x0000000000000000       0x44 build/stm32f1xx_hal_rcc_ex.o
 .text.HAL_RCCEx_GetPeriphCLKFreq
                0x0000000000000000      0x1c4 build/stm32f1xx_hal_rcc_ex.o
 .text.HAL_RCCEx_EnablePLLI2S
                0x0000000000000000       0xac build/stm32f1xx_hal_rcc_ex.o
 .text.HAL_RCCEx_DisablePLLI2S
                0x0000000000000000       0x50 build/stm32f1xx_hal_rcc_ex.o
 .text.HAL_RCCEx_EnablePLL2
                0x0000000000000000       0xb4 build/stm32f1xx_hal_rcc_ex.o
 .text.HAL_RCCEx_DisablePLL2
                0x0000000000000000       0x58 build/stm32f1xx_hal_rcc_ex.o
 .rodata        0x0000000000000000       0x20 build/stm32f1xx_hal_rcc_ex.o
 .text          0x0000000000000000        0x0 build/stm32f1xx_hal_gpio.o
 .data          0x0000000000000000        0x0 build/stm32f1xx_hal_gpio.o
 .bss           0x0000000000000000        0x0 build/stm32f1xx_hal_gpio.o
 .text.HAL_GPIO_DeInit
                0x0000000000000000       0xe0 build/stm32f1xx_hal_gpio.o
 .text.HAL_GPIO_TogglePin
                0x0000000000000000        0x8 build/stm32f1xx_hal_gpio.o
 .text.HAL_GPIO_LockPin
                0x0000000000000000       0x2e build/stm32f1xx_hal_gpio.o
 .text.HAL_GPIO_EXTI_Callback
                0x0000000000000000        0x2 build/stm32f1xx_hal_gpio.o
 .text.HAL_GPIO_EXTI_IRQHandler
                0x0000000000000000       0x1c build/stm32f1xx_hal_gpio.o
 .text          0x0000000000000000        0x0 build/stm32f1xx_hal_dma.o
 .data          0x0000000000000000        0x0 build/stm32f1xx_hal_dma.o
 .bss           0x0000000000000000        0x0 build/stm32f1xx_hal_dma.o
 .text.DMA_SetConfig
                0x0000000000000000       0x2c build/stm32f1xx_hal_dma.o
 .text.HAL_DMA_Init
                0x0000000000000000       0x98 build/stm32f1xx_hal_dma.o
 .text.HAL_DMA_DeInit
                0x0000000000000000       0x90 build/stm32f1xx_hal_dma.o
 .text.HAL_DMA_Start
                0x0000000000000000       0x50 build/stm32f1xx_hal_dma.o
 .text.HAL_DMA_Start_IT
                0x0000000000000000       0x74 build/stm32f1xx_hal_dma.o
 .text.HAL_DMA_Abort
                0x0000000000000000       0x2e build/stm32f1xx_hal_dma.o
 .text.HAL_DMA_Abort_IT
                0x0000000000000000      0x168 build/stm32f1xx_hal_dma.o
 .text.HAL_DMA_PollForTransfer
                0x0000000000000000      0x548 build/stm32f1xx_hal_dma.o
 .text.HAL_DMA_IRQHandler
                0x0000000000000000      0x2ec build/stm32f1xx_hal_dma.o
 .text.HAL_DMA_RegisterCallback
                0x0000000000000000       0x4e build/stm32f1xx_hal_dma.o
 .text.HAL_DMA_UnRegisterCallback
                0x0000000000000000       0x5c build/stm32f1xx_hal_dma.o
 .text.HAL_DMA_GetState
                0x0000000000000000        0x6 build/stm32f1xx_hal_dma.o
 .text.HAL_DMA_GetError
                0x0000000000000000        0x4 build/stm32f1xx_hal_dma.o
 .debug_info    0x0000000000000000     0x11b7 build/stm32f1xx_hal_dma.o
 .debug_abbrev  0x0000000000000000      0x2ff build/stm32f1xx_hal_dma.o
 .debug_loc     0x0000000000000000      0x8c3 build/stm32f1xx_hal_dma.o
 .debug_aranges
                0x0000000000000000       0x80 build/stm32f1xx_hal_dma.o
 .debug_ranges  0x0000000000000000       0x70 build/stm32f1xx_hal_dma.o
 .debug_line    0x0000000000000000      0x7e1 build/stm32f1xx_hal_dma.o
 .debug_str     0x0000000000000000      0xa91 build/stm32f1xx_hal_dma.o
 .comment       0x0000000000000000       0x80 build/stm32f1xx_hal_dma.o
 .debug_frame   0x0000000000000000      0x168 build/stm32f1xx_hal_dma.o
 .ARM.attributes
                0x0000000000000000       0x33 build/stm32f1xx_hal_dma.o
 .text          0x0000000000000000        0x0 build/stm32f1xx_hal_cortex.o
 .data          0x0000000000000000        0x0 build/stm32f1xx_hal_cortex.o
 .bss           0x0000000000000000        0x0 build/stm32f1xx_hal_cortex.o
 .text.HAL_NVIC_DisableIRQ
                0x0000000000000000       0x18 build/stm32f1xx_hal_cortex.o
 .text.HAL_NVIC_SystemReset
                0x0000000000000000       0x24 build/stm32f1xx_hal_cortex.o
 .text.HAL_NVIC_GetPriorityGrouping
                0x0000000000000000       0x10 build/stm32f1xx_hal_cortex.o
 .text.HAL_NVIC_GetPriority
                0x0000000000000000       0x60 build/stm32f1xx_hal_cortex.o
 .text.HAL_NVIC_SetPendingIRQ
                0x0000000000000000       0x18 build/stm32f1xx_hal_cortex.o
 .text.HAL_NVIC_GetPendingIRQ
                0x0000000000000000       0x1c build/stm32f1xx_hal_cortex.o
 .text.HAL_NVIC_ClearPendingIRQ
                0x0000000000000000       0x18 build/stm32f1xx_hal_cortex.o
 .text.HAL_NVIC_GetActive
                0x0000000000000000       0x1c build/stm32f1xx_hal_cortex.o
 .text.HAL_SYSTICK_CLKSourceConfig
                0x0000000000000000       0x20 build/stm32f1xx_hal_cortex.o
 .text.HAL_SYSTICK_Callback
                0x0000000000000000        0x2 build/stm32f1xx_hal_cortex.o
 .text.HAL_SYSTICK_IRQHandler
                0x0000000000000000        0x8 build/stm32f1xx_hal_cortex.o
 .text          0x0000000000000000        0x0 build/stm32f1xx_hal_pwr.o
 .data          0x0000000000000000        0x0 build/stm32f1xx_hal_pwr.o
 .bss           0x0000000000000000        0x0 build/stm32f1xx_hal_pwr.o
 .text.PWR_OverloadWfe
                0x0000000000000000        0x6 build/stm32f1xx_hal_pwr.o
 .text.HAL_PWR_DeInit
                0x0000000000000000       0x18 build/stm32f1xx_hal_pwr.o
 .text.HAL_PWR_EnableBkUpAccess
                0x0000000000000000        0xc build/stm32f1xx_hal_pwr.o
 .text.HAL_PWR_DisableBkUpAccess
                0x0000000000000000        0xc build/stm32f1xx_hal_pwr.o
 .text.HAL_PWR_ConfigPVD
                0x0000000000000000       0x84 build/stm32f1xx_hal_pwr.o
 .text.HAL_PWR_EnablePVD
                0x0000000000000000        0xc build/stm32f1xx_hal_pwr.o
 .text.HAL_PWR_DisablePVD
                0x0000000000000000        0xc build/stm32f1xx_hal_pwr.o
 .text.HAL_PWR_EnableWakeUpPin
                0x0000000000000000       0x18 build/stm32f1xx_hal_pwr.o
 .text.HAL_PWR_DisableWakeUpPin
                0x0000000000000000       0x18 build/stm32f1xx_hal_pwr.o
 .text.HAL_PWR_EnterSLEEPMode
                0x0000000000000000       0x20 build/stm32f1xx_hal_pwr.o
 .text.HAL_PWR_EnterSTOPMode
                0x0000000000000000       0x48 build/stm32f1xx_hal_pwr.o
 .text.HAL_PWR_EnterSTANDBYMode
                0x0000000000000000       0x20 build/stm32f1xx_hal_pwr.o
 .text.HAL_PWR_EnableSleepOnExit
                0x0000000000000000       0x10 build/stm32f1xx_hal_pwr.o
 .text.HAL_PWR_DisableSleepOnExit
                0x0000000000000000       0x10 build/stm32f1xx_hal_pwr.o
 .text.HAL_PWR_EnableSEVOnPend
                0x0000000000000000       0x10 build/stm32f1xx_hal_pwr.o
 .text.HAL_PWR_DisableSEVOnPend
                0x0000000000000000       0x10 build/stm32f1xx_hal_pwr.o
 .text.HAL_PWR_PVDCallback
                0x0000000000000000        0x2 build/stm32f1xx_hal_pwr.o
 .text.HAL_PWR_PVD_IRQHandler
                0x0000000000000000       0x20 build/stm32f1xx_hal_pwr.o
 .debug_info    0x0000000000000000     0x1154 build/stm32f1xx_hal_pwr.o
 .debug_abbrev  0x0000000000000000      0x2c2 build/stm32f1xx_hal_pwr.o
 .debug_loc     0x0000000000000000       0xf5 build/stm32f1xx_hal_pwr.o
 .debug_aranges
                0x0000000000000000       0xa8 build/stm32f1xx_hal_pwr.o
 .debug_ranges  0x0000000000000000       0x98 build/stm32f1xx_hal_pwr.o
 .debug_line    0x0000000000000000      0x38e build/stm32f1xx_hal_pwr.o
 .debug_str     0x0000000000000000      0x93d build/stm32f1xx_hal_pwr.o
 .comment       0x0000000000000000       0x80 build/stm32f1xx_hal_pwr.o
 .debug_frame   0x0000000000000000      0x148 build/stm32f1xx_hal_pwr.o
 .ARM.attributes
                0x0000000000000000       0x33 build/stm32f1xx_hal_pwr.o
 .text          0x0000000000000000        0x0 build/stm32f1xx_hal_flash.o
 .data          0x0000000000000000        0x0 build/stm32f1xx_hal_flash.o
 .bss           0x0000000000000000        0x0 build/stm32f1xx_hal_flash.o
 .text.FLASH_Program_HalfWord
                0x0000000000000000       0x1c build/stm32f1xx_hal_flash.o
 .text.FLASH_SetErrorCode
                0x0000000000000000       0x74 build/stm32f1xx_hal_flash.o
 .text.HAL_FLASH_Program_IT
                0x0000000000000000       0x64 build/stm32f1xx_hal_flash.o
 .text.HAL_FLASH_EndOfOperationCallback
                0x0000000000000000        0x2 build/stm32f1xx_hal_flash.o
 .text.HAL_FLASH_OperationErrorCallback
                0x0000000000000000        0x2 build/stm32f1xx_hal_flash.o
 .text.HAL_FLASH_IRQHandler
                0x0000000000000000      0x154 build/stm32f1xx_hal_flash.o
 .text.HAL_FLASH_Unlock
                0x0000000000000000       0x34 build/stm32f1xx_hal_flash.o
 .text.HAL_FLASH_Lock
                0x0000000000000000       0x14 build/stm32f1xx_hal_flash.o
 .text.HAL_FLASH_OB_Unlock
                0x0000000000000000       0x28 build/stm32f1xx_hal_flash.o
 .text.HAL_FLASH_OB_Lock
                0x0000000000000000       0x14 build/stm32f1xx_hal_flash.o
 .text.HAL_FLASH_OB_Launch
                0x0000000000000000        0x8 build/stm32f1xx_hal_flash.o
 .text.HAL_FLASH_GetError
                0x0000000000000000        0xc build/stm32f1xx_hal_flash.o
 .text.FLASH_WaitForLastOperation
                0x0000000000000000       0x6c build/stm32f1xx_hal_flash.o
 .text.HAL_FLASH_Program
                0x0000000000000000       0x9c build/stm32f1xx_hal_flash.o
 .debug_info    0x0000000000000000     0x1048 build/stm32f1xx_hal_flash.o
 .debug_abbrev  0x0000000000000000      0x333 build/stm32f1xx_hal_flash.o
 .debug_loc     0x0000000000000000      0x3d7 build/stm32f1xx_hal_flash.o
 .debug_aranges
                0x0000000000000000       0x88 build/stm32f1xx_hal_flash.o
 .debug_ranges  0x0000000000000000       0x78 build/stm32f1xx_hal_flash.o
 .debug_line    0x0000000000000000      0x412 build/stm32f1xx_hal_flash.o
 .debug_str     0x0000000000000000      0x9b1 build/stm32f1xx_hal_flash.o
 .comment       0x0000000000000000       0x80 build/stm32f1xx_hal_flash.o
 .debug_frame   0x0000000000000000      0x150 build/stm32f1xx_hal_flash.o
 .ARM.attributes
                0x0000000000000000       0x33 build/stm32f1xx_hal_flash.o
 COMMON         0x0000000000000000       0x20 build/stm32f1xx_hal_flash.o
 .text          0x0000000000000000        0x0 build/stm32f1xx_hal_flash_ex.o
 .data          0x0000000000000000        0x0 build/stm32f1xx_hal_flash_ex.o
 .bss           0x0000000000000000        0x0 build/stm32f1xx_hal_flash_ex.o
 .text.FLASH_MassErase
                0x0000000000000000       0x24 build/stm32f1xx_hal_flash_ex.o
 .text.FLASH_OB_GetWRP
                0x0000000000000000        0xc build/stm32f1xx_hal_flash_ex.o
 .text.FLASH_OB_GetRDP
                0x0000000000000000       0x18 build/stm32f1xx_hal_flash_ex.o
 .text.FLASH_OB_GetUser
                0x0000000000000000       0x10 build/stm32f1xx_hal_flash_ex.o
 .text.FLASH_OB_RDP_LevelConfig
                0x0000000000000000       0x70 build/stm32f1xx_hal_flash_ex.o
 .text.FLASH_OB_UserConfig
                0x0000000000000000       0x4c build/stm32f1xx_hal_flash_ex.o
 .text.FLASH_OB_ProgramData
                0x0000000000000000       0x48 build/stm32f1xx_hal_flash_ex.o
 .text.HAL_FLASHEx_OBErase
                0x0000000000000000       0x58 build/stm32f1xx_hal_flash_ex.o
 .text.FLASH_OB_EnableWRP
                0x0000000000000000       0xc0 build/stm32f1xx_hal_flash_ex.o
 .text.FLASH_OB_DisableWRP
                0x0000000000000000       0xc0 build/stm32f1xx_hal_flash_ex.o
 .text.HAL_FLASHEx_OBProgram
                0x0000000000000000       0xa8 build/stm32f1xx_hal_flash_ex.o
 .text.HAL_FLASHEx_OBGetConfig
                0x0000000000000000       0x1c build/stm32f1xx_hal_flash_ex.o
 .text.HAL_FLASHEx_OBGetUserData
                0x0000000000000000       0x24 build/stm32f1xx_hal_flash_ex.o
 .text.FLASH_PageErase
                0x0000000000000000       0x24 build/stm32f1xx_hal_flash_ex.o
 .text.HAL_FLASHEx_Erase
                0x0000000000000000       0xa4 build/stm32f1xx_hal_flash_ex.o
 .text.HAL_FLASHEx_Erase_IT
                0x0000000000000000       0x5c build/stm32f1xx_hal_flash_ex.o
 .debug_info    0x0000000000000000     0x1464 build/stm32f1xx_hal_flash_ex.o
 .debug_abbrev  0x0000000000000000      0x32a build/stm32f1xx_hal_flash_ex.o
 .debug_loc     0x0000000000000000      0x9b1 build/stm32f1xx_hal_flash_ex.o
 .debug_aranges
                0x0000000000000000       0x98 build/stm32f1xx_hal_flash_ex.o
 .debug_ranges  0x0000000000000000       0x88 build/stm32f1xx_hal_flash_ex.o
 .debug_line    0x0000000000000000      0x49a build/stm32f1xx_hal_flash_ex.o
 .debug_str     0x0000000000000000      0xac7 build/stm32f1xx_hal_flash_ex.o
 .comment       0x0000000000000000       0x80 build/stm32f1xx_hal_flash_ex.o
 .debug_frame   0x0000000000000000      0x1c8 build/stm32f1xx_hal_flash_ex.o
 .ARM.attributes
                0x0000000000000000       0x33 build/stm32f1xx_hal_flash_ex.o
 .text          0x0000000000000000        0x0 build/stm32f1xx_hal_tim.o
 .data          0x0000000000000000        0x0 build/stm32f1xx_hal_tim.o
 .bss           0x0000000000000000        0x0 build/stm32f1xx_hal_tim.o
 .text.TIM_OC1_SetConfig
                0x0000000000000000       0x5c build/stm32f1xx_hal_tim.o
 .text.TIM_OC3_SetConfig
                0x0000000000000000       0x64 build/stm32f1xx_hal_tim.o
 .text.TIM_OC4_SetConfig
                0x0000000000000000       0x48 build/stm32f1xx_hal_tim.o
 .text.TIM_TI2_SetConfig
                0x0000000000000000       0x34 build/stm32f1xx_hal_tim.o
 .text.TIM_TI3_SetConfig
                0x0000000000000000       0x32 build/stm32f1xx_hal_tim.o
 .text.TIM_TI4_SetConfig
                0x0000000000000000       0x34 build/stm32f1xx_hal_tim.o
 .text.TIM_SlaveTimer_SetConfig
                0x0000000000000000       0x74 build/stm32f1xx_hal_tim.o
 .text.HAL_TIM_Base_MspInit
                0x0000000000000000        0x2 build/stm32f1xx_hal_tim.o
 .text.HAL_TIM_Base_MspDeInit
                0x0000000000000000        0x2 build/stm32f1xx_hal_tim.o
 .text.HAL_TIM_Base_DeInit
                0x0000000000000000       0x3a build/stm32f1xx_hal_tim.o
 .text.HAL_TIM_Base_Start
                0x0000000000000000       0x1a build/stm32f1xx_hal_tim.o
 .text.HAL_TIM_Base_Stop
                0x0000000000000000       0x2e build/stm32f1xx_hal_tim.o
 .text.HAL_TIM_Base_Stop_IT
                0x0000000000000000       0x2c build/stm32f1xx_hal_tim.o
 .text.HAL_TIM_Base_Start_DMA
                0x0000000000000000       0x64 build/stm32f1xx_hal_tim.o
 .text.HAL_TIM_Base_Stop_DMA
                0x0000000000000000       0x32 build/stm32f1xx_hal_tim.o
 .text.HAL_TIM_OC_MspInit
                0x0000000000000000        0x2 build/stm32f1xx_hal_tim.o
 .text.HAL_TIM_OC_MspDeInit
                0x0000000000000000        0x2 build/stm32f1xx_hal_tim.o
 .text.HAL_TIM_OC_DeInit
                0x0000000000000000       0x3a build/stm32f1xx_hal_tim.o
 .text.HAL_TIM_PWM_MspInit
                0x0000000000000000        0x2 build/stm32f1xx_hal_tim.o
 .text.HAL_TIM_PWM_MspDeInit
                0x0000000000000000        0x2 build/stm32f1xx_hal_tim.o
 .text.HAL_TIM_PWM_DeInit
                0x0000000000000000       0x3a build/stm32f1xx_hal_tim.o
 .text.HAL_TIM_IC_MspInit
                0x0000000000000000        0x2 build/stm32f1xx_hal_tim.o
 .text.HAL_TIM_IC_MspDeInit
                0x0000000000000000        0x2 build/stm32f1xx_hal_tim.o
 .text.HAL_TIM_IC_DeInit
                0x0000000000000000       0x3a build/stm32f1xx_hal_tim.o
 .text.HAL_TIM_OnePulse_MspInit
                0x0000000000000000        0x2 build/stm32f1xx_hal_tim.o
 .text.HAL_TIM_OnePulse_MspDeInit
                0x0000000000000000        0x2 build/stm32f1xx_hal_tim.o
 .text.HAL_TIM_OnePulse_DeInit
                0x0000000000000000       0x3a build/stm32f1xx_hal_tim.o
 .text.HAL_TIM_Encoder_MspInit
                0x0000000000000000        0x2 build/stm32f1xx_hal_tim.o
 .text.HAL_TIM_Encoder_MspDeInit
                0x0000000000000000        0x2 build/stm32f1xx_hal_tim.o
 .text.HAL_TIM_Encoder_DeInit
                0x0000000000000000       0x3a build/stm32f1xx_hal_tim.o
 .text.HAL_TIM_DMABurst_WriteStart
                0x0000000000000000      0x168 build/stm32f1xx_hal_tim.o
 .text.HAL_TIM_DMABurst_WriteStop
                0x0000000000000000       0x76 build/stm32f1xx_hal_tim.o
 .text.HAL_TIM_DMABurst_ReadStart
                0x0000000000000000      0x168 build/stm32f1xx_hal_tim.o
 .text.HAL_TIM_DMABurst_ReadStop
                0x0000000000000000       0x76 build/stm32f1xx_hal_tim.o
 .text.HAL_TIM_GenerateEvent
                0x0000000000000000       0x26 build/stm32f1xx_hal_tim.o
 .text.HAL_TIM_ConfigOCrefClear
                0x0000000000000000       0xd0 build/stm32f1xx_hal_tim.o
 .text.HAL_TIM_ConfigTI1Input
                0x0000000000000000       0x10 build/stm32f1xx_hal_tim.o
 .text.HAL_TIM_SlaveConfigSynchronization
                0x0000000000000000       0x40 build/stm32f1xx_hal_tim.o
 .text.HAL_TIM_SlaveConfigSynchronization_IT
                0x0000000000000000       0x40 build/stm32f1xx_hal_tim.o
 .text.HAL_TIM_ReadCapturedValue
                0x0000000000000000       0x4c build/stm32f1xx_hal_tim.o
 .text.TIM_DMAPeriodElapsedCplt
                0x0000000000000000       0x10 build/stm32f1xx_hal_tim.o
 .text.TIM_DMACaptureCplt
                0x0000000000000000       0x44 build/stm32f1xx_hal_tim.o
 .text.TIM_DMADelayPulseCplt
                0x0000000000000000       0x44 build/stm32f1xx_hal_tim.o
 .text.TIM_DMATriggerCplt
                0x0000000000000000       0x10 build/stm32f1xx_hal_tim.o
 .text.HAL_TIM_ErrorCallback
                0x0000000000000000        0x2 build/stm32f1xx_hal_tim.o
 .text.TIM_DMAError
                0x0000000000000000       0x10 build/stm32f1xx_hal_tim.o
 .text.HAL_TIM_Base_GetState
                0x0000000000000000        0x6 build/stm32f1xx_hal_tim.o
 .text.HAL_TIM_OC_GetState
                0x0000000000000000        0x6 build/stm32f1xx_hal_tim.o
 .text.HAL_TIM_PWM_GetState
                0x0000000000000000        0x6 build/stm32f1xx_hal_tim.o
 .text.HAL_TIM_IC_GetState
                0x0000000000000000        0x6 build/stm32f1xx_hal_tim.o
 .text.HAL_TIM_OnePulse_GetState
                0x0000000000000000        0x6 build/stm32f1xx_hal_tim.o
 .text.HAL_TIM_Encoder_GetState
                0x0000000000000000        0x6 build/stm32f1xx_hal_tim.o
 .text.HAL_TIM_OC_Init
                0x0000000000000000       0x32 build/stm32f1xx_hal_tim.o
 .text.HAL_TIM_PWM_Init
                0x0000000000000000       0x32 build/stm32f1xx_hal_tim.o
 .text.HAL_TIM_IC_Init
                0x0000000000000000       0x32 build/stm32f1xx_hal_tim.o
 .text.HAL_TIM_OnePulse_Init
                0x0000000000000000       0x46 build/stm32f1xx_hal_tim.o
 .text.HAL_TIM_Encoder_Init
                0x0000000000000000       0x98 build/stm32f1xx_hal_tim.o
 .text.TIM_OC2_SetConfig
                0x0000000000000000       0x64 build/stm32f1xx_hal_tim.o
 .text.HAL_TIM_OC_ConfigChannel
                0x0000000000000000       0x5e build/stm32f1xx_hal_tim.o
 .text.HAL_TIM_PWM_ConfigChannel
                0x0000000000000000       0xdc build/stm32f1xx_hal_tim.o
 .text.TIM_TI1_SetConfig
                0x0000000000000000       0x60 build/stm32f1xx_hal_tim.o
 .text.HAL_TIM_IC_ConfigChannel
                0x0000000000000000       0xc0 build/stm32f1xx_hal_tim.o
 .text.HAL_TIM_OnePulse_ConfigChannel
                0x0000000000000000       0xf2 build/stm32f1xx_hal_tim.o
 .text.TIM_CCxChannelCmd
                0x0000000000000000       0x1c build/stm32f1xx_hal_tim.o
 .text.HAL_TIM_OC_Start
                0x0000000000000000       0x30 build/stm32f1xx_hal_tim.o
 .text.HAL_TIM_OC_Stop
                0x0000000000000000       0x58 build/stm32f1xx_hal_tim.o
 .text.HAL_TIM_OC_Start_IT
                0x0000000000000000       0x74 build/stm32f1xx_hal_tim.o
 .text.HAL_TIM_OC_Stop_IT
                0x0000000000000000       0x9c build/stm32f1xx_hal_tim.o
 .text.HAL_TIM_OC_Start_DMA
                0x0000000000000000      0x10c build/stm32f1xx_hal_tim.o
 .text.HAL_TIM_OC_Stop_DMA
                0x0000000000000000       0xa4 build/stm32f1xx_hal_tim.o
 .text.HAL_TIM_PWM_Start
                0x0000000000000000       0x30 build/stm32f1xx_hal_tim.o
 .text.HAL_TIM_PWM_Stop
                0x0000000000000000       0x60 build/stm32f1xx_hal_tim.o
 .text.HAL_TIM_PWM_Start_IT
                0x0000000000000000       0x74 build/stm32f1xx_hal_tim.o
 .text.HAL_TIM_PWM_Stop_IT
                0x0000000000000000       0x9c build/stm32f1xx_hal_tim.o
 .text.HAL_TIM_PWM_Start_DMA
                0x0000000000000000      0x10c build/stm32f1xx_hal_tim.o
 .text.HAL_TIM_PWM_Stop_DMA
                0x0000000000000000       0xa4 build/stm32f1xx_hal_tim.o
 .text.HAL_TIM_IC_Start
                0x0000000000000000       0x1a build/stm32f1xx_hal_tim.o
 .text.HAL_TIM_IC_Stop
                0x0000000000000000       0x2e build/stm32f1xx_hal_tim.o
 .text.HAL_TIM_IC_Start_IT
                0x0000000000000000       0x5e build/stm32f1xx_hal_tim.o
 .text.HAL_TIM_IC_Stop_IT
                0x0000000000000000       0x72 build/stm32f1xx_hal_tim.o
 .text.HAL_TIM_IC_Start_DMA
                0x0000000000000000       0xec build/stm32f1xx_hal_tim.o
 .text.HAL_TIM_IC_Stop_DMA
                0x0000000000000000       0x78 build/stm32f1xx_hal_tim.o
 .text.HAL_TIM_OnePulse_Start
                0x0000000000000000       0x34 build/stm32f1xx_hal_tim.o
 .text.HAL_TIM_OnePulse_Stop
                0x0000000000000000       0x64 build/stm32f1xx_hal_tim.o
 .text.HAL_TIM_OnePulse_Start_IT
                0x0000000000000000       0x48 build/stm32f1xx_hal_tim.o
 .text.HAL_TIM_OnePulse_Stop_IT
                0x0000000000000000       0x78 build/stm32f1xx_hal_tim.o
 .text.HAL_TIM_Encoder_Start
                0x0000000000000000       0x44 build/stm32f1xx_hal_tim.o
 .text.HAL_TIM_Encoder_Stop
                0x0000000000000000       0x58 build/stm32f1xx_hal_tim.o
 .text.HAL_TIM_Encoder_Start_IT
                0x0000000000000000       0x6c build/stm32f1xx_hal_tim.o
 .text.HAL_TIM_Encoder_Stop_IT
                0x0000000000000000       0x86 build/stm32f1xx_hal_tim.o
 .text.HAL_TIM_Encoder_Start_DMA
                0x0000000000000000      0x134 build/stm32f1xx_hal_tim.o
 .text.HAL_TIM_Encoder_Stop_DMA
                0x0000000000000000       0x86 build/stm32f1xx_hal_tim.o
 .text          0x0000000000000000        0x0 build/stm32f1xx_hal_tim_ex.o
 .data          0x0000000000000000        0x0 build/stm32f1xx_hal_tim_ex.o
 .bss           0x0000000000000000        0x0 build/stm32f1xx_hal_tim_ex.o
 .text.TIM_CCxNChannelCmd
                0x0000000000000000       0x1c build/stm32f1xx_hal_tim_ex.o
 .text.HAL_TIMEx_HallSensor_MspInit
                0x0000000000000000        0x2 build/stm32f1xx_hal_tim_ex.o
 .text.HAL_TIMEx_HallSensor_Init
                0x0000000000000000       0xbe build/stm32f1xx_hal_tim_ex.o
 .text.HAL_TIMEx_HallSensor_MspDeInit
                0x0000000000000000        0x2 build/stm32f1xx_hal_tim_ex.o
 .text.HAL_TIMEx_HallSensor_DeInit
                0x0000000000000000       0x3a build/stm32f1xx_hal_tim_ex.o
 .text.HAL_TIMEx_HallSensor_Start
                0x0000000000000000       0x1c build/stm32f1xx_hal_tim_ex.o
 .text.HAL_TIMEx_HallSensor_Stop
                0x0000000000000000       0x30 build/stm32f1xx_hal_tim_ex.o
 .text.HAL_TIMEx_HallSensor_Start_IT
                0x0000000000000000       0x26 build/stm32f1xx_hal_tim_ex.o
 .text.HAL_TIMEx_HallSensor_Stop_IT
                0x0000000000000000       0x3a build/stm32f1xx_hal_tim_ex.o
 .text.HAL_TIMEx_HallSensor_Start_DMA
                0x0000000000000000       0x74 build/stm32f1xx_hal_tim_ex.o
 .text.HAL_TIMEx_HallSensor_Stop_DMA
                0x0000000000000000       0x3a build/stm32f1xx_hal_tim_ex.o
 .text.HAL_TIMEx_OCN_Start
                0x0000000000000000       0x24 build/stm32f1xx_hal_tim_ex.o
 .text.HAL_TIMEx_OCN_Stop
                0x0000000000000000       0x4c build/stm32f1xx_hal_tim_ex.o
 .text.HAL_TIMEx_OCN_Start_IT
                0x0000000000000000       0x5c build/stm32f1xx_hal_tim_ex.o
 .text.HAL_TIMEx_OCN_Stop_IT
                0x0000000000000000       0x90 build/stm32f1xx_hal_tim_ex.o
 .text.HAL_TIMEx_OCN_Start_DMA
                0x0000000000000000       0xd4 build/stm32f1xx_hal_tim_ex.o
 .text.HAL_TIMEx_OCN_Stop_DMA
                0x0000000000000000       0x80 build/stm32f1xx_hal_tim_ex.o
 .text.HAL_TIMEx_PWMN_Start
                0x0000000000000000       0x24 build/stm32f1xx_hal_tim_ex.o
 .text.HAL_TIMEx_PWMN_Stop
                0x0000000000000000       0x4c build/stm32f1xx_hal_tim_ex.o
 .text.HAL_TIMEx_PWMN_Start_IT
                0x0000000000000000       0x5c build/stm32f1xx_hal_tim_ex.o
 .text.HAL_TIMEx_PWMN_Stop_IT
                0x0000000000000000       0x90 build/stm32f1xx_hal_tim_ex.o
 .text.HAL_TIMEx_PWMN_Start_DMA
                0x0000000000000000       0xd4 build/stm32f1xx_hal_tim_ex.o
 .text.HAL_TIMEx_PWMN_Stop_DMA
                0x0000000000000000       0x80 build/stm32f1xx_hal_tim_ex.o
 .text.HAL_TIMEx_OnePulseN_Start
                0x0000000000000000       0x1a build/stm32f1xx_hal_tim_ex.o
 .text.HAL_TIMEx_OnePulseN_Stop
                0x0000000000000000       0x4c build/stm32f1xx_hal_tim_ex.o
 .text.HAL_TIMEx_OnePulseN_Start_IT
                0x0000000000000000       0x2e build/stm32f1xx_hal_tim_ex.o
 .text.HAL_TIMEx_OnePulseN_Stop_IT
                0x0000000000000000       0x60 build/stm32f1xx_hal_tim_ex.o
 .text.HAL_TIMEx_ConfigCommutationEvent
                0x0000000000000000       0x5c build/stm32f1xx_hal_tim_ex.o
 .text.HAL_TIMEx_ConfigCommutationEvent_IT
                0x0000000000000000       0x66 build/stm32f1xx_hal_tim_ex.o
 .text.HAL_TIMEx_ConfigCommutationEvent_DMA
                0x0000000000000000       0x7c build/stm32f1xx_hal_tim_ex.o
 .text.HAL_TIMEx_ConfigBreakDeadTime
                0x0000000000000000       0x58 build/stm32f1xx_hal_tim_ex.o
 .text.TIMEx_DMACommutationCplt
                0x0000000000000000       0x10 build/stm32f1xx_hal_tim_ex.o
 .text.HAL_TIMEx_HallSensor_GetState
                0x0000000000000000        0x6 build/stm32f1xx_hal_tim_ex.o
 .text          0x0000000000000000        0x0 build/stm32f1xx_hal_uart.o
 .data          0x0000000000000000        0x0 build/stm32f1xx_hal_uart.o
 .bss           0x0000000000000000        0x0 build/stm32f1xx_hal_uart.o
 .text.UART_EndTxTransfer
                0x0000000000000000       0x12 build/stm32f1xx_hal_uart.o
 .text.UART_EndRxTransfer
                0x0000000000000000       0x1c build/stm32f1xx_hal_uart.o
 .text.UART_Transmit_IT
                0x0000000000000000       0x68 build/stm32f1xx_hal_uart.o
 .text.HAL_UART_MspInit
                0x0000000000000000        0x2 build/stm32f1xx_hal_uart.o
 .text.HAL_HalfDuplex_Init
                0x0000000000000000       0x6a build/stm32f1xx_hal_uart.o
 .text.HAL_LIN_Init
                0x0000000000000000       0x78 build/stm32f1xx_hal_uart.o
 .text.HAL_MultiProcessor_Init
                0x0000000000000000       0x7e build/stm32f1xx_hal_uart.o
 .text.HAL_UART_MspDeInit
                0x0000000000000000        0x2 build/stm32f1xx_hal_uart.o
 .text.HAL_UART_DeInit
                0x0000000000000000       0x26 build/stm32f1xx_hal_uart.o
 .text.HAL_UART_Receive
                0x0000000000000000       0xe4 build/stm32f1xx_hal_uart.o
 .text.HAL_UART_Transmit_IT
                0x0000000000000000       0x48 build/stm32f1xx_hal_uart.o
 .text.HAL_UART_Receive_IT
                0x0000000000000000       0x5c build/stm32f1xx_hal_uart.o
 .text.HAL_UART_Transmit_DMA
                0x0000000000000000       0x8c build/stm32f1xx_hal_uart.o
 .text.HAL_UART_Receive_DMA
                0x0000000000000000       0xa8 build/stm32f1xx_hal_uart.o
 .text.HAL_UART_DMAPause
                0x0000000000000000       0x70 build/stm32f1xx_hal_uart.o
 .text.HAL_UART_DMAResume
                0x0000000000000000       0x76 build/stm32f1xx_hal_uart.o
 .text.HAL_UART_DMAStop
                0x0000000000000000       0x64 build/stm32f1xx_hal_uart.o
 .text.HAL_UART_Abort
                0x0000000000000000       0x6c build/stm32f1xx_hal_uart.o
 .text.HAL_UART_AbortTransmit
                0x0000000000000000       0x3a build/stm32f1xx_hal_uart.o
 .text.HAL_UART_AbortReceive
                0x0000000000000000       0x44 build/stm32f1xx_hal_uart.o
 .text.HAL_UART_TxCpltCallback
                0x0000000000000000        0x2 build/stm32f1xx_hal_uart.o
 .text.UART_DMATransmitCplt
                0x0000000000000000       0x30 build/stm32f1xx_hal_uart.o
 .text.UART_EndTransmit_IT
                0x0000000000000000       0x1a build/stm32f1xx_hal_uart.o
 .text.HAL_UART_TxHalfCpltCallback
                0x0000000000000000        0x2 build/stm32f1xx_hal_uart.o
 .text.UART_DMATxHalfCplt
                0x0000000000000000        0xa build/stm32f1xx_hal_uart.o
 .text.HAL_UART_RxCpltCallback
                0x0000000000000000        0x2 build/stm32f1xx_hal_uart.o
 .text.UART_DMAReceiveCplt
                0x0000000000000000       0x3e build/stm32f1xx_hal_uart.o
 .text.UART_Receive_IT
                0x0000000000000000       0x9c build/stm32f1xx_hal_uart.o
 .text.HAL_UART_RxHalfCpltCallback
                0x0000000000000000        0x2 build/stm32f1xx_hal_uart.o
 .text.UART_DMARxHalfCplt
                0x0000000000000000        0xa build/stm32f1xx_hal_uart.o
 .text.HAL_UART_ErrorCallback
                0x0000000000000000        0x2 build/stm32f1xx_hal_uart.o
 .text.UART_DMAError
                0x0000000000000000       0x58 build/stm32f1xx_hal_uart.o
 .text.HAL_UART_IRQHandler
                0x0000000000000000      0x120 build/stm32f1xx_hal_uart.o
 .text.UART_DMAAbortOnError
                0x0000000000000000       0x10 build/stm32f1xx_hal_uart.o
 .text.HAL_UART_AbortCpltCallback
                0x0000000000000000        0x2 build/stm32f1xx_hal_uart.o
 .text.HAL_UART_Abort_IT
                0x0000000000000000       0xc4 build/stm32f1xx_hal_uart.o
 .text.UART_DMARxAbortCallback
                0x0000000000000000       0x2c build/stm32f1xx_hal_uart.o
 .text.UART_DMATxAbortCallback
                0x0000000000000000       0x2c build/stm32f1xx_hal_uart.o
 .text.HAL_UART_AbortTransmitCpltCallback
                0x0000000000000000        0x2 build/stm32f1xx_hal_uart.o
 .text.HAL_UART_AbortTransmit_IT
                0x0000000000000000       0x60 build/stm32f1xx_hal_uart.o
 .text.UART_DMATxOnlyAbortCallback
                0x0000000000000000       0x14 build/stm32f1xx_hal_uart.o
 .text.HAL_UART_AbortReceiveCpltCallback
                0x0000000000000000        0x2 build/stm32f1xx_hal_uart.o
 .text.HAL_UART_AbortReceive_IT
                0x0000000000000000       0x68 build/stm32f1xx_hal_uart.o
 .text.UART_DMARxOnlyAbortCallback
                0x0000000000000000       0x14 build/stm32f1xx_hal_uart.o
 .text.HAL_LIN_SendBreak
                0x0000000000000000       0x32 build/stm32f1xx_hal_uart.o
 .text.HAL_MultiProcessor_EnterMuteMode
                0x0000000000000000       0x32 build/stm32f1xx_hal_uart.o
 .text.HAL_MultiProcessor_ExitMuteMode
                0x0000000000000000       0x32 build/stm32f1xx_hal_uart.o
 .text.HAL_HalfDuplex_EnableTransmitter
                0x0000000000000000       0x36 build/stm32f1xx_hal_uart.o
 .text.HAL_HalfDuplex_EnableReceiver
                0x0000000000000000       0x36 build/stm32f1xx_hal_uart.o
 .text.HAL_UART_GetState
                0x0000000000000000        0xc build/stm32f1xx_hal_uart.o
 .text.HAL_UART_GetError
                0x0000000000000000        0x4 build/stm32f1xx_hal_uart.o
 .text          0x0000000000000000        0x0 build/system_stm32f1xx.o
 .data          0x0000000000000000        0x0 build/system_stm32f1xx.o
 .bss           0x0000000000000000        0x0 build/system_stm32f1xx.o
 .text.SystemCoreClockUpdate
                0x0000000000000000       0xc8 build/system_stm32f1xx.o
 .text          0x0000000000000000        0x0 build/diskio.o
 .data          0x0000000000000000        0x0 build/diskio.o
 .bss           0x0000000000000000        0x0 build/diskio.o
 .text.get_fattime
                0x0000000000000000        0x4 build/diskio.o
 .text          0x0000000000000000        0x0 build/ff.o
 .data          0x0000000000000000        0x0 build/ff.o
 .bss           0x0000000000000000        0x0 build/ff.o
 .text.dir_remove
                0x0000000000000000       0x80 build/ff.o
 .text.f_write  0x0000000000000000      0x2be build/ff.o
 .text.putc_bfd
                0x0000000000000000       0x4e build/ff.o
 .text.f_lseek  0x0000000000000000      0x3c2 build/ff.o
 .text.f_stat   0x0000000000000000       0x6c build/ff.o
 .text.f_getfree
                0x0000000000000000      0x10e build/ff.o
 .text.f_truncate
                0x0000000000000000      0x106 build/ff.o
 .text.f_unlink
                0x0000000000000000       0xf4 build/ff.o
 .text.f_mkdir  0x0000000000000000      0x1e0 build/ff.o
 .text.f_chmod  0x0000000000000000       0x84 build/ff.o
 .text.f_rename
                0x0000000000000000      0x18c build/ff.o
 .text.f_utime  0x0000000000000000       0x84 build/ff.o
 .text.f_mkfs   0x0000000000000000      0x648 build/ff.o
 .text.f_putc   0x0000000000000000       0x48 build/ff.o
 .text.f_puts   0x0000000000000000       0x50 build/ff.o
 .text.f_printf
                0x0000000000000000      0x25c build/ff.o
 .rodata.cst.9418
                0x0000000000000000       0x16 build/ff.o
 .rodata.f_mkfs.str1.4
                0x0000000000000000       0x34 build/ff.o
 .rodata.vst.9417
                0x0000000000000000       0x16 build/ff.o
 .text          0x0000000000000000        0x0 build/ff_gen_drv.o
 .data          0x0000000000000000        0x0 build/ff_gen_drv.o
 .bss           0x0000000000000000        0x0 build/ff_gen_drv.o
 .text.FATFS_UnLinkDriverEx
                0x0000000000000000       0x3c build/ff_gen_drv.o
 .text.FATFS_UnLinkDriver
                0x0000000000000000        0xa build/ff_gen_drv.o
 .text.FATFS_GetAttachedDriversNbr
                0x0000000000000000        0xc build/ff_gen_drv.o
 .text          0x0000000000000000        0x0 build/syscall.o
 .data          0x0000000000000000        0x0 build/syscall.o
 .bss           0x0000000000000000        0x0 build/syscall.o
 .debug_info    0x0000000000000000     0x12f7 build/syscall.o
 .debug_abbrev  0x0000000000000000      0x1ef build/syscall.o
 .debug_aranges
                0x0000000000000000       0x18 build/syscall.o
 .debug_line    0x0000000000000000      0x225 build/syscall.o
 .debug_str     0x0000000000000000      0xdfe build/syscall.o
 .comment       0x0000000000000000       0x80 build/syscall.o
 .ARM.attributes
                0x0000000000000000       0x33 build/syscall.o
 .text          0x0000000000000000        0x0 build/ccsbcs.o
 .data          0x0000000000000000        0x0 build/ccsbcs.o
 .bss           0x0000000000000000        0x0 build/ccsbcs.o
 .text          0x0000000000000000        0x0 build/usbh_diskio.o
 .data          0x0000000000000000        0x0 build/usbh_diskio.o
 .bss           0x0000000000000000        0x0 build/usbh_diskio.o
 .text          0x0000000000000000        0x0 build/usbh_core.o
 .data          0x0000000000000000        0x0 build/usbh_core.o
 .bss           0x0000000000000000        0x0 build/usbh_core.o
 .text.USBH_DeInit
                0x0000000000000000       0x20 build/usbh_core.o
 .text.USBH_GetActiveClass
                0x0000000000000000        0x6 build/usbh_core.o
 .text.USBH_FindInterfaceIndex
                0x0000000000000000       0x36 build/usbh_core.o
 .text.USBH_Stop
                0x0000000000000000       0x24 build/usbh_core.o
 .text.USBH_ReEnumerate
                0x0000000000000000       0x1e build/usbh_core.o
 .text          0x0000000000000000        0x0 build/usbh_ctlreq.o
 .data          0x0000000000000000        0x0 build/usbh_ctlreq.o
 .bss           0x0000000000000000        0x0 build/usbh_ctlreq.o
 .text.USBH_SetInterface
                0x0000000000000000       0x22 build/usbh_ctlreq.o
 .text          0x0000000000000000        0x0 build/usbh_ioreq.o
 .data          0x0000000000000000        0x0 build/usbh_ioreq.o
 .bss           0x0000000000000000        0x0 build/usbh_ioreq.o
 .text.USBH_InterruptReceiveData
                0x0000000000000000       0x20 build/usbh_ioreq.o
 .text.USBH_InterruptSendData
                0x0000000000000000       0x22 build/usbh_ioreq.o
 .text.USBH_IsocReceiveData
                0x0000000000000000       0x22 build/usbh_ioreq.o
 .text.USBH_IsocSendData
                0x0000000000000000       0x22 build/usbh_ioreq.o
 .text          0x0000000000000000        0x0 build/usbh_pipes.o
 .data          0x0000000000000000        0x0 build/usbh_pipes.o
 .bss           0x0000000000000000        0x0 build/usbh_pipes.o
 .text          0x0000000000000000        0x0 build/usbh_msc.o
 .data          0x0000000000000000        0x0 build/usbh_msc.o
 .bss           0x0000000000000000        0x0 build/usbh_msc.o
 .text.USBH_MSC_IsReady
                0x0000000000000000       0x1e build/usbh_msc.o
 .text.USBH_MSC_GetMaxLUN
                0x0000000000000000       0x26 build/usbh_msc.o
 .text          0x0000000000000000        0x0 build/usbh_msc_bot.o
 .data          0x0000000000000000        0x0 build/usbh_msc_bot.o
 .bss           0x0000000000000000        0x0 build/usbh_msc_bot.o
 .text          0x0000000000000000        0x0 build/usbh_msc_scsi.o
 .data          0x0000000000000000        0x0 build/usbh_msc_scsi.o
 .bss           0x0000000000000000        0x0 build/usbh_msc_scsi.o
 .text          0x0000000000000000        0x0 build/Buffer_Gcode.o
 .data          0x0000000000000000        0x0 build/Buffer_Gcode.o
 .bss           0x0000000000000000        0x0 build/Buffer_Gcode.o
 .text.lastCommandNumber
                0x0000000000000000       0x14 build/Buffer_Gcode.o
 .text.prevoiusCommandNumber
                0x0000000000000000        0xc build/Buffer_Gcode.o
 .text.nextCommandNumber
                0x0000000000000000        0xc build/Buffer_Gcode.o
 .text.smoothable
                0x0000000000000000        0x8 build/Buffer_Gcode.o
 .text.distanceRequired
                0x0000000000000000       0x68 build/Buffer_Gcode.o
 .text.clearDescreteBuffer_Gcode
                0x0000000000000000       0x50 build/Buffer_Gcode.o
 .text.shiftRightAllTheCommandsTillThis
                0x0000000000000000       0x80 build/Buffer_Gcode.o
 .text.smoothStop_Gcode
                0x0000000000000000      0x54c build/Buffer_Gcode.o
 .rodata.defaultCommand
                0x0000000000000000       0x3c build/Buffer_Gcode.o
 .text          0x0000000000000000        0x0 build/Descritization_Gcode.o
 .data          0x0000000000000000        0x0 build/Descritization_Gcode.o
 .bss           0x0000000000000000        0x0 build/Descritization_Gcode.o
 .text          0x0000000000000000        0x0 build/GcodeConverter_Gcode.o
 .data          0x0000000000000000        0x0 build/GcodeConverter_Gcode.o
 .bss           0x0000000000000000        0x0 build/GcodeConverter_Gcode.o
 .text          0x0000000000000000        0x0 build/VirtualPrinters_Gcode.o
 .data          0x0000000000000000        0x0 build/VirtualPrinters_Gcode.o
 .bss           0x0000000000000000        0x0 build/VirtualPrinters_Gcode.o
 .text.getCurrentX_Gcode
                0x0000000000000000        0xc build/VirtualPrinters_Gcode.o
 .text.getCurrentY_Gcode
                0x0000000000000000        0xc build/VirtualPrinters_Gcode.o
 .text.getCurrentZ_Gcode
                0x0000000000000000        0xc build/VirtualPrinters_Gcode.o
 .text.getCurrentE_Gcode
                0x0000000000000000        0xc build/VirtualPrinters_Gcode.o
 .rodata.evaluationPeriod_Gcode
                0x0000000000000000        0x4 build/VirtualPrinters_Gcode.o
 .text          0x0000000000000000        0x0 build/CharacterConverter_LCD.o
 .data          0x0000000000000000        0x0 build/CharacterConverter_LCD.o
 .bss           0x0000000000000000        0x0 build/CharacterConverter_LCD.o
 .text          0x0000000000000000        0x0 build/Driver_LCD.o
 .data          0x0000000000000000        0x0 build/Driver_LCD.o
 .bss           0x0000000000000000        0x0 build/Driver_LCD.o
 .text          0x0000000000000000        0x0 build/GPIOandTIM_LCD.o
 .data          0x0000000000000000        0x0 build/GPIOandTIM_LCD.o
 .bss           0x0000000000000000        0x0 build/GPIOandTIM_LCD.o
 .text.RW_high_LCD
                0x0000000000000000       0x14 build/GPIOandTIM_LCD.o
 .text          0x0000000000000000        0x0 build/Interface_LCD.o
 .data          0x0000000000000000        0x0 build/Interface_LCD.o
 .bss           0x0000000000000000        0x0 build/Interface_LCD.o
 .text          0x0000000000000000        0x0 build/TextConverter_LCD.o
 .data          0x0000000000000000        0x0 build/TextConverter_LCD.o
 .bss           0x0000000000000000        0x0 build/TextConverter_LCD.o
 .text.lineEnds
                0x0000000000000000        0xa build/TextConverter_LCD.o
 .text.digitsBeforeDot
                0x0000000000000000       0x2c build/TextConverter_LCD.o
 .text.digitsAfterDot
                0x0000000000000000       0x58 build/TextConverter_LCD.o
 .text.getLine_TextConverter_LCD
                0x0000000000000000       0x28 build/TextConverter_LCD.o
 .text.clearLine_TextConverter_LCD
                0x0000000000000000       0x1c build/TextConverter_LCD.o
 .text.shiftLine_TextConverter_LCD
                0x0000000000000000       0x7c build/TextConverter_LCD.o
 .text.homeLine_TextConverter_LCD
                0x0000000000000000       0x2c build/TextConverter_LCD.o
 .text.addIntNumberToString
                0x0000000000000000       0x28 build/TextConverter_LCD.o
 .text.addFloatNumberToString
                0x0000000000000000       0x98 build/TextConverter_LCD.o
 .rodata.addFloatNumberToString.str4.4
                0x0000000000000000       0x34 build/TextConverter_LCD.o
 .rodata.addIntNumberToString.str4.4
                0x0000000000000000        0xc build/TextConverter_LCD.o
 .rodata.getLine_TextConverter_LCD.str4.4
                0x0000000000000000        0x4 build/TextConverter_LCD.o
 .text          0x0000000000000000        0x0 build/Constructor_Menu.o
 .data          0x0000000000000000        0x0 build/Constructor_Menu.o
 .bss           0x0000000000000000        0x0 build/Constructor_Menu.o
 .text.onlyFirstNodeRemains
                0x0000000000000000       0x34 build/Constructor_Menu.o
 .text.destroyFirstNode_Menu
                0x0000000000000000       0x14 build/Constructor_Menu.o
 .text.destroyDownNode_Menu
                0x0000000000000000       0x1c build/Constructor_Menu.o
 .text.destroyRightColomn_Menu
                0x0000000000000000       0x40 build/Constructor_Menu.o
 .text.destroyAllNodes_Menu
                0x0000000000000000       0x4c build/Constructor_Menu.o
 .text          0x0000000000000000        0x0 build/MainMenu_Menu.o
 .data          0x0000000000000000        0x0 build/MainMenu_Menu.o
 .bss           0x0000000000000000        0x0 build/MainMenu_Menu.o
 .text          0x0000000000000000        0x0 build/FunctionsForButtons.o
 .data          0x0000000000000000        0x0 build/FunctionsForButtons.o
 .bss           0x0000000000000000        0x0 build/FunctionsForButtons.o
 .text.englishBack_Menu
                0x0000000000000000        0x8 build/FunctionsForButtons.o
 .text.russianBack_Menu
                0x0000000000000000        0x8 build/FunctionsForButtons.o
 .text.closeDirectory_Menu
                0x0000000000000000        0x2 build/FunctionsForButtons.o
 .text          0x0000000000000000        0x0 build/Driver_Motors.o
 .data          0x0000000000000000        0x0 build/Driver_Motors.o
 .bss           0x0000000000000000        0x0 build/Driver_Motors.o
 .text.create_Motors
                0x0000000000000000       0x24 build/Driver_Motors.o
 .text.enable_Motors
                0x0000000000000000       0x14 build/Driver_Motors.o
 .text.disable_Motors
                0x0000000000000000       0x14 build/Driver_Motors.o
 .text          0x0000000000000000        0x0 build/GPIO_Motors.o
 .data          0x0000000000000000        0x0 build/GPIO_Motors.o
 .bss           0x0000000000000000        0x0 build/GPIO_Motors.o
 .text.EnableX_Motors
                0x0000000000000000       0x14 build/GPIO_Motors.o
 .text.DisableX_Motors
                0x0000000000000000       0x14 build/GPIO_Motors.o
 .text.EnableY_Motors
                0x0000000000000000       0x14 build/GPIO_Motors.o
 .text.DisableY_Motors
                0x0000000000000000       0x14 build/GPIO_Motors.o
 .text.EnableZ_Motors
                0x0000000000000000       0x24 build/GPIO_Motors.o
 .text.DisableZ_Motors
                0x0000000000000000       0x24 build/GPIO_Motors.o
 .text.EnableE_Motors
                0x0000000000000000       0x20 build/GPIO_Motors.o
 .text.DisableE_Motors
                0x0000000000000000       0x20 build/GPIO_Motors.o
 .text.ForwardE_Motors
                0x0000000000000000       0x28 build/GPIO_Motors.o
 .text.BackwardE_Motors
                0x0000000000000000       0x28 build/GPIO_Motors.o
 .text.StepOnE_Motors
                0x0000000000000000       0x24 build/GPIO_Motors.o
 .text.StepOffE_Motors
                0x0000000000000000       0x24 build/GPIO_Motors.o
 .text          0x0000000000000000        0x0 build/State_USBdrive.o
 .data          0x0000000000000000        0x0 build/State_USBdrive.o
 .bss           0x0000000000000000        0x0 build/State_USBdrive.o
 .text          0x0000000000000000        0x0 build/Driver_USBdrive.o
 .data          0x0000000000000000        0x0 build/Driver_USBdrive.o
 .bss           0x0000000000000000        0x0 build/Driver_USBdrive.o
 .text.convertPathToWidePath
                0x0000000000000000       0x20 build/Driver_USBdrive.o
 .text.getWidePath_USBdrive
                0x0000000000000000       0x14 build/Driver_USBdrive.o
 .text.getLongName_USBdrive
                0x0000000000000000        0x8 build/Driver_USBdrive.o
 .bss.widePath  0x0000000000000000      0x190 build/Driver_USBdrive.o
 .text          0x0000000000000000        0x0 build/coordinates.o
 .data          0x0000000000000000        0x0 build/coordinates.o
 .bss           0x0000000000000000        0x0 build/coordinates.o
 .text.incE_coordinates
                0x0000000000000000       0x10 build/coordinates.o
 .text.decE_coordinates
                0x0000000000000000       0x10 build/coordinates.o
 .text          0x0000000000000000       0x14 build/startup_stm32f105xc.o
 .data          0x0000000000000000        0x0 build/startup_stm32f105xc.o
 .bss           0x0000000000000000        0x0 build/startup_stm32f105xc.o
 .text          0x0000000000000000        0xc /usr/lib/gcc/arm-none-eabi/6.3.1/../../../arm-none-eabi/lib/thumb/v7-m/libc_nano.a(lib_a-atexit.o)
 .data          0x0000000000000000        0x0 /usr/lib/gcc/arm-none-eabi/6.3.1/../../../arm-none-eabi/lib/thumb/v7-m/libc_nano.a(lib_a-atexit.o)
 .bss           0x0000000000000000        0x0 /usr/lib/gcc/arm-none-eabi/6.3.1/../../../arm-none-eabi/lib/thumb/v7-m/libc_nano.a(lib_a-atexit.o)
 .debug_info    0x0000000000000000      0x907 /usr/lib/gcc/arm-none-eabi/6.3.1/../../../arm-none-eabi/lib/thumb/v7-m/libc_nano.a(lib_a-atexit.o)
 .debug_abbrev  0x0000000000000000      0x1cb /usr/lib/gcc/arm-none-eabi/6.3.1/../../../arm-none-eabi/lib/thumb/v7-m/libc_nano.a(lib_a-atexit.o)
 .debug_loc     0x0000000000000000       0x2c /usr/lib/gcc/arm-none-eabi/6.3.1/../../../arm-none-eabi/lib/thumb/v7-m/libc_nano.a(lib_a-atexit.o)
 .debug_aranges
                0x0000000000000000       0x20 /usr/lib/gcc/arm-none-eabi/6.3.1/../../../arm-none-eabi/lib/thumb/v7-m/libc_nano.a(lib_a-atexit.o)
 .debug_line    0x0000000000000000      0x151 /usr/lib/gcc/arm-none-eabi/6.3.1/../../../arm-none-eabi/lib/thumb/v7-m/libc_nano.a(lib_a-atexit.o)
 .debug_str     0x0000000000000000      0x624 /usr/lib/gcc/arm-none-eabi/6.3.1/../../../arm-none-eabi/lib/thumb/v7-m/libc_nano.a(lib_a-atexit.o)
 .comment       0x0000000000000000       0x58 /usr/lib/gcc/arm-none-eabi/6.3.1/../../../arm-none-eabi/lib/thumb/v7-m/libc_nano.a(lib_a-atexit.o)
 .debug_frame   0x0000000000000000       0x20 /usr/lib/gcc/arm-none-eabi/6.3.1/../../../arm-none-eabi/lib/thumb/v7-m/libc_nano.a(lib_a-atexit.o)
 .ARM.attributes
                0x0000000000000000       0x2d /usr/lib/gcc/arm-none-eabi/6.3.1/../../../arm-none-eabi/lib/thumb/v7-m/libc_nano.a(lib_a-atexit.o)
 .data          0x0000000000000000        0x0 /usr/lib/gcc/arm-none-eabi/6.3.1/../../../arm-none-eabi/lib/thumb/v7-m/libc_nano.a(lib_a-atof.o)
 .bss           0x0000000000000000        0x0 /usr/lib/gcc/arm-none-eabi/6.3.1/../../../arm-none-eabi/lib/thumb/v7-m/libc_nano.a(lib_a-atof.o)
 .data          0x0000000000000000        0x0 /usr/lib/gcc/arm-none-eabi/6.3.1/../../../arm-none-eabi/lib/thumb/v7-m/libc_nano.a(lib_a-atoi.o)
 .bss           0x0000000000000000        0x0 /usr/lib/gcc/arm-none-eabi/6.3.1/../../../arm-none-eabi/lib/thumb/v7-m/libc_nano.a(lib_a-atoi.o)
 .text          0x0000000000000000       0x28 /usr/lib/gcc/arm-none-eabi/6.3.1/../../../arm-none-eabi/lib/thumb/v7-m/libc_nano.a(lib_a-exit.o)
 .data          0x0000000000000000        0x0 /usr/lib/gcc/arm-none-eabi/6.3.1/../../../arm-none-eabi/lib/thumb/v7-m/libc_nano.a(lib_a-exit.o)
 .bss           0x0000000000000000        0x0 /usr/lib/gcc/arm-none-eabi/6.3.1/../../../arm-none-eabi/lib/thumb/v7-m/libc_nano.a(lib_a-exit.o)
 .debug_info    0x0000000000000000      0x952 /usr/lib/gcc/arm-none-eabi/6.3.1/../../../arm-none-eabi/lib/thumb/v7-m/libc_nano.a(lib_a-exit.o)
 .debug_abbrev  0x0000000000000000      0x1cd /usr/lib/gcc/arm-none-eabi/6.3.1/../../../arm-none-eabi/lib/thumb/v7-m/libc_nano.a(lib_a-exit.o)
 .debug_loc     0x0000000000000000       0x1e /usr/lib/gcc/arm-none-eabi/6.3.1/../../../arm-none-eabi/lib/thumb/v7-m/libc_nano.a(lib_a-exit.o)
 .debug_aranges
                0x0000000000000000       0x20 /usr/lib/gcc/arm-none-eabi/6.3.1/../../../arm-none-eabi/lib/thumb/v7-m/libc_nano.a(lib_a-exit.o)
 .debug_line    0x0000000000000000      0x155 /usr/lib/gcc/arm-none-eabi/6.3.1/../../../arm-none-eabi/lib/thumb/v7-m/libc_nano.a(lib_a-exit.o)
 .debug_str     0x0000000000000000      0x625 /usr/lib/gcc/arm-none-eabi/6.3.1/../../../arm-none-eabi/lib/thumb/v7-m/libc_nano.a(lib_a-exit.o)
 .comment       0x0000000000000000       0x58 /usr/lib/gcc/arm-none-eabi/6.3.1/../../../arm-none-eabi/lib/thumb/v7-m/libc_nano.a(lib_a-exit.o)
 .debug_frame   0x0000000000000000       0x28 /usr/lib/gcc/arm-none-eabi/6.3.1/../../../arm-none-eabi/lib/thumb/v7-m/libc_nano.a(lib_a-exit.o)
 .ARM.attributes
                0x0000000000000000       0x2d /usr/lib/gcc/arm-none-eabi/6.3.1/../../../arm-none-eabi/lib/thumb/v7-m/libc_nano.a(lib_a-exit.o)
 .text          0x0000000000000000       0x34 /usr/lib/gcc/arm-none-eabi/6.3.1/../../../arm-none-eabi/lib/thumb/v7-m/libc_nano.a(lib_a-fini.o)
 .data          0x0000000000000000        0x0 /usr/lib/gcc/arm-none-eabi/6.3.1/../../../arm-none-eabi/lib/thumb/v7-m/libc_nano.a(lib_a-fini.o)
 .bss           0x0000000000000000        0x0 /usr/lib/gcc/arm-none-eabi/6.3.1/../../../arm-none-eabi/lib/thumb/v7-m/libc_nano.a(lib_a-fini.o)
 .debug_info    0x0000000000000000       0xf3 /usr/lib/gcc/arm-none-eabi/6.3.1/../../../arm-none-eabi/lib/thumb/v7-m/libc_nano.a(lib_a-fini.o)
 .debug_abbrev  0x0000000000000000       0xbd /usr/lib/gcc/arm-none-eabi/6.3.1/../../../arm-none-eabi/lib/thumb/v7-m/libc_nano.a(lib_a-fini.o)
 .debug_loc     0x0000000000000000       0x5c /usr/lib/gcc/arm-none-eabi/6.3.1/../../../arm-none-eabi/lib/thumb/v7-m/libc_nano.a(lib_a-fini.o)
 .debug_aranges
                0x0000000000000000       0x20 /usr/lib/gcc/arm-none-eabi/6.3.1/../../../arm-none-eabi/lib/thumb/v7-m/libc_nano.a(lib_a-fini.o)
 .debug_line    0x0000000000000000       0x9f /usr/lib/gcc/arm-none-eabi/6.3.1/../../../arm-none-eabi/lib/thumb/v7-m/libc_nano.a(lib_a-fini.o)
 .debug_str     0x0000000000000000      0x1f6 /usr/lib/gcc/arm-none-eabi/6.3.1/../../../arm-none-eabi/lib/thumb/v7-m/libc_nano.a(lib_a-fini.o)
 .comment       0x0000000000000000       0x58 /usr/lib/gcc/arm-none-eabi/6.3.1/../../../arm-none-eabi/lib/thumb/v7-m/libc_nano.a(lib_a-fini.o)
 .debug_frame   0x0000000000000000       0x34 /usr/lib/gcc/arm-none-eabi/6.3.1/../../../arm-none-eabi/lib/thumb/v7-m/libc_nano.a(lib_a-fini.o)
 .ARM.attributes
                0x0000000000000000       0x2d /usr/lib/gcc/arm-none-eabi/6.3.1/../../../arm-none-eabi/lib/thumb/v7-m/libc_nano.a(lib_a-fini.o)
 .text          0x0000000000000000        0x0 /usr/lib/gcc/arm-none-eabi/6.3.1/../../../arm-none-eabi/lib/thumb/v7-m/libc_nano.a(lib_a-impure.o)
 .bss           0x0000000000000000        0x0 /usr/lib/gcc/arm-none-eabi/6.3.1/../../../arm-none-eabi/lib/thumb/v7-m/libc_nano.a(lib_a-impure.o)
 .text          0x0000000000000000       0x48 /usr/lib/gcc/arm-none-eabi/6.3.1/../../../arm-none-eabi/lib/thumb/v7-m/libc_nano.a(lib_a-init.o)
 .data          0x0000000000000000        0x0 /usr/lib/gcc/arm-none-eabi/6.3.1/../../../arm-none-eabi/lib/thumb/v7-m/libc_nano.a(lib_a-init.o)
 .bss           0x0000000000000000        0x0 /usr/lib/gcc/arm-none-eabi/6.3.1/../../../arm-none-eabi/lib/thumb/v7-m/libc_nano.a(lib_a-init.o)
 .debug_info    0x0000000000000000      0x109 /usr/lib/gcc/arm-none-eabi/6.3.1/../../../arm-none-eabi/lib/thumb/v7-m/libc_nano.a(lib_a-init.o)
 .debug_abbrev  0x0000000000000000       0xba /usr/lib/gcc/arm-none-eabi/6.3.1/../../../arm-none-eabi/lib/thumb/v7-m/libc_nano.a(lib_a-init.o)
 .debug_loc     0x0000000000000000       0xa2 /usr/lib/gcc/arm-none-eabi/6.3.1/../../../arm-none-eabi/lib/thumb/v7-m/libc_nano.a(lib_a-init.o)
 .debug_aranges
                0x0000000000000000       0x20 /usr/lib/gcc/arm-none-eabi/6.3.1/../../../arm-none-eabi/lib/thumb/v7-m/libc_nano.a(lib_a-init.o)
 .debug_line    0x0000000000000000       0xba /usr/lib/gcc/arm-none-eabi/6.3.1/../../../arm-none-eabi/lib/thumb/v7-m/libc_nano.a(lib_a-init.o)
 .debug_str     0x0000000000000000      0x220 /usr/lib/gcc/arm-none-eabi/6.3.1/../../../arm-none-eabi/lib/thumb/v7-m/libc_nano.a(lib_a-init.o)
 .comment       0x0000000000000000       0x58 /usr/lib/gcc/arm-none-eabi/6.3.1/../../../arm-none-eabi/lib/thumb/v7-m/libc_nano.a(lib_a-init.o)
 .debug_frame   0x0000000000000000       0x2c /usr/lib/gcc/arm-none-eabi/6.3.1/../../../arm-none-eabi/lib/thumb/v7-m/libc_nano.a(lib_a-init.o)
 .ARM.attributes
                0x0000000000000000       0x2d /usr/lib/gcc/arm-none-eabi/6.3.1/../../../arm-none-eabi/lib/thumb/v7-m/libc_nano.a(lib_a-init.o)
 .data          0x0000000000000000        0x0 /usr/lib/gcc/arm-none-eabi/6.3.1/../../../arm-none-eabi/lib/thumb/v7-m/libc_nano.a(lib_a-malloc.o)
 .bss           0x0000000000000000        0x0 /usr/lib/gcc/arm-none-eabi/6.3.1/../../../arm-none-eabi/lib/thumb/v7-m/libc_nano.a(lib_a-malloc.o)
 .data          0x0000000000000000        0x0 /usr/lib/gcc/arm-none-eabi/6.3.1/../../../arm-none-eabi/lib/thumb/v7-m/libc_nano.a(lib_a-memset.o)
 .bss           0x0000000000000000        0x0 /usr/lib/gcc/arm-none-eabi/6.3.1/../../../arm-none-eabi/lib/thumb/v7-m/libc_nano.a(lib_a-memset.o)
 .data          0x0000000000000000        0x0 /usr/lib/gcc/arm-none-eabi/6.3.1/../../../arm-none-eabi/lib/thumb/v7-m/libc_nano.a(lib_a-nano-freer.o)
 .bss           0x0000000000000000        0x0 /usr/lib/gcc/arm-none-eabi/6.3.1/../../../arm-none-eabi/lib/thumb/v7-m/libc_nano.a(lib_a-nano-freer.o)
 .data          0x0000000000000000        0x0 /usr/lib/gcc/arm-none-eabi/6.3.1/../../../arm-none-eabi/lib/thumb/v7-m/libc_nano.a(lib_a-nano-mallocr.o)
 .data          0x0000000000000000        0x0 /usr/lib/gcc/arm-none-eabi/6.3.1/../../../arm-none-eabi/lib/thumb/v7-m/libc_nano.a(lib_a-printf.o)
 .bss           0x0000000000000000        0x0 /usr/lib/gcc/arm-none-eabi/6.3.1/../../../arm-none-eabi/lib/thumb/v7-m/libc_nano.a(lib_a-printf.o)
 .data          0x0000000000000000        0x0 /usr/lib/gcc/arm-none-eabi/6.3.1/../../../arm-none-eabi/lib/thumb/v7-m/libc_nano.a(lib_a-sbrkr.o)
 .bss           0x0000000000000000        0x0 /usr/lib/gcc/arm-none-eabi/6.3.1/../../../arm-none-eabi/lib/thumb/v7-m/libc_nano.a(lib_a-sbrkr.o)
 .data          0x0000000000000000        0x0 /usr/lib/gcc/arm-none-eabi/6.3.1/../../../arm-none-eabi/lib/thumb/v7-m/libc_nano.a(lib_a-sprintf.o)
 .bss           0x0000000000000000        0x0 /usr/lib/gcc/arm-none-eabi/6.3.1/../../../arm-none-eabi/lib/thumb/v7-m/libc_nano.a(lib_a-sprintf.o)
 .data          0x0000000000000000        0x0 /usr/lib/gcc/arm-none-eabi/6.3.1/../../../arm-none-eabi/lib/thumb/v7-m/libc_nano.a(lib_a-strchr.o)
 .bss           0x0000000000000000        0x0 /usr/lib/gcc/arm-none-eabi/6.3.1/../../../arm-none-eabi/lib/thumb/v7-m/libc_nano.a(lib_a-strchr.o)
 .data          0x0000000000000000        0x0 /usr/lib/gcc/arm-none-eabi/6.3.1/../../../arm-none-eabi/lib/thumb/v7-m/libc_nano.a(lib_a-strcpy.o)
 .bss           0x0000000000000000        0x0 /usr/lib/gcc/arm-none-eabi/6.3.1/../../../arm-none-eabi/lib/thumb/v7-m/libc_nano.a(lib_a-strcpy.o)
 .data          0x0000000000000000        0x0 /usr/lib/gcc/arm-none-eabi/6.3.1/../../../arm-none-eabi/lib/thumb/v7-m/libc_nano.a(lib_a-strtod.o)
 .bss           0x0000000000000000        0x0 /usr/lib/gcc/arm-none-eabi/6.3.1/../../../arm-none-eabi/lib/thumb/v7-m/libc_nano.a(lib_a-strtod.o)
 .data          0x0000000000000000        0x0 /usr/lib/gcc/arm-none-eabi/6.3.1/../../../arm-none-eabi/lib/thumb/v7-m/libc_nano.a(lib_a-strtol.o)
 .bss           0x0000000000000000        0x0 /usr/lib/gcc/arm-none-eabi/6.3.1/../../../arm-none-eabi/lib/thumb/v7-m/libc_nano.a(lib_a-strtol.o)
 .data          0x0000000000000000        0x0 /usr/lib/gcc/arm-none-eabi/6.3.1/../../../arm-none-eabi/lib/thumb/v7-m/libc_nano.a(lib_a-swprintf.o)
 .bss           0x0000000000000000        0x0 /usr/lib/gcc/arm-none-eabi/6.3.1/../../../arm-none-eabi/lib/thumb/v7-m/libc_nano.a(lib_a-swprintf.o)
 .data          0x0000000000000000        0x0 /usr/lib/gcc/arm-none-eabi/6.3.1/../../../arm-none-eabi/lib/thumb/v7-m/libc_nano.a(lib_a-wcscpy.o)
 .bss           0x0000000000000000        0x0 /usr/lib/gcc/arm-none-eabi/6.3.1/../../../arm-none-eabi/lib/thumb/v7-m/libc_nano.a(lib_a-wcscpy.o)
 .data          0x0000000000000000        0x0 /usr/lib/gcc/arm-none-eabi/6.3.1/../../../arm-none-eabi/lib/thumb/v7-m/libc_nano.a(lib_a-wcslen.o)
 .bss           0x0000000000000000        0x0 /usr/lib/gcc/arm-none-eabi/6.3.1/../../../arm-none-eabi/lib/thumb/v7-m/libc_nano.a(lib_a-wcslen.o)
 .data          0x0000000000000000        0x0 /usr/lib/gcc/arm-none-eabi/6.3.1/../../../arm-none-eabi/lib/thumb/v7-m/libc_nano.a(lib_a-wcsstr.o)
 .bss           0x0000000000000000        0x0 /usr/lib/gcc/arm-none-eabi/6.3.1/../../../arm-none-eabi/lib/thumb/v7-m/libc_nano.a(lib_a-wcsstr.o)
 .data          0x0000000000000000        0x0 /usr/lib/gcc/arm-none-eabi/6.3.1/../../../arm-none-eabi/lib/thumb/v7-m/libc_nano.a(lib_a-wmemcpy.o)
 .bss           0x0000000000000000        0x0 /usr/lib/gcc/arm-none-eabi/6.3.1/../../../arm-none-eabi/lib/thumb/v7-m/libc_nano.a(lib_a-wmemcpy.o)
 .text          0x0000000000000000       0xd8 /usr/lib/gcc/arm-none-eabi/6.3.1/../../../arm-none-eabi/lib/thumb/v7-m/libc_nano.a(lib_a-__atexit.o)
 .data          0x0000000000000000        0x4 /usr/lib/gcc/arm-none-eabi/6.3.1/../../../arm-none-eabi/lib/thumb/v7-m/libc_nano.a(lib_a-__atexit.o)
 .bss           0x0000000000000000       0x8c /usr/lib/gcc/arm-none-eabi/6.3.1/../../../arm-none-eabi/lib/thumb/v7-m/libc_nano.a(lib_a-__atexit.o)
 .debug_info    0x0000000000000000      0x9a1 /usr/lib/gcc/arm-none-eabi/6.3.1/../../../arm-none-eabi/lib/thumb/v7-m/libc_nano.a(lib_a-__atexit.o)
 .debug_abbrev  0x0000000000000000      0x230 /usr/lib/gcc/arm-none-eabi/6.3.1/../../../arm-none-eabi/lib/thumb/v7-m/libc_nano.a(lib_a-__atexit.o)
 .debug_loc     0x0000000000000000      0x1bc /usr/lib/gcc/arm-none-eabi/6.3.1/../../../arm-none-eabi/lib/thumb/v7-m/libc_nano.a(lib_a-__atexit.o)
 .debug_aranges
                0x0000000000000000       0x20 /usr/lib/gcc/arm-none-eabi/6.3.1/../../../arm-none-eabi/lib/thumb/v7-m/libc_nano.a(lib_a-__atexit.o)
 .debug_ranges  0x0000000000000000       0x18 /usr/lib/gcc/arm-none-eabi/6.3.1/../../../arm-none-eabi/lib/thumb/v7-m/libc_nano.a(lib_a-__atexit.o)
 .debug_line    0x0000000000000000      0x1a0 /usr/lib/gcc/arm-none-eabi/6.3.1/../../../arm-none-eabi/lib/thumb/v7-m/libc_nano.a(lib_a-__atexit.o)
 .debug_str     0x0000000000000000      0x677 /usr/lib/gcc/arm-none-eabi/6.3.1/../../../arm-none-eabi/lib/thumb/v7-m/libc_nano.a(lib_a-__atexit.o)
 .comment       0x0000000000000000       0x58 /usr/lib/gcc/arm-none-eabi/6.3.1/../../../arm-none-eabi/lib/thumb/v7-m/libc_nano.a(lib_a-__atexit.o)
 .debug_frame   0x0000000000000000       0x34 /usr/lib/gcc/arm-none-eabi/6.3.1/../../../arm-none-eabi/lib/thumb/v7-m/libc_nano.a(lib_a-__atexit.o)
 .ARM.attributes
                0x0000000000000000       0x2d /usr/lib/gcc/arm-none-eabi/6.3.1/../../../arm-none-eabi/lib/thumb/v7-m/libc_nano.a(lib_a-__atexit.o)
 .text          0x0000000000000000       0xd8 /usr/lib/gcc/arm-none-eabi/6.3.1/../../../arm-none-eabi/lib/thumb/v7-m/libc_nano.a(lib_a-__call_atexit.o)
 .data          0x0000000000000000        0x0 /usr/lib/gcc/arm-none-eabi/6.3.1/../../../arm-none-eabi/lib/thumb/v7-m/libc_nano.a(lib_a-__call_atexit.o)
 .bss           0x0000000000000000        0x4 /usr/lib/gcc/arm-none-eabi/6.3.1/../../../arm-none-eabi/lib/thumb/v7-m/libc_nano.a(lib_a-__call_atexit.o)
 .debug_info    0x0000000000000000      0x98e /usr/lib/gcc/arm-none-eabi/6.3.1/../../../arm-none-eabi/lib/thumb/v7-m/libc_nano.a(lib_a-__call_atexit.o)
 .debug_abbrev  0x0000000000000000      0x219 /usr/lib/gcc/arm-none-eabi/6.3.1/../../../arm-none-eabi/lib/thumb/v7-m/libc_nano.a(lib_a-__call_atexit.o)
 .debug_loc     0x0000000000000000      0x18b /usr/lib/gcc/arm-none-eabi/6.3.1/../../../arm-none-eabi/lib/thumb/v7-m/libc_nano.a(lib_a-__call_atexit.o)
 .debug_aranges
                0x0000000000000000       0x20 /usr/lib/gcc/arm-none-eabi/6.3.1/../../../arm-none-eabi/lib/thumb/v7-m/libc_nano.a(lib_a-__call_atexit.o)
 .debug_ranges  0x0000000000000000       0x20 /usr/lib/gcc/arm-none-eabi/6.3.1/../../../arm-none-eabi/lib/thumb/v7-m/libc_nano.a(lib_a-__call_atexit.o)
 .debug_line    0x0000000000000000      0x1bf /usr/lib/gcc/arm-none-eabi/6.3.1/../../../arm-none-eabi/lib/thumb/v7-m/libc_nano.a(lib_a-__call_atexit.o)
 .debug_str     0x0000000000000000      0x627 /usr/lib/gcc/arm-none-eabi/6.3.1/../../../arm-none-eabi/lib/thumb/v7-m/libc_nano.a(lib_a-__call_atexit.o)
 .comment       0x0000000000000000       0x58 /usr/lib/gcc/arm-none-eabi/6.3.1/../../../arm-none-eabi/lib/thumb/v7-m/libc_nano.a(lib_a-__call_atexit.o)
 .debug_frame   0x0000000000000000       0x40 /usr/lib/gcc/arm-none-eabi/6.3.1/../../../arm-none-eabi/lib/thumb/v7-m/libc_nano.a(lib_a-__call_atexit.o)
 .ARM.attributes
                0x0000000000000000       0x2d /usr/lib/gcc/arm-none-eabi/6.3.1/../../../arm-none-eabi/lib/thumb/v7-m/libc_nano.a(lib_a-__call_atexit.o)
 .data          0x0000000000000000        0x0 /usr/lib/gcc/arm-none-eabi/6.3.1/../../../arm-none-eabi/lib/thumb/v7-m/libc_nano.a(lib_a-findfp.o)
 .bss           0x0000000000000000        0x0 /usr/lib/gcc/arm-none-eabi/6.3.1/../../../arm-none-eabi/lib/thumb/v7-m/libc_nano.a(lib_a-findfp.o)
 .data          0x0000000000000000        0x0 /usr/lib/gcc/arm-none-eabi/6.3.1/../../../arm-none-eabi/lib/thumb/v7-m/libc_nano.a(lib_a-fwalk.o)
 .bss           0x0000000000000000        0x0 /usr/lib/gcc/arm-none-eabi/6.3.1/../../../arm-none-eabi/lib/thumb/v7-m/libc_nano.a(lib_a-fwalk.o)
 .data          0x0000000000000000        0x0 /usr/lib/gcc/arm-none-eabi/6.3.1/../../../arm-none-eabi/lib/thumb/v7-m/libc_nano.a(lib_a-gdtoa-gethex.o)
 .bss           0x0000000000000000        0x0 /usr/lib/gcc/arm-none-eabi/6.3.1/../../../arm-none-eabi/lib/thumb/v7-m/libc_nano.a(lib_a-gdtoa-gethex.o)
 .data          0x0000000000000000        0x0 /usr/lib/gcc/arm-none-eabi/6.3.1/../../../arm-none-eabi/lib/thumb/v7-m/libc_nano.a(lib_a-gdtoa-hexnan.o)
 .bss           0x0000000000000000        0x0 /usr/lib/gcc/arm-none-eabi/6.3.1/../../../arm-none-eabi/lib/thumb/v7-m/libc_nano.a(lib_a-gdtoa-hexnan.o)
 .bss           0x0000000000000000        0x4 /usr/lib/gcc/arm-none-eabi/6.3.1/../../../arm-none-eabi/lib/thumb/v7-m/libc_nano.a(lib_a-locale.o)
 .data          0x0000000000000000        0x0 /usr/lib/gcc/arm-none-eabi/6.3.1/../../../arm-none-eabi/lib/thumb/v7-m/libc_nano.a(lib_a-localeconv.o)
 .bss           0x0000000000000000        0x0 /usr/lib/gcc/arm-none-eabi/6.3.1/../../../arm-none-eabi/lib/thumb/v7-m/libc_nano.a(lib_a-localeconv.o)
 .data          0x0000000000000000        0x0 /usr/lib/gcc/arm-none-eabi/6.3.1/../../../arm-none-eabi/lib/thumb/v7-m/libc_nano.a(lib_a-mbtowc_r.o)
 .bss           0x0000000000000000        0x0 /usr/lib/gcc/arm-none-eabi/6.3.1/../../../arm-none-eabi/lib/thumb/v7-m/libc_nano.a(lib_a-mbtowc_r.o)
 .data          0x0000000000000000        0x0 /usr/lib/gcc/arm-none-eabi/6.3.1/../../../arm-none-eabi/lib/thumb/v7-m/libc_nano.a(lib_a-memcpy.o)
 .bss           0x0000000000000000        0x0 /usr/lib/gcc/arm-none-eabi/6.3.1/../../../arm-none-eabi/lib/thumb/v7-m/libc_nano.a(lib_a-memcpy.o)
 .data          0x0000000000000000        0x0 /usr/lib/gcc/arm-none-eabi/6.3.1/../../../arm-none-eabi/lib/thumb/v7-m/libc_nano.a(lib_a-mlock.o)
 .bss           0x0000000000000000        0x0 /usr/lib/gcc/arm-none-eabi/6.3.1/../../../arm-none-eabi/lib/thumb/v7-m/libc_nano.a(lib_a-mlock.o)
 .data          0x0000000000000000        0x0 /usr/lib/gcc/arm-none-eabi/6.3.1/../../../arm-none-eabi/lib/thumb/v7-m/libc_nano.a(lib_a-mprec.o)
 .bss           0x0000000000000000        0x0 /usr/lib/gcc/arm-none-eabi/6.3.1/../../../arm-none-eabi/lib/thumb/v7-m/libc_nano.a(lib_a-mprec.o)
 .data          0x0000000000000000        0x0 /usr/lib/gcc/arm-none-eabi/6.3.1/../../../arm-none-eabi/lib/thumb/v7-m/libc_nano.a(lib_a-nano-callocr.o)
 .bss           0x0000000000000000        0x0 /usr/lib/gcc/arm-none-eabi/6.3.1/../../../arm-none-eabi/lib/thumb/v7-m/libc_nano.a(lib_a-nano-callocr.o)
 .data          0x0000000000000000        0x0 /usr/lib/gcc/arm-none-eabi/6.3.1/../../../arm-none-eabi/lib/thumb/v7-m/libc_nano.a(lib_a-nano-svfprintf.o)
 .bss           0x0000000000000000        0x0 /usr/lib/gcc/arm-none-eabi/6.3.1/../../../arm-none-eabi/lib/thumb/v7-m/libc_nano.a(lib_a-nano-svfprintf.o)
 .data          0x0000000000000000        0x0 /usr/lib/gcc/arm-none-eabi/6.3.1/../../../arm-none-eabi/lib/thumb/v7-m/libc_nano.a(lib_a-nano-vfprintf.o)
 .bss           0x0000000000000000        0x0 /usr/lib/gcc/arm-none-eabi/6.3.1/../../../arm-none-eabi/lib/thumb/v7-m/libc_nano.a(lib_a-nano-vfprintf.o)
 .data          0x0000000000000000        0x0 /usr/lib/gcc/arm-none-eabi/6.3.1/../../../arm-none-eabi/lib/thumb/v7-m/libc_nano.a(lib_a-nano-vfprintf_i.o)
 .bss           0x0000000000000000        0x0 /usr/lib/gcc/arm-none-eabi/6.3.1/../../../arm-none-eabi/lib/thumb/v7-m/libc_nano.a(lib_a-nano-vfprintf_i.o)
 .text          0x0000000000000000       0xf0 /usr/lib/gcc/arm-none-eabi/6.3.1/../../../arm-none-eabi/lib/thumb/v7-m/libc_nano.a(lib_a-reent.o)
 .data          0x0000000000000000        0x0 /usr/lib/gcc/arm-none-eabi/6.3.1/../../../arm-none-eabi/lib/thumb/v7-m/libc_nano.a(lib_a-reent.o)
 .bss           0x0000000000000000        0x0 /usr/lib/gcc/arm-none-eabi/6.3.1/../../../arm-none-eabi/lib/thumb/v7-m/libc_nano.a(lib_a-reent.o)
 .data          0x0000000000000000        0x0 /usr/lib/gcc/arm-none-eabi/6.3.1/../../../arm-none-eabi/lib/thumb/v7-m/libc_nano.a(lib_a-sf_nan.o)
 .bss           0x0000000000000000        0x0 /usr/lib/gcc/arm-none-eabi/6.3.1/../../../arm-none-eabi/lib/thumb/v7-m/libc_nano.a(lib_a-sf_nan.o)
 .data          0x0000000000000000        0x0 /usr/lib/gcc/arm-none-eabi/6.3.1/../../../arm-none-eabi/lib/thumb/v7-m/libc_nano.a(lib_a-stdio.o)
 .bss           0x0000000000000000        0x0 /usr/lib/gcc/arm-none-eabi/6.3.1/../../../arm-none-eabi/lib/thumb/v7-m/libc_nano.a(lib_a-stdio.o)
 .data          0x0000000000000000        0x0 /usr/lib/gcc/arm-none-eabi/6.3.1/../../../arm-none-eabi/lib/thumb/v7-m/libc_nano.a(lib_a-strcmp.o)
 .bss           0x0000000000000000        0x0 /usr/lib/gcc/arm-none-eabi/6.3.1/../../../arm-none-eabi/lib/thumb/v7-m/libc_nano.a(lib_a-strcmp.o)
 .data          0x0000000000000000        0x0 /usr/lib/gcc/arm-none-eabi/6.3.1/../../../arm-none-eabi/lib/thumb/v7-m/libc_nano.a(lib_a-strlen-stub.o)
 .bss           0x0000000000000000        0x0 /usr/lib/gcc/arm-none-eabi/6.3.1/../../../arm-none-eabi/lib/thumb/v7-m/libc_nano.a(lib_a-strlen-stub.o)
 .data          0x0000000000000000        0x0 /usr/lib/gcc/arm-none-eabi/6.3.1/../../../arm-none-eabi/lib/thumb/v7-m/libc_nano.a(lib_a-strncmp.o)
 .bss           0x0000000000000000        0x0 /usr/lib/gcc/arm-none-eabi/6.3.1/../../../arm-none-eabi/lib/thumb/v7-m/libc_nano.a(lib_a-strncmp.o)
 .data          0x0000000000000000        0x0 /usr/lib/gcc/arm-none-eabi/6.3.1/../../../arm-none-eabi/lib/thumb/v7-m/libc_nano.a(lib_a-svfwprintf.o)
 .bss           0x0000000000000000        0x0 /usr/lib/gcc/arm-none-eabi/6.3.1/../../../arm-none-eabi/lib/thumb/v7-m/libc_nano.a(lib_a-svfwprintf.o)
 .data          0x0000000000000000        0x0 /usr/lib/gcc/arm-none-eabi/6.3.1/../../../arm-none-eabi/lib/thumb/v7-m/libc_nano.a(lib_a-wbuf.o)
 .bss           0x0000000000000000        0x0 /usr/lib/gcc/arm-none-eabi/6.3.1/../../../arm-none-eabi/lib/thumb/v7-m/libc_nano.a(lib_a-wbuf.o)
 .data          0x0000000000000000        0x0 /usr/lib/gcc/arm-none-eabi/6.3.1/../../../arm-none-eabi/lib/thumb/v7-m/libc_nano.a(lib_a-wctomb_r.o)
 .bss           0x0000000000000000        0x0 /usr/lib/gcc/arm-none-eabi/6.3.1/../../../arm-none-eabi/lib/thumb/v7-m/libc_nano.a(lib_a-wctomb_r.o)
 .data          0x0000000000000000        0x0 /usr/lib/gcc/arm-none-eabi/6.3.1/../../../arm-none-eabi/lib/thumb/v7-m/libc_nano.a(lib_a-wmemchr.o)
 .bss           0x0000000000000000        0x0 /usr/lib/gcc/arm-none-eabi/6.3.1/../../../arm-none-eabi/lib/thumb/v7-m/libc_nano.a(lib_a-wmemchr.o)
 .data          0x0000000000000000        0x0 /usr/lib/gcc/arm-none-eabi/6.3.1/../../../arm-none-eabi/lib/thumb/v7-m/libc_nano.a(lib_a-writer.o)
 .bss           0x0000000000000000        0x0 /usr/lib/gcc/arm-none-eabi/6.3.1/../../../arm-none-eabi/lib/thumb/v7-m/libc_nano.a(lib_a-writer.o)
 .data          0x0000000000000000        0x0 /usr/lib/gcc/arm-none-eabi/6.3.1/../../../arm-none-eabi/lib/thumb/v7-m/libc_nano.a(lib_a-wsetup.o)
 .bss           0x0000000000000000        0x0 /usr/lib/gcc/arm-none-eabi/6.3.1/../../../arm-none-eabi/lib/thumb/v7-m/libc_nano.a(lib_a-wsetup.o)
 .data          0x0000000000000000        0x0 /usr/lib/gcc/arm-none-eabi/6.3.1/../../../arm-none-eabi/lib/thumb/v7-m/libc_nano.a(lib_a-btowc.o)
 .bss           0x0000000000000000        0x0 /usr/lib/gcc/arm-none-eabi/6.3.1/../../../arm-none-eabi/lib/thumb/v7-m/libc_nano.a(lib_a-btowc.o)
 .data          0x0000000000000000        0x0 /usr/lib/gcc/arm-none-eabi/6.3.1/../../../arm-none-eabi/lib/thumb/v7-m/libc_nano.a(lib_a-closer.o)
 .bss           0x0000000000000000        0x0 /usr/lib/gcc/arm-none-eabi/6.3.1/../../../arm-none-eabi/lib/thumb/v7-m/libc_nano.a(lib_a-closer.o)
 .text          0x0000000000000000        0x0 /usr/lib/gcc/arm-none-eabi/6.3.1/../../../arm-none-eabi/lib/thumb/v7-m/libc_nano.a(lib_a-ctype_.o)
 .data          0x0000000000000000        0x0 /usr/lib/gcc/arm-none-eabi/6.3.1/../../../arm-none-eabi/lib/thumb/v7-m/libc_nano.a(lib_a-ctype_.o)
 .bss           0x0000000000000000        0x0 /usr/lib/gcc/arm-none-eabi/6.3.1/../../../arm-none-eabi/lib/thumb/v7-m/libc_nano.a(lib_a-ctype_.o)
 .data          0x0000000000000000        0x0 /usr/lib/gcc/arm-none-eabi/6.3.1/../../../arm-none-eabi/lib/thumb/v7-m/libc_nano.a(lib_a-dtoa.o)
 .bss           0x0000000000000000        0x0 /usr/lib/gcc/arm-none-eabi/6.3.1/../../../arm-none-eabi/lib/thumb/v7-m/libc_nano.a(lib_a-dtoa.o)
 .data          0x0000000000000000        0x0 /usr/lib/gcc/arm-none-eabi/6.3.1/../../../arm-none-eabi/lib/thumb/v7-m/libc_nano.a(lib_a-fflush.o)
 .bss           0x0000000000000000        0x0 /usr/lib/gcc/arm-none-eabi/6.3.1/../../../arm-none-eabi/lib/thumb/v7-m/libc_nano.a(lib_a-fflush.o)
 .data          0x0000000000000000        0x0 /usr/lib/gcc/arm-none-eabi/6.3.1/../../../arm-none-eabi/lib/thumb/v7-m/libc_nano.a(lib_a-fvwrite.o)
 .bss           0x0000000000000000        0x0 /usr/lib/gcc/arm-none-eabi/6.3.1/../../../arm-none-eabi/lib/thumb/v7-m/libc_nano.a(lib_a-fvwrite.o)
 .data          0x0000000000000000        0x0 /usr/lib/gcc/arm-none-eabi/6.3.1/../../../arm-none-eabi/lib/thumb/v7-m/libc_nano.a(lib_a-lseekr.o)
 .bss           0x0000000000000000        0x0 /usr/lib/gcc/arm-none-eabi/6.3.1/../../../arm-none-eabi/lib/thumb/v7-m/libc_nano.a(lib_a-lseekr.o)
 .data          0x0000000000000000        0x0 /usr/lib/gcc/arm-none-eabi/6.3.1/../../../arm-none-eabi/lib/thumb/v7-m/libc_nano.a(lib_a-makebuf.o)
 .bss           0x0000000000000000        0x0 /usr/lib/gcc/arm-none-eabi/6.3.1/../../../arm-none-eabi/lib/thumb/v7-m/libc_nano.a(lib_a-makebuf.o)
 .data          0x0000000000000000        0x0 /usr/lib/gcc/arm-none-eabi/6.3.1/../../../arm-none-eabi/lib/thumb/v7-m/libc_nano.a(lib_a-memchr-stub.o)
 .bss           0x0000000000000000        0x0 /usr/lib/gcc/arm-none-eabi/6.3.1/../../../arm-none-eabi/lib/thumb/v7-m/libc_nano.a(lib_a-memchr-stub.o)
 .data          0x0000000000000000        0x0 /usr/lib/gcc/arm-none-eabi/6.3.1/../../../arm-none-eabi/lib/thumb/v7-m/libc_nano.a(lib_a-memmove.o)
 .bss           0x0000000000000000        0x0 /usr/lib/gcc/arm-none-eabi/6.3.1/../../../arm-none-eabi/lib/thumb/v7-m/libc_nano.a(lib_a-memmove.o)
 .data          0x0000000000000000        0x0 /usr/lib/gcc/arm-none-eabi/6.3.1/../../../arm-none-eabi/lib/thumb/v7-m/libc_nano.a(lib_a-nano-reallocr.o)
 .bss           0x0000000000000000        0x0 /usr/lib/gcc/arm-none-eabi/6.3.1/../../../arm-none-eabi/lib/thumb/v7-m/libc_nano.a(lib_a-nano-reallocr.o)
 .data          0x0000000000000000        0x0 /usr/lib/gcc/arm-none-eabi/6.3.1/../../../arm-none-eabi/lib/thumb/v7-m/libc_nano.a(lib_a-readr.o)
 .bss           0x0000000000000000        0x0 /usr/lib/gcc/arm-none-eabi/6.3.1/../../../arm-none-eabi/lib/thumb/v7-m/libc_nano.a(lib_a-readr.o)
 .data          0x0000000000000000        0x0 /usr/lib/gcc/arm-none-eabi/6.3.1/../../../arm-none-eabi/lib/thumb/v7-m/libc_nano.a(lib_a-fstatr.o)
 .bss           0x0000000000000000        0x0 /usr/lib/gcc/arm-none-eabi/6.3.1/../../../arm-none-eabi/lib/thumb/v7-m/libc_nano.a(lib_a-fstatr.o)
 .data          0x0000000000000000        0x0 /usr/lib/gcc/arm-none-eabi/6.3.1/../../../arm-none-eabi/lib/thumb/v7-m/libc_nano.a(lib_a-isattyr.o)
 .bss           0x0000000000000000        0x0 /usr/lib/gcc/arm-none-eabi/6.3.1/../../../arm-none-eabi/lib/thumb/v7-m/libc_nano.a(lib_a-isattyr.o)
 .data          0x0000000000000000        0x0 /usr/lib/gcc/arm-none-eabi/6.3.1/../../../arm-none-eabi/lib/thumb/v7-m/libc_nano.a(lib_a-nano-msizer.o)
 .bss           0x0000000000000000        0x0 /usr/lib/gcc/arm-none-eabi/6.3.1/../../../arm-none-eabi/lib/thumb/v7-m/libc_nano.a(lib_a-nano-msizer.o)
 .text          0x0000000000000000       0x9c /usr/lib/gcc/arm-none-eabi/6.3.1/../../../arm-none-eabi/lib/thumb/v7-m/libm.a(lib_a-s_round.o)
 .data          0x0000000000000000        0x0 /usr/lib/gcc/arm-none-eabi/6.3.1/../../../arm-none-eabi/lib/thumb/v7-m/libm.a(lib_a-s_round.o)
 .bss           0x0000000000000000        0x0 /usr/lib/gcc/arm-none-eabi/6.3.1/../../../arm-none-eabi/lib/thumb/v7-m/libm.a(lib_a-s_round.o)
 .debug_info    0x0000000000000000      0x9ef /usr/lib/gcc/arm-none-eabi/6.3.1/../../../arm-none-eabi/lib/thumb/v7-m/libm.a(lib_a-s_round.o)
 .debug_abbrev  0x0000000000000000      0x237 /usr/lib/gcc/arm-none-eabi/6.3.1/../../../arm-none-eabi/lib/thumb/v7-m/libm.a(lib_a-s_round.o)
 .debug_loc     0x0000000000000000      0x1ef /usr/lib/gcc/arm-none-eabi/6.3.1/../../../arm-none-eabi/lib/thumb/v7-m/libm.a(lib_a-s_round.o)
 .debug_aranges
                0x0000000000000000       0x20 /usr/lib/gcc/arm-none-eabi/6.3.1/../../../arm-none-eabi/lib/thumb/v7-m/libm.a(lib_a-s_round.o)
 .debug_ranges  0x0000000000000000       0x20 /usr/lib/gcc/arm-none-eabi/6.3.1/../../../arm-none-eabi/lib/thumb/v7-m/libm.a(lib_a-s_round.o)
 .debug_line    0x0000000000000000      0x1f7 /usr/lib/gcc/arm-none-eabi/6.3.1/../../../arm-none-eabi/lib/thumb/v7-m/libm.a(lib_a-s_round.o)
 .debug_str     0x0000000000000000      0x66c /usr/lib/gcc/arm-none-eabi/6.3.1/../../../arm-none-eabi/lib/thumb/v7-m/libm.a(lib_a-s_round.o)
 .comment       0x0000000000000000       0x58 /usr/lib/gcc/arm-none-eabi/6.3.1/../../../arm-none-eabi/lib/thumb/v7-m/libm.a(lib_a-s_round.o)
 .debug_frame   0x0000000000000000       0x30 /usr/lib/gcc/arm-none-eabi/6.3.1/../../../arm-none-eabi/lib/thumb/v7-m/libm.a(lib_a-s_round.o)
 .ARM.attributes
                0x0000000000000000       0x2d /usr/lib/gcc/arm-none-eabi/6.3.1/../../../arm-none-eabi/lib/thumb/v7-m/libm.a(lib_a-s_round.o)
 .data          0x0000000000000000        0x0 /usr/lib/gcc/arm-none-eabi/6.3.1/../../../arm-none-eabi/lib/thumb/v7-m/libm.a(lib_a-sf_lround.o)
 .bss           0x0000000000000000        0x0 /usr/lib/gcc/arm-none-eabi/6.3.1/../../../arm-none-eabi/lib/thumb/v7-m/libm.a(lib_a-sf_lround.o)
 .data          0x0000000000000000        0x0 /usr/lib/gcc/arm-none-eabi/6.3.1/../../../arm-none-eabi/lib/thumb/v7-m/libm.a(lib_a-w_pow.o)
 .bss           0x0000000000000000        0x0 /usr/lib/gcc/arm-none-eabi/6.3.1/../../../arm-none-eabi/lib/thumb/v7-m/libm.a(lib_a-w_pow.o)
 .data          0x0000000000000000        0x0 /usr/lib/gcc/arm-none-eabi/6.3.1/../../../arm-none-eabi/lib/thumb/v7-m/libm.a(lib_a-w_sqrt.o)
 .bss           0x0000000000000000        0x0 /usr/lib/gcc/arm-none-eabi/6.3.1/../../../arm-none-eabi/lib/thumb/v7-m/libm.a(lib_a-w_sqrt.o)
 .data          0x0000000000000000        0x0 /usr/lib/gcc/arm-none-eabi/6.3.1/../../../arm-none-eabi/lib/thumb/v7-m/libm.a(lib_a-wf_sqrt.o)
 .bss           0x0000000000000000        0x0 /usr/lib/gcc/arm-none-eabi/6.3.1/../../../arm-none-eabi/lib/thumb/v7-m/libm.a(lib_a-wf_sqrt.o)
 .data          0x0000000000000000        0x0 /usr/lib/gcc/arm-none-eabi/6.3.1/../../../arm-none-eabi/lib/thumb/v7-m/libm.a(lib_a-e_pow.o)
 .bss           0x0000000000000000        0x0 /usr/lib/gcc/arm-none-eabi/6.3.1/../../../arm-none-eabi/lib/thumb/v7-m/libm.a(lib_a-e_pow.o)
 .data          0x0000000000000000        0x0 /usr/lib/gcc/arm-none-eabi/6.3.1/../../../arm-none-eabi/lib/thumb/v7-m/libm.a(lib_a-e_sqrt.o)
 .bss           0x0000000000000000        0x0 /usr/lib/gcc/arm-none-eabi/6.3.1/../../../arm-none-eabi/lib/thumb/v7-m/libm.a(lib_a-e_sqrt.o)
 .data          0x0000000000000000        0x0 /usr/lib/gcc/arm-none-eabi/6.3.1/../../../arm-none-eabi/lib/thumb/v7-m/libm.a(lib_a-ef_sqrt.o)
 .bss           0x0000000000000000        0x0 /usr/lib/gcc/arm-none-eabi/6.3.1/../../../arm-none-eabi/lib/thumb/v7-m/libm.a(lib_a-ef_sqrt.o)
 .data          0x0000000000000000        0x0 /usr/lib/gcc/arm-none-eabi/6.3.1/../../../arm-none-eabi/lib/thumb/v7-m/libm.a(lib_a-s_fabs.o)
 .bss           0x0000000000000000        0x0 /usr/lib/gcc/arm-none-eabi/6.3.1/../../../arm-none-eabi/lib/thumb/v7-m/libm.a(lib_a-s_fabs.o)
 .data          0x0000000000000000        0x0 /usr/lib/gcc/arm-none-eabi/6.3.1/../../../arm-none-eabi/lib/thumb/v7-m/libm.a(lib_a-s_finite.o)
 .bss           0x0000000000000000        0x0 /usr/lib/gcc/arm-none-eabi/6.3.1/../../../arm-none-eabi/lib/thumb/v7-m/libm.a(lib_a-s_finite.o)
 .text          0x0000000000000000        0x0 /usr/lib/gcc/arm-none-eabi/6.3.1/../../../arm-none-eabi/lib/thumb/v7-m/libm.a(lib_a-s_lib_ver.o)
 .bss           0x0000000000000000        0x0 /usr/lib/gcc/arm-none-eabi/6.3.1/../../../arm-none-eabi/lib/thumb/v7-m/libm.a(lib_a-s_lib_ver.o)
 .data          0x0000000000000000        0x0 /usr/lib/gcc/arm-none-eabi/6.3.1/../../../arm-none-eabi/lib/thumb/v7-m/libm.a(lib_a-s_matherr.o)
 .bss           0x0000000000000000        0x0 /usr/lib/gcc/arm-none-eabi/6.3.1/../../../arm-none-eabi/lib/thumb/v7-m/libm.a(lib_a-s_matherr.o)
 .data          0x0000000000000000        0x0 /usr/lib/gcc/arm-none-eabi/6.3.1/../../../arm-none-eabi/lib/thumb/v7-m/libm.a(lib_a-s_nan.o)
 .bss           0x0000000000000000        0x0 /usr/lib/gcc/arm-none-eabi/6.3.1/../../../arm-none-eabi/lib/thumb/v7-m/libm.a(lib_a-s_nan.o)
 .data          0x0000000000000000        0x0 /usr/lib/gcc/arm-none-eabi/6.3.1/../../../arm-none-eabi/lib/thumb/v7-m/libm.a(lib_a-s_rint.o)
 .bss           0x0000000000000000        0x0 /usr/lib/gcc/arm-none-eabi/6.3.1/../../../arm-none-eabi/lib/thumb/v7-m/libm.a(lib_a-s_rint.o)
 .data          0x0000000000000000        0x0 /usr/lib/gcc/arm-none-eabi/6.3.1/../../../arm-none-eabi/lib/thumb/v7-m/libm.a(lib_a-s_scalbn.o)
 .bss           0x0000000000000000        0x0 /usr/lib/gcc/arm-none-eabi/6.3.1/../../../arm-none-eabi/lib/thumb/v7-m/libm.a(lib_a-s_scalbn.o)
 .data          0x0000000000000000        0x0 /usr/lib/gcc/arm-none-eabi/6.3.1/../../../arm-none-eabi/lib/thumb/v7-m/libnosys.a(close.o)
 .bss           0x0000000000000000        0x0 /usr/lib/gcc/arm-none-eabi/6.3.1/../../../arm-none-eabi/lib/thumb/v7-m/libnosys.a(close.o)
 .data          0x0000000000000000        0x0 /usr/lib/gcc/arm-none-eabi/6.3.1/../../../arm-none-eabi/lib/thumb/v7-m/libnosys.a(fstat.o)
 .bss           0x0000000000000000        0x0 /usr/lib/gcc/arm-none-eabi/6.3.1/../../../arm-none-eabi/lib/thumb/v7-m/libnosys.a(fstat.o)
 .data          0x0000000000000000        0x0 /usr/lib/gcc/arm-none-eabi/6.3.1/../../../arm-none-eabi/lib/thumb/v7-m/libnosys.a(isatty.o)
 .bss           0x0000000000000000        0x0 /usr/lib/gcc/arm-none-eabi/6.3.1/../../../arm-none-eabi/lib/thumb/v7-m/libnosys.a(isatty.o)
 .data          0x0000000000000000        0x0 /usr/lib/gcc/arm-none-eabi/6.3.1/../../../arm-none-eabi/lib/thumb/v7-m/libnosys.a(lseek.o)
 .bss           0x0000000000000000        0x0 /usr/lib/gcc/arm-none-eabi/6.3.1/../../../arm-none-eabi/lib/thumb/v7-m/libnosys.a(lseek.o)
 .data          0x0000000000000000        0x0 /usr/lib/gcc/arm-none-eabi/6.3.1/../../../arm-none-eabi/lib/thumb/v7-m/libnosys.a(read.o)
 .bss           0x0000000000000000        0x0 /usr/lib/gcc/arm-none-eabi/6.3.1/../../../arm-none-eabi/lib/thumb/v7-m/libnosys.a(read.o)
 .data          0x0000000000000000        0x0 /usr/lib/gcc/arm-none-eabi/6.3.1/../../../arm-none-eabi/lib/thumb/v7-m/libnosys.a(sbrk.o)
 .text          0x0000000000000000        0x4 /usr/lib/gcc/arm-none-eabi/6.3.1/../../../arm-none-eabi/lib/thumb/v7-m/libnosys.a(_exit.o)
 .data          0x0000000000000000        0x0 /usr/lib/gcc/arm-none-eabi/6.3.1/../../../arm-none-eabi/lib/thumb/v7-m/libnosys.a(_exit.o)
 .bss           0x0000000000000000        0x0 /usr/lib/gcc/arm-none-eabi/6.3.1/../../../arm-none-eabi/lib/thumb/v7-m/libnosys.a(_exit.o)
 .debug_info    0x0000000000000000       0x9a /usr/lib/gcc/arm-none-eabi/6.3.1/../../../arm-none-eabi/lib/thumb/v7-m/libnosys.a(_exit.o)
 .debug_abbrev  0x0000000000000000       0x61 /usr/lib/gcc/arm-none-eabi/6.3.1/../../../arm-none-eabi/lib/thumb/v7-m/libnosys.a(_exit.o)
 .debug_aranges
                0x0000000000000000       0x20 /usr/lib/gcc/arm-none-eabi/6.3.1/../../../arm-none-eabi/lib/thumb/v7-m/libnosys.a(_exit.o)
 .debug_line    0x0000000000000000       0x5b /usr/lib/gcc/arm-none-eabi/6.3.1/../../../arm-none-eabi/lib/thumb/v7-m/libnosys.a(_exit.o)
 .debug_str     0x0000000000000000      0x190 /usr/lib/gcc/arm-none-eabi/6.3.1/../../../arm-none-eabi/lib/thumb/v7-m/libnosys.a(_exit.o)
 .comment       0x0000000000000000       0x58 /usr/lib/gcc/arm-none-eabi/6.3.1/../../../arm-none-eabi/lib/thumb/v7-m/libnosys.a(_exit.o)
 .debug_frame   0x0000000000000000       0x20 /usr/lib/gcc/arm-none-eabi/6.3.1/../../../arm-none-eabi/lib/thumb/v7-m/libnosys.a(_exit.o)
 .ARM.attributes
                0x0000000000000000       0x2d /usr/lib/gcc/arm-none-eabi/6.3.1/../../../arm-none-eabi/lib/thumb/v7-m/libnosys.a(_exit.o)
 .data          0x0000000000000000        0x0 /usr/lib/gcc/arm-none-eabi/6.3.1/thumb/v7-m/libgcc.a(_arm_addsubdf3.o)
 .bss           0x0000000000000000        0x0 /usr/lib/gcc/arm-none-eabi/6.3.1/thumb/v7-m/libgcc.a(_arm_addsubdf3.o)
 .data          0x0000000000000000        0x0 /usr/lib/gcc/arm-none-eabi/6.3.1/thumb/v7-m/libgcc.a(_arm_muldivdf3.o)
 .bss           0x0000000000000000        0x0 /usr/lib/gcc/arm-none-eabi/6.3.1/thumb/v7-m/libgcc.a(_arm_muldivdf3.o)
 .data          0x0000000000000000        0x0 /usr/lib/gcc/arm-none-eabi/6.3.1/thumb/v7-m/libgcc.a(_arm_cmpdf2.o)
 .bss           0x0000000000000000        0x0 /usr/lib/gcc/arm-none-eabi/6.3.1/thumb/v7-m/libgcc.a(_arm_cmpdf2.o)
 .data          0x0000000000000000        0x0 /usr/lib/gcc/arm-none-eabi/6.3.1/thumb/v7-m/libgcc.a(_arm_unorddf2.o)
 .bss           0x0000000000000000        0x0 /usr/lib/gcc/arm-none-eabi/6.3.1/thumb/v7-m/libgcc.a(_arm_unorddf2.o)
 .data          0x0000000000000000        0x0 /usr/lib/gcc/arm-none-eabi/6.3.1/thumb/v7-m/libgcc.a(_arm_fixdfsi.o)
 .bss           0x0000000000000000        0x0 /usr/lib/gcc/arm-none-eabi/6.3.1/thumb/v7-m/libgcc.a(_arm_fixdfsi.o)
 .data          0x0000000000000000        0x0 /usr/lib/gcc/arm-none-eabi/6.3.1/thumb/v7-m/libgcc.a(_arm_fixunsdfsi.o)
 .bss           0x0000000000000000        0x0 /usr/lib/gcc/arm-none-eabi/6.3.1/thumb/v7-m/libgcc.a(_arm_fixunsdfsi.o)
 .data          0x0000000000000000        0x0 /usr/lib/gcc/arm-none-eabi/6.3.1/thumb/v7-m/libgcc.a(_arm_truncdfsf2.o)
 .bss           0x0000000000000000        0x0 /usr/lib/gcc/arm-none-eabi/6.3.1/thumb/v7-m/libgcc.a(_arm_truncdfsf2.o)
 .data          0x0000000000000000        0x0 /usr/lib/gcc/arm-none-eabi/6.3.1/thumb/v7-m/libgcc.a(_arm_addsubsf3.o)
 .bss           0x0000000000000000        0x0 /usr/lib/gcc/arm-none-eabi/6.3.1/thumb/v7-m/libgcc.a(_arm_addsubsf3.o)
 .data          0x0000000000000000        0x0 /usr/lib/gcc/arm-none-eabi/6.3.1/thumb/v7-m/libgcc.a(_arm_muldivsf3.o)
 .bss           0x0000000000000000        0x0 /usr/lib/gcc/arm-none-eabi/6.3.1/thumb/v7-m/libgcc.a(_arm_muldivsf3.o)
 .data          0x0000000000000000        0x0 /usr/lib/gcc/arm-none-eabi/6.3.1/thumb/v7-m/libgcc.a(_arm_cmpsf2.o)
 .bss           0x0000000000000000        0x0 /usr/lib/gcc/arm-none-eabi/6.3.1/thumb/v7-m/libgcc.a(_arm_cmpsf2.o)
 .data          0x0000000000000000        0x0 /usr/lib/gcc/arm-none-eabi/6.3.1/thumb/v7-m/libgcc.a(_arm_unordsf2.o)
 .bss           0x0000000000000000        0x0 /usr/lib/gcc/arm-none-eabi/6.3.1/thumb/v7-m/libgcc.a(_arm_unordsf2.o)
 .data          0x0000000000000000        0x0 /usr/lib/gcc/arm-none-eabi/6.3.1/thumb/v7-m/libgcc.a(_arm_fixsfsi.o)
 .bss           0x0000000000000000        0x0 /usr/lib/gcc/arm-none-eabi/6.3.1/thumb/v7-m/libgcc.a(_arm_fixsfsi.o)
 .data          0x0000000000000000        0x0 /usr/lib/gcc/arm-none-eabi/6.3.1/thumb/v7-m/libgcc.a(_aeabi_uldivmod.o)
 .bss           0x0000000000000000        0x0 /usr/lib/gcc/arm-none-eabi/6.3.1/thumb/v7-m/libgcc.a(_aeabi_uldivmod.o)
 .data          0x0000000000000000        0x0 /usr/lib/gcc/arm-none-eabi/6.3.1/thumb/v7-m/libgcc.a(_fixdfdi.o)
 .bss           0x0000000000000000        0x0 /usr/lib/gcc/arm-none-eabi/6.3.1/thumb/v7-m/libgcc.a(_fixdfdi.o)
 .data          0x0000000000000000        0x0 /usr/lib/gcc/arm-none-eabi/6.3.1/thumb/v7-m/libgcc.a(_fixunsdfdi.o)
 .bss           0x0000000000000000        0x0 /usr/lib/gcc/arm-none-eabi/6.3.1/thumb/v7-m/libgcc.a(_fixunsdfdi.o)
 .data          0x0000000000000000        0x0 /usr/lib/gcc/arm-none-eabi/6.3.1/thumb/v7-m/libgcc.a(_udivmoddi4.o)
 .bss           0x0000000000000000        0x0 /usr/lib/gcc/arm-none-eabi/6.3.1/thumb/v7-m/libgcc.a(_udivmoddi4.o)
 .ARM.extab     0x0000000000000000        0x0 /usr/lib/gcc/arm-none-eabi/6.3.1/thumb/v7-m/libgcc.a(_udivmoddi4.o)
 .data          0x0000000000000000        0x0 /usr/lib/gcc/arm-none-eabi/6.3.1/thumb/v7-m/libgcc.a(_dvmd_tls.o)
 .bss           0x0000000000000000        0x0 /usr/lib/gcc/arm-none-eabi/6.3.1/thumb/v7-m/libgcc.a(_dvmd_tls.o)
 .data          0x0000000000000000        0x0 /usr/lib/gcc/arm-none-eabi/6.3.1/../../../arm-none-eabi/lib/thumb/v7-m/libc_nano.a(lib_a-errno.o)
 .bss           0x0000000000000000        0x0 /usr/lib/gcc/arm-none-eabi/6.3.1/../../../arm-none-eabi/lib/thumb/v7-m/libc_nano.a(lib_a-errno.o)
 .text          0x0000000000000000        0x0 /usr/lib/gcc/arm-none-eabi/6.3.1/thumb/v7-m/crtend.o
 .data          0x0000000000000000        0x0 /usr/lib/gcc/arm-none-eabi/6.3.1/thumb/v7-m/crtend.o
 .bss           0x0000000000000000        0x0 /usr/lib/gcc/arm-none-eabi/6.3.1/thumb/v7-m/crtend.o
 .eh_frame      0x0000000000000000        0x4 /usr/lib/gcc/arm-none-eabi/6.3.1/thumb/v7-m/crtend.o
 .jcr           0x0000000000000000        0x4 /usr/lib/gcc/arm-none-eabi/6.3.1/thumb/v7-m/crtend.o
 .text          0x0000000000000000        0x0 /usr/lib/gcc/arm-none-eabi/6.3.1/thumb/v7-m/crtn.o
 .data          0x0000000000000000        0x0 /usr/lib/gcc/arm-none-eabi/6.3.1/thumb/v7-m/crtn.o
 .bss           0x0000000000000000        0x0 /usr/lib/gcc/arm-none-eabi/6.3.1/thumb/v7-m/crtn.o

Memory Configuration

Name             Origin             Length             Attributes
RAM              0x0000000020000000 0x0000000000010000 xrw
FLASH            0x0000000008000000 0x0000000000040000 xr
*default*        0x0000000000000000 0xffffffffffffffff

Linker script and memory map

LOAD /usr/lib/gcc/arm-none-eabi/6.3.1/thumb/v7-m/crti.o
LOAD /usr/lib/gcc/arm-none-eabi/6.3.1/thumb/v7-m/crtbegin.o
LOAD /usr/lib/gcc/arm-none-eabi/6.3.1/../../../arm-none-eabi/lib/thumb/v7-m/crt0.o
LOAD build/main.o
LOAD build/gpio.o
LOAD build/fatfs.o
LOAD build/sys.o
LOAD build/tim.o
LOAD build/usart.o
LOAD build/usb_host.o
LOAD build/usbh_conf.o
LOAD build/usbh_platform.o
LOAD build/stm32f1xx_it.o
LOAD build/stm32f1xx_hal_msp.o
LOAD build/stm32f1xx_hal_gpio_ex.o
LOAD build/stm32f1xx_hal_hcd.o
LOAD build/stm32f1xx_ll_usb.o
LOAD build/stm32f1xx_hal.o
LOAD build/stm32f1xx_hal_rcc.o
LOAD build/stm32f1xx_hal_rcc_ex.o
LOAD build/stm32f1xx_hal_gpio.o
LOAD build/stm32f1xx_hal_dma.o
LOAD build/stm32f1xx_hal_cortex.o
LOAD build/stm32f1xx_hal_pwr.o
LOAD build/stm32f1xx_hal_flash.o
LOAD build/stm32f1xx_hal_flash_ex.o
LOAD build/stm32f1xx_hal_tim.o
LOAD build/stm32f1xx_hal_tim_ex.o
LOAD build/stm32f1xx_hal_uart.o
LOAD build/system_stm32f1xx.o
LOAD build/diskio.o
LOAD build/ff.o
LOAD build/ff_gen_drv.o
LOAD build/syscall.o
LOAD build/ccsbcs.o
LOAD build/usbh_diskio.o
LOAD build/usbh_core.o
LOAD build/usbh_ctlreq.o
LOAD build/usbh_ioreq.o
LOAD build/usbh_pipes.o
LOAD build/usbh_msc.o
LOAD build/usbh_msc_bot.o
LOAD build/usbh_msc_scsi.o
LOAD build/Buffer_Gcode.o
LOAD build/Descritization_Gcode.o
LOAD build/GcodeConverter_Gcode.o
LOAD build/VirtualPrinters_Gcode.o
LOAD build/CharacterConverter_LCD.o
LOAD build/Driver_LCD.o
LOAD build/GPIOandTIM_LCD.o
LOAD build/Interface_LCD.o
LOAD build/TextConverter_LCD.o
LOAD build/Constructor_Menu.o
LOAD build/MainMenu_Menu.o
LOAD build/FunctionsForButtons.o
LOAD build/Driver_Motors.o
LOAD build/GPIO_Motors.o
LOAD build/State_USBdrive.o
LOAD build/Driver_USBdrive.o
LOAD build/coordinates.o
LOAD build/startup_stm32f105xc.o
LOAD /usr/lib/gcc/arm-none-eabi/6.3.1/../../../arm-none-eabi/lib/thumb/v7-m/libc_nano.a
LOAD /usr/lib/gcc/arm-none-eabi/6.3.1/../../../arm-none-eabi/lib/thumb/v7-m/libm.a
LOAD /usr/lib/gcc/arm-none-eabi/6.3.1/../../../arm-none-eabi/lib/thumb/v7-m/libnosys.a
START GROUP
LOAD /usr/lib/gcc/arm-none-eabi/6.3.1/thumb/v7-m/libgcc.a
LOAD /usr/lib/gcc/arm-none-eabi/6.3.1/../../../arm-none-eabi/lib/thumb/v7-m/libc_nano.a
END GROUP
START GROUP
LOAD /usr/lib/gcc/arm-none-eabi/6.3.1/thumb/v7-m/libgcc.a
LOAD /usr/lib/gcc/arm-none-eabi/6.3.1/../../../arm-none-eabi/lib/thumb/v7-m/libc_nano.a
END GROUP
LOAD /usr/lib/gcc/arm-none-eabi/6.3.1/thumb/v7-m/crtend.o
LOAD /usr/lib/gcc/arm-none-eabi/6.3.1/thumb/v7-m/crtn.o
                0x0000000020010000                _estack = 0x20010000
                0x0000000000000200                _Min_Heap_Size = 0x200
                0x0000000000000400                _Min_Stack_Size = 0x400

.isr_vector     0x0000000008000000      0x1e4
                0x0000000008000000                . = ALIGN (0x4)
 *(.isr_vector)
 .isr_vector    0x0000000008000000      0x1e4 build/startup_stm32f105xc.o
                0x0000000008000000                g_pfnVectors
                0x00000000080001e4                . = ALIGN (0x4)

.text           0x00000000080001e8    0x154ac
                0x00000000080001e8                . = ALIGN (0x4)
 *(.text)
 .text          0x00000000080001e8       0xa4 /usr/lib/gcc/arm-none-eabi/6.3.1/thumb/v7-m/crtbegin.o
 .text          0x000000000800028c        0x8 /usr/lib/gcc/arm-none-eabi/6.3.1/../../../arm-none-eabi/lib/thumb/v7-m/libc_nano.a(lib_a-atof.o)
                0x000000000800028c                atof
 .text          0x0000000008000294       0x10 /usr/lib/gcc/arm-none-eabi/6.3.1/../../../arm-none-eabi/lib/thumb/v7-m/libc_nano.a(lib_a-atoi.o)
                0x0000000008000294                atoi
                0x000000000800029c                _atoi_r
 .text          0x00000000080002a4       0x20 /usr/lib/gcc/arm-none-eabi/6.3.1/../../../arm-none-eabi/lib/thumb/v7-m/libc_nano.a(lib_a-malloc.o)
                0x00000000080002a4                malloc
                0x00000000080002b4                free
 .text          0x00000000080002c4       0x94 /usr/lib/gcc/arm-none-eabi/6.3.1/../../../arm-none-eabi/lib/thumb/v7-m/libc_nano.a(lib_a-memset.o)
                0x00000000080002c4                memset
 .text          0x0000000008000358       0xa8 /usr/lib/gcc/arm-none-eabi/6.3.1/../../../arm-none-eabi/lib/thumb/v7-m/libc_nano.a(lib_a-nano-freer.o)
                0x0000000008000358                _free_r
 .text          0x0000000008000400       0xc8 /usr/lib/gcc/arm-none-eabi/6.3.1/../../../arm-none-eabi/lib/thumb/v7-m/libc_nano.a(lib_a-nano-mallocr.o)
                0x0000000008000400                _malloc_r
 .text          0x00000000080004c8       0x68 /usr/lib/gcc/arm-none-eabi/6.3.1/../../../arm-none-eabi/lib/thumb/v7-m/libc_nano.a(lib_a-printf.o)
                0x00000000080004c8                _printf_r
                0x00000000080004c8                _iprintf_r
                0x00000000080004f8                printf
                0x00000000080004f8                iprintf
 .text          0x0000000008000530       0x24 /usr/lib/gcc/arm-none-eabi/6.3.1/../../../arm-none-eabi/lib/thumb/v7-m/libc_nano.a(lib_a-sbrkr.o)
                0x0000000008000530                _sbrk_r
 .text          0x0000000008000554       0x80 /usr/lib/gcc/arm-none-eabi/6.3.1/../../../arm-none-eabi/lib/thumb/v7-m/libc_nano.a(lib_a-sprintf.o)
                0x0000000008000554                _siprintf_r
                0x0000000008000554                _sprintf_r
                0x0000000008000590                sprintf
                0x0000000008000590                siprintf
 .text          0x00000000080005d4       0xe8 /usr/lib/gcc/arm-none-eabi/6.3.1/../../../arm-none-eabi/lib/thumb/v7-m/libc_nano.a(lib_a-strchr.o)
                0x00000000080005d4                strchr
 .text          0x00000000080006bc       0xbc /usr/lib/gcc/arm-none-eabi/6.3.1/../../../arm-none-eabi/lib/thumb/v7-m/libc_nano.a(lib_a-strcpy.o)
                0x00000000080006bc                strcpy
 .text          0x0000000008000778     0x10a8 /usr/lib/gcc/arm-none-eabi/6.3.1/../../../arm-none-eabi/lib/thumb/v7-m/libc_nano.a(lib_a-strtod.o)
                0x0000000008000778                _strtod_l
                0x000000000800169c                _strtod_r
                0x00000000080016bc                strtod_l
                0x00000000080016d4                strtod
                0x00000000080016f8                strtof_l
                0x0000000008001784                strtof
 .text          0x0000000008001820      0x194 /usr/lib/gcc/arm-none-eabi/6.3.1/../../../arm-none-eabi/lib/thumb/v7-m/libc_nano.a(lib_a-strtol.o)
                0x0000000008001944                _strtol_r
                0x0000000008001968                strtol_l
                0x0000000008001988                strtol
 .text          0x00000000080019b4       0xf4 /usr/lib/gcc/arm-none-eabi/6.3.1/../../../arm-none-eabi/lib/thumb/v7-m/libc_nano.a(lib_a-swprintf.o)
                0x00000000080019b4                _swprintf_r
                0x0000000008001a28                swprintf
 .text          0x0000000008001aa8       0x1c /usr/lib/gcc/arm-none-eabi/6.3.1/../../../arm-none-eabi/lib/thumb/v7-m/libc_nano.a(lib_a-wcscpy.o)
                0x0000000008001aa8                wcscpy
 .text          0x0000000008001ac4       0x18 /usr/lib/gcc/arm-none-eabi/6.3.1/../../../arm-none-eabi/lib/thumb/v7-m/libc_nano.a(lib_a-wcslen.o)
                0x0000000008001ac4                wcslen
 .text          0x0000000008001adc       0x54 /usr/lib/gcc/arm-none-eabi/6.3.1/../../../arm-none-eabi/lib/thumb/v7-m/libc_nano.a(lib_a-wcsstr.o)
                0x0000000008001adc                wcsstr
 .text          0x0000000008001b30        0x8 /usr/lib/gcc/arm-none-eabi/6.3.1/../../../arm-none-eabi/lib/thumb/v7-m/libc_nano.a(lib_a-wmemcpy.o)
                0x0000000008001b30                wmemcpy
 .text          0x0000000008001b38      0x210 /usr/lib/gcc/arm-none-eabi/6.3.1/../../../arm-none-eabi/lib/thumb/v7-m/libc_nano.a(lib_a-findfp.o)
                0x0000000008001b3c                _cleanup_r
                0x0000000008001b4c                __sfmoreglue
                0x0000000008001b7c                __sfp
                0x0000000008001cf4                _cleanup
                0x0000000008001d08                __sinit
                0x0000000008001d10                __sfp_lock_acquire
                0x0000000008001d14                __sfp_lock_release
                0x0000000008001d18                __sinit_lock_acquire
                0x0000000008001d1c                __sinit_lock_release
                0x0000000008001d20                __fp_lock_all
                0x0000000008001d34                __fp_unlock_all
 .text          0x0000000008001d48       0x98 /usr/lib/gcc/arm-none-eabi/6.3.1/../../../arm-none-eabi/lib/thumb/v7-m/libc_nano.a(lib_a-fwalk.o)
                0x0000000008001d48                _fwalk
                0x0000000008001d90                _fwalk_reent
 .text          0x0000000008001de0      0x5d0 /usr/lib/gcc/arm-none-eabi/6.3.1/../../../arm-none-eabi/lib/thumb/v7-m/libc_nano.a(lib_a-gdtoa-gethex.o)
                0x0000000008001e90                __gethex
 .text          0x00000000080023b0      0x1d0 /usr/lib/gcc/arm-none-eabi/6.3.1/../../../arm-none-eabi/lib/thumb/v7-m/libc_nano.a(lib_a-gdtoa-hexnan.o)
                0x00000000080023b0                __match
                0x00000000080023e0                __hexnan
 .text          0x0000000008002580       0x90 /usr/lib/gcc/arm-none-eabi/6.3.1/../../../arm-none-eabi/lib/thumb/v7-m/libc_nano.a(lib_a-locale.o)
                0x0000000008002580                _setlocale_r
                0x00000000080025c0                __locale_mb_cur_max
                0x00000000080025dc                __locale_ctype_ptr_l
                0x00000000080025e4                __locale_ctype_ptr
                0x0000000008002600                setlocale
 .text          0x0000000008002610       0x3c /usr/lib/gcc/arm-none-eabi/6.3.1/../../../arm-none-eabi/lib/thumb/v7-m/libc_nano.a(lib_a-localeconv.o)
                0x0000000008002610                __localeconv_l
                0x0000000008002614                _localeconv_r
                0x0000000008002630                localeconv
 .text          0x000000000800264c       0x50 /usr/lib/gcc/arm-none-eabi/6.3.1/../../../arm-none-eabi/lib/thumb/v7-m/libc_nano.a(lib_a-mbtowc_r.o)
                0x000000000800264c                _mbtowc_r
                0x0000000008002670                __ascii_mbtowc
 .text          0x000000000800269c       0xec /usr/lib/gcc/arm-none-eabi/6.3.1/../../../arm-none-eabi/lib/thumb/v7-m/libc_nano.a(lib_a-memcpy.o)
                0x000000000800269c                memcpy
 .text          0x0000000008002788        0x8 /usr/lib/gcc/arm-none-eabi/6.3.1/../../../arm-none-eabi/lib/thumb/v7-m/libc_nano.a(lib_a-mlock.o)
                0x0000000008002788                __malloc_lock
                0x000000000800278c                __malloc_unlock
 .text          0x0000000008002790      0x93c /usr/lib/gcc/arm-none-eabi/6.3.1/../../../arm-none-eabi/lib/thumb/v7-m/libc_nano.a(lib_a-mprec.o)
                0x0000000008002790                _Balloc
                0x00000000080027f8                _Bfree
                0x0000000008002830                __multadd
                0x00000000080028ac                __s2b
                0x0000000008002944                __hi0bits
                0x0000000008002984                __lo0bits
                0x00000000080029e4                __i2b
                0x00000000080029f8                __multiply
                0x0000000008002b44                __pow5mult
                0x0000000008002bfc                __lshift
                0x0000000008002cb4                __mcmp
                0x0000000008002cec                __mdiff
                0x0000000008002dec                __ulp
                0x0000000008002e30                __b2d
                0x0000000008002ef0                __d2b
                0x0000000008002fa0                __ratio
                0x0000000008002ff8                _mprec_log10
                0x0000000008003030                __copybits
                0x0000000008003078                __any_on
 .text          0x00000000080030cc       0x1c /usr/lib/gcc/arm-none-eabi/6.3.1/../../../arm-none-eabi/lib/thumb/v7-m/libc_nano.a(lib_a-nano-callocr.o)
                0x00000000080030cc                _calloc_r
 .text          0x00000000080030e8      0x440 /usr/lib/gcc/arm-none-eabi/6.3.1/../../../arm-none-eabi/lib/thumb/v7-m/libc_nano.a(lib_a-nano-svfprintf.o)
                0x00000000080030e8                __ssputs_r
                0x00000000080031ac                __ssprint_r
                0x00000000080032a0                _svfprintf_r
                0x00000000080032a0                _svfiprintf_r
 .text          0x0000000008003528      0x368 /usr/lib/gcc/arm-none-eabi/6.3.1/../../../arm-none-eabi/lib/thumb/v7-m/libc_nano.a(lib_a-nano-vfprintf.o)
                0x0000000008003560                __sfputs_r
                0x0000000008003590                __sprint_r
                0x00000000080035ac                _vfiprintf_r
                0x00000000080035ac                _vfprintf_r
                0x0000000008003878                vfiprintf
                0x0000000008003878                vfprintf
 .text          0x0000000008003890      0x3a0 /usr/lib/gcc/arm-none-eabi/6.3.1/../../../arm-none-eabi/lib/thumb/v7-m/libc_nano.a(lib_a-nano-vfprintf_i.o)
                0x0000000008003890                _printf_common
                0x00000000080039ac                _printf_i
 .text          0x0000000008003c30        0x8 /usr/lib/gcc/arm-none-eabi/6.3.1/../../../arm-none-eabi/lib/thumb/v7-m/libc_nano.a(lib_a-sf_nan.o)
                0x0000000008003c30                nanf
 .text          0x0000000008003c38       0x8c /usr/lib/gcc/arm-none-eabi/6.3.1/../../../arm-none-eabi/lib/thumb/v7-m/libc_nano.a(lib_a-stdio.o)
                0x0000000008003c38                __sread
                0x0000000008003c5c                __seofread
                0x0000000008003c60                __swrite
                0x0000000008003c9c                __sseek
                0x0000000008003cbc                __sclose
 .text          0x0000000008003cc4      0x1bc /usr/lib/gcc/arm-none-eabi/6.3.1/../../../arm-none-eabi/lib/thumb/v7-m/libc_nano.a(lib_a-strcmp.o)
                0x0000000008003cc4                strcmp
 .text          0x0000000008003e80       0x5c /usr/lib/gcc/arm-none-eabi/6.3.1/../../../arm-none-eabi/lib/thumb/v7-m/libc_nano.a(lib_a-strlen-stub.o)
                0x0000000008003e80                strlen
 .text          0x0000000008003edc       0x94 /usr/lib/gcc/arm-none-eabi/6.3.1/../../../arm-none-eabi/lib/thumb/v7-m/libc_nano.a(lib_a-strncmp.o)
                0x0000000008003edc                strncmp
 .text          0x0000000008003f70      0xf64 /usr/lib/gcc/arm-none-eabi/6.3.1/../../../arm-none-eabi/lib/thumb/v7-m/libc_nano.a(lib_a-svfwprintf.o)
                0x0000000008004094                _svfwprintf_r
 .text          0x0000000008004ed4       0xc0 /usr/lib/gcc/arm-none-eabi/6.3.1/../../../arm-none-eabi/lib/thumb/v7-m/libc_nano.a(lib_a-wbuf.o)
                0x0000000008004ed4                __swbuf_r
                0x0000000008004f84                __swbuf
 .text          0x0000000008004f94       0x3c /usr/lib/gcc/arm-none-eabi/6.3.1/../../../arm-none-eabi/lib/thumb/v7-m/libc_nano.a(lib_a-wctomb_r.o)
                0x0000000008004f94                _wctomb_r
                0x0000000008004fb8                __ascii_wctomb
 .text          0x0000000008004fd0       0x30 /usr/lib/gcc/arm-none-eabi/6.3.1/../../../arm-none-eabi/lib/thumb/v7-m/libc_nano.a(lib_a-wmemchr.o)
                0x0000000008004fd0                wmemchr
 .text          0x0000000008005000       0x2c /usr/lib/gcc/arm-none-eabi/6.3.1/../../../arm-none-eabi/lib/thumb/v7-m/libc_nano.a(lib_a-writer.o)
                0x0000000008005000                _write_r
 .text          0x000000000800502c      0x100 /usr/lib/gcc/arm-none-eabi/6.3.1/../../../arm-none-eabi/lib/thumb/v7-m/libc_nano.a(lib_a-wsetup.o)
                0x000000000800502c                __swsetup_r
 .text          0x000000000800512c       0x94 /usr/lib/gcc/arm-none-eabi/6.3.1/../../../arm-none-eabi/lib/thumb/v7-m/libc_nano.a(lib_a-btowc.o)
                0x000000000800512c                btowc
 .text          0x00000000080051c0       0x24 /usr/lib/gcc/arm-none-eabi/6.3.1/../../../arm-none-eabi/lib/thumb/v7-m/libc_nano.a(lib_a-closer.o)
                0x00000000080051c0                _close_r
 *fill*         0x00000000080051e4        0x4 
 .text          0x00000000080051e8      0xf7c /usr/lib/gcc/arm-none-eabi/6.3.1/../../../arm-none-eabi/lib/thumb/v7-m/libc_nano.a(lib_a-dtoa.o)
                0x000000000800530c                _dtoa_r
 .text          0x0000000008006164      0x1bc /usr/lib/gcc/arm-none-eabi/6.3.1/../../../arm-none-eabi/lib/thumb/v7-m/libc_nano.a(lib_a-fflush.o)
                0x0000000008006164                __sflush_r
                0x000000000800629c                _fflush_r
                0x00000000080062fc                fflush
 .text          0x0000000008006320      0x2f4 /usr/lib/gcc/arm-none-eabi/6.3.1/../../../arm-none-eabi/lib/thumb/v7-m/libc_nano.a(lib_a-fvwrite.o)
                0x0000000008006320                __sfvwrite_r
 .text          0x0000000008006614       0x2c /usr/lib/gcc/arm-none-eabi/6.3.1/../../../arm-none-eabi/lib/thumb/v7-m/libc_nano.a(lib_a-lseekr.o)
                0x0000000008006614                _lseek_r
 .text          0x0000000008006640       0xf0 /usr/lib/gcc/arm-none-eabi/6.3.1/../../../arm-none-eabi/lib/thumb/v7-m/libc_nano.a(lib_a-makebuf.o)
                0x0000000008006640                __swhatbuf_r
                0x000000000800669c                __smakebuf_r
 .text          0x0000000008006730       0x8c /usr/lib/gcc/arm-none-eabi/6.3.1/../../../arm-none-eabi/lib/thumb/v7-m/libc_nano.a(lib_a-memchr-stub.o)
                0x0000000008006730                memchr
 .text          0x00000000080067bc       0xc4 /usr/lib/gcc/arm-none-eabi/6.3.1/../../../arm-none-eabi/lib/thumb/v7-m/libc_nano.a(lib_a-memmove.o)
                0x00000000080067bc                memmove
 .text          0x0000000008006880       0x4c /usr/lib/gcc/arm-none-eabi/6.3.1/../../../arm-none-eabi/lib/thumb/v7-m/libc_nano.a(lib_a-nano-reallocr.o)
                0x0000000008006880                _realloc_r
 .text          0x00000000080068cc       0x2c /usr/lib/gcc/arm-none-eabi/6.3.1/../../../arm-none-eabi/lib/thumb/v7-m/libc_nano.a(lib_a-readr.o)
                0x00000000080068cc                _read_r
 .text          0x00000000080068f8       0x28 /usr/lib/gcc/arm-none-eabi/6.3.1/../../../arm-none-eabi/lib/thumb/v7-m/libc_nano.a(lib_a-fstatr.o)
                0x00000000080068f8                _fstat_r
 .text          0x0000000008006920       0x24 /usr/lib/gcc/arm-none-eabi/6.3.1/../../../arm-none-eabi/lib/thumb/v7-m/libc_nano.a(lib_a-isattyr.o)
                0x0000000008006920                _isatty_r
 .text          0x0000000008006944       0x10 /usr/lib/gcc/arm-none-eabi/6.3.1/../../../arm-none-eabi/lib/thumb/v7-m/libc_nano.a(lib_a-nano-msizer.o)
                0x0000000008006944                _malloc_usable_size_r
 .text          0x0000000008006954       0x58 /usr/lib/gcc/arm-none-eabi/6.3.1/../../../arm-none-eabi/lib/thumb/v7-m/libm.a(lib_a-sf_lround.o)
                0x0000000008006954                lroundf
 .text          0x00000000080069ac      0x334 /usr/lib/gcc/arm-none-eabi/6.3.1/../../../arm-none-eabi/lib/thumb/v7-m/libm.a(lib_a-w_pow.o)
                0x00000000080069ac                pow
 .text          0x0000000008006ce0       0xbc /usr/lib/gcc/arm-none-eabi/6.3.1/../../../arm-none-eabi/lib/thumb/v7-m/libm.a(lib_a-w_sqrt.o)
                0x0000000008006ce0                sqrt
 .text          0x0000000008006d9c       0xa0 /usr/lib/gcc/arm-none-eabi/6.3.1/../../../arm-none-eabi/lib/thumb/v7-m/libm.a(lib_a-wf_sqrt.o)
                0x0000000008006d9c                sqrtf
 *fill*         0x0000000008006e3c        0x4 
 .text          0x0000000008006e40      0xae4 /usr/lib/gcc/arm-none-eabi/6.3.1/../../../arm-none-eabi/lib/thumb/v7-m/libm.a(lib_a-e_pow.o)
                0x0000000008006e40                __ieee754_pow
 .text          0x0000000008007924      0x184 /usr/lib/gcc/arm-none-eabi/6.3.1/../../../arm-none-eabi/lib/thumb/v7-m/libm.a(lib_a-e_sqrt.o)
                0x0000000008007924                __ieee754_sqrt
 .text          0x0000000008007aa8       0xa8 /usr/lib/gcc/arm-none-eabi/6.3.1/../../../arm-none-eabi/lib/thumb/v7-m/libm.a(lib_a-ef_sqrt.o)
                0x0000000008007aa8                __ieee754_sqrtf
 .text          0x0000000008007b50        0x8 /usr/lib/gcc/arm-none-eabi/6.3.1/../../../arm-none-eabi/lib/thumb/v7-m/libm.a(lib_a-s_fabs.o)
                0x0000000008007b50                fabs
 .text          0x0000000008007b58        0xc /usr/lib/gcc/arm-none-eabi/6.3.1/../../../arm-none-eabi/lib/thumb/v7-m/libm.a(lib_a-s_finite.o)
                0x0000000008007b58                finite
 .text          0x0000000008007b64        0x4 /usr/lib/gcc/arm-none-eabi/6.3.1/../../../arm-none-eabi/lib/thumb/v7-m/libm.a(lib_a-s_matherr.o)
                0x0000000008007b64                matherr
 .text          0x0000000008007b68        0xc /usr/lib/gcc/arm-none-eabi/6.3.1/../../../arm-none-eabi/lib/thumb/v7-m/libm.a(lib_a-s_nan.o)
                0x0000000008007b68                nan
 .text          0x0000000008007b74      0x118 /usr/lib/gcc/arm-none-eabi/6.3.1/../../../arm-none-eabi/lib/thumb/v7-m/libm.a(lib_a-s_rint.o)
                0x0000000008007b74                rint
 *fill*         0x0000000008007c8c        0x4 
 .text          0x0000000008007c90       0xf4 /usr/lib/gcc/arm-none-eabi/6.3.1/../../../arm-none-eabi/lib/thumb/v7-m/libm.a(lib_a-s_scalbn.o)
                0x0000000008007c90                scalbn
 .text          0x0000000008007d84       0x10 /usr/lib/gcc/arm-none-eabi/6.3.1/../../../arm-none-eabi/lib/thumb/v7-m/libnosys.a(close.o)
                0x0000000008007d84                _close
 .text          0x0000000008007d94       0x10 /usr/lib/gcc/arm-none-eabi/6.3.1/../../../arm-none-eabi/lib/thumb/v7-m/libnosys.a(fstat.o)
                0x0000000008007d94                _fstat
 .text          0x0000000008007da4       0x10 /usr/lib/gcc/arm-none-eabi/6.3.1/../../../arm-none-eabi/lib/thumb/v7-m/libnosys.a(isatty.o)
                0x0000000008007da4                _isatty
 .text          0x0000000008007db4       0x10 /usr/lib/gcc/arm-none-eabi/6.3.1/../../../arm-none-eabi/lib/thumb/v7-m/libnosys.a(lseek.o)
                0x0000000008007db4                _lseek
 .text          0x0000000008007dc4       0x10 /usr/lib/gcc/arm-none-eabi/6.3.1/../../../arm-none-eabi/lib/thumb/v7-m/libnosys.a(read.o)
                0x0000000008007dc4                _read
 .text          0x0000000008007dd4       0x1c /usr/lib/gcc/arm-none-eabi/6.3.1/../../../arm-none-eabi/lib/thumb/v7-m/libnosys.a(sbrk.o)
                0x0000000008007dd4                _sbrk
 .text          0x0000000008007df0      0x370 /usr/lib/gcc/arm-none-eabi/6.3.1/thumb/v7-m/libgcc.a(_arm_addsubdf3.o)
                0x0000000008007df0                __aeabi_drsub
                0x0000000008007df8                __aeabi_dsub
                0x0000000008007df8                __subdf3
                0x0000000008007dfc                __adddf3
                0x0000000008007dfc                __aeabi_dadd
                0x0000000008008074                __aeabi_ui2d
                0x0000000008008074                __floatunsidf
                0x0000000008008094                __floatsidf
                0x0000000008008094                __aeabi_i2d
                0x00000000080080b8                __extendsfdf2
                0x00000000080080b8                __aeabi_f2d
                0x00000000080080f4                __aeabi_ul2d
                0x00000000080080f4                __floatundidf
                0x0000000008008104                __floatdidf
                0x0000000008008104                __aeabi_l2d
 .text          0x0000000008008160      0x424 /usr/lib/gcc/arm-none-eabi/6.3.1/thumb/v7-m/libgcc.a(_arm_muldivdf3.o)
                0x0000000008008160                __aeabi_dmul
                0x0000000008008160                __muldf3
                0x00000000080083b4                __aeabi_ddiv
                0x00000000080083b4                __divdf3
 .text          0x0000000008008584      0x110 /usr/lib/gcc/arm-none-eabi/6.3.1/thumb/v7-m/libgcc.a(_arm_cmpdf2.o)
                0x0000000008008584                __gtdf2
                0x0000000008008584                __gedf2
                0x000000000800858c                __ltdf2
                0x000000000800858c                __ledf2
                0x0000000008008594                __cmpdf2
                0x0000000008008594                __eqdf2
                0x0000000008008594                __nedf2
                0x0000000008008610                __aeabi_cdrcmple
                0x0000000008008620                __aeabi_cdcmple
                0x0000000008008620                __aeabi_cdcmpeq
                0x0000000008008630                __aeabi_dcmpeq
                0x0000000008008644                __aeabi_dcmplt
                0x0000000008008658                __aeabi_dcmple
                0x000000000800866c                __aeabi_dcmpge
                0x0000000008008680                __aeabi_dcmpgt
 .text          0x0000000008008694       0x2c /usr/lib/gcc/arm-none-eabi/6.3.1/thumb/v7-m/libgcc.a(_arm_unorddf2.o)
                0x0000000008008694                __aeabi_dcmpun
                0x0000000008008694                __unorddf2
 .text          0x00000000080086c0       0x50 /usr/lib/gcc/arm-none-eabi/6.3.1/thumb/v7-m/libgcc.a(_arm_fixdfsi.o)
                0x00000000080086c0                __fixdfsi
                0x00000000080086c0                __aeabi_d2iz
 .text          0x0000000008008710       0x40 /usr/lib/gcc/arm-none-eabi/6.3.1/thumb/v7-m/libgcc.a(_arm_fixunsdfsi.o)
                0x0000000008008710                __fixunsdfsi
                0x0000000008008710                __aeabi_d2uiz
 .text          0x0000000008008750       0xa0 /usr/lib/gcc/arm-none-eabi/6.3.1/thumb/v7-m/libgcc.a(_arm_truncdfsf2.o)
                0x0000000008008750                __aeabi_d2f
                0x0000000008008750                __truncdfsf2
 .text          0x00000000080087f0      0x21c /usr/lib/gcc/arm-none-eabi/6.3.1/thumb/v7-m/libgcc.a(_arm_addsubsf3.o)
                0x00000000080087f0                __aeabi_frsub
                0x00000000080087f8                __subsf3
                0x00000000080087f8                __aeabi_fsub
                0x00000000080087fc                __aeabi_fadd
                0x00000000080087fc                __addsf3
                0x000000000800895c                __aeabi_ui2f
                0x000000000800895c                __floatunsisf
                0x0000000008008964                __aeabi_i2f
                0x0000000008008964                __floatsisf
                0x0000000008008980                __floatundisf
                0x0000000008008980                __aeabi_ul2f
                0x0000000008008990                __floatdisf
                0x0000000008008990                __aeabi_l2f
 .text          0x0000000008008a0c      0x2a0 /usr/lib/gcc/arm-none-eabi/6.3.1/thumb/v7-m/libgcc.a(_arm_muldivsf3.o)
                0x0000000008008a0c                __mulsf3
                0x0000000008008a0c                __aeabi_fmul
                0x0000000008008b74                __divsf3
                0x0000000008008b74                __aeabi_fdiv
 .text          0x0000000008008cac       0xec /usr/lib/gcc/arm-none-eabi/6.3.1/thumb/v7-m/libgcc.a(_arm_cmpsf2.o)
                0x0000000008008cac                __gtsf2
                0x0000000008008cac                __gesf2
                0x0000000008008cb4                __lesf2
                0x0000000008008cb4                __ltsf2
                0x0000000008008cbc                __nesf2
                0x0000000008008cbc                __eqsf2
                0x0000000008008cbc                __cmpsf2
                0x0000000008008d1c                __aeabi_cfrcmple
                0x0000000008008d24                __aeabi_cfcmple
                0x0000000008008d24                __aeabi_cfcmpeq
                0x0000000008008d34                __aeabi_fcmpeq
                0x0000000008008d48                __aeabi_fcmplt
                0x0000000008008d5c                __aeabi_fcmple
                0x0000000008008d70                __aeabi_fcmpge
                0x0000000008008d84                __aeabi_fcmpgt
 .text          0x0000000008008d98       0x2c /usr/lib/gcc/arm-none-eabi/6.3.1/thumb/v7-m/libgcc.a(_arm_unordsf2.o)
                0x0000000008008d98                __aeabi_fcmpun
                0x0000000008008d98                __unordsf2
 .text          0x0000000008008dc4       0x4c /usr/lib/gcc/arm-none-eabi/6.3.1/thumb/v7-m/libgcc.a(_arm_fixsfsi.o)
                0x0000000008008dc4                __fixsfsi
                0x0000000008008dc4                __aeabi_f2iz
 .text          0x0000000008008e10       0x30 /usr/lib/gcc/arm-none-eabi/6.3.1/thumb/v7-m/libgcc.a(_aeabi_uldivmod.o)
                0x0000000008008e10                __aeabi_uldivmod
 .text          0x0000000008008e40       0x30 /usr/lib/gcc/arm-none-eabi/6.3.1/thumb/v7-m/libgcc.a(_fixdfdi.o)
                0x0000000008008e40                __aeabi_d2lz
                0x0000000008008e40                __fixdfdi
 .text          0x0000000008008e70       0x48 /usr/lib/gcc/arm-none-eabi/6.3.1/thumb/v7-m/libgcc.a(_fixunsdfdi.o)
                0x0000000008008e70                __aeabi_d2ulz
                0x0000000008008e70                __fixunsdfdi
 .text          0x0000000008008eb8      0x2dc /usr/lib/gcc/arm-none-eabi/6.3.1/thumb/v7-m/libgcc.a(_udivmoddi4.o)
                0x0000000008008eb8                __udivmoddi4
 .text          0x0000000008009194        0x4 /usr/lib/gcc/arm-none-eabi/6.3.1/thumb/v7-m/libgcc.a(_dvmd_tls.o)
                0x0000000008009194                __aeabi_ldiv0
                0x0000000008009194                __aeabi_idiv0
 .text          0x0000000008009198        0xc /usr/lib/gcc/arm-none-eabi/6.3.1/../../../arm-none-eabi/lib/thumb/v7-m/libc_nano.a(lib_a-errno.o)
                0x0000000008009198                __errno
 *(.text*)
 .text._write   0x00000000080091a4       0x18 build/main.o
                0x00000000080091a4                _write
 .text.SystemClock_Config
                0x00000000080091bc       0x74 build/main.o
                0x00000000080091bc                SystemClock_Config
 .text.main     0x0000000008009230      0x180 build/main.o
                0x0000000008009230                main
 .text.Error_Handler
                0x00000000080093b0        0x2 build/main.o
                0x00000000080093b0                Error_Handler
 *fill*         0x00000000080093b2        0x2 
 .text.MX_GPIO_Init
                0x00000000080093b4      0x174 build/gpio.o
                0x00000000080093b4                MX_GPIO_Init
 .text.MX_FATFS_Init
                0x0000000008009528       0x1c build/fatfs.o
                0x0000000008009528                MX_FATFS_Init
 .text.get_fattime
                0x0000000008009544        0x4 build/fatfs.o
                0x0000000008009544                get_fattime
 .text.MX_TIM2_Init
                0x0000000008009548       0x6c build/tim.o
                0x0000000008009548                MX_TIM2_Init
 .text.MX_TIM3_Init
                0x00000000080095b4       0x70 build/tim.o
                0x00000000080095b4                MX_TIM3_Init
 .text.MX_TIM4_Init
                0x0000000008009624       0x70 build/tim.o
                0x0000000008009624                MX_TIM4_Init
 .text.MX_TIM5_Init
                0x0000000008009694       0x74 build/tim.o
                0x0000000008009694                MX_TIM5_Init
 .text.HAL_TIM_Base_MspInit
                0x0000000008009708       0xd0 build/tim.o
                0x0000000008009708                HAL_TIM_Base_MspInit
 .text.MX_USART2_UART_Init
                0x00000000080097d8       0x34 build/usart.o
                0x00000000080097d8                MX_USART2_UART_Init
 .text.HAL_UART_MspInit
                0x000000000800980c       0x88 build/usart.o
                0x000000000800980c                HAL_UART_MspInit
 .text.USBH_UserProcess
                0x0000000008009894       0x44 build/usb_host.o
 .text.MX_USB_HOST_Init
                0x00000000080098d8       0x40 build/usb_host.o
                0x00000000080098d8                MX_USB_HOST_Init
 .text.MX_USB_HOST_Process
                0x0000000008009918       0x10 build/usb_host.o
                0x0000000008009918                MX_USB_HOST_Process
 .text.HAL_HCD_MspInit
                0x0000000008009928       0x6c build/usbh_conf.o
                0x0000000008009928                HAL_HCD_MspInit
 .text.HAL_HCD_SOF_Callback
                0x0000000008009994        0xc build/usbh_conf.o
                0x0000000008009994                HAL_HCD_SOF_Callback
 .text.HAL_HCD_Connect_Callback
                0x00000000080099a0        0xc build/usbh_conf.o
                0x00000000080099a0                HAL_HCD_Connect_Callback
 .text.HAL_HCD_Disconnect_Callback
                0x00000000080099ac        0xc build/usbh_conf.o
                0x00000000080099ac                HAL_HCD_Disconnect_Callback
 .text.HAL_HCD_HC_NotifyURBChange_Callback
                0x00000000080099b8        0x2 build/usbh_conf.o
                0x00000000080099b8                HAL_HCD_HC_NotifyURBChange_Callback
 *fill*         0x00000000080099ba        0x2 
 .text.USBH_LL_Init
                0x00000000080099bc       0x50 build/usbh_conf.o
                0x00000000080099bc                USBH_LL_Init
 .text.USBH_LL_GetSpeed
                0x0000000008009a0c       0x1c build/usbh_conf.o
                0x0000000008009a0c                USBH_LL_GetSpeed
 .text.USBH_LL_GetLastXferSize
                0x0000000008009a28        0xc build/usbh_conf.o
                0x0000000008009a28                USBH_LL_GetLastXferSize
 .text.USBH_LL_GetURBState
                0x0000000008009a34        0xc build/usbh_conf.o
                0x0000000008009a34                USBH_LL_GetURBState
 .text.USBH_LL_DriverVBUS
                0x0000000008009a40       0x1c build/usbh_conf.o
                0x0000000008009a40                USBH_LL_DriverVBUS
 .text.USBH_LL_SetToggle
                0x0000000008009a5c       0x30 build/usbh_conf.o
                0x0000000008009a5c                USBH_LL_SetToggle
 .text.USBH_LL_GetToggle
                0x0000000008009a8c       0x2a build/usbh_conf.o
                0x0000000008009a8c                USBH_LL_GetToggle
 .text.USBH_Delay
                0x0000000008009ab6        0x8 build/usbh_conf.o
                0x0000000008009ab6                USBH_Delay
 .text.USBH_Get_USB_Status
                0x0000000008009abe       0x12 build/usbh_conf.o
                0x0000000008009abe                USBH_Get_USB_Status
 .text.USBH_LL_Start
                0x0000000008009ad0       0x10 build/usbh_conf.o
                0x0000000008009ad0                USBH_LL_Start
 .text.USBH_LL_Stop
                0x0000000008009ae0       0x10 build/usbh_conf.o
                0x0000000008009ae0                USBH_LL_Stop
 .text.USBH_LL_ResetPort
                0x0000000008009af0       0x10 build/usbh_conf.o
                0x0000000008009af0                USBH_LL_ResetPort
 .text.USBH_LL_OpenPipe
                0x0000000008009b00       0x26 build/usbh_conf.o
                0x0000000008009b00                USBH_LL_OpenPipe
 .text.USBH_LL_ClosePipe
                0x0000000008009b26       0x10 build/usbh_conf.o
                0x0000000008009b26                USBH_LL_ClosePipe
 .text.USBH_LL_SubmitURB
                0x0000000008009b36       0x2a build/usbh_conf.o
                0x0000000008009b36                USBH_LL_SubmitURB
 .text.MX_DriverVbusFS
                0x0000000008009b60       0x1c build/usbh_platform.o
                0x0000000008009b60                MX_DriverVbusFS
 .text.NMI_Handler
                0x0000000008009b7c        0x2 build/stm32f1xx_it.o
                0x0000000008009b7c                NMI_Handler
 .text.HardFault_Handler
                0x0000000008009b7e        0x2 build/stm32f1xx_it.o
                0x0000000008009b7e                HardFault_Handler
 .text.MemManage_Handler
                0x0000000008009b80        0x2 build/stm32f1xx_it.o
                0x0000000008009b80                MemManage_Handler
 .text.BusFault_Handler
                0x0000000008009b82        0x2 build/stm32f1xx_it.o
                0x0000000008009b82                BusFault_Handler
 .text.UsageFault_Handler
                0x0000000008009b84        0x2 build/stm32f1xx_it.o
                0x0000000008009b84                UsageFault_Handler
 .text.SVC_Handler
                0x0000000008009b86        0x2 build/stm32f1xx_it.o
                0x0000000008009b86                SVC_Handler
 .text.DebugMon_Handler
                0x0000000008009b88        0x2 build/stm32f1xx_it.o
                0x0000000008009b88                DebugMon_Handler
 .text.PendSV_Handler
                0x0000000008009b8a        0x2 build/stm32f1xx_it.o
                0x0000000008009b8a                PendSV_Handler
 .text.SysTick_Handler
                0x0000000008009b8c        0x8 build/stm32f1xx_it.o
                0x0000000008009b8c                SysTick_Handler
 .text.TIM2_IRQHandler
                0x0000000008009b94       0x10 build/stm32f1xx_it.o
                0x0000000008009b94                TIM2_IRQHandler
 .text.TIM3_IRQHandler
                0x0000000008009ba4       0x44 build/stm32f1xx_it.o
                0x0000000008009ba4                TIM3_IRQHandler
 .text.TIM4_IRQHandler
                0x0000000008009be8       0x14 build/stm32f1xx_it.o
                0x0000000008009be8                TIM4_IRQHandler
 .text.TIM5_IRQHandler
                0x0000000008009bfc       0x3c build/stm32f1xx_it.o
                0x0000000008009bfc                TIM5_IRQHandler
 .text.OTG_FS_IRQHandler
                0x0000000008009c38       0x10 build/stm32f1xx_it.o
                0x0000000008009c38                OTG_FS_IRQHandler
 .text.HAL_MspInit
                0x0000000008009c48       0x44 build/stm32f1xx_hal_msp.o
                0x0000000008009c48                HAL_MspInit
 .text.HCD_RXQLVL_IRQHandler
                0x0000000008009c8c       0x88 build/stm32f1xx_hal_hcd.o
 .text.HAL_HCD_HC_Init
                0x0000000008009d14       0x82 build/stm32f1xx_hal_hcd.o
                0x0000000008009d14                HAL_HCD_HC_Init
 .text.HAL_HCD_HC_Halt
                0x0000000008009d96       0x24 build/stm32f1xx_hal_hcd.o
                0x0000000008009d96                HAL_HCD_HC_Halt
 .text.HAL_HCD_Init
                0x0000000008009dba       0x74 build/stm32f1xx_hal_hcd.o
                0x0000000008009dba                HAL_HCD_Init
 .text.HAL_HCD_HC_SubmitRequest
                0x0000000008009e2e      0x1d6 build/stm32f1xx_hal_hcd.o
                0x0000000008009e2e                HAL_HCD_HC_SubmitRequest
 .text.HCD_Port_IRQHandler
                0x000000000800a004       0xb6 build/stm32f1xx_hal_hcd.o
 .text.HCD_HC_IN_IRQHandler
                0x000000000800a0ba      0x260 build/stm32f1xx_hal_hcd.o
 .text.HCD_HC_OUT_IRQHandler
                0x000000000800a31a      0x2aa build/stm32f1xx_hal_hcd.o
 .text.HAL_HCD_IRQHandler
                0x000000000800a5c4      0x142 build/stm32f1xx_hal_hcd.o
                0x000000000800a5c4                HAL_HCD_IRQHandler
 .text.HAL_HCD_Start
                0x000000000800a706       0x2c build/stm32f1xx_hal_hcd.o
                0x000000000800a706                HAL_HCD_Start
 .text.HAL_HCD_Stop
                0x000000000800a732       0x24 build/stm32f1xx_hal_hcd.o
                0x000000000800a732                HAL_HCD_Stop
 .text.HAL_HCD_ResetPort
                0x000000000800a756        0xa build/stm32f1xx_hal_hcd.o
                0x000000000800a756                HAL_HCD_ResetPort
 .text.HAL_HCD_HC_GetURBState
                0x000000000800a760        0xe build/stm32f1xx_hal_hcd.o
                0x000000000800a760                HAL_HCD_HC_GetURBState
 .text.HAL_HCD_HC_GetXferCount
                0x000000000800a76e        0xc build/stm32f1xx_hal_hcd.o
                0x000000000800a76e                HAL_HCD_HC_GetXferCount
 .text.HAL_HCD_GetCurrentFrame
                0x000000000800a77a        0xa build/stm32f1xx_hal_hcd.o
                0x000000000800a77a                HAL_HCD_GetCurrentFrame
 .text.HAL_HCD_GetCurrentSpeed
                0x000000000800a784        0xa build/stm32f1xx_hal_hcd.o
                0x000000000800a784                HAL_HCD_GetCurrentSpeed
 .text.USB_CoreInit
                0x000000000800a78e       0x28 build/stm32f1xx_ll_usb.o
                0x000000000800a78e                USB_CoreInit
 .text.USB_EnableGlobalInt
                0x000000000800a7b6        0xc build/stm32f1xx_ll_usb.o
                0x000000000800a7b6                USB_EnableGlobalInt
 .text.USB_DisableGlobalInt
                0x000000000800a7c2        0xc build/stm32f1xx_ll_usb.o
                0x000000000800a7c2                USB_DisableGlobalInt
 .text.USB_SetCurrentMode
                0x000000000800a7ce       0x2c build/stm32f1xx_ll_usb.o
                0x000000000800a7ce                USB_SetCurrentMode
 *fill*         0x000000000800a7fa        0x2 
 .text.USB_FlushTxFifo
                0x000000000800a7fc       0x28 build/stm32f1xx_ll_usb.o
                0x000000000800a7fc                USB_FlushTxFifo
 .text.USB_FlushRxFifo
                0x000000000800a824       0x24 build/stm32f1xx_ll_usb.o
                0x000000000800a824                USB_FlushRxFifo
 .text.USB_WritePacket
                0x000000000800a848       0x24 build/stm32f1xx_ll_usb.o
                0x000000000800a848                USB_WritePacket
 .text.USB_ReadPacket
                0x000000000800a86c       0x26 build/stm32f1xx_ll_usb.o
                0x000000000800a86c                USB_ReadPacket
 .text.USB_ReadInterrupts
                0x000000000800a892        0x8 build/stm32f1xx_ll_usb.o
                0x000000000800a892                USB_ReadInterrupts
 .text.USB_GetMode
                0x000000000800a89a        0x8 build/stm32f1xx_ll_usb.o
                0x000000000800a89a                USB_GetMode
 *fill*         0x000000000800a8a2        0x2 
 .text.USB_HostInit
                0x000000000800a8a4       0xc8 build/stm32f1xx_ll_usb.o
                0x000000000800a8a4                USB_HostInit
 .text.USB_InitFSLSPClkSel
                0x000000000800a96c       0x3e build/stm32f1xx_ll_usb.o
                0x000000000800a96c                USB_InitFSLSPClkSel
 .text.USB_ResetPort
                0x000000000800a9aa       0x38 build/stm32f1xx_ll_usb.o
                0x000000000800a9aa                USB_ResetPort
 .text.USB_DriveVbus
                0x000000000800a9e2       0x46 build/stm32f1xx_ll_usb.o
                0x000000000800a9e2                USB_DriveVbus
 .text.USB_GetHostSpeed
                0x000000000800aa28       0x16 build/stm32f1xx_ll_usb.o
                0x000000000800aa28                USB_GetHostSpeed
 .text.USB_GetCurrentFrame
                0x000000000800aa3e        0xa build/stm32f1xx_ll_usb.o
                0x000000000800aa3e                USB_GetCurrentFrame
 .text.USB_HC_Init
                0x000000000800aa48       0xd0 build/stm32f1xx_ll_usb.o
                0x000000000800aa48                USB_HC_Init
 .text.USB_HC_StartXfer
                0x000000000800ab18      0x1e8 build/stm32f1xx_ll_usb.o
                0x000000000800ab18                USB_HC_StartXfer
 .text.USB_HC_ReadInterrupt
                0x000000000800ad00       0x1c build/stm32f1xx_ll_usb.o
                0x000000000800ad00                USB_HC_ReadInterrupt
 .text.USB_HC_Halt
                0x000000000800ad1c      0x1fe build/stm32f1xx_ll_usb.o
                0x000000000800ad1c                USB_HC_Halt
 .text.USB_StopHost
                0x000000000800af1a      0x10c build/stm32f1xx_ll_usb.o
                0x000000000800af1a                USB_StopHost
 *fill*         0x000000000800b026        0x2 
 .text.USB_CoreReset
                0x000000000800b028       0x64 build/stm32f1xx_ll_usb.o
 .text.HAL_InitTick
                0x000000000800b08c       0x4c build/stm32f1xx_hal.o
                0x000000000800b08c                HAL_InitTick
 .text.HAL_Init
                0x000000000800b0d8       0x24 build/stm32f1xx_hal.o
                0x000000000800b0d8                HAL_Init
 .text.HAL_IncTick
                0x000000000800b0fc       0x18 build/stm32f1xx_hal.o
                0x000000000800b0fc                HAL_IncTick
 .text.HAL_GetTick
                0x000000000800b114        0xc build/stm32f1xx_hal.o
                0x000000000800b114                HAL_GetTick
 .text.HAL_Delay
                0x000000000800b120       0x28 build/stm32f1xx_hal.o
                0x000000000800b120                HAL_Delay
 .text.RCC_Delay
                0x000000000800b148       0x2c build/stm32f1xx_hal_rcc.o
 .text.HAL_RCC_OscConfig
                0x000000000800b174      0x4c0 build/stm32f1xx_hal_rcc.o
                0x000000000800b174                HAL_RCC_OscConfig
 .text.HAL_RCC_GetSysClockFreq
                0x000000000800b634       0xe4 build/stm32f1xx_hal_rcc.o
                0x000000000800b634                HAL_RCC_GetSysClockFreq
 .text.HAL_RCC_ClockConfig
                0x000000000800b718      0x19c build/stm32f1xx_hal_rcc.o
                0x000000000800b718                HAL_RCC_ClockConfig
 .text.HAL_RCC_GetHCLKFreq
                0x000000000800b8b4        0xc build/stm32f1xx_hal_rcc.o
                0x000000000800b8b4                HAL_RCC_GetHCLKFreq
 .text.HAL_RCC_GetPCLK1Freq
                0x000000000800b8c0       0x20 build/stm32f1xx_hal_rcc.o
                0x000000000800b8c0                HAL_RCC_GetPCLK1Freq
 .text.HAL_RCC_GetPCLK2Freq
                0x000000000800b8e0       0x20 build/stm32f1xx_hal_rcc.o
                0x000000000800b8e0                HAL_RCC_GetPCLK2Freq
 .text.HAL_RCCEx_PeriphCLKConfig
                0x000000000800b900      0x1cc build/stm32f1xx_hal_rcc_ex.o
                0x000000000800b900                HAL_RCCEx_PeriphCLKConfig
 .text.HAL_GPIO_Init
                0x000000000800bacc      0x1d4 build/stm32f1xx_hal_gpio.o
                0x000000000800bacc                HAL_GPIO_Init
 .text.HAL_GPIO_ReadPin
                0x000000000800bca0        0xe build/stm32f1xx_hal_gpio.o
                0x000000000800bca0                HAL_GPIO_ReadPin
 .text.HAL_GPIO_WritePin
                0x000000000800bcae        0xc build/stm32f1xx_hal_gpio.o
                0x000000000800bcae                HAL_GPIO_WritePin
 *fill*         0x000000000800bcba        0x2 
 .text.HAL_NVIC_SetPriorityGrouping
                0x000000000800bcbc       0x24 build/stm32f1xx_hal_cortex.o
                0x000000000800bcbc                HAL_NVIC_SetPriorityGrouping
 .text.HAL_NVIC_SetPriority
                0x000000000800bce0       0x68 build/stm32f1xx_hal_cortex.o
                0x000000000800bce0                HAL_NVIC_SetPriority
 .text.HAL_NVIC_EnableIRQ
                0x000000000800bd48       0x18 build/stm32f1xx_hal_cortex.o
                0x000000000800bd48                HAL_NVIC_EnableIRQ
 .text.HAL_SYSTICK_Config
                0x000000000800bd60       0x2c build/stm32f1xx_hal_cortex.o
                0x000000000800bd60                HAL_SYSTICK_Config
 .text.TIM_TI1_ConfigInputStage
                0x000000000800bd8c       0x24 build/stm32f1xx_hal_tim.o
 .text.TIM_TI2_ConfigInputStage
                0x000000000800bdb0       0x26 build/stm32f1xx_hal_tim.o
 .text.TIM_ITRx_SetConfig
                0x000000000800bdd6       0x10 build/stm32f1xx_hal_tim.o
 .text.TIM_ETR_SetConfig
                0x000000000800bde6       0x16 build/stm32f1xx_hal_tim.o
 .text.HAL_TIM_Base_Start_IT
                0x000000000800bdfc       0x18 build/stm32f1xx_hal_tim.o
                0x000000000800bdfc                HAL_TIM_Base_Start_IT
 .text.HAL_TIM_ConfigClockSource
                0x000000000800be14      0x108 build/stm32f1xx_hal_tim.o
                0x000000000800be14                HAL_TIM_ConfigClockSource
 .text.HAL_TIM_PeriodElapsedCallback
                0x000000000800bf1c        0x2 build/stm32f1xx_hal_tim.o
                0x000000000800bf1c                HAL_TIM_PeriodElapsedCallback
 .text.HAL_TIM_OC_DelayElapsedCallback
                0x000000000800bf1e        0x2 build/stm32f1xx_hal_tim.o
                0x000000000800bf1e                HAL_TIM_OC_DelayElapsedCallback
 .text.HAL_TIM_IC_CaptureCallback
                0x000000000800bf20        0x2 build/stm32f1xx_hal_tim.o
                0x000000000800bf20                HAL_TIM_IC_CaptureCallback
 .text.HAL_TIM_PWM_PulseFinishedCallback
                0x000000000800bf22        0x2 build/stm32f1xx_hal_tim.o
                0x000000000800bf22                HAL_TIM_PWM_PulseFinishedCallback
 .text.HAL_TIM_TriggerCallback
                0x000000000800bf24        0x2 build/stm32f1xx_hal_tim.o
                0x000000000800bf24                HAL_TIM_TriggerCallback
 .text.HAL_TIM_IRQHandler
                0x000000000800bf26      0x17a build/stm32f1xx_hal_tim.o
                0x000000000800bf26                HAL_TIM_IRQHandler
 .text.TIM_Base_SetConfig
                0x000000000800c0a0       0x84 build/stm32f1xx_hal_tim.o
                0x000000000800c0a0                TIM_Base_SetConfig
 .text.HAL_TIM_Base_Init
                0x000000000800c124       0x32 build/stm32f1xx_hal_tim.o
                0x000000000800c124                HAL_TIM_Base_Init
 .text.HAL_TIMEx_MasterConfigSynchronization
                0x000000000800c156       0x52 build/stm32f1xx_hal_tim_ex.o
                0x000000000800c156                HAL_TIMEx_MasterConfigSynchronization
 .text.HAL_TIMEx_CommutationCallback
                0x000000000800c1a8        0x2 build/stm32f1xx_hal_tim_ex.o
                0x000000000800c1a8                HAL_TIMEx_CommutationCallback
 .text.HAL_TIMEx_BreakCallback
                0x000000000800c1aa        0x2 build/stm32f1xx_hal_tim_ex.o
                0x000000000800c1aa                HAL_TIMEx_BreakCallback
 .text.UART_SetConfig
                0x000000000800c1ac      0x1ac build/stm32f1xx_hal_uart.o
 .text.UART_WaitOnFlagUntilTimeout
                0x000000000800c358       0x62 build/stm32f1xx_hal_uart.o
 .text.HAL_UART_Init
                0x000000000800c3ba       0x5e build/stm32f1xx_hal_uart.o
                0x000000000800c3ba                HAL_UART_Init
 .text.HAL_UART_Transmit
                0x000000000800c418       0xe0 build/stm32f1xx_hal_uart.o
                0x000000000800c418                HAL_UART_Transmit
 .text.SystemInit
                0x000000000800c4f8       0x58 build/system_stm32f1xx.o
                0x000000000800c4f8                SystemInit
 .text.disk_status
                0x000000000800c550       0x18 build/diskio.o
                0x000000000800c550                disk_status
 .text.disk_initialize
                0x000000000800c568       0x28 build/diskio.o
                0x000000000800c568                disk_initialize
 .text.disk_read
                0x000000000800c590       0x18 build/diskio.o
                0x000000000800c590                disk_read
 .text.disk_write
                0x000000000800c5a8       0x18 build/diskio.o
                0x000000000800c5a8                disk_write
 .text.disk_ioctl
                0x000000000800c5c0       0x18 build/diskio.o
                0x000000000800c5c0                disk_ioctl
 .text.mem_cpy  0x000000000800c5d8       0x14 build/ff.o
 .text.mem_set  0x000000000800c5ec       0x10 build/ff.o
 .text.mem_cmp  0x000000000800c5fc       0x22 build/ff.o
 .text.chk_chr  0x000000000800c61e       0x10 build/ff.o
 *fill*         0x000000000800c62e        0x2 
 .text.chk_lock
                0x000000000800c630       0x90 build/ff.o
 .text.enq_lock
                0x000000000800c6c0       0x24 build/ff.o
 .text.inc_lock
                0x000000000800c6e4       0xe0 build/ff.o
 .text.dec_lock
                0x000000000800c7c4       0x44 build/ff.o
 .text.clear_lock
                0x000000000800c808       0x34 build/ff.o
 .text.clmt_clust
                0x000000000800c83c       0x36 build/ff.o
 .text.ld_clust
                0x000000000800c872       0x24 build/ff.o
 .text.st_clust
                0x000000000800c896       0x12 build/ff.o
 .text.pick_lfn
                0x000000000800c8a8       0x74 build/ff.o
 .text.fit_lfn  0x000000000800c91c       0x64 build/ff.o
 .text.gen_numname
                0x000000000800c980       0xa0 build/ff.o
 .text.sum_sfn  0x000000000800ca20       0x1c build/ff.o
 .text.get_ldnumber
                0x000000000800ca3c       0x52 build/ff.o
 .text.sync_window
                0x000000000800ca8e       0x76 build/ff.o
 .text.move_window
                0x000000000800cb04       0x3e build/ff.o
 *fill*         0x000000000800cb42        0x2 
 .text.check_fs
                0x000000000800cb44       0x94 build/ff.o
 .text.validate
                0x000000000800cbd8       0x4e build/ff.o
 *fill*         0x000000000800cc26        0x2 
 .text.find_volume
                0x000000000800cc28      0x418 build/ff.o
 .text.sync_fs  0x000000000800d040       0xd6 build/ff.o
 *fill*         0x000000000800d116        0x2 
 .text.create_name
                0x000000000800d118      0x234 build/ff.o
 .text.get_fileinfo
                0x000000000800d34c       0xf2 build/ff.o
 *fill*         0x000000000800d43e        0x2 
 .text.cmp_lfn  0x000000000800d440       0x8c build/ff.o
 .text.clust2sect
                0x000000000800d4cc       0x24 build/ff.o
                0x000000000800d4cc                clust2sect
 .text.get_fat  0x000000000800d4f0      0x136 build/ff.o
                0x000000000800d4f0                get_fat
 .text.dir_sdi  0x000000000800d626       0xf6 build/ff.o
 .text.put_fat  0x000000000800d71c      0x182 build/ff.o
                0x000000000800d71c                put_fat
 .text.create_chain
                0x000000000800d89e       0xdc build/ff.o
 .text.dir_next
                0x000000000800d97a      0x19e build/ff.o
 .text.dir_find
                0x000000000800db18       0xfa build/ff.o
 .text.follow_path
                0x000000000800dc12       0x94 build/ff.o
 .text.dir_alloc
                0x000000000800dca6       0x5a build/ff.o
 .text.dir_register
                0x000000000800dd00      0x174 build/ff.o
 .text.dir_read
                0x000000000800de74       0xde build/ff.o
 .text.remove_chain
                0x000000000800df52       0x7c build/ff.o
 *fill*         0x000000000800dfce        0x2 
 .text.f_mount  0x000000000800dfd0       0x64 build/ff.o
                0x000000000800dfd0                f_mount
 .text.f_open   0x000000000800e034      0x22c build/ff.o
                0x000000000800e034                f_open
 .text.f_read   0x000000000800e260      0x25e build/ff.o
                0x000000000800e260                f_read
 .text.f_sync   0x000000000800e4be       0xda build/ff.o
                0x000000000800e4be                f_sync
 .text.f_close  0x000000000800e598       0x36 build/ff.o
                0x000000000800e598                f_close
 *fill*         0x000000000800e5ce        0x2 
 .text.f_opendir
                0x000000000800e5d0       0xbc build/ff.o
                0x000000000800e5d0                f_opendir
 .text.f_closedir
                0x000000000800e68c       0x2a build/ff.o
                0x000000000800e68c                f_closedir
 *fill*         0x000000000800e6b6        0x2 
 .text.f_readdir
                0x000000000800e6b8       0x74 build/ff.o
                0x000000000800e6b8                f_readdir
 .text.f_gets   0x000000000800e72c       0x54 build/ff.o
                0x000000000800e72c                f_gets
 .text.FATFS_LinkDriverEx
                0x000000000800e780       0x4c build/ff_gen_drv.o
                0x000000000800e780                FATFS_LinkDriverEx
 .text.FATFS_LinkDriver
                0x000000000800e7cc        0xa build/ff_gen_drv.o
                0x000000000800e7cc                FATFS_LinkDriver
 *fill*         0x000000000800e7d6        0x2 
 .text.ff_convert
                0x000000000800e7d8       0x38 build/ccsbcs.o
                0x000000000800e7d8                ff_convert
 .text.ff_wtoupper
                0x000000000800e810       0x24 build/ccsbcs.o
                0x000000000800e810                ff_wtoupper
 .text.USBH_initialize
                0x000000000800e834        0x4 build/usbh_diskio.o
                0x000000000800e834                USBH_initialize
 .text.USBH_status
                0x000000000800e838       0x18 build/usbh_diskio.o
                0x000000000800e838                USBH_status
 .text.USBH_read
                0x000000000800e850       0x4c build/usbh_diskio.o
                0x000000000800e850                USBH_read
 .text.USBH_ioctl
                0x000000000800e89c       0x68 build/usbh_diskio.o
                0x000000000800e89c                USBH_ioctl
 .text.USBH_write
                0x000000000800e904       0x58 build/usbh_diskio.o
                0x000000000800e904                USBH_write
 .text.DeInitStateMachine
                0x000000000800e95c       0x4c build/usbh_core.o
 .text.USBH_HandleSof
                0x000000000800e9a8       0x1a build/usbh_core.o
 .text.USBH_HandleEnum
                0x000000000800e9c2      0x16e build/usbh_core.o
 .text.USBH_Init
                0x000000000800eb30       0x2e build/usbh_core.o
                0x000000000800eb30                USBH_Init
 .text.USBH_RegisterClass
                0x000000000800eb5e       0x22 build/usbh_core.o
                0x000000000800eb5e                USBH_RegisterClass
 .text.USBH_SelectInterface
                0x000000000800eb80       0x14 build/usbh_core.o
                0x000000000800eb80                USBH_SelectInterface
 .text.USBH_FindInterface
                0x000000000800eb94       0x52 build/usbh_core.o
                0x000000000800eb94                USBH_FindInterface
 .text.USBH_Start
                0x000000000800ebe6       0x14 build/usbh_core.o
                0x000000000800ebe6                USBH_Start
 .text.USBH_Process
                0x000000000800ebfa      0x192 build/usbh_core.o
                0x000000000800ebfa                USBH_Process
 .text.USBH_LL_SetTimer
                0x000000000800ed8c        0x6 build/usbh_core.o
                0x000000000800ed8c                USBH_LL_SetTimer
 .text.USBH_LL_IncTimer
                0x000000000800ed92       0x12 build/usbh_core.o
                0x000000000800ed92                USBH_LL_IncTimer
 .text.USBH_LL_Connect
                0x000000000800eda4       0x28 build/usbh_core.o
                0x000000000800eda4                USBH_LL_Connect
 .text.USBH_LL_Disconnect
                0x000000000800edcc       0x38 build/usbh_core.o
                0x000000000800edcc                USBH_LL_Disconnect
 .text.USBH_ParseDevDesc
                0x000000000800ee04       0x5a build/usbh_ctlreq.o
 .text.USBH_ParseInterfaceDesc
                0x000000000800ee5e       0x26 build/usbh_ctlreq.o
 .text.USBH_ParseEPDesc
                0x000000000800ee84       0x20 build/usbh_ctlreq.o
 .text.USBH_ParseStringDesc
                0x000000000800eea4       0x3a build/usbh_ctlreq.o
 .text.USBH_HandleControl
                0x000000000800eede      0x1cc build/usbh_ctlreq.o
 .text.USBH_GetNextDesc
                0x000000000800f0aa        0xe build/usbh_ctlreq.o
                0x000000000800f0aa                USBH_GetNextDesc
 .text.USBH_ParseCfgDesc
                0x000000000800f0b8       0xca build/usbh_ctlreq.o
 .text.USBH_CtlReq
                0x000000000800f182       0x40 build/usbh_ctlreq.o
                0x000000000800f182                USBH_CtlReq
 .text.USBH_GetDescriptor
                0x000000000800f1c2       0x3c build/usbh_ctlreq.o
                0x000000000800f1c2                USBH_GetDescriptor
 .text.USBH_Get_DevDesc
                0x000000000800f1fe       0x32 build/usbh_ctlreq.o
                0x000000000800f1fe                USBH_Get_DevDesc
 .text.USBH_Get_CfgDesc
                0x000000000800f230       0x32 build/usbh_ctlreq.o
                0x000000000800f230                USBH_Get_CfgDesc
 .text.USBH_Get_StringDesc
                0x000000000800f262       0x30 build/usbh_ctlreq.o
                0x000000000800f262                USBH_Get_StringDesc
 .text.USBH_SetAddress
                0x000000000800f292       0x22 build/usbh_ctlreq.o
                0x000000000800f292                USBH_SetAddress
 .text.USBH_SetCfg
                0x000000000800f2b4       0x22 build/usbh_ctlreq.o
                0x000000000800f2b4                USBH_SetCfg
 .text.USBH_ClrFeature
                0x000000000800f2d6       0x24 build/usbh_ctlreq.o
                0x000000000800f2d6                USBH_ClrFeature
 .text.USBH_CtlSendSetup
                0x000000000800f2fa       0x22 build/usbh_ioreq.o
                0x000000000800f2fa                USBH_CtlSendSetup
 .text.USBH_CtlSendData
                0x000000000800f31c       0x2c build/usbh_ioreq.o
                0x000000000800f31c                USBH_CtlSendData
 .text.USBH_CtlReceiveData
                0x000000000800f348       0x20 build/usbh_ioreq.o
                0x000000000800f348                USBH_CtlReceiveData
 .text.USBH_BulkSendData
                0x000000000800f368       0x2c build/usbh_ioreq.o
                0x000000000800f368                USBH_BulkSendData
 .text.USBH_BulkReceiveData
                0x000000000800f394       0x20 build/usbh_ioreq.o
                0x000000000800f394                USBH_BulkReceiveData
 .text.USBH_GetFreePipe
                0x000000000800f3b4       0x26 build/usbh_pipes.o
 .text.USBH_OpenPipe
                0x000000000800f3da       0x20 build/usbh_pipes.o
                0x000000000800f3da                USBH_OpenPipe
 .text.USBH_ClosePipe
                0x000000000800f3fa        0xa build/usbh_pipes.o
                0x000000000800f3fa                USBH_ClosePipe
 .text.USBH_AllocPipe
                0x000000000800f404       0x24 build/usbh_pipes.o
                0x000000000800f404                USBH_AllocPipe
 .text.USBH_FreePipe
                0x000000000800f428       0x16 build/usbh_pipes.o
                0x000000000800f428                USBH_FreePipe
 .text.USBH_MSC_SOFProcess
                0x000000000800f43e        0x4 build/usbh_msc.o
 .text.USBH_MSC_Process
                0x000000000800f442      0x2a0 build/usbh_msc.o
 .text.USBH_MSC_ClassRequest
                0x000000000800f6e2       0x66 build/usbh_msc.o
 .text.USBH_MSC_InterfaceDeInit
                0x000000000800f748       0x50 build/usbh_msc.o
 .text.USBH_MSC_InterfaceInit
                0x000000000800f798      0x130 build/usbh_msc.o
 .text.USBH_MSC_RdWrProcess
                0x000000000800f8c8       0xfc build/usbh_msc.o
 .text.USBH_MSC_UnitIsReady
                0x000000000800f9c4       0x24 build/usbh_msc.o
                0x000000000800f9c4                USBH_MSC_UnitIsReady
 .text.USBH_MSC_GetLUNInfo
                0x000000000800f9e8       0x44 build/usbh_msc.o
                0x000000000800f9e8                USBH_MSC_GetLUNInfo
 .text.USBH_MSC_Read
                0x000000000800fa2c       0x94 build/usbh_msc.o
                0x000000000800fa2c                USBH_MSC_Read
 .text.USBH_MSC_Write
                0x000000000800fac0       0x94 build/usbh_msc.o
                0x000000000800fac0                USBH_MSC_Write
 .text.USBH_MSC_DecodeCSW
                0x000000000800fb54       0x50 build/usbh_msc_bot.o
 .text.USBH_MSC_BOT_Abort
                0x000000000800fba4       0x22 build/usbh_msc_bot.o
 .text.USBH_MSC_BOT_REQ_Reset
                0x000000000800fbc6       0x1a build/usbh_msc_bot.o
                0x000000000800fbc6                USBH_MSC_BOT_REQ_Reset
 .text.USBH_MSC_BOT_REQ_GetMaxLUN
                0x000000000800fbe0       0x1a build/usbh_msc_bot.o
                0x000000000800fbe0                USBH_MSC_BOT_REQ_GetMaxLUN
 *fill*         0x000000000800fbfa        0x2 
 .text.USBH_MSC_BOT_Init
                0x000000000800fbfc       0x24 build/usbh_msc_bot.o
                0x000000000800fbfc                USBH_MSC_BOT_Init
 .text.USBH_MSC_BOT_Process
                0x000000000800fc20      0x262 build/usbh_msc_bot.o
                0x000000000800fc20                USBH_MSC_BOT_Process
 .text.USBH_MSC_SCSI_TestUnitReady
                0x000000000800fe82       0x4e build/usbh_msc_scsi.o
                0x000000000800fe82                USBH_MSC_SCSI_TestUnitReady
 .text.USBH_MSC_SCSI_ReadCapacity
                0x000000000800fed0       0x8e build/usbh_msc_scsi.o
                0x000000000800fed0                USBH_MSC_SCSI_ReadCapacity
 .text.USBH_MSC_SCSI_Inquiry
                0x000000000800ff5e       0xcc build/usbh_msc_scsi.o
                0x000000000800ff5e                USBH_MSC_SCSI_Inquiry
 .text.USBH_MSC_SCSI_RequestSense
                0x000000000801002a       0x94 build/usbh_msc_scsi.o
                0x000000000801002a                USBH_MSC_SCSI_RequestSense
 .text.USBH_MSC_SCSI_Write
                0x00000000080100be       0x84 build/usbh_msc_scsi.o
                0x00000000080100be                USBH_MSC_SCSI_Write
 .text.USBH_MSC_SCSI_Read
                0x0000000008010142       0x86 build/usbh_msc_scsi.o
                0x0000000008010142                USBH_MSC_SCSI_Read
 .text.number   0x00000000080101c8        0x4 build/Buffer_Gcode.o
 .text.sign     0x00000000080101cc       0x14 build/Buffer_Gcode.o
 .text.distanceStartFastMove
                0x00000000080101e0       0x58 build/Buffer_Gcode.o
 .text.speedMaxFastMove
                0x0000000008010238       0x96 build/Buffer_Gcode.o
 *fill*         0x00000000080102ce        0x2 
 .text.createDescreteCommandBuffer_Gcode
                0x00000000080102d0       0x50 build/Buffer_Gcode.o
                0x00000000080102d0                createDescreteCommandBuffer_Gcode
 .text.addElementToDescreteCommandBuffer_Gcode
                0x0000000008010320       0x8c build/Buffer_Gcode.o
                0x0000000008010320                addElementToDescreteCommandBuffer_Gcode
 .text.getDescreteCommandBufferElement_Gcode
                0x00000000080103ac       0x3c build/Buffer_Gcode.o
                0x00000000080103ac                getDescreteCommandBufferElement_Gcode
 .text.conserveSpeedFinish
                0x00000000080103e8      0x108 build/Buffer_Gcode.o
 .text.createCommandBuffer_Gcode
                0x00000000080104f0       0x48 build/Buffer_Gcode.o
                0x00000000080104f0                createCommandBuffer_Gcode
 .text.getCommandBufferElement_Gcode
                0x0000000008010538       0x40 build/Buffer_Gcode.o
                0x0000000008010538                getCommandBufferElement_Gcode
 .text.lastCommand
                0x0000000008010578       0x1c build/Buffer_Gcode.o
 *fill*         0x0000000008010594        0x4 
 .text.conserveSpeedStart
                0x0000000008010598      0x100 build/Buffer_Gcode.o
 .text.firstInCommandBuffer_Gcode
                0x0000000008010698       0x74 build/Buffer_Gcode.o
                0x0000000008010698                firstInCommandBuffer_Gcode
 .text.MoveZ_Analyser
                0x000000000801070c      0x338 build/Buffer_Gcode.o
 .text.MoveXY_Analyser
                0x0000000008010a44      0x840 build/Buffer_Gcode.o
 .text.MoveE_Analyser
                0x0000000008011284       0x94 build/Buffer_Gcode.o
 .text.HomeX_Analyser
                0x0000000008011318      0x2d0 build/Buffer_Gcode.o
 .text.HomeY_Analyser
                0x00000000080115e8      0x2d0 build/Buffer_Gcode.o
 .text.HomeZ_Analyser
                0x00000000080118b8      0x2e8 build/Buffer_Gcode.o
 .text.HomeXY_Analyser
                0x0000000008011ba0      0x3f0 build/Buffer_Gcode.o
 .text.SetExtrTemp_Analyser
                0x0000000008011f90       0x42 build/Buffer_Gcode.o
 .text.SetBedTemp_Analyser
                0x0000000008011fd2       0x42 build/Buffer_Gcode.o
 .text.WaitExtrTemp_Analyser
                0x0000000008012014       0x42 build/Buffer_Gcode.o
 .text.WaitBedTemp_Analyser
                0x0000000008012056       0x42 build/Buffer_Gcode.o
 .text.firstOutCommandBuffer_Gcode
                0x0000000008012098       0x38 build/Buffer_Gcode.o
                0x0000000008012098                firstOutCommandBuffer_Gcode
 .text.eraseFirstCommandBuffer_Gcode
                0x00000000080120d0       0x5c build/Buffer_Gcode.o
                0x00000000080120d0                eraseFirstCommandBuffer_Gcode
 .text.checkFreeSpaceCommandBuffer_Gcode
                0x000000000801212c       0x34 build/Buffer_Gcode.o
                0x000000000801212c                checkFreeSpaceCommandBuffer_Gcode
 .text.enoghSpaceIsReservedCommandBuffer_Gcode
                0x0000000008012160       0x10 build/Buffer_Gcode.o
                0x0000000008012160                enoghSpaceIsReservedCommandBuffer_Gcode
 .text.descreteCommandAnalyser_Gcode
                0x0000000008012170      0x112 build/Buffer_Gcode.o
                0x0000000008012170                descreteCommandAnalyser_Gcode
 *fill*         0x0000000008012282        0x2 
 .text.setCommand
                0x0000000008012284       0x28 build/Descritization_Gcode.o
 .text.descreteSpeedXY
                0x00000000080122ac       0x18 build/Descritization_Gcode.o
 .text.descreteSpeedZ
                0x00000000080122c4       0x18 build/Descritization_Gcode.o
 .text.descreteSpeedE
                0x00000000080122dc       0x18 build/Descritization_Gcode.o
 .text.descreteXY
                0x00000000080122f4       0x14 build/Descritization_Gcode.o
 .text.descreteZ
                0x0000000008012308       0x14 build/Descritization_Gcode.o
 .text.descreteE
                0x000000000801231c       0x14 build/Descritization_Gcode.o
 .text.createDescretization_Gcode
                0x0000000008012330       0x48 build/Descritization_Gcode.o
                0x0000000008012330                createDescretization_Gcode
 .text.getDescreteCommand_Gcode
                0x0000000008012378       0x24 build/Descritization_Gcode.o
                0x0000000008012378                getDescreteCommand_Gcode
 .text.setDescreteCommand_Gcode
                0x000000000801239c       0x7c build/Descritization_Gcode.o
                0x000000000801239c                setDescreteCommand_Gcode
 .text.setCommand
                0x0000000008012418       0x68 build/GcodeConverter_Gcode.o
 .text.createGcodeConverter_Gcode
                0x0000000008012480       0x3c build/GcodeConverter_Gcode.o
                0x0000000008012480                createGcodeConverter_Gcode
 .text.getConvertedCommand_Gcode
                0x00000000080124bc       0x20 build/GcodeConverter_Gcode.o
                0x00000000080124bc                getConvertedCommand_Gcode
 .text.convertCommand_Gcode
                0x00000000080124dc      0x474 build/GcodeConverter_Gcode.o
                0x00000000080124dc                convertCommand_Gcode
 .text.sign     0x0000000008012950       0x14 build/VirtualPrinters_Gcode.o
 .text.makeStepX_Gcode
                0x0000000008012964       0x1c build/VirtualPrinters_Gcode.o
 .text.makeStepY_Gcode
                0x0000000008012980       0x1c build/VirtualPrinters_Gcode.o
 .text.makeStepZ_Gcode
                0x000000000801299c       0x1c build/VirtualPrinters_Gcode.o
 .text.makeStepE_Gcode
                0x00000000080129b8       0x1c build/VirtualPrinters_Gcode.o
 .text.virtualPrintersCreate_Gcode
                0x00000000080129d4       0x44 build/VirtualPrinters_Gcode.o
                0x00000000080129d4                virtualPrintersCreate_Gcode
 .text.sendCommandToPrinter_Gcode
                0x0000000008012a18       0xa0 build/VirtualPrinters_Gcode.o
                0x0000000008012a18                sendCommandToPrinter_Gcode
 .text.moveComleted
                0x0000000008012ab8       0x38 build/VirtualPrinters_Gcode.o
                0x0000000008012ab8                moveComleted
 .text.evaluatePrinter_Gcode
                0x0000000008012af0      0x1a4 build/VirtualPrinters_Gcode.o
                0x0000000008012af0                evaluatePrinter_Gcode
 .text.convertCharacter_LCD
                0x0000000008012c94      0xaa8 build/CharacterConverter_LCD.o
                0x0000000008012c94                convertCharacter_LCD
 .text.first_line_DDRAM_address
                0x000000000801373c       0x24 build/Driver_LCD.o
 .text.third_line_DDRAM_address
                0x0000000008013760       0x24 build/Driver_LCD.o
 .text.second_line_DDRAM_address
                0x0000000008013784       0x24 build/Driver_LCD.o
 .text.fourth_line_DDRAM_address
                0x00000000080137a8       0x24 build/Driver_LCD.o
 .text.char_2_data_LCD
                0x00000000080137cc       0x84 build/Driver_LCD.o
 .text.clear_display_LCD
                0x0000000008013850       0x58 build/Driver_LCD.o
                0x0000000008013850                clear_display_LCD
 .text.return_home_LCD
                0x00000000080138a8       0x58 build/Driver_LCD.o
                0x00000000080138a8                return_home_LCD
 .text.set_dataLenght_numberOfLines_fontType_LCD
                0x0000000008013900       0x58 build/Driver_LCD.o
                0x0000000008013900                set_dataLenght_numberOfLines_fontType_LCD
 .text.set_do_not_display_cursor_LCD
                0x0000000008013958       0x58 build/Driver_LCD.o
                0x0000000008013958                set_do_not_display_cursor_LCD
 .text.set_cursor_moving_to_the_right_LCD
                0x00000000080139b0       0x58 build/Driver_LCD.o
                0x00000000080139b0                set_cursor_moving_to_the_right_LCD
 .text.move_to_line_LCD
                0x0000000008013a08       0x6a build/Driver_LCD.o
                0x0000000008013a08                move_to_line_LCD
 .text.write_character
                0x0000000008013a72       0x40 build/Driver_LCD.o
                0x0000000008013a72                write_character
 *fill*         0x0000000008013ab2        0x2 
 .text.RS_high_LCD
                0x0000000008013ab4       0x14 build/GPIOandTIM_LCD.o
                0x0000000008013ab4                RS_high_LCD
 .text.RS_low_LCD
                0x0000000008013ac8       0x14 build/GPIOandTIM_LCD.o
                0x0000000008013ac8                RS_low_LCD
 .text.RW_low_LCD
                0x0000000008013adc       0x14 build/GPIOandTIM_LCD.o
                0x0000000008013adc                RW_low_LCD
 .text.E_high_LCD
                0x0000000008013af0       0x14 build/GPIOandTIM_LCD.o
                0x0000000008013af0                E_high_LCD
 .text.E_low_LCD
                0x0000000008013b04       0x14 build/GPIOandTIM_LCD.o
                0x0000000008013b04                E_low_LCD
 .text.DB0_high_LCD
                0x0000000008013b18       0x14 build/GPIOandTIM_LCD.o
                0x0000000008013b18                DB0_high_LCD
 .text.DB0_low_LCD
                0x0000000008013b2c       0x14 build/GPIOandTIM_LCD.o
                0x0000000008013b2c                DB0_low_LCD
 .text.DB1_high_LCD
                0x0000000008013b40       0x14 build/GPIOandTIM_LCD.o
                0x0000000008013b40                DB1_high_LCD
 .text.DB1_low_LCD
                0x0000000008013b54       0x14 build/GPIOandTIM_LCD.o
                0x0000000008013b54                DB1_low_LCD
 .text.DB2_high_LCD
                0x0000000008013b68       0x14 build/GPIOandTIM_LCD.o
                0x0000000008013b68                DB2_high_LCD
 .text.DB2_low_LCD
                0x0000000008013b7c       0x14 build/GPIOandTIM_LCD.o
                0x0000000008013b7c                DB2_low_LCD
 .text.DB3_high_LCD
                0x0000000008013b90       0x14 build/GPIOandTIM_LCD.o
                0x0000000008013b90                DB3_high_LCD
 .text.DB3_low_LCD
                0x0000000008013ba4       0x14 build/GPIOandTIM_LCD.o
                0x0000000008013ba4                DB3_low_LCD
 .text.DB4_high_LCD
                0x0000000008013bb8       0x14 build/GPIOandTIM_LCD.o
                0x0000000008013bb8                DB4_high_LCD
 .text.DB4_low_LCD
                0x0000000008013bcc       0x14 build/GPIOandTIM_LCD.o
                0x0000000008013bcc                DB4_low_LCD
 .text.DB5_high_LCD
                0x0000000008013be0       0x14 build/GPIOandTIM_LCD.o
                0x0000000008013be0                DB5_high_LCD
 .text.DB5_low_LCD
                0x0000000008013bf4       0x14 build/GPIOandTIM_LCD.o
                0x0000000008013bf4                DB5_low_LCD
 .text.DB6_high_LCD
                0x0000000008013c08       0x14 build/GPIOandTIM_LCD.o
                0x0000000008013c08                DB6_high_LCD
 .text.DB6_low_LCD
                0x0000000008013c1c       0x14 build/GPIOandTIM_LCD.o
                0x0000000008013c1c                DB6_low_LCD
 .text.DB7_high_LCD
                0x0000000008013c30       0x14 build/GPIOandTIM_LCD.o
                0x0000000008013c30                DB7_high_LCD
 .text.DB7_low_LCD
                0x0000000008013c44       0x14 build/GPIOandTIM_LCD.o
                0x0000000008013c44                DB7_low_LCD
 .text.Ready_LCD
                0x0000000008013c58        0xc build/GPIOandTIM_LCD.o
                0x0000000008013c58                Ready_LCD
 .text.wrongInterfaceLine_LCD
                0x0000000008013c64       0x14 build/Interface_LCD.o
 .text.create_LCD
                0x0000000008013c78       0x18 build/Interface_LCD.o
                0x0000000008013c78                create_LCD
 .text.printLine_LCD
                0x0000000008013c90       0x32 build/Interface_LCD.o
                0x0000000008013c90                printLine_LCD
 .text.lineNumber
                0x0000000008013cc2        0x4 build/TextConverter_LCD.o
 .text.wrongLine
                0x0000000008013cc6       0x14 build/TextConverter_LCD.o
 *fill*         0x0000000008013cda        0x2 
 .text.create_TextConverter_LCD
                0x0000000008013cdc       0x34 build/TextConverter_LCD.o
                0x0000000008013cdc                create_TextConverter_LCD
 .text.putLine_TextConverter_LCD
                0x0000000008013d10       0x6c build/TextConverter_LCD.o
                0x0000000008013d10                putLine_TextConverter_LCD
 .text.updateLine_TextConverter_LCD
                0x0000000008013d7c       0x28 build/TextConverter_LCD.o
                0x0000000008013d7c                updateLine_TextConverter_LCD
 .text.createFirstNode_Menu
                0x0000000008013da4       0x50 build/Constructor_Menu.o
                0x0000000008013da4                createFirstNode_Menu
 .text.createRightNode_Menu
                0x0000000008013df4       0x78 build/Constructor_Menu.o
                0x0000000008013df4                createRightNode_Menu
 .text.createDownNode_Menu
                0x0000000008013e6c       0x7c build/Constructor_Menu.o
                0x0000000008013e6c                createDownNode_Menu
 .text.destroyRightNode_Menu
                0x0000000008013ee8       0x1c build/Constructor_Menu.o
                0x0000000008013ee8                destroyRightNode_Menu
 .text.getCurrentNode_Menu
                0x0000000008013f04        0xc build/Constructor_Menu.o
                0x0000000008013f04                getCurrentNode_Menu
 .text.getTitle_Menu
                0x0000000008013f10        0xc build/Constructor_Menu.o
                0x0000000008013f10                getTitle_Menu
 .text.getName_Menu
                0x0000000008013f1c        0xc build/Constructor_Menu.o
                0x0000000008013f1c                getName_Menu
 .text.ThereIsNodeBelow_Menu
                0x0000000008013f28       0x14 build/Constructor_Menu.o
                0x0000000008013f28                ThereIsNodeBelow_Menu
 .text.ThereIsNodeAbove_Menu
                0x0000000008013f3c       0x14 build/Constructor_Menu.o
                0x0000000008013f3c                ThereIsNodeAbove_Menu
 .text.moveDown_Menu
                0x0000000008013f50       0x14 build/Constructor_Menu.o
                0x0000000008013f50                moveDown_Menu
 .text.moveUp_Menu
                0x0000000008013f64       0x14 build/Constructor_Menu.o
                0x0000000008013f64                moveUp_Menu
 .text.moveRight_Menu
                0x0000000008013f78       0x14 build/Constructor_Menu.o
                0x0000000008013f78                moveRight_Menu
 .text.moveLeft_Menu
                0x0000000008013f8c       0x14 build/Constructor_Menu.o
                0x0000000008013f8c                moveLeft_Menu
 .text.moveToTheFirstNode_Menu
                0x0000000008013fa0       0x2c build/Constructor_Menu.o
                0x0000000008013fa0                moveToTheFirstNode_Menu
 .text.setFunctionOk
                0x0000000008013fcc       0x10 build/Constructor_Menu.o
                0x0000000008013fcc                setFunctionOk
 .text.setFunctionBack
                0x0000000008013fdc       0x10 build/Constructor_Menu.o
                0x0000000008013fdc                setFunctionBack
 .text.setFunctionUp
                0x0000000008013fec       0x10 build/Constructor_Menu.o
                0x0000000008013fec                setFunctionUp
 .text.setFunctionDown
                0x0000000008013ffc       0x10 build/Constructor_Menu.o
                0x0000000008013ffc                setFunctionDown
 .text.setMainMenu_Menu
                0x000000000801400c      0x16c build/MainMenu_Menu.o
                0x000000000801400c                setMainMenu_Menu
 .text.openDirectory_Menu
                0x0000000008014178        0x2 build/FunctionsForButtons.o
                0x0000000008014178                openDirectory_Menu
 *fill*         0x000000000801417a        0x2 
 .text.wchar_t2TCHAR
                0x000000000801417c      0x4a8 build/FunctionsForButtons.o
 .text.getFileNameTCHAR
                0x0000000008014624       0x20 build/FunctionsForButtons.o
 .text.simpleNavigationDown_Menu
                0x0000000008014644       0xe8 build/FunctionsForButtons.o
                0x0000000008014644                simpleNavigationDown_Menu
 .text.simpleNavigationUp_Menu
                0x000000000801472c       0xa4 build/FunctionsForButtons.o
                0x000000000801472c                simpleNavigationUp_Menu
 .text.returnFirstLine
                0x00000000080147d0       0x14 build/FunctionsForButtons.o
 .text.simpleNavigationBack_Menu
                0x00000000080147e4      0x11c build/FunctionsForButtons.o
                0x00000000080147e4                simpleNavigationBack_Menu
 .text.GcodeFormat
                0x0000000008014900       0x1c build/FunctionsForButtons.o
 .text.wait     0x000000000801491c        0xc build/FunctionsForButtons.o
 .text.runGcode_Menu
                0x0000000008014928       0xf0 build/FunctionsForButtons.o
                0x0000000008014928                runGcode_Menu
 .text.simpleNavigationOk_Menu
                0x0000000008014a18       0xb4 build/FunctionsForButtons.o
                0x0000000008014a18                simpleNavigationOk_Menu
 .text.printOk_Menu
                0x0000000008014acc      0x1a0 build/FunctionsForButtons.o
                0x0000000008014acc                printOk_Menu
 .text.changeFilamentOk_Menu
                0x0000000008014c6c        0x8 build/FunctionsForButtons.o
                0x0000000008014c6c                changeFilamentOk_Menu
 .text.setTheTemperatureOk_Menu
                0x0000000008014c74        0x2 build/FunctionsForButtons.o
                0x0000000008014c74                setTheTemperatureOk_Menu
 .text.setTheTemperatureBack_Menu
                0x0000000008014c76        0x8 build/FunctionsForButtons.o
                0x0000000008014c76                setTheTemperatureBack_Menu
 .text.setTheTemperatureUp_Menu
                0x0000000008014c7e        0x2 build/FunctionsForButtons.o
                0x0000000008014c7e                setTheTemperatureUp_Menu
 .text.setTheTemperatureDown_Menu
                0x0000000008014c80        0x2 build/FunctionsForButtons.o
                0x0000000008014c80                setTheTemperatureDown_Menu
 .text.englishOk_Menu
                0x0000000008014c82        0x2 build/FunctionsForButtons.o
                0x0000000008014c82                englishOk_Menu
 .text.russianOk_Menu
                0x0000000008014c84        0x2 build/FunctionsForButtons.o
                0x0000000008014c84                russianOk_Menu
 .text.helpOk_Menu
                0x0000000008014c86        0x2 build/FunctionsForButtons.o
                0x0000000008014c86                helpOk_Menu
 .text.helpBack_Menu
                0x0000000008014c88        0x2 build/FunctionsForButtons.o
                0x0000000008014c88                helpBack_Menu
 .text.emptyFunction_Menu
                0x0000000008014c8a        0x2 build/FunctionsForButtons.o
                0x0000000008014c8a                emptyFunction_Menu
 .text.doStepX_Motors
                0x0000000008014c8c       0x28 build/Driver_Motors.o
                0x0000000008014c8c                doStepX_Motors
 .text.doStepY_Motors
                0x0000000008014cb4       0x28 build/Driver_Motors.o
                0x0000000008014cb4                doStepY_Motors
 .text.doStepZ_Motors
                0x0000000008014cdc       0x28 build/Driver_Motors.o
                0x0000000008014cdc                doStepZ_Motors
 .text.doStepE_Motors
                0x0000000008014d04       0x28 build/Driver_Motors.o
                0x0000000008014d04                doStepE_Motors
 .text.evaluate_Motors
                0x0000000008014d2c       0xe8 build/Driver_Motors.o
                0x0000000008014d2c                evaluate_Motors
 .text.ForwardX_Motors
                0x0000000008014e14       0x18 build/GPIO_Motors.o
                0x0000000008014e14                ForwardX_Motors
 .text.BackwardX_Motors
                0x0000000008014e2c       0x18 build/GPIO_Motors.o
                0x0000000008014e2c                BackwardX_Motors
 .text.StepOnX_Motors
                0x0000000008014e44       0x14 build/GPIO_Motors.o
                0x0000000008014e44                StepOnX_Motors
 .text.StepOffX_Motors
                0x0000000008014e58       0x14 build/GPIO_Motors.o
                0x0000000008014e58                StepOffX_Motors
 .text.ForwardY_Motors
                0x0000000008014e6c       0x18 build/GPIO_Motors.o
                0x0000000008014e6c                ForwardY_Motors
 .text.BackwardY_Motors
                0x0000000008014e84       0x18 build/GPIO_Motors.o
                0x0000000008014e84                BackwardY_Motors
 .text.StepOnY_Motors
                0x0000000008014e9c       0x14 build/GPIO_Motors.o
                0x0000000008014e9c                StepOnY_Motors
 .text.StepOffY_Motors
                0x0000000008014eb0       0x14 build/GPIO_Motors.o
                0x0000000008014eb0                StepOffY_Motors
 .text.ForwardZ_Motors
                0x0000000008014ec4       0x28 build/GPIO_Motors.o
                0x0000000008014ec4                ForwardZ_Motors
 .text.BackwardZ_Motors
                0x0000000008014eec       0x28 build/GPIO_Motors.o
                0x0000000008014eec                BackwardZ_Motors
 .text.StepOnZ_Motors
                0x0000000008014f14       0x24 build/GPIO_Motors.o
                0x0000000008014f14                StepOnZ_Motors
 .text.StepOffZ_Motors
                0x0000000008014f38       0x24 build/GPIO_Motors.o
                0x0000000008014f38                StepOffZ_Motors
 .text.createState_USBdrive
                0x0000000008014f5c        0xc build/State_USBdrive.o
                0x0000000008014f5c                createState_USBdrive
 .text.setState_USBdrive
                0x0000000008014f68        0xc build/State_USBdrive.o
                0x0000000008014f68                setState_USBdrive
 .text.getState_USBdrive
                0x0000000008014f74        0xc build/State_USBdrive.o
                0x0000000008014f74                getState_USBdrive
 .text.TCHAR2wchar_t
                0x0000000008014f80      0x3a0 build/Driver_USBdrive.o
 .text.convertLongNameToWideLongName
                0x0000000008015320       0x40 build/Driver_USBdrive.o
 .text.createDriver_USBdrive
                0x0000000008015360       0x30 build/Driver_USBdrive.o
                0x0000000008015360                createDriver_USBdrive
 .text.mount_USBdrive
                0x0000000008015390       0x40 build/Driver_USBdrive.o
                0x0000000008015390                mount_USBdrive
 .text.unmount_USBdrive
                0x00000000080153d0       0x48 build/Driver_USBdrive.o
                0x00000000080153d0                unmount_USBdrive
 .text.getMountedStatus
                0x0000000008015418        0xc build/Driver_USBdrive.o
                0x0000000008015418                getMountedStatus
 .text.getPath_USBdrive
                0x0000000008015424        0x8 build/Driver_USBdrive.o
                0x0000000008015424                getPath_USBdrive
 .text.openDirectory_USBdrive
                0x000000000801542c       0x3c build/Driver_USBdrive.o
                0x000000000801542c                openDirectory_USBdrive
 .text.readItem_USBdrive
                0x0000000008015468       0x20 build/Driver_USBdrive.o
                0x0000000008015468                readItem_USBdrive
 .text.getName_USBdrive
                0x0000000008015488        0x8 build/Driver_USBdrive.o
                0x0000000008015488                getName_USBdrive
 .text.getWideLongName_USBdrive
                0x0000000008015490       0x18 build/Driver_USBdrive.o
                0x0000000008015490                getWideLongName_USBdrive
 .text.getItemType_USBdrive
                0x00000000080154a8       0x24 build/Driver_USBdrive.o
                0x00000000080154a8                getItemType_USBdrive
 .text.openFile_USBdrive
                0x00000000080154cc       0x28 build/Driver_USBdrive.o
                0x00000000080154cc                openFile_USBdrive
 .text.getStringFromFile_USBdrive
                0x00000000080154f4       0x2c build/Driver_USBdrive.o
                0x00000000080154f4                getStringFromFile_USBdrive
 .text.endOfFile_USBdrive
                0x0000000008015520       0x20 build/Driver_USBdrive.o
                0x0000000008015520                endOfFile_USBdrive
 .text.create_coordinates
                0x0000000008015540       0x24 build/coordinates.o
                0x0000000008015540                create_coordinates
 .text.getX_coordinates
                0x0000000008015564        0xc build/coordinates.o
                0x0000000008015564                getX_coordinates
 .text.getY_coordinates
                0x0000000008015570        0xc build/coordinates.o
                0x0000000008015570                getY_coordinates
 .text.getZ_coordinates
                0x000000000801557c        0xc build/coordinates.o
                0x000000000801557c                getZ_coordinates
 .text.getE_coordinates
                0x0000000008015588        0xc build/coordinates.o
                0x0000000008015588                getE_coordinates
 .text.incX_coordinates
                0x0000000008015594       0x10 build/coordinates.o
                0x0000000008015594                incX_coordinates
 .text.incY_coordinates
                0x00000000080155a4       0x10 build/coordinates.o
                0x00000000080155a4                incY_coordinates
 .text.incZ_coordinates
                0x00000000080155b4       0x10 build/coordinates.o
                0x00000000080155b4                incZ_coordinates
 .text.decX_coordinates
                0x00000000080155c4       0x10 build/coordinates.o
                0x00000000080155c4                decX_coordinates
 .text.decY_coordinates
                0x00000000080155d4       0x10 build/coordinates.o
                0x00000000080155d4                decY_coordinates
 .text.decZ_coordinates
                0x00000000080155e4       0x10 build/coordinates.o
                0x00000000080155e4                decZ_coordinates
 .text.Reset_Handler
                0x00000000080155f4       0x44 build/startup_stm32f105xc.o
                0x00000000080155f4                Reset_Handler
 .text.Default_Handler
                0x0000000008015638        0x2 build/startup_stm32f105xc.o
                0x0000000008015638                RTC_Alarm_IRQHandler
                0x0000000008015638                EXTI2_IRQHandler
                0x0000000008015638                TIM1_CC_IRQHandler
                0x0000000008015638                TIM6_IRQHandler
                0x0000000008015638                PVD_IRQHandler
                0x0000000008015638                CAN2_RX1_IRQHandler
                0x0000000008015638                EXTI3_IRQHandler
                0x0000000008015638                EXTI0_IRQHandler
                0x0000000008015638                I2C2_EV_IRQHandler
                0x0000000008015638                CAN1_RX0_IRQHandler
                0x0000000008015638                CAN2_SCE_IRQHandler
                0x0000000008015638                ADC1_2_IRQHandler
                0x0000000008015638                SPI1_IRQHandler
                0x0000000008015638                TAMPER_IRQHandler
                0x0000000008015638                CAN2_RX0_IRQHandler
                0x0000000008015638                DMA2_Channel2_IRQHandler
                0x0000000008015638                DMA1_Channel4_IRQHandler
                0x0000000008015638                USART3_IRQHandler
                0x0000000008015638                RTC_IRQHandler
                0x0000000008015638                DMA1_Channel7_IRQHandler
                0x0000000008015638                CAN1_RX1_IRQHandler
                0x0000000008015638                UART5_IRQHandler
                0x0000000008015638                DMA2_Channel1_IRQHandler
                0x0000000008015638                I2C1_EV_IRQHandler
                0x0000000008015638                DMA1_Channel6_IRQHandler
                0x0000000008015638                UART4_IRQHandler
                0x0000000008015638                DMA2_Channel4_IRQHandler
                0x0000000008015638                RCC_IRQHandler
                0x0000000008015638                TIM1_TRG_COM_IRQHandler
                0x0000000008015638                DMA1_Channel1_IRQHandler
                0x0000000008015638                Default_Handler
                0x0000000008015638                EXTI15_10_IRQHandler
                0x0000000008015638                TIM7_IRQHandler
                0x0000000008015638                CAN2_TX_IRQHandler
                0x0000000008015638                EXTI9_5_IRQHandler
                0x0000000008015638                SPI2_IRQHandler
                0x0000000008015638                CAN1_TX_IRQHandler
                0x0000000008015638                DMA2_Channel5_IRQHandler
                0x0000000008015638                DMA1_Channel5_IRQHandler
                0x0000000008015638                EXTI4_IRQHandler
                0x0000000008015638                DMA1_Channel3_IRQHandler
                0x0000000008015638                TIM1_UP_IRQHandler
                0x0000000008015638                WWDG_IRQHandler
                0x0000000008015638                OTG_FS_WKUP_IRQHandler
                0x0000000008015638                TIM1_BRK_IRQHandler
                0x0000000008015638                EXTI1_IRQHandler
                0x0000000008015638                USART2_IRQHandler
                0x0000000008015638                I2C2_ER_IRQHandler
                0x0000000008015638                DMA1_Channel2_IRQHandler
                0x0000000008015638                CAN1_SCE_IRQHandler
                0x0000000008015638                FLASH_IRQHandler
                0x0000000008015638                USART1_IRQHandler
                0x0000000008015638                SPI3_IRQHandler
                0x0000000008015638                I2C1_ER_IRQHandler
                0x0000000008015638                DMA2_Channel3_IRQHandler
 .text.unlikely
                0x000000000801563a       0x42 /usr/lib/gcc/arm-none-eabi/6.3.1/../../../arm-none-eabi/lib/thumb/v7-m/libc_nano.a(lib_a-strtod.o)
 *(.glue_7)
 .glue_7        0x000000000801567c        0x0 linker stubs
 *(.glue_7t)
 .glue_7t       0x000000000801567c        0x0 linker stubs
 *(.eh_frame)
 .eh_frame      0x000000000801567c        0x0 /usr/lib/gcc/arm-none-eabi/6.3.1/thumb/v7-m/crtbegin.o
 *(.init)
 .init          0x000000000801567c        0x4 /usr/lib/gcc/arm-none-eabi/6.3.1/thumb/v7-m/crti.o
                0x000000000801567c                _init
 .init          0x0000000008015680        0x8 /usr/lib/gcc/arm-none-eabi/6.3.1/thumb/v7-m/crtn.o
 *(.fini)
 .fini          0x0000000008015688        0x4 /usr/lib/gcc/arm-none-eabi/6.3.1/thumb/v7-m/crti.o
                0x0000000008015688                _fini
 .fini          0x000000000801568c        0x8 /usr/lib/gcc/arm-none-eabi/6.3.1/thumb/v7-m/crtn.o
                0x0000000008015694                . = ALIGN (0x4)
                0x0000000008015694                _etext = .

.vfp11_veneer   0x0000000008015694        0x0
 .vfp11_veneer  0x0000000008015694        0x0 linker stubs

.v4_bx          0x0000000008015694        0x0
 .v4_bx         0x0000000008015694        0x0 linker stubs

.iplt           0x0000000008015694        0x0
 .iplt          0x0000000008015694        0x0 /usr/lib/gcc/arm-none-eabi/6.3.1/thumb/v7-m/crtbegin.o

.rodata         0x0000000008015698     0x12e0
                0x0000000008015698                . = ALIGN (0x4)
 *(.rodata)
 .rodata        0x0000000008015698       0x20 build/stm32f1xx_hal_rcc.o
 .rodata        0x00000000080156b8       0x20 build/FunctionsForButtons.o
 .rodata        0x00000000080156d8        0x8 build/Driver_USBdrive.o
 .rodata        0x00000000080156e0        0x4 /usr/lib/gcc/arm-none-eabi/6.3.1/../../../arm-none-eabi/lib/thumb/v7-m/libc_nano.a(lib_a-impure.o)
                0x00000000080156e0                _global_impure_ptr
 *fill*         0x00000000080156e4        0x4 
 .rodata        0x00000000080156e8       0x50 /usr/lib/gcc/arm-none-eabi/6.3.1/../../../arm-none-eabi/lib/thumb/v7-m/libc_nano.a(lib_a-strtod.o)
 .rodata        0x0000000008015738       0x60 /usr/lib/gcc/arm-none-eabi/6.3.1/../../../arm-none-eabi/lib/thumb/v7-m/libc_nano.a(lib_a-findfp.o)
                0x0000000008015738                __sf_fake_stderr
                0x0000000008015758                __sf_fake_stdout
                0x0000000008015778                __sf_fake_stdin
 .rodata        0x0000000008015798      0x100 /usr/lib/gcc/arm-none-eabi/6.3.1/../../../arm-none-eabi/lib/thumb/v7-m/libc_nano.a(lib_a-gdtoa-gethex.o)
                0x0000000008015798                __hexdig
 .rodata        0x0000000008015898      0x128 /usr/lib/gcc/arm-none-eabi/6.3.1/../../../arm-none-eabi/lib/thumb/v7-m/libc_nano.a(lib_a-mprec.o)
                0x00000000080158a8                __mprec_tens
                0x0000000008015970                __mprec_tinytens
                0x0000000008015998                __mprec_bigtens
 .rodata        0x00000000080159c0       0x80 /usr/lib/gcc/arm-none-eabi/6.3.1/../../../arm-none-eabi/lib/thumb/v7-m/libc_nano.a(lib_a-svfwprintf.o)
 .rodata        0x0000000008015a40      0x101 /usr/lib/gcc/arm-none-eabi/6.3.1/../../../arm-none-eabi/lib/thumb/v7-m/libc_nano.a(lib_a-ctype_.o)
                0x0000000008015a40                _ctype_
 *fill*         0x0000000008015b41        0x7 
 .rodata        0x0000000008015b48       0x10 /usr/lib/gcc/arm-none-eabi/6.3.1/../../../arm-none-eabi/lib/thumb/v7-m/libm.a(lib_a-s_rint.o)
 *(.rodata*)
 .rodata.main.str4.4
                0x0000000008015b58       0x10 build/main.o
 .rodata.TIM5_IRQHandler.str1.4
                0x0000000008015b68       0x10 build/stm32f1xx_it.o
 .rodata.AHBPrescTable
                0x0000000008015b78       0x10 build/system_stm32f1xx.o
                0x0000000008015b78                AHBPrescTable
 .rodata.APBPrescTable
                0x0000000008015b88        0x8 build/system_stm32f1xx.o
                0x0000000008015b88                APBPrescTable
 .rodata.ExCvt  0x0000000008015b90       0x80 build/ff.o
 .rodata.LfnOfs
                0x0000000008015c10        0xd build/ff.o
 *fill*         0x0000000008015c1d        0x3 
 .rodata.create_name.str1.4
                0x0000000008015c20       0x13 build/ff.o
 *fill*         0x0000000008015c33        0x1 
 .rodata.Tbl    0x0000000008015c34      0x100 build/ccsbcs.o
 .rodata.tbl_lower.8782
                0x0000000008015d34      0x1e0 build/ccsbcs.o
 .rodata.tbl_upper.8783
                0x0000000008015f14      0x1e0 build/ccsbcs.o
 .rodata.USBH_Driver
                0x00000000080160f4       0x14 build/usbh_diskio.o
                0x00000000080160f4                USBH_Driver
 .rodata.str1.4
                0x0000000008016108        0x4 build/usbh_msc.o
 .rodata.defaultDescreteCommand
                0x000000000801610c       0x28 build/Buffer_Gcode.o
                0x000000000801610c                defaultDescreteCommand
 .rodata.convertCharacter_LCD.str4.4
                0x0000000008016134      0x448 build/CharacterConverter_LCD.o
                                        0x4b8 (size before relaxing)
 .rodata.EMPTY_STRING
                0x000000000801657c       0x54 build/TextConverter_LCD.o
                0x000000000801657c                EMPTY_STRING
 .rodata.setMainMenu_Menu.str4.4
                0x00000000080165d0      0x1c8 build/MainMenu_Menu.o
 .rodata.printOk_Menu.str4.4
                0x0000000008016798       0x28 build/FunctionsForButtons.o
 .rodata.runGcode_Menu.str1.4
                0x00000000080167c0        0x6 build/FunctionsForButtons.o
 *fill*         0x00000000080167c6        0x2 
 .rodata.runGcode_Menu.str4.4
                0x00000000080167c8       0x44 build/FunctionsForButtons.o
                                         0x70 (size before relaxing)
 .rodata.simpleNavigationDown_Menu.str4.4
                0x000000000801680c       0x10 build/FunctionsForButtons.o
 .rodata.wchar_t2TCHAR.str4.4
                0x000000000801680c      0x210 build/FunctionsForButtons.o
 .rodata.TCHAR2wchar_t.str4.4
                0x000000000801680c      0x210 build/Driver_USBdrive.o
 .rodata.convertLongNameToWideLongName.str4.4
                0x000000000801680c        0x8 build/Driver_USBdrive.o
 .rodata.getStringFromFile_USBdrive.str1.4
                0x000000000801680c        0x6 build/Driver_USBdrive.o
                                          0x1 (size before relaxing)
 .rodata.unmount_USBdrive.str1.4
                0x000000000801680c        0x3 build/Driver_USBdrive.o
 *fill*         0x000000000801680f        0x1 
 .rodata.str1.4
                0x0000000008016810        0xf /usr/lib/gcc/arm-none-eabi/6.3.1/../../../arm-none-eabi/lib/thumb/v7-m/libc_nano.a(lib_a-strtod.o)
 *fill*         0x000000000801681f        0x1 
 .rodata.str1.4
                0x0000000008016820        0xe /usr/lib/gcc/arm-none-eabi/6.3.1/../../../arm-none-eabi/lib/thumb/v7-m/libc_nano.a(lib_a-locale.o)
                                         0x12 (size before relaxing)
 *fill*         0x000000000801682e        0x2 
 .rodata.str1.4
                0x0000000008016830       0x13 /usr/lib/gcc/arm-none-eabi/6.3.1/../../../arm-none-eabi/lib/thumb/v7-m/libc_nano.a(lib_a-nano-svfprintf.o)
 .rodata.str1.4
                0x0000000008016843       0x13 /usr/lib/gcc/arm-none-eabi/6.3.1/../../../arm-none-eabi/lib/thumb/v7-m/libc_nano.a(lib_a-nano-vfprintf.o)
 *fill*         0x0000000008016843        0x1 
 .rodata.str1.4
                0x0000000008016844       0x25 /usr/lib/gcc/arm-none-eabi/6.3.1/../../../arm-none-eabi/lib/thumb/v7-m/libc_nano.a(lib_a-nano-vfprintf_i.o)
 *fill*         0x0000000008016869        0x3 
 .rodata.str4.4
                0x000000000801686c       0xe4 /usr/lib/gcc/arm-none-eabi/6.3.1/../../../arm-none-eabi/lib/thumb/v7-m/libc_nano.a(lib_a-svfwprintf.o)
                                         0xec (size before relaxing)
 .rodata.str1.4
                0x0000000008016950       0x12 /usr/lib/gcc/arm-none-eabi/6.3.1/../../../arm-none-eabi/lib/thumb/v7-m/libc_nano.a(lib_a-dtoa.o)
 *fill*         0x0000000008016962        0x2 
 .rodata.str1.4
                0x0000000008016964        0x4 /usr/lib/gcc/arm-none-eabi/6.3.1/../../../arm-none-eabi/lib/thumb/v7-m/libm.a(lib_a-w_pow.o)
 .rodata.str1.4
                0x0000000008016968        0x5 /usr/lib/gcc/arm-none-eabi/6.3.1/../../../arm-none-eabi/lib/thumb/v7-m/libm.a(lib_a-w_sqrt.o)
 *fill*         0x000000000801696d        0x3 
 .rodata.str1.4
                0x0000000008016970        0x8 /usr/lib/gcc/arm-none-eabi/6.3.1/../../../arm-none-eabi/lib/thumb/v7-m/libm.a(lib_a-wf_sqrt.o)
                                          0x6 (size before relaxing)
 .rodata.str1.4
                0x0000000008016978        0x1 /usr/lib/gcc/arm-none-eabi/6.3.1/../../../arm-none-eabi/lib/thumb/v7-m/libm.a(lib_a-e_pow.o)
                0x000000000801697c                . = ALIGN (0x4)

.ARM.extab
 *(.ARM.extab* .gnu.linkonce.armextab.*)

.ARM            0x0000000008016978        0x8
                0x0000000008016978                __exidx_start = .
 *(.ARM.exidx*)
 .ARM.exidx     0x0000000008016978        0x8 /usr/lib/gcc/arm-none-eabi/6.3.1/thumb/v7-m/libgcc.a(_udivmoddi4.o)
                0x0000000008016980                __exidx_end = .

.rel.dyn        0x0000000008016980        0x0
 .rel.iplt      0x0000000008016980        0x0 /usr/lib/gcc/arm-none-eabi/6.3.1/thumb/v7-m/crtbegin.o

.preinit_array  0x0000000008016980        0x0
                0x0000000008016980                PROVIDE (__preinit_array_start, .)
 *(.preinit_array*)
                0x0000000008016980                PROVIDE (__preinit_array_end, .)

.init_array     0x0000000008016980        0x4
                0x0000000008016980                PROVIDE (__init_array_start, .)
 *(SORT(.init_array.*))
 *(.init_array*)
 .init_array    0x0000000008016980        0x4 /usr/lib/gcc/arm-none-eabi/6.3.1/thumb/v7-m/crtbegin.o
                0x0000000008016984                PROVIDE (__init_array_end, .)

.fini_array     0x0000000008016984        0x4
                0x0000000008016984                PROVIDE (__fini_array_start, .)
 *(SORT(.fini_array.*))
 *(.fini_array*)
 .fini_array    0x0000000008016984        0x4 /usr/lib/gcc/arm-none-eabi/6.3.1/thumb/v7-m/crtbegin.o
                0x0000000008016988                PROVIDE (__fini_array_end, .)
                0x0000000008016988                _sidata = LOADADDR (.data)

.data           0x0000000020000000      0x1fc load address 0x0000000008016988
                0x0000000020000000                . = ALIGN (0x4)
                0x0000000020000000                _sdata = .
 *(.data)
 .data          0x0000000020000000       0x64 /usr/lib/gcc/arm-none-eabi/6.3.1/../../../arm-none-eabi/lib/thumb/v7-m/libc_nano.a(lib_a-impure.o)
                0x0000000020000000                _impure_ptr
 .data          0x0000000020000064      0x16c /usr/lib/gcc/arm-none-eabi/6.3.1/../../../arm-none-eabi/lib/thumb/v7-m/libc_nano.a(lib_a-locale.o)
                0x0000000020000064                __global_locale
 .data          0x00000000200001d0        0x1 /usr/lib/gcc/arm-none-eabi/6.3.1/../../../arm-none-eabi/lib/thumb/v7-m/libm.a(lib_a-s_lib_ver.o)
                0x00000000200001d0                __fdlib_version
 *(.data*)
 .data.uwTickFreq
                0x00000000200001d1        0x1 build/stm32f1xx_hal.o
                0x00000000200001d1                uwTickFreq
 *fill*         0x00000000200001d2        0x2 
 .data.uwTickPrio
                0x00000000200001d4        0x4 build/stm32f1xx_hal.o
                0x00000000200001d4                uwTickPrio
 .data.SystemCoreClock
                0x00000000200001d8        0x4 build/system_stm32f1xx.o
                0x00000000200001d8                SystemCoreClock
 .data.USBH_msc
                0x00000000200001dc       0x20 build/usbh_msc.o
                0x00000000200001dc                USBH_msc
                0x00000000200001fc                . = ALIGN (0x4)
                0x00000000200001fc                _edata = .

.jcr            0x00000000200001fc        0x0 load address 0x0000000008016b84
 .jcr           0x00000000200001fc        0x0 /usr/lib/gcc/arm-none-eabi/6.3.1/thumb/v7-m/crtbegin.o

.tm_clone_table
                0x00000000200001fc        0x0 load address 0x0000000008016b84
 .tm_clone_table
                0x00000000200001fc        0x0 /usr/lib/gcc/arm-none-eabi/6.3.1/thumb/v7-m/crtbegin.o
 .tm_clone_table
                0x00000000200001fc        0x0 /usr/lib/gcc/arm-none-eabi/6.3.1/thumb/v7-m/crtend.o

.igot.plt       0x00000000200001fc        0x0 load address 0x0000000008016b84
 .igot.plt      0x00000000200001fc        0x0 /usr/lib/gcc/arm-none-eabi/6.3.1/thumb/v7-m/crtbegin.o
                0x00000000200001fc                . = ALIGN (0x4)

.bss            0x00000000200001fc     0x7314 load address 0x0000000008016b84
                0x00000000200001fc                _sbss = .
                0x00000000200001fc                __bss_start__ = _sbss
 *(.bss)
 .bss           0x00000000200001fc       0x1c /usr/lib/gcc/arm-none-eabi/6.3.1/thumb/v7-m/crtbegin.o
 .bss           0x0000000020000218        0x8 /usr/lib/gcc/arm-none-eabi/6.3.1/../../../arm-none-eabi/lib/thumb/v7-m/libc_nano.a(lib_a-nano-mallocr.o)
                0x0000000020000218                __malloc_free_list
                0x000000002000021c                __malloc_sbrk_start
 .bss           0x0000000020000220        0x4 /usr/lib/gcc/arm-none-eabi/6.3.1/../../../arm-none-eabi/lib/thumb/v7-m/libnosys.a(sbrk.o)
 *(.bss*)
 .bss.Appli_state
                0x0000000020000224        0x1 build/usb_host.o
                0x0000000020000224                Appli_state
 *fill*         0x0000000020000225        0x3 
 .bss.FatFs     0x0000000020000228        0x4 build/ff.o
 .bss.Files     0x000000002000022c       0x18 build/ff.o
 .bss.Fsid      0x0000000020000244        0x2 build/ff.o
 *fill*         0x0000000020000246        0x2 
 .bss.LfnBuf    0x0000000020000248      0x200 build/ff.o
 .bss.disk      0x0000000020000448        0xc build/ff_gen_drv.o
                0x0000000020000448                disk
 .bss.commandBuffer
                0x0000000020000454      0xbb8 build/Buffer_Gcode.o
 .bss.commandBufferIsFull
                0x000000002000100c        0x1 build/Buffer_Gcode.o
 *fill*         0x000000002000100d        0x3 
 .bss.descreteBuffer
                0x0000000020001010       0x78 build/Buffer_Gcode.o
 .bss.firstFreeElementCommandBuffer
                0x0000000020001088        0x4 build/Buffer_Gcode.o
 .bss.firstOccupedElementCommandBuffer
                0x000000002000108c        0x4 build/Buffer_Gcode.o
 .bss.descreteCommand
                0x0000000020001090       0x28 build/Descritization_Gcode.o
 .bss.command   0x00000000200010b8       0x20 build/GcodeConverter_Gcode.o
 .bss.continiuosPrinter
                0x00000000200010d8       0x20 build/VirtualPrinters_Gcode.o
 .bss.currentCommand
                0x00000000200010f8       0x5c build/VirtualPrinters_Gcode.o
 .bss.discretePrinter
                0x0000000020001154       0x10 build/VirtualPrinters_Gcode.o
 .bss.text_LCD  0x0000000020001164      0x650 build/TextConverter_LCD.o
 .bss.toPrint_LCD
                0x00000000200017b4      0x140 build/TextConverter_LCD.o
 .bss.pMenuNode
                0x00000000200018f4        0x4 build/Constructor_Menu.o
 .bss.motorEstate
                0x00000000200018f8        0x4 build/Driver_Motors.o
 .bss.motorXstate
                0x00000000200018fc        0x4 build/Driver_Motors.o
 .bss.motorYstate
                0x0000000020001900        0x4 build/Driver_Motors.o
 .bss.motorZstate
                0x0000000020001904        0x4 build/Driver_Motors.o
 .bss.state_USBdrive
                0x0000000020001908        0x1 build/State_USBdrive.o
 *fill*         0x0000000020001909        0x3 
 .bss.USBDISKFatFs
                0x000000002000190c     0x1030 build/Driver_USBdrive.o
 .bss.currentMountedStatus_USBdrive
                0x000000002000293c        0x1 build/Driver_USBdrive.o
 *fill*         0x000000002000293d        0x3 
 .bss.directory
                0x0000000020002940     0x1028 build/Driver_USBdrive.o
 .bss.file      0x0000000020003968     0x102c build/Driver_USBdrive.o
 .bss.fileInformation
                0x0000000020004994      0x11c build/Driver_USBdrive.o
 .bss.outputWideName
                0x0000000020004ab0      0x190 build/Driver_USBdrive.o
 .bss.path      0x0000000020004c40       0x64 build/Driver_USBdrive.o
 .bss.stringFromFile
                0x0000000020004ca4       0x64 build/Driver_USBdrive.o
 .bss.e         0x0000000020004d08        0x4 build/coordinates.o
 .bss.x         0x0000000020004d0c        0x4 build/coordinates.o
 .bss.y         0x0000000020004d10        0x4 build/coordinates.o
 .bss.z         0x0000000020004d14        0x4 build/coordinates.o
 *(COMMON)
 COMMON         0x0000000020004d18     0x2061 build/fatfs.o
                0x0000000020004d18                USBHPath
                0x0000000020004d1c                USBHFile
                0x0000000020005d48                USBHFatFS
                0x0000000020006d78                retUSBH
 *fill*         0x0000000020006d79        0x3 
 COMMON         0x0000000020006d7c      0x100 build/tim.o
                0x0000000020006d7c                htim4
                0x0000000020006dbc                htim5
                0x0000000020006dfc                htim3
                0x0000000020006e3c                htim2
 COMMON         0x0000000020006e7c       0x40 build/usart.o
                0x0000000020006e7c                huart2
 COMMON         0x0000000020006ebc      0x3c8 build/usb_host.o
                0x0000000020006ebc                hUsbHostFS
 COMMON         0x0000000020007284      0x284 build/usbh_conf.o
                0x0000000020007284                hhcd_USB_OTG_FS
 COMMON         0x0000000020007508        0x4 build/stm32f1xx_hal.o
                0x0000000020007508                uwTick
 COMMON         0x000000002000750c        0x4 /usr/lib/gcc/arm-none-eabi/6.3.1/../../../arm-none-eabi/lib/thumb/v7-m/libc_nano.a(lib_a-reent.o)
                0x000000002000750c                errno
                0x0000000020007510                . = ALIGN (0x4)
                0x0000000020007510                _ebss = .
                0x0000000020007510                __bss_end__ = _ebss

._user_heap_stack
                0x0000000020007510      0x600 load address 0x0000000008016b84
                0x0000000020007510                . = ALIGN (0x8)
                0x0000000020007510                PROVIDE (end, .)
                [!provide]                        PROVIDE (_end, .)
                0x0000000020007710                . = (. + _Min_Heap_Size)
 *fill*         0x0000000020007510      0x200 
                0x0000000020007b10                . = (. + _Min_Stack_Size)
 *fill*         0x0000000020007710      0x400 
                0x0000000020007b10                . = ALIGN (0x8)

/DISCARD/
 libc.a(*)
 libm.a(*)
 libgcc.a(*)

.ARM.attributes
                0x0000000000000000       0x29
 *(.ARM.attributes)
 .ARM.attributes
                0x0000000000000000       0x1d /usr/lib/gcc/arm-none-eabi/6.3.1/thumb/v7-m/crti.o
 .ARM.attributes
                0x000000000000001d       0x2d /usr/lib/gcc/arm-none-eabi/6.3.1/thumb/v7-m/crtbegin.o
 .ARM.attributes
                0x000000000000004a       0x33 build/main.o
 .ARM.attributes
                0x000000000000007d       0x33 build/gpio.o
 .ARM.attributes
                0x00000000000000b0       0x33 build/fatfs.o
 .ARM.attributes
                0x00000000000000e3       0x33 build/tim.o
 .ARM.attributes
                0x0000000000000116       0x33 build/usart.o
 .ARM.attributes
                0x0000000000000149       0x33 build/usb_host.o
 .ARM.attributes
                0x000000000000017c       0x33 build/usbh_conf.o
 .ARM.attributes
                0x00000000000001af       0x33 build/usbh_platform.o
 .ARM.attributes
                0x00000000000001e2       0x33 build/stm32f1xx_it.o
 .ARM.attributes
                0x0000000000000215       0x33 build/stm32f1xx_hal_msp.o
 .ARM.attributes
                0x0000000000000248       0x33 build/stm32f1xx_hal_hcd.o
 .ARM.attributes
                0x000000000000027b       0x33 build/stm32f1xx_ll_usb.o
 .ARM.attributes
                0x00000000000002ae       0x33 build/stm32f1xx_hal.o
 .ARM.attributes
                0x00000000000002e1       0x33 build/stm32f1xx_hal_rcc.o
 .ARM.attributes
                0x0000000000000314       0x33 build/stm32f1xx_hal_rcc_ex.o
 .ARM.attributes
                0x0000000000000347       0x33 build/stm32f1xx_hal_gpio.o
 .ARM.attributes
                0x000000000000037a       0x33 build/stm32f1xx_hal_cortex.o
 .ARM.attributes
                0x00000000000003ad       0x33 build/stm32f1xx_hal_tim.o
 .ARM.attributes
                0x00000000000003e0       0x33 build/stm32f1xx_hal_tim_ex.o
 .ARM.attributes
                0x0000000000000413       0x33 build/stm32f1xx_hal_uart.o
 .ARM.attributes
                0x0000000000000446       0x33 build/system_stm32f1xx.o
 .ARM.attributes
                0x0000000000000479       0x33 build/diskio.o
 .ARM.attributes
                0x00000000000004ac       0x33 build/ff.o
 .ARM.attributes
                0x00000000000004df       0x33 build/ff_gen_drv.o
 .ARM.attributes
                0x0000000000000512       0x33 build/ccsbcs.o
 .ARM.attributes
                0x0000000000000545       0x33 build/usbh_diskio.o
 .ARM.attributes
                0x0000000000000578       0x33 build/usbh_core.o
 .ARM.attributes
                0x00000000000005ab       0x33 build/usbh_ctlreq.o
 .ARM.attributes
                0x00000000000005de       0x33 build/usbh_ioreq.o
 .ARM.attributes
                0x0000000000000611       0x33 build/usbh_pipes.o
 .ARM.attributes
                0x0000000000000644       0x33 build/usbh_msc.o
 .ARM.attributes
                0x0000000000000677       0x33 build/usbh_msc_bot.o
 .ARM.attributes
                0x00000000000006aa       0x33 build/usbh_msc_scsi.o
 .ARM.attributes
                0x00000000000006dd       0x33 build/Buffer_Gcode.o
 .ARM.attributes
                0x0000000000000710       0x33 build/Descritization_Gcode.o
 .ARM.attributes
                0x0000000000000743       0x33 build/GcodeConverter_Gcode.o
 .ARM.attributes
                0x0000000000000776       0x33 build/VirtualPrinters_Gcode.o
 .ARM.attributes
                0x00000000000007a9       0x33 build/CharacterConverter_LCD.o
 .ARM.attributes
                0x00000000000007dc       0x33 build/Driver_LCD.o
 .ARM.attributes
                0x000000000000080f       0x33 build/GPIOandTIM_LCD.o
 .ARM.attributes
                0x0000000000000842       0x33 build/Interface_LCD.o
 .ARM.attributes
                0x0000000000000875       0x33 build/TextConverter_LCD.o
 .ARM.attributes
                0x00000000000008a8       0x33 build/Constructor_Menu.o
 .ARM.attributes
                0x00000000000008db       0x33 build/MainMenu_Menu.o
 .ARM.attributes
                0x000000000000090e       0x33 build/FunctionsForButtons.o
 .ARM.attributes
                0x0000000000000941       0x33 build/Driver_Motors.o
 .ARM.attributes
                0x0000000000000974       0x33 build/GPIO_Motors.o
 .ARM.attributes
                0x00000000000009a7       0x33 build/State_USBdrive.o
 .ARM.attributes
                0x00000000000009da       0x33 build/Driver_USBdrive.o
 .ARM.attributes
                0x0000000000000a0d       0x33 build/coordinates.o
 .ARM.attributes
                0x0000000000000a40       0x21 build/startup_stm32f105xc.o
 .ARM.attributes
                0x0000000000000a61       0x2d /usr/lib/gcc/arm-none-eabi/6.3.1/../../../arm-none-eabi/lib/thumb/v7-m/libc_nano.a(lib_a-atof.o)
 .ARM.attributes
                0x0000000000000a8e       0x2d /usr/lib/gcc/arm-none-eabi/6.3.1/../../../arm-none-eabi/lib/thumb/v7-m/libc_nano.a(lib_a-atoi.o)
 .ARM.attributes
                0x0000000000000abb       0x2d /usr/lib/gcc/arm-none-eabi/6.3.1/../../../arm-none-eabi/lib/thumb/v7-m/libc_nano.a(lib_a-impure.o)
 .ARM.attributes
                0x0000000000000ae8       0x2d /usr/lib/gcc/arm-none-eabi/6.3.1/../../../arm-none-eabi/lib/thumb/v7-m/libc_nano.a(lib_a-malloc.o)
 .ARM.attributes
                0x0000000000000b15       0x2d /usr/lib/gcc/arm-none-eabi/6.3.1/../../../arm-none-eabi/lib/thumb/v7-m/libc_nano.a(lib_a-memset.o)
 .ARM.attributes
                0x0000000000000b42       0x2d /usr/lib/gcc/arm-none-eabi/6.3.1/../../../arm-none-eabi/lib/thumb/v7-m/libc_nano.a(lib_a-nano-freer.o)
 .ARM.attributes
                0x0000000000000b6f       0x2d /usr/lib/gcc/arm-none-eabi/6.3.1/../../../arm-none-eabi/lib/thumb/v7-m/libc_nano.a(lib_a-nano-mallocr.o)
 .ARM.attributes
                0x0000000000000b9c       0x2d /usr/lib/gcc/arm-none-eabi/6.3.1/../../../arm-none-eabi/lib/thumb/v7-m/libc_nano.a(lib_a-printf.o)
 .ARM.attributes
                0x0000000000000bc9       0x2d /usr/lib/gcc/arm-none-eabi/6.3.1/../../../arm-none-eabi/lib/thumb/v7-m/libc_nano.a(lib_a-sbrkr.o)
 .ARM.attributes
                0x0000000000000bf6       0x2d /usr/lib/gcc/arm-none-eabi/6.3.1/../../../arm-none-eabi/lib/thumb/v7-m/libc_nano.a(lib_a-sprintf.o)
 .ARM.attributes
                0x0000000000000c23       0x2d /usr/lib/gcc/arm-none-eabi/6.3.1/../../../arm-none-eabi/lib/thumb/v7-m/libc_nano.a(lib_a-strchr.o)
 .ARM.attributes
                0x0000000000000c50       0x2d /usr/lib/gcc/arm-none-eabi/6.3.1/../../../arm-none-eabi/lib/thumb/v7-m/libc_nano.a(lib_a-strcpy.o)
 .ARM.attributes
                0x0000000000000c7d       0x2d /usr/lib/gcc/arm-none-eabi/6.3.1/../../../arm-none-eabi/lib/thumb/v7-m/libc_nano.a(lib_a-strtod.o)
 .ARM.attributes
                0x0000000000000caa       0x2d /usr/lib/gcc/arm-none-eabi/6.3.1/../../../arm-none-eabi/lib/thumb/v7-m/libc_nano.a(lib_a-strtol.o)
 .ARM.attributes
                0x0000000000000cd7       0x2d /usr/lib/gcc/arm-none-eabi/6.3.1/../../../arm-none-eabi/lib/thumb/v7-m/libc_nano.a(lib_a-swprintf.o)
 .ARM.attributes
                0x0000000000000d04       0x2d /usr/lib/gcc/arm-none-eabi/6.3.1/../../../arm-none-eabi/lib/thumb/v7-m/libc_nano.a(lib_a-wcscpy.o)
 .ARM.attributes
                0x0000000000000d31       0x2d /usr/lib/gcc/arm-none-eabi/6.3.1/../../../arm-none-eabi/lib/thumb/v7-m/libc_nano.a(lib_a-wcslen.o)
 .ARM.attributes
                0x0000000000000d5e       0x2d /usr/lib/gcc/arm-none-eabi/6.3.1/../../../arm-none-eabi/lib/thumb/v7-m/libc_nano.a(lib_a-wcsstr.o)
 .ARM.attributes
                0x0000000000000d8b       0x2d /usr/lib/gcc/arm-none-eabi/6.3.1/../../../arm-none-eabi/lib/thumb/v7-m/libc_nano.a(lib_a-wmemcpy.o)
 .ARM.attributes
                0x0000000000000db8       0x2d /usr/lib/gcc/arm-none-eabi/6.3.1/../../../arm-none-eabi/lib/thumb/v7-m/libc_nano.a(lib_a-findfp.o)
 .ARM.attributes
                0x0000000000000de5       0x2d /usr/lib/gcc/arm-none-eabi/6.3.1/../../../arm-none-eabi/lib/thumb/v7-m/libc_nano.a(lib_a-fwalk.o)
 .ARM.attributes
                0x0000000000000e12       0x2d /usr/lib/gcc/arm-none-eabi/6.3.1/../../../arm-none-eabi/lib/thumb/v7-m/libc_nano.a(lib_a-gdtoa-gethex.o)
 .ARM.attributes
                0x0000000000000e3f       0x2d /usr/lib/gcc/arm-none-eabi/6.3.1/../../../arm-none-eabi/lib/thumb/v7-m/libc_nano.a(lib_a-gdtoa-hexnan.o)
 .ARM.attributes
                0x0000000000000e6c       0x2d /usr/lib/gcc/arm-none-eabi/6.3.1/../../../arm-none-eabi/lib/thumb/v7-m/libc_nano.a(lib_a-locale.o)
 .ARM.attributes
                0x0000000000000e99       0x2d /usr/lib/gcc/arm-none-eabi/6.3.1/../../../arm-none-eabi/lib/thumb/v7-m/libc_nano.a(lib_a-localeconv.o)
 .ARM.attributes
                0x0000000000000ec6       0x2d /usr/lib/gcc/arm-none-eabi/6.3.1/../../../arm-none-eabi/lib/thumb/v7-m/libc_nano.a(lib_a-mbtowc_r.o)
 .ARM.attributes
                0x0000000000000ef3       0x1b /usr/lib/gcc/arm-none-eabi/6.3.1/../../../arm-none-eabi/lib/thumb/v7-m/libc_nano.a(lib_a-memcpy.o)
 .ARM.attributes
                0x0000000000000f0e       0x2d /usr/lib/gcc/arm-none-eabi/6.3.1/../../../arm-none-eabi/lib/thumb/v7-m/libc_nano.a(lib_a-mlock.o)
 .ARM.attributes
                0x0000000000000f3b       0x2d /usr/lib/gcc/arm-none-eabi/6.3.1/../../../arm-none-eabi/lib/thumb/v7-m/libc_nano.a(lib_a-mprec.o)
 .ARM.attributes
                0x0000000000000f68       0x2d /usr/lib/gcc/arm-none-eabi/6.3.1/../../../arm-none-eabi/lib/thumb/v7-m/libc_nano.a(lib_a-nano-callocr.o)
 .ARM.attributes
                0x0000000000000f95       0x2d /usr/lib/gcc/arm-none-eabi/6.3.1/../../../arm-none-eabi/lib/thumb/v7-m/libc_nano.a(lib_a-nano-svfprintf.o)
 .ARM.attributes
                0x0000000000000fc2       0x2d /usr/lib/gcc/arm-none-eabi/6.3.1/../../../arm-none-eabi/lib/thumb/v7-m/libc_nano.a(lib_a-nano-vfprintf.o)
 .ARM.attributes
                0x0000000000000fef       0x2d /usr/lib/gcc/arm-none-eabi/6.3.1/../../../arm-none-eabi/lib/thumb/v7-m/libc_nano.a(lib_a-nano-vfprintf_i.o)
 .ARM.attributes
                0x000000000000101c       0x2d /usr/lib/gcc/arm-none-eabi/6.3.1/../../../arm-none-eabi/lib/thumb/v7-m/libc_nano.a(lib_a-reent.o)
 .ARM.attributes
                0x0000000000001049       0x2d /usr/lib/gcc/arm-none-eabi/6.3.1/../../../arm-none-eabi/lib/thumb/v7-m/libc_nano.a(lib_a-sf_nan.o)
 .ARM.attributes
                0x0000000000001076       0x2d /usr/lib/gcc/arm-none-eabi/6.3.1/../../../arm-none-eabi/lib/thumb/v7-m/libc_nano.a(lib_a-stdio.o)
 .ARM.attributes
                0x00000000000010a3       0x1b /usr/lib/gcc/arm-none-eabi/6.3.1/../../../arm-none-eabi/lib/thumb/v7-m/libc_nano.a(lib_a-strcmp.o)
 .ARM.attributes
                0x00000000000010be       0x2d /usr/lib/gcc/arm-none-eabi/6.3.1/../../../arm-none-eabi/lib/thumb/v7-m/libc_nano.a(lib_a-strlen-stub.o)
 .ARM.attributes
                0x00000000000010eb       0x2d /usr/lib/gcc/arm-none-eabi/6.3.1/../../../arm-none-eabi/lib/thumb/v7-m/libc_nano.a(lib_a-strncmp.o)
 .ARM.attributes
                0x0000000000001118       0x2d /usr/lib/gcc/arm-none-eabi/6.3.1/../../../arm-none-eabi/lib/thumb/v7-m/libc_nano.a(lib_a-svfwprintf.o)
 .ARM.attributes
                0x0000000000001145       0x2d /usr/lib/gcc/arm-none-eabi/6.3.1/../../../arm-none-eabi/lib/thumb/v7-m/libc_nano.a(lib_a-wbuf.o)
 .ARM.attributes
                0x0000000000001172       0x2d /usr/lib/gcc/arm-none-eabi/6.3.1/../../../arm-none-eabi/lib/thumb/v7-m/libc_nano.a(lib_a-wctomb_r.o)
 .ARM.attributes
                0x000000000000119f       0x2d /usr/lib/gcc/arm-none-eabi/6.3.1/../../../arm-none-eabi/lib/thumb/v7-m/libc_nano.a(lib_a-wmemchr.o)
 .ARM.attributes
                0x00000000000011cc       0x2d /usr/lib/gcc/arm-none-eabi/6.3.1/../../../arm-none-eabi/lib/thumb/v7-m/libc_nano.a(lib_a-writer.o)
 .ARM.attributes
                0x00000000000011f9       0x2d /usr/lib/gcc/arm-none-eabi/6.3.1/../../../arm-none-eabi/lib/thumb/v7-m/libc_nano.a(lib_a-wsetup.o)
 .ARM.attributes
                0x0000000000001226       0x2d /usr/lib/gcc/arm-none-eabi/6.3.1/../../../arm-none-eabi/lib/thumb/v7-m/libc_nano.a(lib_a-btowc.o)
 .ARM.attributes
                0x0000000000001253       0x2d /usr/lib/gcc/arm-none-eabi/6.3.1/../../../arm-none-eabi/lib/thumb/v7-m/libc_nano.a(lib_a-closer.o)
 .ARM.attributes
                0x0000000000001280       0x2d /usr/lib/gcc/arm-none-eabi/6.3.1/../../../arm-none-eabi/lib/thumb/v7-m/libc_nano.a(lib_a-ctype_.o)
 .ARM.attributes
                0x00000000000012ad       0x2d /usr/lib/gcc/arm-none-eabi/6.3.1/../../../arm-none-eabi/lib/thumb/v7-m/libc_nano.a(lib_a-dtoa.o)
 .ARM.attributes
                0x00000000000012da       0x2d /usr/lib/gcc/arm-none-eabi/6.3.1/../../../arm-none-eabi/lib/thumb/v7-m/libc_nano.a(lib_a-fflush.o)
 .ARM.attributes
                0x0000000000001307       0x2d /usr/lib/gcc/arm-none-eabi/6.3.1/../../../arm-none-eabi/lib/thumb/v7-m/libc_nano.a(lib_a-fvwrite.o)
 .ARM.attributes
                0x0000000000001334       0x2d /usr/lib/gcc/arm-none-eabi/6.3.1/../../../arm-none-eabi/lib/thumb/v7-m/libc_nano.a(lib_a-lseekr.o)
 .ARM.attributes
                0x0000000000001361       0x2d /usr/lib/gcc/arm-none-eabi/6.3.1/../../../arm-none-eabi/lib/thumb/v7-m/libc_nano.a(lib_a-makebuf.o)
 .ARM.attributes
                0x000000000000138e       0x2d /usr/lib/gcc/arm-none-eabi/6.3.1/../../../arm-none-eabi/lib/thumb/v7-m/libc_nano.a(lib_a-memchr-stub.o)
 .ARM.attributes
                0x00000000000013bb       0x2d /usr/lib/gcc/arm-none-eabi/6.3.1/../../../arm-none-eabi/lib/thumb/v7-m/libc_nano.a(lib_a-memmove.o)
 .ARM.attributes
                0x00000000000013e8       0x2d /usr/lib/gcc/arm-none-eabi/6.3.1/../../../arm-none-eabi/lib/thumb/v7-m/libc_nano.a(lib_a-nano-reallocr.o)
 .ARM.attributes
                0x0000000000001415       0x2d /usr/lib/gcc/arm-none-eabi/6.3.1/../../../arm-none-eabi/lib/thumb/v7-m/libc_nano.a(lib_a-readr.o)
 .ARM.attributes
                0x0000000000001442       0x2d /usr/lib/gcc/arm-none-eabi/6.3.1/../../../arm-none-eabi/lib/thumb/v7-m/libc_nano.a(lib_a-fstatr.o)
 .ARM.attributes
                0x000000000000146f       0x2d /usr/lib/gcc/arm-none-eabi/6.3.1/../../../arm-none-eabi/lib/thumb/v7-m/libc_nano.a(lib_a-isattyr.o)
 .ARM.attributes
                0x000000000000149c       0x2d /usr/lib/gcc/arm-none-eabi/6.3.1/../../../arm-none-eabi/lib/thumb/v7-m/libc_nano.a(lib_a-nano-msizer.o)
 .ARM.attributes
                0x00000000000014c9       0x2d /usr/lib/gcc/arm-none-eabi/6.3.1/../../../arm-none-eabi/lib/thumb/v7-m/libm.a(lib_a-sf_lround.o)
 .ARM.attributes
                0x00000000000014f6       0x2d /usr/lib/gcc/arm-none-eabi/6.3.1/../../../arm-none-eabi/lib/thumb/v7-m/libm.a(lib_a-w_pow.o)
 .ARM.attributes
                0x0000000000001523       0x2d /usr/lib/gcc/arm-none-eabi/6.3.1/../../../arm-none-eabi/lib/thumb/v7-m/libm.a(lib_a-w_sqrt.o)
 .ARM.attributes
                0x0000000000001550       0x2d /usr/lib/gcc/arm-none-eabi/6.3.1/../../../arm-none-eabi/lib/thumb/v7-m/libm.a(lib_a-wf_sqrt.o)
 .ARM.attributes
                0x000000000000157d       0x2d /usr/lib/gcc/arm-none-eabi/6.3.1/../../../arm-none-eabi/lib/thumb/v7-m/libm.a(lib_a-e_pow.o)
 .ARM.attributes
                0x00000000000015aa       0x2d /usr/lib/gcc/arm-none-eabi/6.3.1/../../../arm-none-eabi/lib/thumb/v7-m/libm.a(lib_a-e_sqrt.o)
 .ARM.attributes
                0x00000000000015d7       0x2d /usr/lib/gcc/arm-none-eabi/6.3.1/../../../arm-none-eabi/lib/thumb/v7-m/libm.a(lib_a-ef_sqrt.o)
 .ARM.attributes
                0x0000000000001604       0x2d /usr/lib/gcc/arm-none-eabi/6.3.1/../../../arm-none-eabi/lib/thumb/v7-m/libm.a(lib_a-s_fabs.o)
 .ARM.attributes
                0x0000000000001631       0x2d /usr/lib/gcc/arm-none-eabi/6.3.1/../../../arm-none-eabi/lib/thumb/v7-m/libm.a(lib_a-s_finite.o)
 .ARM.attributes
                0x000000000000165e       0x2d /usr/lib/gcc/arm-none-eabi/6.3.1/../../../arm-none-eabi/lib/thumb/v7-m/libm.a(lib_a-s_lib_ver.o)
 .ARM.attributes
                0x000000000000168b       0x2d /usr/lib/gcc/arm-none-eabi/6.3.1/../../../arm-none-eabi/lib/thumb/v7-m/libm.a(lib_a-s_matherr.o)
 .ARM.attributes
                0x00000000000016b8       0x2d /usr/lib/gcc/arm-none-eabi/6.3.1/../../../arm-none-eabi/lib/thumb/v7-m/libm.a(lib_a-s_nan.o)
 .ARM.attributes
                0x00000000000016e5       0x2d /usr/lib/gcc/arm-none-eabi/6.3.1/../../../arm-none-eabi/lib/thumb/v7-m/libm.a(lib_a-s_rint.o)
 .ARM.attributes
                0x0000000000001712       0x2d /usr/lib/gcc/arm-none-eabi/6.3.1/../../../arm-none-eabi/lib/thumb/v7-m/libm.a(lib_a-s_scalbn.o)
 .ARM.attributes
                0x000000000000173f       0x2d /usr/lib/gcc/arm-none-eabi/6.3.1/../../../arm-none-eabi/lib/thumb/v7-m/libnosys.a(close.o)
 .ARM.attributes
                0x000000000000176c       0x2d /usr/lib/gcc/arm-none-eabi/6.3.1/../../../arm-none-eabi/lib/thumb/v7-m/libnosys.a(fstat.o)
 .ARM.attributes
                0x0000000000001799       0x2d /usr/lib/gcc/arm-none-eabi/6.3.1/../../../arm-none-eabi/lib/thumb/v7-m/libnosys.a(isatty.o)
 .ARM.attributes
                0x00000000000017c6       0x2d /usr/lib/gcc/arm-none-eabi/6.3.1/../../../arm-none-eabi/lib/thumb/v7-m/libnosys.a(lseek.o)
 .ARM.attributes
                0x00000000000017f3       0x2d /usr/lib/gcc/arm-none-eabi/6.3.1/../../../arm-none-eabi/lib/thumb/v7-m/libnosys.a(read.o)
 .ARM.attributes
                0x0000000000001820       0x2d /usr/lib/gcc/arm-none-eabi/6.3.1/../../../arm-none-eabi/lib/thumb/v7-m/libnosys.a(sbrk.o)
 .ARM.attributes
                0x000000000000184d       0x1d /usr/lib/gcc/arm-none-eabi/6.3.1/thumb/v7-m/libgcc.a(_arm_addsubdf3.o)
 .ARM.attributes
                0x000000000000186a       0x1d /usr/lib/gcc/arm-none-eabi/6.3.1/thumb/v7-m/libgcc.a(_arm_muldivdf3.o)
 .ARM.attributes
                0x0000000000001887       0x1d /usr/lib/gcc/arm-none-eabi/6.3.1/thumb/v7-m/libgcc.a(_arm_cmpdf2.o)
 .ARM.attributes
                0x00000000000018a4       0x1d /usr/lib/gcc/arm-none-eabi/6.3.1/thumb/v7-m/libgcc.a(_arm_unorddf2.o)
 .ARM.attributes
                0x00000000000018c1       0x1d /usr/lib/gcc/arm-none-eabi/6.3.1/thumb/v7-m/libgcc.a(_arm_fixdfsi.o)
 .ARM.attributes
                0x00000000000018de       0x1d /usr/lib/gcc/arm-none-eabi/6.3.1/thumb/v7-m/libgcc.a(_arm_fixunsdfsi.o)
 .ARM.attributes
                0x00000000000018fb       0x1d /usr/lib/gcc/arm-none-eabi/6.3.1/thumb/v7-m/libgcc.a(_arm_truncdfsf2.o)
 .ARM.attributes
                0x0000000000001918       0x1d /usr/lib/gcc/arm-none-eabi/6.3.1/thumb/v7-m/libgcc.a(_arm_addsubsf3.o)
 .ARM.attributes
                0x0000000000001935       0x1d /usr/lib/gcc/arm-none-eabi/6.3.1/thumb/v7-m/libgcc.a(_arm_muldivsf3.o)
 .ARM.attributes
                0x0000000000001952       0x1d /usr/lib/gcc/arm-none-eabi/6.3.1/thumb/v7-m/libgcc.a(_arm_cmpsf2.o)
 .ARM.attributes
                0x000000000000196f       0x1d /usr/lib/gcc/arm-none-eabi/6.3.1/thumb/v7-m/libgcc.a(_arm_unordsf2.o)
 .ARM.attributes
                0x000000000000198c       0x1d /usr/lib/gcc/arm-none-eabi/6.3.1/thumb/v7-m/libgcc.a(_arm_fixsfsi.o)
 .ARM.attributes
                0x00000000000019a9       0x1d /usr/lib/gcc/arm-none-eabi/6.3.1/thumb/v7-m/libgcc.a(_aeabi_uldivmod.o)
 .ARM.attributes
                0x00000000000019c6       0x2d /usr/lib/gcc/arm-none-eabi/6.3.1/thumb/v7-m/libgcc.a(_fixdfdi.o)
 .ARM.attributes
                0x00000000000019f3       0x2d /usr/lib/gcc/arm-none-eabi/6.3.1/thumb/v7-m/libgcc.a(_fixunsdfdi.o)
 .ARM.attributes
                0x0000000000001a20       0x2d /usr/lib/gcc/arm-none-eabi/6.3.1/thumb/v7-m/libgcc.a(_udivmoddi4.o)
 .ARM.attributes
                0x0000000000001a4d       0x1d /usr/lib/gcc/arm-none-eabi/6.3.1/thumb/v7-m/libgcc.a(_dvmd_tls.o)
 .ARM.attributes
                0x0000000000001a6a       0x2d /usr/lib/gcc/arm-none-eabi/6.3.1/../../../arm-none-eabi/lib/thumb/v7-m/libc_nano.a(lib_a-errno.o)
 .ARM.attributes
                0x0000000000001a97       0x2d /usr/lib/gcc/arm-none-eabi/6.3.1/thumb/v7-m/crtend.o
 .ARM.attributes
                0x0000000000001ac4       0x1d /usr/lib/gcc/arm-none-eabi/6.3.1/thumb/v7-m/crtn.o
OUTPUT(build/TDD_Gcode.elf elf32-littlearm)

.comment        0x0000000000000000      0x107
 .comment       0x0000000000000000       0x31 /usr/lib/gcc/arm-none-eabi/6.3.1/thumb/v7-m/crtbegin.o
                                         0x32 (size before relaxing)
 .comment       0x0000000000000031       0x7f build/main.o
                                         0x80 (size before relaxing)
 .comment       0x00000000000000b0       0x80 build/gpio.o
 .comment       0x00000000000000b0       0x80 build/fatfs.o
 .comment       0x00000000000000b0       0x80 build/tim.o
 .comment       0x00000000000000b0       0x80 build/usart.o
 .comment       0x00000000000000b0       0x80 build/usb_host.o
 .comment       0x00000000000000b0       0x80 build/usbh_conf.o
 .comment       0x00000000000000b0       0x80 build/usbh_platform.o
 .comment       0x00000000000000b0       0x80 build/stm32f1xx_it.o
 .comment       0x00000000000000b0       0x80 build/stm32f1xx_hal_msp.o
 .comment       0x00000000000000b0       0x80 build/stm32f1xx_hal_hcd.o
 .comment       0x00000000000000b0       0x80 build/stm32f1xx_ll_usb.o
 .comment       0x00000000000000b0       0x80 build/stm32f1xx_hal.o
 .comment       0x00000000000000b0       0x80 build/stm32f1xx_hal_rcc.o
 .comment       0x00000000000000b0       0x80 build/stm32f1xx_hal_rcc_ex.o
 .comment       0x00000000000000b0       0x80 build/stm32f1xx_hal_gpio.o
 .comment       0x00000000000000b0       0x80 build/stm32f1xx_hal_cortex.o
 .comment       0x00000000000000b0       0x80 build/stm32f1xx_hal_tim.o
 .comment       0x00000000000000b0       0x80 build/stm32f1xx_hal_tim_ex.o
 .comment       0x00000000000000b0       0x80 build/stm32f1xx_hal_uart.o
 .comment       0x00000000000000b0       0x80 build/system_stm32f1xx.o
 .comment       0x00000000000000b0       0x80 build/diskio.o
 .comment       0x00000000000000b0       0x80 build/ff.o
 .comment       0x00000000000000b0       0x80 build/ff_gen_drv.o
 .comment       0x00000000000000b0       0x80 build/ccsbcs.o
 .comment       0x00000000000000b0       0x80 build/usbh_diskio.o
 .comment       0x00000000000000b0       0x80 build/usbh_core.o
 .comment       0x00000000000000b0       0x80 build/usbh_ctlreq.o
 .comment       0x00000000000000b0       0x80 build/usbh_ioreq.o
 .comment       0x00000000000000b0       0x80 build/usbh_pipes.o
 .comment       0x00000000000000b0       0x80 build/usbh_msc.o
 .comment       0x00000000000000b0       0x80 build/usbh_msc_bot.o
 .comment       0x00000000000000b0       0x80 build/usbh_msc_scsi.o
 .comment       0x00000000000000b0       0x80 build/Buffer_Gcode.o
 .comment       0x00000000000000b0       0x80 build/Descritization_Gcode.o
 .comment       0x00000000000000b0       0x80 build/GcodeConverter_Gcode.o
 .comment       0x00000000000000b0       0x80 build/VirtualPrinters_Gcode.o
 .comment       0x00000000000000b0       0x80 build/CharacterConverter_LCD.o
 .comment       0x00000000000000b0       0x80 build/Driver_LCD.o
 .comment       0x00000000000000b0       0x80 build/GPIOandTIM_LCD.o
 .comment       0x00000000000000b0       0x80 build/Interface_LCD.o
 .comment       0x00000000000000b0       0x80 build/TextConverter_LCD.o
 .comment       0x00000000000000b0       0x80 build/Constructor_Menu.o
 .comment       0x00000000000000b0       0x80 build/MainMenu_Menu.o
 .comment       0x00000000000000b0       0x80 build/FunctionsForButtons.o
 .comment       0x00000000000000b0       0x80 build/Driver_Motors.o
 .comment       0x00000000000000b0       0x80 build/GPIO_Motors.o
 .comment       0x00000000000000b0       0x80 build/State_USBdrive.o
 .comment       0x00000000000000b0       0x80 build/Driver_USBdrive.o
 .comment       0x00000000000000b0       0x80 build/coordinates.o
 .comment       0x00000000000000b0       0x57 /usr/lib/gcc/arm-none-eabi/6.3.1/../../../arm-none-eabi/lib/thumb/v7-m/libc_nano.a(lib_a-atof.o)
                                         0x58 (size before relaxing)
 .comment       0x0000000000000107       0x58 /usr/lib/gcc/arm-none-eabi/6.3.1/../../../arm-none-eabi/lib/thumb/v7-m/libc_nano.a(lib_a-atoi.o)
 .comment       0x0000000000000107       0x58 /usr/lib/gcc/arm-none-eabi/6.3.1/../../../arm-none-eabi/lib/thumb/v7-m/libc_nano.a(lib_a-impure.o)
 .comment       0x0000000000000107       0x58 /usr/lib/gcc/arm-none-eabi/6.3.1/../../../arm-none-eabi/lib/thumb/v7-m/libc_nano.a(lib_a-malloc.o)
 .comment       0x0000000000000107       0x58 /usr/lib/gcc/arm-none-eabi/6.3.1/../../../arm-none-eabi/lib/thumb/v7-m/libc_nano.a(lib_a-memset.o)
 .comment       0x0000000000000107       0x58 /usr/lib/gcc/arm-none-eabi/6.3.1/../../../arm-none-eabi/lib/thumb/v7-m/libc_nano.a(lib_a-nano-freer.o)
 .comment       0x0000000000000107       0x58 /usr/lib/gcc/arm-none-eabi/6.3.1/../../../arm-none-eabi/lib/thumb/v7-m/libc_nano.a(lib_a-nano-mallocr.o)
 .comment       0x0000000000000107       0x58 /usr/lib/gcc/arm-none-eabi/6.3.1/../../../arm-none-eabi/lib/thumb/v7-m/libc_nano.a(lib_a-printf.o)
 .comment       0x0000000000000107       0x58 /usr/lib/gcc/arm-none-eabi/6.3.1/../../../arm-none-eabi/lib/thumb/v7-m/libc_nano.a(lib_a-sbrkr.o)
 .comment       0x0000000000000107       0x58 /usr/lib/gcc/arm-none-eabi/6.3.1/../../../arm-none-eabi/lib/thumb/v7-m/libc_nano.a(lib_a-sprintf.o)
 .comment       0x0000000000000107       0x58 /usr/lib/gcc/arm-none-eabi/6.3.1/../../../arm-none-eabi/lib/thumb/v7-m/libc_nano.a(lib_a-strchr.o)
 .comment       0x0000000000000107       0x58 /usr/lib/gcc/arm-none-eabi/6.3.1/../../../arm-none-eabi/lib/thumb/v7-m/libc_nano.a(lib_a-strcpy.o)
 .comment       0x0000000000000107       0x58 /usr/lib/gcc/arm-none-eabi/6.3.1/../../../arm-none-eabi/lib/thumb/v7-m/libc_nano.a(lib_a-strtod.o)
 .comment       0x0000000000000107       0x58 /usr/lib/gcc/arm-none-eabi/6.3.1/../../../arm-none-eabi/lib/thumb/v7-m/libc_nano.a(lib_a-strtol.o)
 .comment       0x0000000000000107       0x58 /usr/lib/gcc/arm-none-eabi/6.3.1/../../../arm-none-eabi/lib/thumb/v7-m/libc_nano.a(lib_a-swprintf.o)
 .comment       0x0000000000000107       0x58 /usr/lib/gcc/arm-none-eabi/6.3.1/../../../arm-none-eabi/lib/thumb/v7-m/libc_nano.a(lib_a-wcscpy.o)
 .comment       0x0000000000000107       0x58 /usr/lib/gcc/arm-none-eabi/6.3.1/../../../arm-none-eabi/lib/thumb/v7-m/libc_nano.a(lib_a-wcslen.o)
 .comment       0x0000000000000107       0x58 /usr/lib/gcc/arm-none-eabi/6.3.1/../../../arm-none-eabi/lib/thumb/v7-m/libc_nano.a(lib_a-wcsstr.o)
 .comment       0x0000000000000107       0x58 /usr/lib/gcc/arm-none-eabi/6.3.1/../../../arm-none-eabi/lib/thumb/v7-m/libc_nano.a(lib_a-wmemcpy.o)
 .comment       0x0000000000000107       0x58 /usr/lib/gcc/arm-none-eabi/6.3.1/../../../arm-none-eabi/lib/thumb/v7-m/libc_nano.a(lib_a-findfp.o)
 .comment       0x0000000000000107       0x58 /usr/lib/gcc/arm-none-eabi/6.3.1/../../../arm-none-eabi/lib/thumb/v7-m/libc_nano.a(lib_a-fwalk.o)
 .comment       0x0000000000000107       0x58 /usr/lib/gcc/arm-none-eabi/6.3.1/../../../arm-none-eabi/lib/thumb/v7-m/libc_nano.a(lib_a-gdtoa-gethex.o)
 .comment       0x0000000000000107       0x58 /usr/lib/gcc/arm-none-eabi/6.3.1/../../../arm-none-eabi/lib/thumb/v7-m/libc_nano.a(lib_a-gdtoa-hexnan.o)
 .comment       0x0000000000000107       0x58 /usr/lib/gcc/arm-none-eabi/6.3.1/../../../arm-none-eabi/lib/thumb/v7-m/libc_nano.a(lib_a-locale.o)
 .comment       0x0000000000000107       0x58 /usr/lib/gcc/arm-none-eabi/6.3.1/../../../arm-none-eabi/lib/thumb/v7-m/libc_nano.a(lib_a-localeconv.o)
 .comment       0x0000000000000107       0x58 /usr/lib/gcc/arm-none-eabi/6.3.1/../../../arm-none-eabi/lib/thumb/v7-m/libc_nano.a(lib_a-mbtowc_r.o)
 .comment       0x0000000000000107       0x58 /usr/lib/gcc/arm-none-eabi/6.3.1/../../../arm-none-eabi/lib/thumb/v7-m/libc_nano.a(lib_a-mlock.o)
 .comment       0x0000000000000107       0x58 /usr/lib/gcc/arm-none-eabi/6.3.1/../../../arm-none-eabi/lib/thumb/v7-m/libc_nano.a(lib_a-mprec.o)
 .comment       0x0000000000000107       0x58 /usr/lib/gcc/arm-none-eabi/6.3.1/../../../arm-none-eabi/lib/thumb/v7-m/libc_nano.a(lib_a-nano-callocr.o)
 .comment       0x0000000000000107       0x58 /usr/lib/gcc/arm-none-eabi/6.3.1/../../../arm-none-eabi/lib/thumb/v7-m/libc_nano.a(lib_a-nano-svfprintf.o)
 .comment       0x0000000000000107       0x58 /usr/lib/gcc/arm-none-eabi/6.3.1/../../../arm-none-eabi/lib/thumb/v7-m/libc_nano.a(lib_a-nano-vfprintf.o)
 .comment       0x0000000000000107       0x58 /usr/lib/gcc/arm-none-eabi/6.3.1/../../../arm-none-eabi/lib/thumb/v7-m/libc_nano.a(lib_a-nano-vfprintf_i.o)
 .comment       0x0000000000000107       0x58 /usr/lib/gcc/arm-none-eabi/6.3.1/../../../arm-none-eabi/lib/thumb/v7-m/libc_nano.a(lib_a-reent.o)
 .comment       0x0000000000000107       0x58 /usr/lib/gcc/arm-none-eabi/6.3.1/../../../arm-none-eabi/lib/thumb/v7-m/libc_nano.a(lib_a-sf_nan.o)
 .comment       0x0000000000000107       0x58 /usr/lib/gcc/arm-none-eabi/6.3.1/../../../arm-none-eabi/lib/thumb/v7-m/libc_nano.a(lib_a-stdio.o)
 .comment       0x0000000000000107       0x58 /usr/lib/gcc/arm-none-eabi/6.3.1/../../../arm-none-eabi/lib/thumb/v7-m/libc_nano.a(lib_a-strlen-stub.o)
 .comment       0x0000000000000107       0x58 /usr/lib/gcc/arm-none-eabi/6.3.1/../../../arm-none-eabi/lib/thumb/v7-m/libc_nano.a(lib_a-strncmp.o)
 .comment       0x0000000000000107       0x58 /usr/lib/gcc/arm-none-eabi/6.3.1/../../../arm-none-eabi/lib/thumb/v7-m/libc_nano.a(lib_a-svfwprintf.o)
 .comment       0x0000000000000107       0x58 /usr/lib/gcc/arm-none-eabi/6.3.1/../../../arm-none-eabi/lib/thumb/v7-m/libc_nano.a(lib_a-wbuf.o)
 .comment       0x0000000000000107       0x58 /usr/lib/gcc/arm-none-eabi/6.3.1/../../../arm-none-eabi/lib/thumb/v7-m/libc_nano.a(lib_a-wctomb_r.o)
 .comment       0x0000000000000107       0x58 /usr/lib/gcc/arm-none-eabi/6.3.1/../../../arm-none-eabi/lib/thumb/v7-m/libc_nano.a(lib_a-wmemchr.o)
 .comment       0x0000000000000107       0x58 /usr/lib/gcc/arm-none-eabi/6.3.1/../../../arm-none-eabi/lib/thumb/v7-m/libc_nano.a(lib_a-writer.o)
 .comment       0x0000000000000107       0x58 /usr/lib/gcc/arm-none-eabi/6.3.1/../../../arm-none-eabi/lib/thumb/v7-m/libc_nano.a(lib_a-wsetup.o)
 .comment       0x0000000000000107       0x58 /usr/lib/gcc/arm-none-eabi/6.3.1/../../../arm-none-eabi/lib/thumb/v7-m/libc_nano.a(lib_a-btowc.o)
 .comment       0x0000000000000107       0x58 /usr/lib/gcc/arm-none-eabi/6.3.1/../../../arm-none-eabi/lib/thumb/v7-m/libc_nano.a(lib_a-closer.o)
 .comment       0x0000000000000107       0x58 /usr/lib/gcc/arm-none-eabi/6.3.1/../../../arm-none-eabi/lib/thumb/v7-m/libc_nano.a(lib_a-ctype_.o)
 .comment       0x0000000000000107       0x58 /usr/lib/gcc/arm-none-eabi/6.3.1/../../../arm-none-eabi/lib/thumb/v7-m/libc_nano.a(lib_a-dtoa.o)
 .comment       0x0000000000000107       0x58 /usr/lib/gcc/arm-none-eabi/6.3.1/../../../arm-none-eabi/lib/thumb/v7-m/libc_nano.a(lib_a-fflush.o)
 .comment       0x0000000000000107       0x58 /usr/lib/gcc/arm-none-eabi/6.3.1/../../../arm-none-eabi/lib/thumb/v7-m/libc_nano.a(lib_a-fvwrite.o)
 .comment       0x0000000000000107       0x58 /usr/lib/gcc/arm-none-eabi/6.3.1/../../../arm-none-eabi/lib/thumb/v7-m/libc_nano.a(lib_a-lseekr.o)
 .comment       0x0000000000000107       0x58 /usr/lib/gcc/arm-none-eabi/6.3.1/../../../arm-none-eabi/lib/thumb/v7-m/libc_nano.a(lib_a-makebuf.o)
 .comment       0x0000000000000107       0x58 /usr/lib/gcc/arm-none-eabi/6.3.1/../../../arm-none-eabi/lib/thumb/v7-m/libc_nano.a(lib_a-memchr-stub.o)
 .comment       0x0000000000000107       0x58 /usr/lib/gcc/arm-none-eabi/6.3.1/../../../arm-none-eabi/lib/thumb/v7-m/libc_nano.a(lib_a-memmove.o)
 .comment       0x0000000000000107       0x58 /usr/lib/gcc/arm-none-eabi/6.3.1/../../../arm-none-eabi/lib/thumb/v7-m/libc_nano.a(lib_a-nano-reallocr.o)
 .comment       0x0000000000000107       0x58 /usr/lib/gcc/arm-none-eabi/6.3.1/../../../arm-none-eabi/lib/thumb/v7-m/libc_nano.a(lib_a-readr.o)
 .comment       0x0000000000000107       0x58 /usr/lib/gcc/arm-none-eabi/6.3.1/../../../arm-none-eabi/lib/thumb/v7-m/libc_nano.a(lib_a-fstatr.o)
 .comment       0x0000000000000107       0x58 /usr/lib/gcc/arm-none-eabi/6.3.1/../../../arm-none-eabi/lib/thumb/v7-m/libc_nano.a(lib_a-isattyr.o)
 .comment       0x0000000000000107       0x58 /usr/lib/gcc/arm-none-eabi/6.3.1/../../../arm-none-eabi/lib/thumb/v7-m/libc_nano.a(lib_a-nano-msizer.o)
 .comment       0x0000000000000107       0x58 /usr/lib/gcc/arm-none-eabi/6.3.1/../../../arm-none-eabi/lib/thumb/v7-m/libm.a(lib_a-sf_lround.o)
 .comment       0x0000000000000107       0x58 /usr/lib/gcc/arm-none-eabi/6.3.1/../../../arm-none-eabi/lib/thumb/v7-m/libm.a(lib_a-w_pow.o)
 .comment       0x0000000000000107       0x58 /usr/lib/gcc/arm-none-eabi/6.3.1/../../../arm-none-eabi/lib/thumb/v7-m/libm.a(lib_a-w_sqrt.o)
 .comment       0x0000000000000107       0x58 /usr/lib/gcc/arm-none-eabi/6.3.1/../../../arm-none-eabi/lib/thumb/v7-m/libm.a(lib_a-wf_sqrt.o)
 .comment       0x0000000000000107       0x58 /usr/lib/gcc/arm-none-eabi/6.3.1/../../../arm-none-eabi/lib/thumb/v7-m/libm.a(lib_a-e_pow.o)
 .comment       0x0000000000000107       0x58 /usr/lib/gcc/arm-none-eabi/6.3.1/../../../arm-none-eabi/lib/thumb/v7-m/libm.a(lib_a-e_sqrt.o)
 .comment       0x0000000000000107       0x58 /usr/lib/gcc/arm-none-eabi/6.3.1/../../../arm-none-eabi/lib/thumb/v7-m/libm.a(lib_a-ef_sqrt.o)
 .comment       0x0000000000000107       0x58 /usr/lib/gcc/arm-none-eabi/6.3.1/../../../arm-none-eabi/lib/thumb/v7-m/libm.a(lib_a-s_fabs.o)
 .comment       0x0000000000000107       0x58 /usr/lib/gcc/arm-none-eabi/6.3.1/../../../arm-none-eabi/lib/thumb/v7-m/libm.a(lib_a-s_finite.o)
 .comment       0x0000000000000107       0x58 /usr/lib/gcc/arm-none-eabi/6.3.1/../../../arm-none-eabi/lib/thumb/v7-m/libm.a(lib_a-s_lib_ver.o)
 .comment       0x0000000000000107       0x58 /usr/lib/gcc/arm-none-eabi/6.3.1/../../../arm-none-eabi/lib/thumb/v7-m/libm.a(lib_a-s_matherr.o)
 .comment       0x0000000000000107       0x58 /usr/lib/gcc/arm-none-eabi/6.3.1/../../../arm-none-eabi/lib/thumb/v7-m/libm.a(lib_a-s_nan.o)
 .comment       0x0000000000000107       0x58 /usr/lib/gcc/arm-none-eabi/6.3.1/../../../arm-none-eabi/lib/thumb/v7-m/libm.a(lib_a-s_rint.o)
 .comment       0x0000000000000107       0x58 /usr/lib/gcc/arm-none-eabi/6.3.1/../../../arm-none-eabi/lib/thumb/v7-m/libm.a(lib_a-s_scalbn.o)
 .comment       0x0000000000000107       0x58 /usr/lib/gcc/arm-none-eabi/6.3.1/../../../arm-none-eabi/lib/thumb/v7-m/libnosys.a(close.o)
 .comment       0x0000000000000107       0x58 /usr/lib/gcc/arm-none-eabi/6.3.1/../../../arm-none-eabi/lib/thumb/v7-m/libnosys.a(fstat.o)
 .comment       0x0000000000000107       0x58 /usr/lib/gcc/arm-none-eabi/6.3.1/../../../arm-none-eabi/lib/thumb/v7-m/libnosys.a(isatty.o)
 .comment       0x0000000000000107       0x58 /usr/lib/gcc/arm-none-eabi/6.3.1/../../../arm-none-eabi/lib/thumb/v7-m/libnosys.a(lseek.o)
 .comment       0x0000000000000107       0x58 /usr/lib/gcc/arm-none-eabi/6.3.1/../../../arm-none-eabi/lib/thumb/v7-m/libnosys.a(read.o)
 .comment       0x0000000000000107       0x58 /usr/lib/gcc/arm-none-eabi/6.3.1/../../../arm-none-eabi/lib/thumb/v7-m/libnosys.a(sbrk.o)
 .comment       0x0000000000000107       0x32 /usr/lib/gcc/arm-none-eabi/6.3.1/thumb/v7-m/libgcc.a(_fixdfdi.o)
 .comment       0x0000000000000107       0x32 /usr/lib/gcc/arm-none-eabi/6.3.1/thumb/v7-m/libgcc.a(_fixunsdfdi.o)
 .comment       0x0000000000000107       0x32 /usr/lib/gcc/arm-none-eabi/6.3.1/thumb/v7-m/libgcc.a(_udivmoddi4.o)
 .comment       0x0000000000000107       0x58 /usr/lib/gcc/arm-none-eabi/6.3.1/../../../arm-none-eabi/lib/thumb/v7-m/libc_nano.a(lib_a-errno.o)
 .comment       0x0000000000000107       0x32 /usr/lib/gcc/arm-none-eabi/6.3.1/thumb/v7-m/crtend.o

.debug_info     0x0000000000000000    0x88bbd
 .debug_info    0x0000000000000000     0x2bfc build/main.o
 .debug_info    0x0000000000002bfc      0xe7a build/gpio.o
 .debug_info    0x0000000000003a76     0x17b5 build/fatfs.o
 .debug_info    0x000000000000522b     0x179b build/tim.o
 .debug_info    0x00000000000069c6     0x12b0 build/usart.o
 .debug_info    0x0000000000007c76     0x1528 build/usb_host.o
 .debug_info    0x000000000000919e     0x2568 build/usbh_conf.o
 .debug_info    0x000000000000b706      0xb8e build/usbh_platform.o
 .debug_info    0x000000000000c294     0x1b34 build/stm32f1xx_it.o
 .debug_info    0x000000000000ddc8      0xc19 build/stm32f1xx_hal_msp.o
 .debug_info    0x000000000000e9e1     0x1b0f build/stm32f1xx_hal_hcd.o
 .debug_info    0x00000000000104f0     0x2097 build/stm32f1xx_ll_usb.o
 .debug_info    0x0000000000012587     0x11b8 build/stm32f1xx_hal.o
 .debug_info    0x000000000001373f     0x14d7 build/stm32f1xx_hal_rcc.o
 .debug_info    0x0000000000014c16     0x1056 build/stm32f1xx_hal_rcc_ex.o
 .debug_info    0x0000000000015c6c     0x103c build/stm32f1xx_hal_gpio.o
 .debug_info    0x0000000000016ca8     0x16a6 build/stm32f1xx_hal_cortex.o
 .debug_info    0x000000000001834e     0x3a49 build/stm32f1xx_hal_tim.o
 .debug_info    0x000000000001bd97     0x1d2f build/stm32f1xx_hal_tim_ex.o
 .debug_info    0x000000000001dac6     0x2110 build/stm32f1xx_hal_uart.o
 .debug_info    0x000000000001fbd6      0xdd4 build/system_stm32f1xx.o
 .debug_info    0x00000000000209aa     0x16d2 build/diskio.o
 .debug_info    0x000000000002207c     0x4ef5 build/ff.o
 .debug_info    0x0000000000026f71     0x164a build/ff_gen_drv.o
 .debug_info    0x00000000000285bb     0x1401 build/ccsbcs.o
 .debug_info    0x00000000000299bc     0x1947 build/usbh_diskio.o
 .debug_info    0x000000000002b303     0x1cfd build/usbh_core.o
 .debug_info    0x000000000002d000     0x1c21 build/usbh_ctlreq.o
 .debug_info    0x000000000002ec21     0x185f build/usbh_ioreq.o
 .debug_info    0x0000000000030480     0x14f2 build/usbh_pipes.o
 .debug_info    0x0000000000031972     0x20a9 build/usbh_msc.o
 .debug_info    0x0000000000033a1b     0x1d17 build/usbh_msc_bot.o
 .debug_info    0x0000000000035732     0x1bfa build/usbh_msc_scsi.o
 .debug_info    0x000000000003732c     0x3318 build/Buffer_Gcode.o
 .debug_info    0x000000000003a644      0xf0f build/Descritization_Gcode.o
 .debug_info    0x000000000003b553     0x1367 build/GcodeConverter_Gcode.o
 .debug_info    0x000000000003c8ba      0xfd3 build/VirtualPrinters_Gcode.o
 .debug_info    0x000000000003d88d      0xa02 build/CharacterConverter_LCD.o
 .debug_info    0x000000000003e28f      0x870 build/Driver_LCD.o
 .debug_info    0x000000000003eaff     0x15a2 build/GPIOandTIM_LCD.o
 .debug_info    0x00000000000400a1      0xb0f build/Interface_LCD.o
 .debug_info    0x0000000000040bb0     0x11b4 build/TextConverter_LCD.o
 .debug_info    0x0000000000041d64      0xef6 build/Constructor_Menu.o
 .debug_info    0x0000000000042c5a      0xce7 build/MainMenu_Menu.o
 .debug_info    0x0000000000043941     0x2c35 build/FunctionsForButtons.o
 .debug_info    0x0000000000046576      0x369 build/Driver_Motors.o
 .debug_info    0x00000000000468df     0x180a build/GPIO_Motors.o
 .debug_info    0x00000000000480e9       0xbc build/State_USBdrive.o
 .debug_info    0x00000000000481a5     0x1ff4 build/Driver_USBdrive.o
 .debug_info    0x000000000004a199      0x18e build/coordinates.o
 .debug_info    0x000000000004a327       0x63 build/startup_stm32f105xc.o
 .debug_info    0x000000000004a38a      0x8df /usr/lib/gcc/arm-none-eabi/6.3.1/../../../arm-none-eabi/lib/thumb/v7-m/libc_nano.a(lib_a-atof.o)
 .debug_info    0x000000000004ac69      0x940 /usr/lib/gcc/arm-none-eabi/6.3.1/../../../arm-none-eabi/lib/thumb/v7-m/libc_nano.a(lib_a-atoi.o)
 .debug_info    0x000000000004b5a9      0x8a4 /usr/lib/gcc/arm-none-eabi/6.3.1/../../../arm-none-eabi/lib/thumb/v7-m/libc_nano.a(lib_a-impure.o)
 .debug_info    0x000000000004be4d      0x921 /usr/lib/gcc/arm-none-eabi/6.3.1/../../../arm-none-eabi/lib/thumb/v7-m/libc_nano.a(lib_a-malloc.o)
 .debug_info    0x000000000004c76e      0xe1d /usr/lib/gcc/arm-none-eabi/6.3.1/../../../arm-none-eabi/lib/thumb/v7-m/libc_nano.a(lib_a-memset.o)
 .debug_info    0x000000000004d58b      0xac1 /usr/lib/gcc/arm-none-eabi/6.3.1/../../../arm-none-eabi/lib/thumb/v7-m/libc_nano.a(lib_a-nano-freer.o)
 .debug_info    0x000000000004e04c      0xb75 /usr/lib/gcc/arm-none-eabi/6.3.1/../../../arm-none-eabi/lib/thumb/v7-m/libc_nano.a(lib_a-nano-mallocr.o)
 .debug_info    0x000000000004ebc1      0xbb4 /usr/lib/gcc/arm-none-eabi/6.3.1/../../../arm-none-eabi/lib/thumb/v7-m/libc_nano.a(lib_a-printf.o)
 .debug_info    0x000000000004f775      0x95a /usr/lib/gcc/arm-none-eabi/6.3.1/../../../arm-none-eabi/lib/thumb/v7-m/libc_nano.a(lib_a-sbrkr.o)
 .debug_info    0x00000000000500cf      0xbd2 /usr/lib/gcc/arm-none-eabi/6.3.1/../../../arm-none-eabi/lib/thumb/v7-m/libc_nano.a(lib_a-sprintf.o)
 .debug_info    0x0000000000050ca1      0x910 /usr/lib/gcc/arm-none-eabi/6.3.1/../../../arm-none-eabi/lib/thumb/v7-m/libc_nano.a(lib_a-strchr.o)
 .debug_info    0x00000000000515b1      0x8b7 /usr/lib/gcc/arm-none-eabi/6.3.1/../../../arm-none-eabi/lib/thumb/v7-m/libc_nano.a(lib_a-strcpy.o)
 .debug_info    0x0000000000051e68     0x1c2d /usr/lib/gcc/arm-none-eabi/6.3.1/../../../arm-none-eabi/lib/thumb/v7-m/libc_nano.a(lib_a-strtod.o)
 .debug_info    0x0000000000053a95     0x10fc /usr/lib/gcc/arm-none-eabi/6.3.1/../../../arm-none-eabi/lib/thumb/v7-m/libc_nano.a(lib_a-strtol.o)
 .debug_info    0x0000000000054b91      0xca9 /usr/lib/gcc/arm-none-eabi/6.3.1/../../../arm-none-eabi/lib/thumb/v7-m/libc_nano.a(lib_a-swprintf.o)
 .debug_info    0x000000000005583a      0x8fa /usr/lib/gcc/arm-none-eabi/6.3.1/../../../arm-none-eabi/lib/thumb/v7-m/libc_nano.a(lib_a-wcscpy.o)
 .debug_info    0x0000000000056134      0x8db /usr/lib/gcc/arm-none-eabi/6.3.1/../../../arm-none-eabi/lib/thumb/v7-m/libc_nano.a(lib_a-wcslen.o)
 .debug_info    0x0000000000056a0f      0x92a /usr/lib/gcc/arm-none-eabi/6.3.1/../../../arm-none-eabi/lib/thumb/v7-m/libc_nano.a(lib_a-wcsstr.o)
 .debug_info    0x0000000000057339      0x924 /usr/lib/gcc/arm-none-eabi/6.3.1/../../../arm-none-eabi/lib/thumb/v7-m/libc_nano.a(lib_a-wmemcpy.o)
 .debug_info    0x0000000000057c5d     0x1070 /usr/lib/gcc/arm-none-eabi/6.3.1/../../../arm-none-eabi/lib/thumb/v7-m/libc_nano.a(lib_a-findfp.o)
 .debug_info    0x0000000000058ccd      0xbce /usr/lib/gcc/arm-none-eabi/6.3.1/../../../arm-none-eabi/lib/thumb/v7-m/libc_nano.a(lib_a-fwalk.o)
 .debug_info    0x000000000005989b     0x14f3 /usr/lib/gcc/arm-none-eabi/6.3.1/../../../arm-none-eabi/lib/thumb/v7-m/libc_nano.a(lib_a-gdtoa-gethex.o)
 .debug_info    0x000000000005ad8e     0x10ff /usr/lib/gcc/arm-none-eabi/6.3.1/../../../arm-none-eabi/lib/thumb/v7-m/libc_nano.a(lib_a-gdtoa-hexnan.o)
 .debug_info    0x000000000005be8d     0x1015 /usr/lib/gcc/arm-none-eabi/6.3.1/../../../arm-none-eabi/lib/thumb/v7-m/libc_nano.a(lib_a-locale.o)
 .debug_info    0x000000000005cea2      0xe77 /usr/lib/gcc/arm-none-eabi/6.3.1/../../../arm-none-eabi/lib/thumb/v7-m/libc_nano.a(lib_a-localeconv.o)
 .debug_info    0x000000000005dd19      0xf33 /usr/lib/gcc/arm-none-eabi/6.3.1/../../../arm-none-eabi/lib/thumb/v7-m/libc_nano.a(lib_a-mbtowc_r.o)
 .debug_info    0x000000000005ec4c       0xcd /usr/lib/gcc/arm-none-eabi/6.3.1/../../../arm-none-eabi/lib/thumb/v7-m/libc_nano.a(lib_a-memcpy.o)
 .debug_info    0x000000000005ed19      0x8d7 /usr/lib/gcc/arm-none-eabi/6.3.1/../../../arm-none-eabi/lib/thumb/v7-m/libc_nano.a(lib_a-mlock.o)
 .debug_info    0x000000000005f5f0     0x1cd7 /usr/lib/gcc/arm-none-eabi/6.3.1/../../../arm-none-eabi/lib/thumb/v7-m/libc_nano.a(lib_a-mprec.o)
 .debug_info    0x00000000000612c7      0xa4c /usr/lib/gcc/arm-none-eabi/6.3.1/../../../arm-none-eabi/lib/thumb/v7-m/libc_nano.a(lib_a-nano-callocr.o)
 .debug_info    0x0000000000061d13     0x1651 /usr/lib/gcc/arm-none-eabi/6.3.1/../../../arm-none-eabi/lib/thumb/v7-m/libc_nano.a(lib_a-nano-svfprintf.o)
 .debug_info    0x0000000000063364     0x15e0 /usr/lib/gcc/arm-none-eabi/6.3.1/../../../arm-none-eabi/lib/thumb/v7-m/libc_nano.a(lib_a-nano-vfprintf.o)
 .debug_info    0x0000000000064944     0x142c /usr/lib/gcc/arm-none-eabi/6.3.1/../../../arm-none-eabi/lib/thumb/v7-m/libc_nano.a(lib_a-nano-vfprintf_i.o)
 .debug_info    0x0000000000065d70      0xa90 /usr/lib/gcc/arm-none-eabi/6.3.1/../../../arm-none-eabi/lib/thumb/v7-m/libc_nano.a(lib_a-reent.o)
 .debug_info    0x0000000000066800      0x8fe /usr/lib/gcc/arm-none-eabi/6.3.1/../../../arm-none-eabi/lib/thumb/v7-m/libc_nano.a(lib_a-sf_nan.o)
 .debug_info    0x00000000000670fe      0xd58 /usr/lib/gcc/arm-none-eabi/6.3.1/../../../arm-none-eabi/lib/thumb/v7-m/libc_nano.a(lib_a-stdio.o)
 .debug_info    0x0000000000067e56       0xcd /usr/lib/gcc/arm-none-eabi/6.3.1/../../../arm-none-eabi/lib/thumb/v7-m/libc_nano.a(lib_a-strcmp.o)
 .debug_info    0x0000000000067f23      0x8b5 /usr/lib/gcc/arm-none-eabi/6.3.1/../../../arm-none-eabi/lib/thumb/v7-m/libc_nano.a(lib_a-strlen-stub.o)
 .debug_info    0x00000000000687d8      0x8f5 /usr/lib/gcc/arm-none-eabi/6.3.1/../../../arm-none-eabi/lib/thumb/v7-m/libc_nano.a(lib_a-strncmp.o)
 .debug_info    0x00000000000690cd     0x18ca /usr/lib/gcc/arm-none-eabi/6.3.1/../../../arm-none-eabi/lib/thumb/v7-m/libc_nano.a(lib_a-svfwprintf.o)
 .debug_info    0x000000000006a997      0xbd0 /usr/lib/gcc/arm-none-eabi/6.3.1/../../../arm-none-eabi/lib/thumb/v7-m/libc_nano.a(lib_a-wbuf.o)
 .debug_info    0x000000000006b567      0xeff /usr/lib/gcc/arm-none-eabi/6.3.1/../../../arm-none-eabi/lib/thumb/v7-m/libc_nano.a(lib_a-wctomb_r.o)
 .debug_info    0x000000000006c466      0x8f7 /usr/lib/gcc/arm-none-eabi/6.3.1/../../../arm-none-eabi/lib/thumb/v7-m/libc_nano.a(lib_a-wmemchr.o)
 .debug_info    0x000000000006cd5d      0x981 /usr/lib/gcc/arm-none-eabi/6.3.1/../../../arm-none-eabi/lib/thumb/v7-m/libc_nano.a(lib_a-writer.o)
 .debug_info    0x000000000006d6de      0xb4f /usr/lib/gcc/arm-none-eabi/6.3.1/../../../arm-none-eabi/lib/thumb/v7-m/libc_nano.a(lib_a-wsetup.o)
 .debug_info    0x000000000006e22d      0xf02 /usr/lib/gcc/arm-none-eabi/6.3.1/../../../arm-none-eabi/lib/thumb/v7-m/libc_nano.a(lib_a-btowc.o)
 .debug_info    0x000000000006f12f      0x939 /usr/lib/gcc/arm-none-eabi/6.3.1/../../../arm-none-eabi/lib/thumb/v7-m/libc_nano.a(lib_a-closer.o)
 .debug_info    0x000000000006fa68      0xdb1 /usr/lib/gcc/arm-none-eabi/6.3.1/../../../arm-none-eabi/lib/thumb/v7-m/libc_nano.a(lib_a-ctype_.o)
 .debug_info    0x0000000000070819     0x1859 /usr/lib/gcc/arm-none-eabi/6.3.1/../../../arm-none-eabi/lib/thumb/v7-m/libc_nano.a(lib_a-dtoa.o)
 .debug_info    0x0000000000072072      0xc93 /usr/lib/gcc/arm-none-eabi/6.3.1/../../../arm-none-eabi/lib/thumb/v7-m/libc_nano.a(lib_a-fflush.o)
 .debug_info    0x0000000000072d05      0xe0d /usr/lib/gcc/arm-none-eabi/6.3.1/../../../arm-none-eabi/lib/thumb/v7-m/libc_nano.a(lib_a-fvwrite.o)
 .debug_info    0x0000000000073b12      0x964 /usr/lib/gcc/arm-none-eabi/6.3.1/../../../arm-none-eabi/lib/thumb/v7-m/libc_nano.a(lib_a-lseekr.o)
 .debug_info    0x0000000000074476      0xdeb /usr/lib/gcc/arm-none-eabi/6.3.1/../../../arm-none-eabi/lib/thumb/v7-m/libc_nano.a(lib_a-makebuf.o)
 .debug_info    0x0000000000075261      0x934 /usr/lib/gcc/arm-none-eabi/6.3.1/../../../arm-none-eabi/lib/thumb/v7-m/libc_nano.a(lib_a-memchr-stub.o)
 .debug_info    0x0000000000075b95      0xe2c /usr/lib/gcc/arm-none-eabi/6.3.1/../../../arm-none-eabi/lib/thumb/v7-m/libc_nano.a(lib_a-memmove.o)
 .debug_info    0x00000000000769c1      0xac6 /usr/lib/gcc/arm-none-eabi/6.3.1/../../../arm-none-eabi/lib/thumb/v7-m/libc_nano.a(lib_a-nano-reallocr.o)
 .debug_info    0x0000000000077487      0x97a /usr/lib/gcc/arm-none-eabi/6.3.1/../../../arm-none-eabi/lib/thumb/v7-m/libc_nano.a(lib_a-readr.o)
 .debug_info    0x0000000000077e01      0xb54 /usr/lib/gcc/arm-none-eabi/6.3.1/../../../arm-none-eabi/lib/thumb/v7-m/libc_nano.a(lib_a-fstatr.o)
 .debug_info    0x0000000000078955      0x939 /usr/lib/gcc/arm-none-eabi/6.3.1/../../../arm-none-eabi/lib/thumb/v7-m/libc_nano.a(lib_a-isattyr.o)
 .debug_info    0x000000000007928e      0x9fa /usr/lib/gcc/arm-none-eabi/6.3.1/../../../arm-none-eabi/lib/thumb/v7-m/libc_nano.a(lib_a-nano-msizer.o)
 .debug_info    0x0000000000079c88      0x97e /usr/lib/gcc/arm-none-eabi/6.3.1/../../../arm-none-eabi/lib/thumb/v7-m/libm.a(lib_a-sf_lround.o)
 .debug_info    0x000000000007a606      0xad0 /usr/lib/gcc/arm-none-eabi/6.3.1/../../../arm-none-eabi/lib/thumb/v7-m/libm.a(lib_a-w_pow.o)
 .debug_info    0x000000000007b0d6      0x9fd /usr/lib/gcc/arm-none-eabi/6.3.1/../../../arm-none-eabi/lib/thumb/v7-m/libm.a(lib_a-w_sqrt.o)
 .debug_info    0x000000000007bad3      0x9f6 /usr/lib/gcc/arm-none-eabi/6.3.1/../../../arm-none-eabi/lib/thumb/v7-m/libm.a(lib_a-wf_sqrt.o)
 .debug_info    0x000000000007c4c9      0xf49 /usr/lib/gcc/arm-none-eabi/6.3.1/../../../arm-none-eabi/lib/thumb/v7-m/libm.a(lib_a-e_pow.o)
 .debug_info    0x000000000007d412      0xa65 /usr/lib/gcc/arm-none-eabi/6.3.1/../../../arm-none-eabi/lib/thumb/v7-m/libm.a(lib_a-e_sqrt.o)
 .debug_info    0x000000000007de77      0x9f8 /usr/lib/gcc/arm-none-eabi/6.3.1/../../../arm-none-eabi/lib/thumb/v7-m/libm.a(lib_a-ef_sqrt.o)
 .debug_info    0x000000000007e86f      0x980 /usr/lib/gcc/arm-none-eabi/6.3.1/../../../arm-none-eabi/lib/thumb/v7-m/libm.a(lib_a-s_fabs.o)
 .debug_info    0x000000000007f1ef      0x971 /usr/lib/gcc/arm-none-eabi/6.3.1/../../../arm-none-eabi/lib/thumb/v7-m/libm.a(lib_a-s_finite.o)
 .debug_info    0x000000000007fb60      0x8d4 /usr/lib/gcc/arm-none-eabi/6.3.1/../../../arm-none-eabi/lib/thumb/v7-m/libm.a(lib_a-s_lib_ver.o)
 .debug_info    0x0000000000080434      0x963 /usr/lib/gcc/arm-none-eabi/6.3.1/../../../arm-none-eabi/lib/thumb/v7-m/libm.a(lib_a-s_matherr.o)
 .debug_info    0x0000000000080d97      0x907 /usr/lib/gcc/arm-none-eabi/6.3.1/../../../arm-none-eabi/lib/thumb/v7-m/libm.a(lib_a-s_nan.o)
 .debug_info    0x000000000008169e      0xa53 /usr/lib/gcc/arm-none-eabi/6.3.1/../../../arm-none-eabi/lib/thumb/v7-m/libm.a(lib_a-s_rint.o)
 .debug_info    0x00000000000820f1      0xa42 /usr/lib/gcc/arm-none-eabi/6.3.1/../../../arm-none-eabi/lib/thumb/v7-m/libm.a(lib_a-s_scalbn.o)
 .debug_info    0x0000000000082b33      0x8e5 /usr/lib/gcc/arm-none-eabi/6.3.1/../../../arm-none-eabi/lib/thumb/v7-m/libnosys.a(close.o)
 .debug_info    0x0000000000083418      0xafc /usr/lib/gcc/arm-none-eabi/6.3.1/../../../arm-none-eabi/lib/thumb/v7-m/libnosys.a(fstat.o)
 .debug_info    0x0000000000083f14      0x8e5 /usr/lib/gcc/arm-none-eabi/6.3.1/../../../arm-none-eabi/lib/thumb/v7-m/libnosys.a(isatty.o)
 .debug_info    0x00000000000847f9      0x901 /usr/lib/gcc/arm-none-eabi/6.3.1/../../../arm-none-eabi/lib/thumb/v7-m/libnosys.a(lseek.o)
 .debug_info    0x00000000000850fa      0x901 /usr/lib/gcc/arm-none-eabi/6.3.1/../../../arm-none-eabi/lib/thumb/v7-m/libnosys.a(read.o)
 .debug_info    0x00000000000859fb       0x90 /usr/lib/gcc/arm-none-eabi/6.3.1/../../../arm-none-eabi/lib/thumb/v7-m/libnosys.a(sbrk.o)
 .debug_info    0x0000000000085a8b       0xc0 /usr/lib/gcc/arm-none-eabi/6.3.1/thumb/v7-m/libgcc.a(_arm_addsubdf3.o)
 .debug_info    0x0000000000085b4b       0xc0 /usr/lib/gcc/arm-none-eabi/6.3.1/thumb/v7-m/libgcc.a(_arm_muldivdf3.o)
 .debug_info    0x0000000000085c0b       0xc0 /usr/lib/gcc/arm-none-eabi/6.3.1/thumb/v7-m/libgcc.a(_arm_cmpdf2.o)
 .debug_info    0x0000000000085ccb       0xc0 /usr/lib/gcc/arm-none-eabi/6.3.1/thumb/v7-m/libgcc.a(_arm_unorddf2.o)
 .debug_info    0x0000000000085d8b       0xc0 /usr/lib/gcc/arm-none-eabi/6.3.1/thumb/v7-m/libgcc.a(_arm_fixdfsi.o)
 .debug_info    0x0000000000085e4b       0xc0 /usr/lib/gcc/arm-none-eabi/6.3.1/thumb/v7-m/libgcc.a(_arm_fixunsdfsi.o)
 .debug_info    0x0000000000085f0b       0xc0 /usr/lib/gcc/arm-none-eabi/6.3.1/thumb/v7-m/libgcc.a(_arm_truncdfsf2.o)
 .debug_info    0x0000000000085fcb       0xc0 /usr/lib/gcc/arm-none-eabi/6.3.1/thumb/v7-m/libgcc.a(_arm_addsubsf3.o)
 .debug_info    0x000000000008608b       0xc0 /usr/lib/gcc/arm-none-eabi/6.3.1/thumb/v7-m/libgcc.a(_arm_muldivsf3.o)
 .debug_info    0x000000000008614b       0xc0 /usr/lib/gcc/arm-none-eabi/6.3.1/thumb/v7-m/libgcc.a(_arm_cmpsf2.o)
 .debug_info    0x000000000008620b       0xc0 /usr/lib/gcc/arm-none-eabi/6.3.1/thumb/v7-m/libgcc.a(_arm_unordsf2.o)
 .debug_info    0x00000000000862cb       0xc0 /usr/lib/gcc/arm-none-eabi/6.3.1/thumb/v7-m/libgcc.a(_arm_fixsfsi.o)
 .debug_info    0x000000000008638b       0xbb /usr/lib/gcc/arm-none-eabi/6.3.1/thumb/v7-m/libgcc.a(_aeabi_uldivmod.o)
 .debug_info    0x0000000000086446      0x8e0 /usr/lib/gcc/arm-none-eabi/6.3.1/thumb/v7-m/libgcc.a(_fixdfdi.o)
 .debug_info    0x0000000000086d26      0x8e9 /usr/lib/gcc/arm-none-eabi/6.3.1/thumb/v7-m/libgcc.a(_fixunsdfdi.o)
 .debug_info    0x000000000008760f      0xc24 /usr/lib/gcc/arm-none-eabi/6.3.1/thumb/v7-m/libgcc.a(_udivmoddi4.o)
 .debug_info    0x0000000000088233       0xbf /usr/lib/gcc/arm-none-eabi/6.3.1/thumb/v7-m/libgcc.a(_dvmd_tls.o)
 .debug_info    0x00000000000882f2      0x8cb /usr/lib/gcc/arm-none-eabi/6.3.1/../../../arm-none-eabi/lib/thumb/v7-m/libc_nano.a(lib_a-errno.o)

.debug_abbrev   0x0000000000000000    0x12b87
 .debug_abbrev  0x0000000000000000      0x329 build/main.o
 .debug_abbrev  0x0000000000000329      0x20d build/gpio.o
 .debug_abbrev  0x0000000000000536      0x286 build/fatfs.o
 .debug_abbrev  0x00000000000007bc      0x260 build/tim.o
 .debug_abbrev  0x0000000000000a1c      0x255 build/usart.o
 .debug_abbrev  0x0000000000000c71      0x297 build/usb_host.o
 .debug_abbrev  0x0000000000000f08      0x394 build/usbh_conf.o
 .debug_abbrev  0x000000000000129c      0x204 build/usbh_platform.o
 .debug_abbrev  0x00000000000014a0      0x26d build/stm32f1xx_it.o
 .debug_abbrev  0x000000000000170d      0x1de build/stm32f1xx_hal_msp.o
 .debug_abbrev  0x00000000000018eb      0x307 build/stm32f1xx_hal_hcd.o
 .debug_abbrev  0x0000000000001bf2      0x320 build/stm32f1xx_ll_usb.o
 .debug_abbrev  0x0000000000001f12      0x2fd build/stm32f1xx_hal.o
 .debug_abbrev  0x000000000000220f      0x34e build/stm32f1xx_hal_rcc.o
 .debug_abbrev  0x000000000000255d      0x298 build/stm32f1xx_hal_rcc_ex.o
 .debug_abbrev  0x00000000000027f5      0x2be build/stm32f1xx_hal_gpio.o
 .debug_abbrev  0x0000000000002ab3      0x3d3 build/stm32f1xx_hal_cortex.o
 .debug_abbrev  0x0000000000002e86      0x31f build/stm32f1xx_hal_tim.o
 .debug_abbrev  0x00000000000031a5      0x2f8 build/stm32f1xx_hal_tim_ex.o
 .debug_abbrev  0x000000000000349d      0x338 build/stm32f1xx_hal_uart.o
 .debug_abbrev  0x00000000000037d5      0x200 build/system_stm32f1xx.o
 .debug_abbrev  0x00000000000039d5      0x2c4 build/diskio.o
 .debug_abbrev  0x0000000000003c99      0x39a build/ff.o
 .debug_abbrev  0x0000000000004033      0x2d4 build/ff_gen_drv.o
 .debug_abbrev  0x0000000000004307      0x276 build/ccsbcs.o
 .debug_abbrev  0x000000000000457d      0x331 build/usbh_diskio.o
 .debug_abbrev  0x00000000000048ae      0x3d0 build/usbh_core.o
 .debug_abbrev  0x0000000000004c7e      0x384 build/usbh_ctlreq.o
 .debug_abbrev  0x0000000000005002      0x274 build/usbh_ioreq.o
 .debug_abbrev  0x0000000000005276      0x2ca build/usbh_pipes.o
 .debug_abbrev  0x0000000000005540      0x370 build/usbh_msc.o
 .debug_abbrev  0x00000000000058b0      0x300 build/usbh_msc_bot.o
 .debug_abbrev  0x0000000000005bb0      0x2ee build/usbh_msc_scsi.o
 .debug_abbrev  0x0000000000005e9e      0x493 build/Buffer_Gcode.o
 .debug_abbrev  0x0000000000006331      0x293 build/Descritization_Gcode.o
 .debug_abbrev  0x00000000000065c4      0x288 build/GcodeConverter_Gcode.o
 .debug_abbrev  0x000000000000684c      0x2d0 build/VirtualPrinters_Gcode.o
 .debug_abbrev  0x0000000000006b1c      0x19c build/CharacterConverter_LCD.o
 .debug_abbrev  0x0000000000006cb8       0xe2 build/Driver_LCD.o
 .debug_abbrev  0x0000000000006d9a      0x225 build/GPIOandTIM_LCD.o
 .debug_abbrev  0x0000000000006fbf      0x204 build/Interface_LCD.o
 .debug_abbrev  0x00000000000071c3      0x2d1 build/TextConverter_LCD.o
 .debug_abbrev  0x0000000000007494      0x288 build/Constructor_Menu.o
 .debug_abbrev  0x000000000000771c      0x1b2 build/MainMenu_Menu.o
 .debug_abbrev  0x00000000000078ce      0x376 build/FunctionsForButtons.o
 .debug_abbrev  0x0000000000007c44       0xcd build/Driver_Motors.o
 .debug_abbrev  0x0000000000007d11      0x20f build/GPIO_Motors.o
 .debug_abbrev  0x0000000000007f20       0xb2 build/State_USBdrive.o
 .debug_abbrev  0x0000000000007fd2      0x342 build/Driver_USBdrive.o
 .debug_abbrev  0x0000000000008314       0x62 build/coordinates.o
 .debug_abbrev  0x0000000000008376       0x12 build/startup_stm32f105xc.o
 .debug_abbrev  0x0000000000008388      0x1af /usr/lib/gcc/arm-none-eabi/6.3.1/../../../arm-none-eabi/lib/thumb/v7-m/libc_nano.a(lib_a-atof.o)
 .debug_abbrev  0x0000000000008537      0x1af /usr/lib/gcc/arm-none-eabi/6.3.1/../../../arm-none-eabi/lib/thumb/v7-m/libc_nano.a(lib_a-atoi.o)
 .debug_abbrev  0x00000000000086e6      0x15c /usr/lib/gcc/arm-none-eabi/6.3.1/../../../arm-none-eabi/lib/thumb/v7-m/libc_nano.a(lib_a-impure.o)
 .debug_abbrev  0x0000000000008842      0x1c9 /usr/lib/gcc/arm-none-eabi/6.3.1/../../../arm-none-eabi/lib/thumb/v7-m/libc_nano.a(lib_a-malloc.o)
 .debug_abbrev  0x0000000000008a0b      0x1a8 /usr/lib/gcc/arm-none-eabi/6.3.1/../../../arm-none-eabi/lib/thumb/v7-m/libc_nano.a(lib_a-memset.o)
 .debug_abbrev  0x0000000000008bb3      0x244 /usr/lib/gcc/arm-none-eabi/6.3.1/../../../arm-none-eabi/lib/thumb/v7-m/libc_nano.a(lib_a-nano-freer.o)
 .debug_abbrev  0x0000000000008df7      0x27f /usr/lib/gcc/arm-none-eabi/6.3.1/../../../arm-none-eabi/lib/thumb/v7-m/libc_nano.a(lib_a-nano-mallocr.o)
 .debug_abbrev  0x0000000000009076      0x25a /usr/lib/gcc/arm-none-eabi/6.3.1/../../../arm-none-eabi/lib/thumb/v7-m/libc_nano.a(lib_a-printf.o)
 .debug_abbrev  0x00000000000092d0      0x1df /usr/lib/gcc/arm-none-eabi/6.3.1/../../../arm-none-eabi/lib/thumb/v7-m/libc_nano.a(lib_a-sbrkr.o)
 .debug_abbrev  0x00000000000094af      0x222 /usr/lib/gcc/arm-none-eabi/6.3.1/../../../arm-none-eabi/lib/thumb/v7-m/libc_nano.a(lib_a-sprintf.o)
 .debug_abbrev  0x00000000000096d1      0x191 /usr/lib/gcc/arm-none-eabi/6.3.1/../../../arm-none-eabi/lib/thumb/v7-m/libc_nano.a(lib_a-strchr.o)
 .debug_abbrev  0x0000000000009862      0x180 /usr/lib/gcc/arm-none-eabi/6.3.1/../../../arm-none-eabi/lib/thumb/v7-m/libc_nano.a(lib_a-strcpy.o)
 .debug_abbrev  0x00000000000099e2      0x3de /usr/lib/gcc/arm-none-eabi/6.3.1/../../../arm-none-eabi/lib/thumb/v7-m/libc_nano.a(lib_a-strtod.o)
 .debug_abbrev  0x0000000000009dc0      0x26d /usr/lib/gcc/arm-none-eabi/6.3.1/../../../arm-none-eabi/lib/thumb/v7-m/libc_nano.a(lib_a-strtol.o)
 .debug_abbrev  0x000000000000a02d      0x236 /usr/lib/gcc/arm-none-eabi/6.3.1/../../../arm-none-eabi/lib/thumb/v7-m/libc_nano.a(lib_a-swprintf.o)
 .debug_abbrev  0x000000000000a263      0x198 /usr/lib/gcc/arm-none-eabi/6.3.1/../../../arm-none-eabi/lib/thumb/v7-m/libc_nano.a(lib_a-wcscpy.o)
 .debug_abbrev  0x000000000000a3fb      0x182 /usr/lib/gcc/arm-none-eabi/6.3.1/../../../arm-none-eabi/lib/thumb/v7-m/libc_nano.a(lib_a-wcslen.o)
 .debug_abbrev  0x000000000000a57d      0x1cb /usr/lib/gcc/arm-none-eabi/6.3.1/../../../arm-none-eabi/lib/thumb/v7-m/libc_nano.a(lib_a-wcsstr.o)
 .debug_abbrev  0x000000000000a748      0x1a5 /usr/lib/gcc/arm-none-eabi/6.3.1/../../../arm-none-eabi/lib/thumb/v7-m/libc_nano.a(lib_a-wmemcpy.o)
 .debug_abbrev  0x000000000000a8ed      0x38f /usr/lib/gcc/arm-none-eabi/6.3.1/../../../arm-none-eabi/lib/thumb/v7-m/libc_nano.a(lib_a-findfp.o)
 .debug_abbrev  0x000000000000ac7c      0x1df /usr/lib/gcc/arm-none-eabi/6.3.1/../../../arm-none-eabi/lib/thumb/v7-m/libc_nano.a(lib_a-fwalk.o)
 .debug_abbrev  0x000000000000ae5b      0x2f5 /usr/lib/gcc/arm-none-eabi/6.3.1/../../../arm-none-eabi/lib/thumb/v7-m/libc_nano.a(lib_a-gdtoa-gethex.o)
 .debug_abbrev  0x000000000000b150      0x282 /usr/lib/gcc/arm-none-eabi/6.3.1/../../../arm-none-eabi/lib/thumb/v7-m/libc_nano.a(lib_a-gdtoa-hexnan.o)
 .debug_abbrev  0x000000000000b3d2      0x25a /usr/lib/gcc/arm-none-eabi/6.3.1/../../../arm-none-eabi/lib/thumb/v7-m/libc_nano.a(lib_a-locale.o)
 .debug_abbrev  0x000000000000b62c      0x1fd /usr/lib/gcc/arm-none-eabi/6.3.1/../../../arm-none-eabi/lib/thumb/v7-m/libc_nano.a(lib_a-localeconv.o)
 .debug_abbrev  0x000000000000b829      0x1fb /usr/lib/gcc/arm-none-eabi/6.3.1/../../../arm-none-eabi/lib/thumb/v7-m/libc_nano.a(lib_a-mbtowc_r.o)
 .debug_abbrev  0x000000000000ba24       0x14 /usr/lib/gcc/arm-none-eabi/6.3.1/../../../arm-none-eabi/lib/thumb/v7-m/libc_nano.a(lib_a-memcpy.o)
 .debug_abbrev  0x000000000000ba38      0x1a1 /usr/lib/gcc/arm-none-eabi/6.3.1/../../../arm-none-eabi/lib/thumb/v7-m/libc_nano.a(lib_a-mlock.o)
 .debug_abbrev  0x000000000000bbd9      0x394 /usr/lib/gcc/arm-none-eabi/6.3.1/../../../arm-none-eabi/lib/thumb/v7-m/libc_nano.a(lib_a-mprec.o)
 .debug_abbrev  0x000000000000bf6d      0x1dc /usr/lib/gcc/arm-none-eabi/6.3.1/../../../arm-none-eabi/lib/thumb/v7-m/libc_nano.a(lib_a-nano-callocr.o)
 .debug_abbrev  0x000000000000c149      0x2cc /usr/lib/gcc/arm-none-eabi/6.3.1/../../../arm-none-eabi/lib/thumb/v7-m/libc_nano.a(lib_a-nano-svfprintf.o)
 .debug_abbrev  0x000000000000c415      0x2e0 /usr/lib/gcc/arm-none-eabi/6.3.1/../../../arm-none-eabi/lib/thumb/v7-m/libc_nano.a(lib_a-nano-vfprintf.o)
 .debug_abbrev  0x000000000000c6f5      0x28b /usr/lib/gcc/arm-none-eabi/6.3.1/../../../arm-none-eabi/lib/thumb/v7-m/libc_nano.a(lib_a-nano-vfprintf_i.o)
 .debug_abbrev  0x000000000000c980      0x24c /usr/lib/gcc/arm-none-eabi/6.3.1/../../../arm-none-eabi/lib/thumb/v7-m/libc_nano.a(lib_a-reent.o)
 .debug_abbrev  0x000000000000cbcc      0x1a5 /usr/lib/gcc/arm-none-eabi/6.3.1/../../../arm-none-eabi/lib/thumb/v7-m/libc_nano.a(lib_a-sf_nan.o)
 .debug_abbrev  0x000000000000cd71      0x242 /usr/lib/gcc/arm-none-eabi/6.3.1/../../../arm-none-eabi/lib/thumb/v7-m/libc_nano.a(lib_a-stdio.o)
 .debug_abbrev  0x000000000000cfb3       0x14 /usr/lib/gcc/arm-none-eabi/6.3.1/../../../arm-none-eabi/lib/thumb/v7-m/libc_nano.a(lib_a-strcmp.o)
 .debug_abbrev  0x000000000000cfc7      0x171 /usr/lib/gcc/arm-none-eabi/6.3.1/../../../arm-none-eabi/lib/thumb/v7-m/libc_nano.a(lib_a-strlen-stub.o)
 .debug_abbrev  0x000000000000d138      0x182 /usr/lib/gcc/arm-none-eabi/6.3.1/../../../arm-none-eabi/lib/thumb/v7-m/libc_nano.a(lib_a-strncmp.o)
 .debug_abbrev  0x000000000000d2ba      0x374 /usr/lib/gcc/arm-none-eabi/6.3.1/../../../arm-none-eabi/lib/thumb/v7-m/libc_nano.a(lib_a-svfwprintf.o)
 .debug_abbrev  0x000000000000d62e      0x24e /usr/lib/gcc/arm-none-eabi/6.3.1/../../../arm-none-eabi/lib/thumb/v7-m/libc_nano.a(lib_a-wbuf.o)
 .debug_abbrev  0x000000000000d87c      0x1f4 /usr/lib/gcc/arm-none-eabi/6.3.1/../../../arm-none-eabi/lib/thumb/v7-m/libc_nano.a(lib_a-wctomb_r.o)
 .debug_abbrev  0x000000000000da70      0x191 /usr/lib/gcc/arm-none-eabi/6.3.1/../../../arm-none-eabi/lib/thumb/v7-m/libc_nano.a(lib_a-wmemchr.o)
 .debug_abbrev  0x000000000000dc01      0x1c0 /usr/lib/gcc/arm-none-eabi/6.3.1/../../../arm-none-eabi/lib/thumb/v7-m/libc_nano.a(lib_a-writer.o)
 .debug_abbrev  0x000000000000ddc1      0x20a /usr/lib/gcc/arm-none-eabi/6.3.1/../../../arm-none-eabi/lib/thumb/v7-m/libc_nano.a(lib_a-wsetup.o)
 .debug_abbrev  0x000000000000dfcb      0x233 /usr/lib/gcc/arm-none-eabi/6.3.1/../../../arm-none-eabi/lib/thumb/v7-m/libc_nano.a(lib_a-btowc.o)
 .debug_abbrev  0x000000000000e1fe      0x1bb /usr/lib/gcc/arm-none-eabi/6.3.1/../../../arm-none-eabi/lib/thumb/v7-m/libc_nano.a(lib_a-closer.o)
 .debug_abbrev  0x000000000000e3b9      0x15a /usr/lib/gcc/arm-none-eabi/6.3.1/../../../arm-none-eabi/lib/thumb/v7-m/libc_nano.a(lib_a-ctype_.o)
 .debug_abbrev  0x000000000000e513      0x2b2 /usr/lib/gcc/arm-none-eabi/6.3.1/../../../arm-none-eabi/lib/thumb/v7-m/libc_nano.a(lib_a-dtoa.o)
 .debug_abbrev  0x000000000000e7c5      0x2a1 /usr/lib/gcc/arm-none-eabi/6.3.1/../../../arm-none-eabi/lib/thumb/v7-m/libc_nano.a(lib_a-fflush.o)
 .debug_abbrev  0x000000000000ea66      0x244 /usr/lib/gcc/arm-none-eabi/6.3.1/../../../arm-none-eabi/lib/thumb/v7-m/libc_nano.a(lib_a-fvwrite.o)
 .debug_abbrev  0x000000000000ecaa      0x1ca /usr/lib/gcc/arm-none-eabi/6.3.1/../../../arm-none-eabi/lib/thumb/v7-m/libc_nano.a(lib_a-lseekr.o)
 .debug_abbrev  0x000000000000ee74      0x261 /usr/lib/gcc/arm-none-eabi/6.3.1/../../../arm-none-eabi/lib/thumb/v7-m/libc_nano.a(lib_a-makebuf.o)
 .debug_abbrev  0x000000000000f0d5      0x1a5 /usr/lib/gcc/arm-none-eabi/6.3.1/../../../arm-none-eabi/lib/thumb/v7-m/libc_nano.a(lib_a-memchr-stub.o)
 .debug_abbrev  0x000000000000f27a      0x1ad /usr/lib/gcc/arm-none-eabi/6.3.1/../../../arm-none-eabi/lib/thumb/v7-m/libc_nano.a(lib_a-memmove.o)
 .debug_abbrev  0x000000000000f427      0x1f9 /usr/lib/gcc/arm-none-eabi/6.3.1/../../../arm-none-eabi/lib/thumb/v7-m/libc_nano.a(lib_a-nano-reallocr.o)
 .debug_abbrev  0x000000000000f620      0x1bb /usr/lib/gcc/arm-none-eabi/6.3.1/../../../arm-none-eabi/lib/thumb/v7-m/libc_nano.a(lib_a-readr.o)
 .debug_abbrev  0x000000000000f7db      0x1ca /usr/lib/gcc/arm-none-eabi/6.3.1/../../../arm-none-eabi/lib/thumb/v7-m/libc_nano.a(lib_a-fstatr.o)
 .debug_abbrev  0x000000000000f9a5      0x1bb /usr/lib/gcc/arm-none-eabi/6.3.1/../../../arm-none-eabi/lib/thumb/v7-m/libc_nano.a(lib_a-isattyr.o)
 .debug_abbrev  0x000000000000fb60      0x1b4 /usr/lib/gcc/arm-none-eabi/6.3.1/../../../arm-none-eabi/lib/thumb/v7-m/libc_nano.a(lib_a-nano-msizer.o)
 .debug_abbrev  0x000000000000fd14      0x1fc /usr/lib/gcc/arm-none-eabi/6.3.1/../../../arm-none-eabi/lib/thumb/v7-m/libm.a(lib_a-sf_lround.o)
 .debug_abbrev  0x000000000000ff10      0x257 /usr/lib/gcc/arm-none-eabi/6.3.1/../../../arm-none-eabi/lib/thumb/v7-m/libm.a(lib_a-w_pow.o)
 .debug_abbrev  0x0000000000010167      0x257 /usr/lib/gcc/arm-none-eabi/6.3.1/../../../arm-none-eabi/lib/thumb/v7-m/libm.a(lib_a-w_sqrt.o)
 .debug_abbrev  0x00000000000103be      0x257 /usr/lib/gcc/arm-none-eabi/6.3.1/../../../arm-none-eabi/lib/thumb/v7-m/libm.a(lib_a-wf_sqrt.o)
 .debug_abbrev  0x0000000000010615      0x2e4 /usr/lib/gcc/arm-none-eabi/6.3.1/../../../arm-none-eabi/lib/thumb/v7-m/libm.a(lib_a-e_pow.o)
 .debug_abbrev  0x00000000000108f9      0x236 /usr/lib/gcc/arm-none-eabi/6.3.1/../../../arm-none-eabi/lib/thumb/v7-m/libm.a(lib_a-e_sqrt.o)
 .debug_abbrev  0x0000000000010b2f      0x216 /usr/lib/gcc/arm-none-eabi/6.3.1/../../../arm-none-eabi/lib/thumb/v7-m/libm.a(lib_a-ef_sqrt.o)
 .debug_abbrev  0x0000000000010d45      0x1f8 /usr/lib/gcc/arm-none-eabi/6.3.1/../../../arm-none-eabi/lib/thumb/v7-m/libm.a(lib_a-s_fabs.o)
 .debug_abbrev  0x0000000000010f3d      0x1fa /usr/lib/gcc/arm-none-eabi/6.3.1/../../../arm-none-eabi/lib/thumb/v7-m/libm.a(lib_a-s_finite.o)
 .debug_abbrev  0x0000000000011137      0x1ac /usr/lib/gcc/arm-none-eabi/6.3.1/../../../arm-none-eabi/lib/thumb/v7-m/libm.a(lib_a-s_lib_ver.o)
 .debug_abbrev  0x00000000000112e3      0x1ec /usr/lib/gcc/arm-none-eabi/6.3.1/../../../arm-none-eabi/lib/thumb/v7-m/libm.a(lib_a-s_matherr.o)
 .debug_abbrev  0x00000000000114cf      0x1db /usr/lib/gcc/arm-none-eabi/6.3.1/../../../arm-none-eabi/lib/thumb/v7-m/libm.a(lib_a-s_nan.o)
 .debug_abbrev  0x00000000000116aa      0x24d /usr/lib/gcc/arm-none-eabi/6.3.1/../../../arm-none-eabi/lib/thumb/v7-m/libm.a(lib_a-s_rint.o)
 .debug_abbrev  0x00000000000118f7      0x23d /usr/lib/gcc/arm-none-eabi/6.3.1/../../../arm-none-eabi/lib/thumb/v7-m/libm.a(lib_a-s_scalbn.o)
 .debug_abbrev  0x0000000000011b34      0x1bd /usr/lib/gcc/arm-none-eabi/6.3.1/../../../arm-none-eabi/lib/thumb/v7-m/libnosys.a(close.o)
 .debug_abbrev  0x0000000000011cf1      0x1ce /usr/lib/gcc/arm-none-eabi/6.3.1/../../../arm-none-eabi/lib/thumb/v7-m/libnosys.a(fstat.o)
 .debug_abbrev  0x0000000000011ebf      0x1bd /usr/lib/gcc/arm-none-eabi/6.3.1/../../../arm-none-eabi/lib/thumb/v7-m/libnosys.a(isatty.o)
 .debug_abbrev  0x000000000001207c      0x1db /usr/lib/gcc/arm-none-eabi/6.3.1/../../../arm-none-eabi/lib/thumb/v7-m/libnosys.a(lseek.o)
 .debug_abbrev  0x0000000000012257      0x1db /usr/lib/gcc/arm-none-eabi/6.3.1/../../../arm-none-eabi/lib/thumb/v7-m/libnosys.a(read.o)
 .debug_abbrev  0x0000000000012432       0x92 /usr/lib/gcc/arm-none-eabi/6.3.1/../../../arm-none-eabi/lib/thumb/v7-m/libnosys.a(sbrk.o)
 .debug_abbrev  0x00000000000124c4       0x14 /usr/lib/gcc/arm-none-eabi/6.3.1/thumb/v7-m/libgcc.a(_arm_addsubdf3.o)
 .debug_abbrev  0x00000000000124d8       0x14 /usr/lib/gcc/arm-none-eabi/6.3.1/thumb/v7-m/libgcc.a(_arm_muldivdf3.o)
 .debug_abbrev  0x00000000000124ec       0x14 /usr/lib/gcc/arm-none-eabi/6.3.1/thumb/v7-m/libgcc.a(_arm_cmpdf2.o)
 .debug_abbrev  0x0000000000012500       0x14 /usr/lib/gcc/arm-none-eabi/6.3.1/thumb/v7-m/libgcc.a(_arm_unorddf2.o)
 .debug_abbrev  0x0000000000012514       0x14 /usr/lib/gcc/arm-none-eabi/6.3.1/thumb/v7-m/libgcc.a(_arm_fixdfsi.o)
 .debug_abbrev  0x0000000000012528       0x14 /usr/lib/gcc/arm-none-eabi/6.3.1/thumb/v7-m/libgcc.a(_arm_fixunsdfsi.o)
 .debug_abbrev  0x000000000001253c       0x14 /usr/lib/gcc/arm-none-eabi/6.3.1/thumb/v7-m/libgcc.a(_arm_truncdfsf2.o)
 .debug_abbrev  0x0000000000012550       0x14 /usr/lib/gcc/arm-none-eabi/6.3.1/thumb/v7-m/libgcc.a(_arm_addsubsf3.o)
 .debug_abbrev  0x0000000000012564       0x14 /usr/lib/gcc/arm-none-eabi/6.3.1/thumb/v7-m/libgcc.a(_arm_muldivsf3.o)
 .debug_abbrev  0x0000000000012578       0x14 /usr/lib/gcc/arm-none-eabi/6.3.1/thumb/v7-m/libgcc.a(_arm_cmpsf2.o)
 .debug_abbrev  0x000000000001258c       0x14 /usr/lib/gcc/arm-none-eabi/6.3.1/thumb/v7-m/libgcc.a(_arm_unordsf2.o)
 .debug_abbrev  0x00000000000125a0       0x14 /usr/lib/gcc/arm-none-eabi/6.3.1/thumb/v7-m/libgcc.a(_arm_fixsfsi.o)
 .debug_abbrev  0x00000000000125b4       0x14 /usr/lib/gcc/arm-none-eabi/6.3.1/thumb/v7-m/libgcc.a(_aeabi_uldivmod.o)
 .debug_abbrev  0x00000000000125c8      0x163 /usr/lib/gcc/arm-none-eabi/6.3.1/thumb/v7-m/libgcc.a(_fixdfdi.o)
 .debug_abbrev  0x000000000001272b      0x144 /usr/lib/gcc/arm-none-eabi/6.3.1/thumb/v7-m/libgcc.a(_fixunsdfdi.o)
 .debug_abbrev  0x000000000001286f      0x18c /usr/lib/gcc/arm-none-eabi/6.3.1/thumb/v7-m/libgcc.a(_udivmoddi4.o)
 .debug_abbrev  0x00000000000129fb       0x14 /usr/lib/gcc/arm-none-eabi/6.3.1/thumb/v7-m/libgcc.a(_dvmd_tls.o)
 .debug_abbrev  0x0000000000012a0f      0x178 /usr/lib/gcc/arm-none-eabi/6.3.1/../../../arm-none-eabi/lib/thumb/v7-m/libc_nano.a(lib_a-errno.o)

.debug_loc      0x0000000000000000    0x2e946
 .debug_loc     0x0000000000000000      0x102 build/main.o
 .debug_loc     0x0000000000000102       0x39 build/gpio.o
 .debug_loc     0x000000000000013b       0x20 build/fatfs.o
 .debug_loc     0x000000000000015b      0x27e build/tim.o
 .debug_loc     0x00000000000003d9      0x11c build/usart.o
 .debug_loc     0x00000000000004f5      0x11c build/usb_host.o
 .debug_loc     0x0000000000000611      0xaa1 build/usbh_conf.o
 .debug_loc     0x00000000000010b2       0x75 build/usbh_platform.o
 .debug_loc     0x0000000000001127       0xfe build/stm32f1xx_it.o
 .debug_loc     0x0000000000001225       0x2c build/stm32f1xx_hal_msp.o
 .debug_loc     0x0000000000001251      0xe1a build/stm32f1xx_hal_hcd.o
 .debug_loc     0x000000000000206b     0x198f build/stm32f1xx_ll_usb.o
 .debug_loc     0x00000000000039fa      0x19d build/stm32f1xx_hal.o
 .debug_loc     0x0000000000003b97      0x74b build/stm32f1xx_hal_rcc.o
 .debug_loc     0x00000000000042e2      0x748 build/stm32f1xx_hal_rcc_ex.o
 .debug_loc     0x0000000000004a2a      0x516 build/stm32f1xx_hal_gpio.o
 .debug_loc     0x0000000000004f40      0x63d build/stm32f1xx_hal_cortex.o
 .debug_loc     0x000000000000557d     0x40e2 build/stm32f1xx_hal_tim.o
 .debug_loc     0x000000000000965f     0x13ca build/stm32f1xx_hal_tim_ex.o
 .debug_loc     0x000000000000aa29     0x19dd build/stm32f1xx_hal_uart.o
 .debug_loc     0x000000000000c406      0x1fc build/system_stm32f1xx.o
 .debug_loc     0x000000000000c602      0x291 build/diskio.o
 .debug_loc     0x000000000000c893     0x58c0 build/ff.o
 .debug_loc     0x0000000000012153      0x29f build/ff_gen_drv.o
 .debug_loc     0x00000000000123f2       0xc7 build/ccsbcs.o
 .debug_loc     0x00000000000124b9      0x4f0 build/usbh_diskio.o
 .debug_loc     0x00000000000129a9      0x8f1 build/usbh_core.o
 .debug_loc     0x000000000001329a      0xdfa build/usbh_ctlreq.o
 .debug_loc     0x0000000000014094      0x707 build/usbh_ioreq.o
 .debug_loc     0x000000000001479b      0x244 build/usbh_pipes.o
 .debug_loc     0x00000000000149df      0xb3b build/usbh_msc.o
 .debug_loc     0x000000000001551a      0x6a4 build/usbh_msc_bot.o
 .debug_loc     0x0000000000015bbe      0x6f2 build/usbh_msc_scsi.o
 .debug_loc     0x00000000000162b0     0x2c65 build/Buffer_Gcode.o
 .debug_loc     0x0000000000018f15      0x341 build/Descritization_Gcode.o
 .debug_loc     0x0000000000019256      0x8cf build/GcodeConverter_Gcode.o
 .debug_loc     0x0000000000019b25      0x137 build/VirtualPrinters_Gcode.o
 .debug_loc     0x0000000000019c5c      0xee0 build/CharacterConverter_LCD.o
 .debug_loc     0x000000000001ab3c      0x505 build/Driver_LCD.o
 .debug_loc     0x000000000001b041      0x2e0 build/GPIOandTIM_LCD.o
 .debug_loc     0x000000000001b321      0x115 build/Interface_LCD.o
 .debug_loc     0x000000000001b436      0x589 build/TextConverter_LCD.o
 .debug_loc     0x000000000001b9bf      0x21a build/Constructor_Menu.o
 .debug_loc     0x000000000001bbd9       0x20 build/MainMenu_Menu.o
 .debug_loc     0x000000000001bbf9      0x9f0 build/FunctionsForButtons.o
 .debug_loc     0x000000000001c5e9       0x60 build/Driver_Motors.o
 .debug_loc     0x000000000001c649      0x300 build/GPIO_Motors.o
 .debug_loc     0x000000000001c949      0x933 build/Driver_USBdrive.o
 .debug_loc     0x000000000001d27c       0x21 /usr/lib/gcc/arm-none-eabi/6.3.1/../../../arm-none-eabi/lib/thumb/v7-m/libc_nano.a(lib_a-atof.o)
 .debug_loc     0x000000000001d29d       0x63 /usr/lib/gcc/arm-none-eabi/6.3.1/../../../arm-none-eabi/lib/thumb/v7-m/libc_nano.a(lib_a-atoi.o)
 .debug_loc     0x000000000001d300       0x58 /usr/lib/gcc/arm-none-eabi/6.3.1/../../../arm-none-eabi/lib/thumb/v7-m/libc_nano.a(lib_a-malloc.o)
 .debug_loc     0x000000000001d358      0x175 /usr/lib/gcc/arm-none-eabi/6.3.1/../../../arm-none-eabi/lib/thumb/v7-m/libc_nano.a(lib_a-memset.o)
 .debug_loc     0x000000000001d4cd      0x181 /usr/lib/gcc/arm-none-eabi/6.3.1/../../../arm-none-eabi/lib/thumb/v7-m/libc_nano.a(lib_a-nano-freer.o)
 .debug_loc     0x000000000001d64e      0x355 /usr/lib/gcc/arm-none-eabi/6.3.1/../../../arm-none-eabi/lib/thumb/v7-m/libc_nano.a(lib_a-nano-mallocr.o)
 .debug_loc     0x000000000001d9a3       0x86 /usr/lib/gcc/arm-none-eabi/6.3.1/../../../arm-none-eabi/lib/thumb/v7-m/libc_nano.a(lib_a-printf.o)
 .debug_loc     0x000000000001da29       0x4d /usr/lib/gcc/arm-none-eabi/6.3.1/../../../arm-none-eabi/lib/thumb/v7-m/libc_nano.a(lib_a-sbrkr.o)
 .debug_loc     0x000000000001da76       0x93 /usr/lib/gcc/arm-none-eabi/6.3.1/../../../arm-none-eabi/lib/thumb/v7-m/libc_nano.a(lib_a-sprintf.o)
 .debug_loc     0x000000000001db09      0x235 /usr/lib/gcc/arm-none-eabi/6.3.1/../../../arm-none-eabi/lib/thumb/v7-m/libc_nano.a(lib_a-strchr.o)
 .debug_loc     0x000000000001dd3e       0x21 /usr/lib/gcc/arm-none-eabi/6.3.1/../../../arm-none-eabi/lib/thumb/v7-m/libc_nano.a(lib_a-strcpy.o)
 .debug_loc     0x000000000001dd5f     0x2469 /usr/lib/gcc/arm-none-eabi/6.3.1/../../../arm-none-eabi/lib/thumb/v7-m/libc_nano.a(lib_a-strtod.o)
 .debug_loc     0x00000000000201c8      0x4fb /usr/lib/gcc/arm-none-eabi/6.3.1/../../../arm-none-eabi/lib/thumb/v7-m/libc_nano.a(lib_a-strtol.o)
 .debug_loc     0x00000000000206c3      0x1f5 /usr/lib/gcc/arm-none-eabi/6.3.1/../../../arm-none-eabi/lib/thumb/v7-m/libc_nano.a(lib_a-swprintf.o)
 .debug_loc     0x00000000000208b8       0x52 /usr/lib/gcc/arm-none-eabi/6.3.1/../../../arm-none-eabi/lib/thumb/v7-m/libc_nano.a(lib_a-wcscpy.o)
 .debug_loc     0x000000000002090a       0x6a /usr/lib/gcc/arm-none-eabi/6.3.1/../../../arm-none-eabi/lib/thumb/v7-m/libc_nano.a(lib_a-wcslen.o)
 .debug_loc     0x0000000000020974       0xe8 /usr/lib/gcc/arm-none-eabi/6.3.1/../../../arm-none-eabi/lib/thumb/v7-m/libc_nano.a(lib_a-wcsstr.o)
 .debug_loc     0x0000000000020a5c       0x63 /usr/lib/gcc/arm-none-eabi/6.3.1/../../../arm-none-eabi/lib/thumb/v7-m/libc_nano.a(lib_a-wmemcpy.o)
 .debug_loc     0x0000000000020abf      0x2af /usr/lib/gcc/arm-none-eabi/6.3.1/../../../arm-none-eabi/lib/thumb/v7-m/libc_nano.a(lib_a-findfp.o)
 .debug_loc     0x0000000000020d6e      0x1f1 /usr/lib/gcc/arm-none-eabi/6.3.1/../../../arm-none-eabi/lib/thumb/v7-m/libc_nano.a(lib_a-fwalk.o)
 .debug_loc     0x0000000000020f5f     0x11e6 /usr/lib/gcc/arm-none-eabi/6.3.1/../../../arm-none-eabi/lib/thumb/v7-m/libc_nano.a(lib_a-gdtoa-gethex.o)
 .debug_loc     0x0000000000022145      0x5d0 /usr/lib/gcc/arm-none-eabi/6.3.1/../../../arm-none-eabi/lib/thumb/v7-m/libc_nano.a(lib_a-gdtoa-hexnan.o)
 .debug_loc     0x0000000000022715      0x147 /usr/lib/gcc/arm-none-eabi/6.3.1/../../../arm-none-eabi/lib/thumb/v7-m/libc_nano.a(lib_a-locale.o)
 .debug_loc     0x000000000002285c       0x63 /usr/lib/gcc/arm-none-eabi/6.3.1/../../../arm-none-eabi/lib/thumb/v7-m/libc_nano.a(lib_a-localeconv.o)
 .debug_loc     0x00000000000228bf      0x1dd /usr/lib/gcc/arm-none-eabi/6.3.1/../../../arm-none-eabi/lib/thumb/v7-m/libc_nano.a(lib_a-mbtowc_r.o)
 .debug_loc     0x0000000000022a9c     0x1c5e /usr/lib/gcc/arm-none-eabi/6.3.1/../../../arm-none-eabi/lib/thumb/v7-m/libc_nano.a(lib_a-mprec.o)
 .debug_loc     0x00000000000246fa       0x81 /usr/lib/gcc/arm-none-eabi/6.3.1/../../../arm-none-eabi/lib/thumb/v7-m/libc_nano.a(lib_a-nano-callocr.o)
 .debug_loc     0x000000000002477b      0x69e /usr/lib/gcc/arm-none-eabi/6.3.1/../../../arm-none-eabi/lib/thumb/v7-m/libc_nano.a(lib_a-nano-svfprintf.o)
 .debug_loc     0x0000000000024e19      0x5fe /usr/lib/gcc/arm-none-eabi/6.3.1/../../../arm-none-eabi/lib/thumb/v7-m/libc_nano.a(lib_a-nano-vfprintf.o)
 .debug_loc     0x0000000000025417      0x709 /usr/lib/gcc/arm-none-eabi/6.3.1/../../../arm-none-eabi/lib/thumb/v7-m/libc_nano.a(lib_a-nano-vfprintf_i.o)
 .debug_loc     0x0000000000025b20      0x14a /usr/lib/gcc/arm-none-eabi/6.3.1/../../../arm-none-eabi/lib/thumb/v7-m/libc_nano.a(lib_a-reent.o)
 .debug_loc     0x0000000000025c6a       0x21 /usr/lib/gcc/arm-none-eabi/6.3.1/../../../arm-none-eabi/lib/thumb/v7-m/libc_nano.a(lib_a-sf_nan.o)
 .debug_loc     0x0000000000025c8b      0x2bf /usr/lib/gcc/arm-none-eabi/6.3.1/../../../arm-none-eabi/lib/thumb/v7-m/libc_nano.a(lib_a-stdio.o)
 .debug_loc     0x0000000000025f4a       0x21 /usr/lib/gcc/arm-none-eabi/6.3.1/../../../arm-none-eabi/lib/thumb/v7-m/libc_nano.a(lib_a-strlen-stub.o)
 .debug_loc     0x0000000000025f6b      0x138 /usr/lib/gcc/arm-none-eabi/6.3.1/../../../arm-none-eabi/lib/thumb/v7-m/libc_nano.a(lib_a-strncmp.o)
 .debug_loc     0x00000000000260a3     0x1bb4 /usr/lib/gcc/arm-none-eabi/6.3.1/../../../arm-none-eabi/lib/thumb/v7-m/libc_nano.a(lib_a-svfwprintf.o)
 .debug_loc     0x0000000000027c57      0x12b /usr/lib/gcc/arm-none-eabi/6.3.1/../../../arm-none-eabi/lib/thumb/v7-m/libc_nano.a(lib_a-wbuf.o)
 .debug_loc     0x0000000000027d82      0x124 /usr/lib/gcc/arm-none-eabi/6.3.1/../../../arm-none-eabi/lib/thumb/v7-m/libc_nano.a(lib_a-wctomb_r.o)
 .debug_loc     0x0000000000027ea6       0x9f /usr/lib/gcc/arm-none-eabi/6.3.1/../../../arm-none-eabi/lib/thumb/v7-m/libc_nano.a(lib_a-wmemchr.o)
 .debug_loc     0x0000000000027f45       0xa5 /usr/lib/gcc/arm-none-eabi/6.3.1/../../../arm-none-eabi/lib/thumb/v7-m/libc_nano.a(lib_a-writer.o)
 .debug_loc     0x0000000000027fea       0x9f /usr/lib/gcc/arm-none-eabi/6.3.1/../../../arm-none-eabi/lib/thumb/v7-m/libc_nano.a(lib_a-wsetup.o)
 .debug_loc     0x0000000000028089       0xa6 /usr/lib/gcc/arm-none-eabi/6.3.1/../../../arm-none-eabi/lib/thumb/v7-m/libc_nano.a(lib_a-btowc.o)
 .debug_loc     0x000000000002812f       0x4d /usr/lib/gcc/arm-none-eabi/6.3.1/../../../arm-none-eabi/lib/thumb/v7-m/libc_nano.a(lib_a-closer.o)
 .debug_loc     0x000000000002817c     0x2653 /usr/lib/gcc/arm-none-eabi/6.3.1/../../../arm-none-eabi/lib/thumb/v7-m/libc_nano.a(lib_a-dtoa.o)
 .debug_loc     0x000000000002a7cf      0x384 /usr/lib/gcc/arm-none-eabi/6.3.1/../../../arm-none-eabi/lib/thumb/v7-m/libc_nano.a(lib_a-fflush.o)
 .debug_loc     0x000000000002ab53      0x60f /usr/lib/gcc/arm-none-eabi/6.3.1/../../../arm-none-eabi/lib/thumb/v7-m/libc_nano.a(lib_a-fvwrite.o)
 .debug_loc     0x000000000002b162       0xa5 /usr/lib/gcc/arm-none-eabi/6.3.1/../../../arm-none-eabi/lib/thumb/v7-m/libc_nano.a(lib_a-lseekr.o)
 .debug_loc     0x000000000002b207      0x165 /usr/lib/gcc/arm-none-eabi/6.3.1/../../../arm-none-eabi/lib/thumb/v7-m/libc_nano.a(lib_a-makebuf.o)
 .debug_loc     0x000000000002b36c      0x1e0 /usr/lib/gcc/arm-none-eabi/6.3.1/../../../arm-none-eabi/lib/thumb/v7-m/libc_nano.a(lib_a-memchr-stub.o)
 .debug_loc     0x000000000002b54c      0x247 /usr/lib/gcc/arm-none-eabi/6.3.1/../../../arm-none-eabi/lib/thumb/v7-m/libc_nano.a(lib_a-memmove.o)
 .debug_loc     0x000000000002b793      0x13d /usr/lib/gcc/arm-none-eabi/6.3.1/../../../arm-none-eabi/lib/thumb/v7-m/libc_nano.a(lib_a-nano-reallocr.o)
 .debug_loc     0x000000000002b8d0       0xa5 /usr/lib/gcc/arm-none-eabi/6.3.1/../../../arm-none-eabi/lib/thumb/v7-m/libc_nano.a(lib_a-readr.o)
 .debug_loc     0x000000000002b975       0x79 /usr/lib/gcc/arm-none-eabi/6.3.1/../../../arm-none-eabi/lib/thumb/v7-m/libc_nano.a(lib_a-fstatr.o)
 .debug_loc     0x000000000002b9ee       0x4d /usr/lib/gcc/arm-none-eabi/6.3.1/../../../arm-none-eabi/lib/thumb/v7-m/libc_nano.a(lib_a-isattyr.o)
 .debug_loc     0x000000000002ba3b       0x78 /usr/lib/gcc/arm-none-eabi/6.3.1/../../../arm-none-eabi/lib/thumb/v7-m/libc_nano.a(lib_a-nano-msizer.o)
 .debug_loc     0x000000000002bab3      0x1d7 /usr/lib/gcc/arm-none-eabi/6.3.1/../../../arm-none-eabi/lib/thumb/v7-m/libm.a(lib_a-sf_lround.o)
 .debug_loc     0x000000000002bc8a      0x12c /usr/lib/gcc/arm-none-eabi/6.3.1/../../../arm-none-eabi/lib/thumb/v7-m/libm.a(lib_a-w_pow.o)
 .debug_loc     0x000000000002bdb6       0x50 /usr/lib/gcc/arm-none-eabi/6.3.1/../../../arm-none-eabi/lib/thumb/v7-m/libm.a(lib_a-w_sqrt.o)
 .debug_loc     0x000000000002be06       0x47 /usr/lib/gcc/arm-none-eabi/6.3.1/../../../arm-none-eabi/lib/thumb/v7-m/libm.a(lib_a-wf_sqrt.o)
 .debug_loc     0x000000000002be4d      0xfb1 /usr/lib/gcc/arm-none-eabi/6.3.1/../../../arm-none-eabi/lib/thumb/v7-m/libm.a(lib_a-e_pow.o)
 .debug_loc     0x000000000002cdfe      0x4ab /usr/lib/gcc/arm-none-eabi/6.3.1/../../../arm-none-eabi/lib/thumb/v7-m/libm.a(lib_a-e_sqrt.o)
 .debug_loc     0x000000000002d2a9      0x245 /usr/lib/gcc/arm-none-eabi/6.3.1/../../../arm-none-eabi/lib/thumb/v7-m/libm.a(lib_a-ef_sqrt.o)
 .debug_loc     0x000000000002d4ee       0x18 /usr/lib/gcc/arm-none-eabi/6.3.1/../../../arm-none-eabi/lib/thumb/v7-m/libm.a(lib_a-s_fabs.o)
 .debug_loc     0x000000000002d506       0x28 /usr/lib/gcc/arm-none-eabi/6.3.1/../../../arm-none-eabi/lib/thumb/v7-m/libm.a(lib_a-s_finite.o)
 .debug_loc     0x000000000002d52e       0x21 /usr/lib/gcc/arm-none-eabi/6.3.1/../../../arm-none-eabi/lib/thumb/v7-m/libm.a(lib_a-s_matherr.o)
 .debug_loc     0x000000000002d54f       0x21 /usr/lib/gcc/arm-none-eabi/6.3.1/../../../arm-none-eabi/lib/thumb/v7-m/libm.a(lib_a-s_nan.o)
 .debug_loc     0x000000000002d570      0x27b /usr/lib/gcc/arm-none-eabi/6.3.1/../../../arm-none-eabi/lib/thumb/v7-m/libm.a(lib_a-s_rint.o)
 .debug_loc     0x000000000002d7eb      0x1bc /usr/lib/gcc/arm-none-eabi/6.3.1/../../../arm-none-eabi/lib/thumb/v7-m/libm.a(lib_a-s_scalbn.o)
 .debug_loc     0x000000000002d9a7       0x21 /usr/lib/gcc/arm-none-eabi/6.3.1/../../../arm-none-eabi/lib/thumb/v7-m/libnosys.a(close.o)
 .debug_loc     0x000000000002d9c8       0x21 /usr/lib/gcc/arm-none-eabi/6.3.1/../../../arm-none-eabi/lib/thumb/v7-m/libnosys.a(fstat.o)
 .debug_loc     0x000000000002d9e9       0x21 /usr/lib/gcc/arm-none-eabi/6.3.1/../../../arm-none-eabi/lib/thumb/v7-m/libnosys.a(isatty.o)
 .debug_loc     0x000000000002da0a       0x42 /usr/lib/gcc/arm-none-eabi/6.3.1/../../../arm-none-eabi/lib/thumb/v7-m/libnosys.a(lseek.o)
 .debug_loc     0x000000000002da4c       0x42 /usr/lib/gcc/arm-none-eabi/6.3.1/../../../arm-none-eabi/lib/thumb/v7-m/libnosys.a(read.o)
 .debug_loc     0x000000000002da8e       0x38 /usr/lib/gcc/arm-none-eabi/6.3.1/../../../arm-none-eabi/lib/thumb/v7-m/libnosys.a(sbrk.o)
 .debug_loc     0x000000000002dac6       0x28 /usr/lib/gcc/arm-none-eabi/6.3.1/thumb/v7-m/libgcc.a(_fixdfdi.o)
 .debug_loc     0x000000000002daee       0x9f /usr/lib/gcc/arm-none-eabi/6.3.1/thumb/v7-m/libgcc.a(_fixunsdfdi.o)
 .debug_loc     0x000000000002db8d      0xdb9 /usr/lib/gcc/arm-none-eabi/6.3.1/thumb/v7-m/libgcc.a(_udivmoddi4.o)

.debug_aranges  0x0000000000000000     0x2960
 .debug_aranges
                0x0000000000000000       0x38 build/main.o
 .debug_aranges
                0x0000000000000038       0x20 build/gpio.o
 .debug_aranges
                0x0000000000000058       0x28 build/fatfs.o
 .debug_aranges
                0x0000000000000080       0x48 build/tim.o
 .debug_aranges
                0x00000000000000c8       0x30 build/usart.o
 .debug_aranges
                0x00000000000000f8       0x30 build/usb_host.o
 .debug_aranges
                0x0000000000000128       0xc8 build/usbh_conf.o
 .debug_aranges
                0x00000000000001f0       0x20 build/usbh_platform.o
 .debug_aranges
                0x0000000000000210       0x88 build/stm32f1xx_it.o
 .debug_aranges
                0x0000000000000298       0x20 build/stm32f1xx_hal_msp.o
 .debug_aranges
                0x00000000000002b8       0xe0 build/stm32f1xx_hal_hcd.o
 .debug_aranges
                0x0000000000000398      0x180 build/stm32f1xx_ll_usb.o
 .debug_aranges
                0x0000000000000518       0xd0 build/stm32f1xx_hal.o
 .debug_aranges
                0x00000000000005e8       0x90 build/stm32f1xx_hal_rcc.o
 .debug_aranges
                0x0000000000000678       0x50 build/stm32f1xx_hal_rcc_ex.o
 .debug_aranges
                0x00000000000006c8       0x58 build/stm32f1xx_hal_gpio.o
 .debug_aranges
                0x0000000000000720       0x90 build/stm32f1xx_hal_cortex.o
 .debug_aranges
                0x00000000000007b0      0x368 build/stm32f1xx_hal_tim.o
 .debug_aranges
                0x0000000000000b18      0x138 build/stm32f1xx_hal_tim_ex.o
 .debug_aranges
                0x0000000000000c50      0x1d0 build/stm32f1xx_hal_uart.o
 .debug_aranges
                0x0000000000000e20       0x28 build/system_stm32f1xx.o
 .debug_aranges
                0x0000000000000e48       0x48 build/diskio.o
 .debug_aranges
                0x0000000000000e90      0x210 build/ff.o
 .debug_aranges
                0x00000000000010a0       0x40 build/ff_gen_drv.o
 .debug_aranges
                0x00000000000010e0       0x28 build/ccsbcs.o
 .debug_aranges
                0x0000000000001108       0x40 build/usbh_diskio.o
 .debug_aranges
                0x0000000000001148       0xa8 build/usbh_core.o
 .debug_aranges
                0x00000000000011f0       0x98 build/usbh_ctlreq.o
 .debug_aranges
                0x0000000000001288       0x60 build/usbh_ioreq.o
 .debug_aranges
                0x00000000000012e8       0x40 build/usbh_pipes.o
 .debug_aranges
                0x0000000000001328       0x78 build/usbh_msc.o
 .debug_aranges
                0x00000000000013a0       0x48 build/usbh_msc_bot.o
 .debug_aranges
                0x00000000000013e8       0x48 build/usbh_msc_scsi.o
 .debug_aranges
                0x0000000000001430      0x140 build/Buffer_Gcode.o
 .debug_aranges
                0x0000000000001570       0x68 build/Descritization_Gcode.o
 .debug_aranges
                0x00000000000015d8       0x38 build/GcodeConverter_Gcode.o
 .debug_aranges
                0x0000000000001610       0x80 build/VirtualPrinters_Gcode.o
 .debug_aranges
                0x0000000000001690       0x20 build/CharacterConverter_LCD.o
 .debug_aranges
                0x00000000000016b0       0x78 build/Driver_LCD.o
 .debug_aranges
                0x0000000000001728       0xd0 build/GPIOandTIM_LCD.o
 .debug_aranges
                0x00000000000017f8       0x30 build/Interface_LCD.o
 .debug_aranges
                0x0000000000001828       0x88 build/TextConverter_LCD.o
 .debug_aranges
                0x00000000000018b0       0xd0 build/Constructor_Menu.o
 .debug_aranges
                0x0000000000001980       0x20 build/MainMenu_Menu.o
 .debug_aranges
                0x00000000000019a0       0xe0 build/FunctionsForButtons.o
 .debug_aranges
                0x0000000000001a80       0x58 build/Driver_Motors.o
 .debug_aranges
                0x0000000000001ad8       0xd8 build/GPIO_Motors.o
 .debug_aranges
                0x0000000000001bb0       0x30 build/State_USBdrive.o
 .debug_aranges
                0x0000000000001be0       0xa8 build/Driver_USBdrive.o
 .debug_aranges
                0x0000000000001c88       0x80 build/coordinates.o
 .debug_aranges
                0x0000000000001d08       0x28 build/startup_stm32f105xc.o
 .debug_aranges
                0x0000000000001d30       0x20 /usr/lib/gcc/arm-none-eabi/6.3.1/../../../arm-none-eabi/lib/thumb/v7-m/libc_nano.a(lib_a-atof.o)
 .debug_aranges
                0x0000000000001d50       0x20 /usr/lib/gcc/arm-none-eabi/6.3.1/../../../arm-none-eabi/lib/thumb/v7-m/libc_nano.a(lib_a-atoi.o)
 .debug_aranges
                0x0000000000001d70       0x18 /usr/lib/gcc/arm-none-eabi/6.3.1/../../../arm-none-eabi/lib/thumb/v7-m/libc_nano.a(lib_a-impure.o)
 .debug_aranges
                0x0000000000001d88       0x20 /usr/lib/gcc/arm-none-eabi/6.3.1/../../../arm-none-eabi/lib/thumb/v7-m/libc_nano.a(lib_a-malloc.o)
 .debug_aranges
                0x0000000000001da8       0x20 /usr/lib/gcc/arm-none-eabi/6.3.1/../../../arm-none-eabi/lib/thumb/v7-m/libc_nano.a(lib_a-memset.o)
 .debug_aranges
                0x0000000000001dc8       0x20 /usr/lib/gcc/arm-none-eabi/6.3.1/../../../arm-none-eabi/lib/thumb/v7-m/libc_nano.a(lib_a-nano-freer.o)
 .debug_aranges
                0x0000000000001de8       0x20 /usr/lib/gcc/arm-none-eabi/6.3.1/../../../arm-none-eabi/lib/thumb/v7-m/libc_nano.a(lib_a-nano-mallocr.o)
 .debug_aranges
                0x0000000000001e08       0x20 /usr/lib/gcc/arm-none-eabi/6.3.1/../../../arm-none-eabi/lib/thumb/v7-m/libc_nano.a(lib_a-printf.o)
 .debug_aranges
                0x0000000000001e28       0x20 /usr/lib/gcc/arm-none-eabi/6.3.1/../../../arm-none-eabi/lib/thumb/v7-m/libc_nano.a(lib_a-sbrkr.o)
 .debug_aranges
                0x0000000000001e48       0x20 /usr/lib/gcc/arm-none-eabi/6.3.1/../../../arm-none-eabi/lib/thumb/v7-m/libc_nano.a(lib_a-sprintf.o)
 .debug_aranges
                0x0000000000001e68       0x20 /usr/lib/gcc/arm-none-eabi/6.3.1/../../../arm-none-eabi/lib/thumb/v7-m/libc_nano.a(lib_a-strchr.o)
 .debug_aranges
                0x0000000000001e88       0x20 /usr/lib/gcc/arm-none-eabi/6.3.1/../../../arm-none-eabi/lib/thumb/v7-m/libc_nano.a(lib_a-strcpy.o)
 .debug_aranges
                0x0000000000001ea8       0x28 /usr/lib/gcc/arm-none-eabi/6.3.1/../../../arm-none-eabi/lib/thumb/v7-m/libc_nano.a(lib_a-strtod.o)
 .debug_aranges
                0x0000000000001ed0       0x20 /usr/lib/gcc/arm-none-eabi/6.3.1/../../../arm-none-eabi/lib/thumb/v7-m/libc_nano.a(lib_a-strtol.o)
 .debug_aranges
                0x0000000000001ef0       0x20 /usr/lib/gcc/arm-none-eabi/6.3.1/../../../arm-none-eabi/lib/thumb/v7-m/libc_nano.a(lib_a-swprintf.o)
 .debug_aranges
                0x0000000000001f10       0x20 /usr/lib/gcc/arm-none-eabi/6.3.1/../../../arm-none-eabi/lib/thumb/v7-m/libc_nano.a(lib_a-wcscpy.o)
 .debug_aranges
                0x0000000000001f30       0x20 /usr/lib/gcc/arm-none-eabi/6.3.1/../../../arm-none-eabi/lib/thumb/v7-m/libc_nano.a(lib_a-wcslen.o)
 .debug_aranges
                0x0000000000001f50       0x20 /usr/lib/gcc/arm-none-eabi/6.3.1/../../../arm-none-eabi/lib/thumb/v7-m/libc_nano.a(lib_a-wcsstr.o)
 .debug_aranges
                0x0000000000001f70       0x20 /usr/lib/gcc/arm-none-eabi/6.3.1/../../../arm-none-eabi/lib/thumb/v7-m/libc_nano.a(lib_a-wmemcpy.o)
 .debug_aranges
                0x0000000000001f90       0x20 /usr/lib/gcc/arm-none-eabi/6.3.1/../../../arm-none-eabi/lib/thumb/v7-m/libc_nano.a(lib_a-findfp.o)
 .debug_aranges
                0x0000000000001fb0       0x20 /usr/lib/gcc/arm-none-eabi/6.3.1/../../../arm-none-eabi/lib/thumb/v7-m/libc_nano.a(lib_a-fwalk.o)
 .debug_aranges
                0x0000000000001fd0       0x20 /usr/lib/gcc/arm-none-eabi/6.3.1/../../../arm-none-eabi/lib/thumb/v7-m/libc_nano.a(lib_a-gdtoa-gethex.o)
 .debug_aranges
                0x0000000000001ff0       0x20 /usr/lib/gcc/arm-none-eabi/6.3.1/../../../arm-none-eabi/lib/thumb/v7-m/libc_nano.a(lib_a-gdtoa-hexnan.o)
 .debug_aranges
                0x0000000000002010       0x20 /usr/lib/gcc/arm-none-eabi/6.3.1/../../../arm-none-eabi/lib/thumb/v7-m/libc_nano.a(lib_a-locale.o)
 .debug_aranges
                0x0000000000002030       0x20 /usr/lib/gcc/arm-none-eabi/6.3.1/../../../arm-none-eabi/lib/thumb/v7-m/libc_nano.a(lib_a-localeconv.o)
 .debug_aranges
                0x0000000000002050       0x20 /usr/lib/gcc/arm-none-eabi/6.3.1/../../../arm-none-eabi/lib/thumb/v7-m/libc_nano.a(lib_a-mbtowc_r.o)
 .debug_aranges
                0x0000000000002070       0x20 /usr/lib/gcc/arm-none-eabi/6.3.1/../../../arm-none-eabi/lib/thumb/v7-m/libc_nano.a(lib_a-memcpy.o)
 .debug_aranges
                0x0000000000002090       0x20 /usr/lib/gcc/arm-none-eabi/6.3.1/../../../arm-none-eabi/lib/thumb/v7-m/libc_nano.a(lib_a-mlock.o)
 .debug_aranges
                0x00000000000020b0       0x20 /usr/lib/gcc/arm-none-eabi/6.3.1/../../../arm-none-eabi/lib/thumb/v7-m/libc_nano.a(lib_a-mprec.o)
 .debug_aranges
                0x00000000000020d0       0x20 /usr/lib/gcc/arm-none-eabi/6.3.1/../../../arm-none-eabi/lib/thumb/v7-m/libc_nano.a(lib_a-nano-callocr.o)
 .debug_aranges
                0x00000000000020f0       0x20 /usr/lib/gcc/arm-none-eabi/6.3.1/../../../arm-none-eabi/lib/thumb/v7-m/libc_nano.a(lib_a-nano-svfprintf.o)
 .debug_aranges
                0x0000000000002110       0x20 /usr/lib/gcc/arm-none-eabi/6.3.1/../../../arm-none-eabi/lib/thumb/v7-m/libc_nano.a(lib_a-nano-vfprintf.o)
 .debug_aranges
                0x0000000000002130       0x20 /usr/lib/gcc/arm-none-eabi/6.3.1/../../../arm-none-eabi/lib/thumb/v7-m/libc_nano.a(lib_a-nano-vfprintf_i.o)
 .debug_aranges
                0x0000000000002150       0x20 /usr/lib/gcc/arm-none-eabi/6.3.1/../../../arm-none-eabi/lib/thumb/v7-m/libc_nano.a(lib_a-reent.o)
 .debug_aranges
                0x0000000000002170       0x20 /usr/lib/gcc/arm-none-eabi/6.3.1/../../../arm-none-eabi/lib/thumb/v7-m/libc_nano.a(lib_a-sf_nan.o)
 .debug_aranges
                0x0000000000002190       0x20 /usr/lib/gcc/arm-none-eabi/6.3.1/../../../arm-none-eabi/lib/thumb/v7-m/libc_nano.a(lib_a-stdio.o)
 .debug_aranges
                0x00000000000021b0       0x20 /usr/lib/gcc/arm-none-eabi/6.3.1/../../../arm-none-eabi/lib/thumb/v7-m/libc_nano.a(lib_a-strcmp.o)
 .debug_aranges
                0x00000000000021d0       0x20 /usr/lib/gcc/arm-none-eabi/6.3.1/../../../arm-none-eabi/lib/thumb/v7-m/libc_nano.a(lib_a-strlen-stub.o)
 .debug_aranges
                0x00000000000021f0       0x20 /usr/lib/gcc/arm-none-eabi/6.3.1/../../../arm-none-eabi/lib/thumb/v7-m/libc_nano.a(lib_a-strncmp.o)
 .debug_aranges
                0x0000000000002210       0x20 /usr/lib/gcc/arm-none-eabi/6.3.1/../../../arm-none-eabi/lib/thumb/v7-m/libc_nano.a(lib_a-svfwprintf.o)
 .debug_aranges
                0x0000000000002230       0x20 /usr/lib/gcc/arm-none-eabi/6.3.1/../../../arm-none-eabi/lib/thumb/v7-m/libc_nano.a(lib_a-wbuf.o)
 .debug_aranges
                0x0000000000002250       0x20 /usr/lib/gcc/arm-none-eabi/6.3.1/../../../arm-none-eabi/lib/thumb/v7-m/libc_nano.a(lib_a-wctomb_r.o)
 .debug_aranges
                0x0000000000002270       0x20 /usr/lib/gcc/arm-none-eabi/6.3.1/../../../arm-none-eabi/lib/thumb/v7-m/libc_nano.a(lib_a-wmemchr.o)
 .debug_aranges
                0x0000000000002290       0x20 /usr/lib/gcc/arm-none-eabi/6.3.1/../../../arm-none-eabi/lib/thumb/v7-m/libc_nano.a(lib_a-writer.o)
 .debug_aranges
                0x00000000000022b0       0x20 /usr/lib/gcc/arm-none-eabi/6.3.1/../../../arm-none-eabi/lib/thumb/v7-m/libc_nano.a(lib_a-wsetup.o)
 .debug_aranges
                0x00000000000022d0       0x20 /usr/lib/gcc/arm-none-eabi/6.3.1/../../../arm-none-eabi/lib/thumb/v7-m/libc_nano.a(lib_a-btowc.o)
 .debug_aranges
                0x00000000000022f0       0x20 /usr/lib/gcc/arm-none-eabi/6.3.1/../../../arm-none-eabi/lib/thumb/v7-m/libc_nano.a(lib_a-closer.o)
 .debug_aranges
                0x0000000000002310       0x18 /usr/lib/gcc/arm-none-eabi/6.3.1/../../../arm-none-eabi/lib/thumb/v7-m/libc_nano.a(lib_a-ctype_.o)
 .debug_aranges
                0x0000000000002328       0x20 /usr/lib/gcc/arm-none-eabi/6.3.1/../../../arm-none-eabi/lib/thumb/v7-m/libc_nano.a(lib_a-dtoa.o)
 .debug_aranges
                0x0000000000002348       0x20 /usr/lib/gcc/arm-none-eabi/6.3.1/../../../arm-none-eabi/lib/thumb/v7-m/libc_nano.a(lib_a-fflush.o)
 .debug_aranges
                0x0000000000002368       0x20 /usr/lib/gcc/arm-none-eabi/6.3.1/../../../arm-none-eabi/lib/thumb/v7-m/libc_nano.a(lib_a-fvwrite.o)
 .debug_aranges
                0x0000000000002388       0x20 /usr/lib/gcc/arm-none-eabi/6.3.1/../../../arm-none-eabi/lib/thumb/v7-m/libc_nano.a(lib_a-lseekr.o)
 .debug_aranges
                0x00000000000023a8       0x20 /usr/lib/gcc/arm-none-eabi/6.3.1/../../../arm-none-eabi/lib/thumb/v7-m/libc_nano.a(lib_a-makebuf.o)
 .debug_aranges
                0x00000000000023c8       0x20 /usr/lib/gcc/arm-none-eabi/6.3.1/../../../arm-none-eabi/lib/thumb/v7-m/libc_nano.a(lib_a-memchr-stub.o)
 .debug_aranges
                0x00000000000023e8       0x20 /usr/lib/gcc/arm-none-eabi/6.3.1/../../../arm-none-eabi/lib/thumb/v7-m/libc_nano.a(lib_a-memmove.o)
 .debug_aranges
                0x0000000000002408       0x20 /usr/lib/gcc/arm-none-eabi/6.3.1/../../../arm-none-eabi/lib/thumb/v7-m/libc_nano.a(lib_a-nano-reallocr.o)
 .debug_aranges
                0x0000000000002428       0x20 /usr/lib/gcc/arm-none-eabi/6.3.1/../../../arm-none-eabi/lib/thumb/v7-m/libc_nano.a(lib_a-readr.o)
 .debug_aranges
                0x0000000000002448       0x20 /usr/lib/gcc/arm-none-eabi/6.3.1/../../../arm-none-eabi/lib/thumb/v7-m/libc_nano.a(lib_a-fstatr.o)
 .debug_aranges
                0x0000000000002468       0x20 /usr/lib/gcc/arm-none-eabi/6.3.1/../../../arm-none-eabi/lib/thumb/v7-m/libc_nano.a(lib_a-isattyr.o)
 .debug_aranges
                0x0000000000002488       0x20 /usr/lib/gcc/arm-none-eabi/6.3.1/../../../arm-none-eabi/lib/thumb/v7-m/libc_nano.a(lib_a-nano-msizer.o)
 .debug_aranges
                0x00000000000024a8       0x20 /usr/lib/gcc/arm-none-eabi/6.3.1/../../../arm-none-eabi/lib/thumb/v7-m/libm.a(lib_a-sf_lround.o)
 .debug_aranges
                0x00000000000024c8       0x20 /usr/lib/gcc/arm-none-eabi/6.3.1/../../../arm-none-eabi/lib/thumb/v7-m/libm.a(lib_a-w_pow.o)
 .debug_aranges
                0x00000000000024e8       0x20 /usr/lib/gcc/arm-none-eabi/6.3.1/../../../arm-none-eabi/lib/thumb/v7-m/libm.a(lib_a-w_sqrt.o)
 .debug_aranges
                0x0000000000002508       0x20 /usr/lib/gcc/arm-none-eabi/6.3.1/../../../arm-none-eabi/lib/thumb/v7-m/libm.a(lib_a-wf_sqrt.o)
 .debug_aranges
                0x0000000000002528       0x20 /usr/lib/gcc/arm-none-eabi/6.3.1/../../../arm-none-eabi/lib/thumb/v7-m/libm.a(lib_a-e_pow.o)
 .debug_aranges
                0x0000000000002548       0x20 /usr/lib/gcc/arm-none-eabi/6.3.1/../../../arm-none-eabi/lib/thumb/v7-m/libm.a(lib_a-e_sqrt.o)
 .debug_aranges
                0x0000000000002568       0x20 /usr/lib/gcc/arm-none-eabi/6.3.1/../../../arm-none-eabi/lib/thumb/v7-m/libm.a(lib_a-ef_sqrt.o)
 .debug_aranges
                0x0000000000002588       0x20 /usr/lib/gcc/arm-none-eabi/6.3.1/../../../arm-none-eabi/lib/thumb/v7-m/libm.a(lib_a-s_fabs.o)
 .debug_aranges
                0x00000000000025a8       0x20 /usr/lib/gcc/arm-none-eabi/6.3.1/../../../arm-none-eabi/lib/thumb/v7-m/libm.a(lib_a-s_finite.o)
 .debug_aranges
                0x00000000000025c8       0x18 /usr/lib/gcc/arm-none-eabi/6.3.1/../../../arm-none-eabi/lib/thumb/v7-m/libm.a(lib_a-s_lib_ver.o)
 .debug_aranges
                0x00000000000025e0       0x20 /usr/lib/gcc/arm-none-eabi/6.3.1/../../../arm-none-eabi/lib/thumb/v7-m/libm.a(lib_a-s_matherr.o)
 .debug_aranges
                0x0000000000002600       0x20 /usr/lib/gcc/arm-none-eabi/6.3.1/../../../arm-none-eabi/lib/thumb/v7-m/libm.a(lib_a-s_nan.o)
 .debug_aranges
                0x0000000000002620       0x20 /usr/lib/gcc/arm-none-eabi/6.3.1/../../../arm-none-eabi/lib/thumb/v7-m/libm.a(lib_a-s_rint.o)
 .debug_aranges
                0x0000000000002640       0x20 /usr/lib/gcc/arm-none-eabi/6.3.1/../../../arm-none-eabi/lib/thumb/v7-m/libm.a(lib_a-s_scalbn.o)
 .debug_aranges
                0x0000000000002660       0x20 /usr/lib/gcc/arm-none-eabi/6.3.1/../../../arm-none-eabi/lib/thumb/v7-m/libnosys.a(close.o)
 .debug_aranges
                0x0000000000002680       0x20 /usr/lib/gcc/arm-none-eabi/6.3.1/../../../arm-none-eabi/lib/thumb/v7-m/libnosys.a(fstat.o)
 .debug_aranges
                0x00000000000026a0       0x20 /usr/lib/gcc/arm-none-eabi/6.3.1/../../../arm-none-eabi/lib/thumb/v7-m/libnosys.a(isatty.o)
 .debug_aranges
                0x00000000000026c0       0x20 /usr/lib/gcc/arm-none-eabi/6.3.1/../../../arm-none-eabi/lib/thumb/v7-m/libnosys.a(lseek.o)
 .debug_aranges
                0x00000000000026e0       0x20 /usr/lib/gcc/arm-none-eabi/6.3.1/../../../arm-none-eabi/lib/thumb/v7-m/libnosys.a(read.o)
 .debug_aranges
                0x0000000000002700       0x20 /usr/lib/gcc/arm-none-eabi/6.3.1/../../../arm-none-eabi/lib/thumb/v7-m/libnosys.a(sbrk.o)
 .debug_aranges
                0x0000000000002720       0x20 /usr/lib/gcc/arm-none-eabi/6.3.1/thumb/v7-m/libgcc.a(_arm_addsubdf3.o)
 .debug_aranges
                0x0000000000002740       0x20 /usr/lib/gcc/arm-none-eabi/6.3.1/thumb/v7-m/libgcc.a(_arm_muldivdf3.o)
 .debug_aranges
                0x0000000000002760       0x20 /usr/lib/gcc/arm-none-eabi/6.3.1/thumb/v7-m/libgcc.a(_arm_cmpdf2.o)
 .debug_aranges
                0x0000000000002780       0x20 /usr/lib/gcc/arm-none-eabi/6.3.1/thumb/v7-m/libgcc.a(_arm_unorddf2.o)
 .debug_aranges
                0x00000000000027a0       0x20 /usr/lib/gcc/arm-none-eabi/6.3.1/thumb/v7-m/libgcc.a(_arm_fixdfsi.o)
 .debug_aranges
                0x00000000000027c0       0x20 /usr/lib/gcc/arm-none-eabi/6.3.1/thumb/v7-m/libgcc.a(_arm_fixunsdfsi.o)
 .debug_aranges
                0x00000000000027e0       0x20 /usr/lib/gcc/arm-none-eabi/6.3.1/thumb/v7-m/libgcc.a(_arm_truncdfsf2.o)
 .debug_aranges
                0x0000000000002800       0x20 /usr/lib/gcc/arm-none-eabi/6.3.1/thumb/v7-m/libgcc.a(_arm_addsubsf3.o)
 .debug_aranges
                0x0000000000002820       0x20 /usr/lib/gcc/arm-none-eabi/6.3.1/thumb/v7-m/libgcc.a(_arm_muldivsf3.o)
 .debug_aranges
                0x0000000000002840       0x20 /usr/lib/gcc/arm-none-eabi/6.3.1/thumb/v7-m/libgcc.a(_arm_cmpsf2.o)
 .debug_aranges
                0x0000000000002860       0x20 /usr/lib/gcc/arm-none-eabi/6.3.1/thumb/v7-m/libgcc.a(_arm_unordsf2.o)
 .debug_aranges
                0x0000000000002880       0x20 /usr/lib/gcc/arm-none-eabi/6.3.1/thumb/v7-m/libgcc.a(_arm_fixsfsi.o)
 .debug_aranges
                0x00000000000028a0       0x20 /usr/lib/gcc/arm-none-eabi/6.3.1/thumb/v7-m/libgcc.a(_aeabi_uldivmod.o)
 .debug_aranges
                0x00000000000028c0       0x20 /usr/lib/gcc/arm-none-eabi/6.3.1/thumb/v7-m/libgcc.a(_fixdfdi.o)
 .debug_aranges
                0x00000000000028e0       0x20 /usr/lib/gcc/arm-none-eabi/6.3.1/thumb/v7-m/libgcc.a(_fixunsdfdi.o)
 .debug_aranges
                0x0000000000002900       0x20 /usr/lib/gcc/arm-none-eabi/6.3.1/thumb/v7-m/libgcc.a(_udivmoddi4.o)
 .debug_aranges
                0x0000000000002920       0x20 /usr/lib/gcc/arm-none-eabi/6.3.1/thumb/v7-m/libgcc.a(_dvmd_tls.o)
 .debug_aranges
                0x0000000000002940       0x20 /usr/lib/gcc/arm-none-eabi/6.3.1/../../../arm-none-eabi/lib/thumb/v7-m/libc_nano.a(lib_a-errno.o)

.debug_ranges   0x0000000000000000     0x22f0
 .debug_ranges  0x0000000000000000       0x28 build/main.o
 .debug_ranges  0x0000000000000028       0x10 build/gpio.o
 .debug_ranges  0x0000000000000038       0x18 build/fatfs.o
 .debug_ranges  0x0000000000000050       0x38 build/tim.o
 .debug_ranges  0x0000000000000088       0x20 build/usart.o
 .debug_ranges  0x00000000000000a8       0x20 build/usb_host.o
 .debug_ranges  0x00000000000000c8       0xb8 build/usbh_conf.o
 .debug_ranges  0x0000000000000180       0x10 build/usbh_platform.o
 .debug_ranges  0x0000000000000190       0x78 build/stm32f1xx_it.o
 .debug_ranges  0x0000000000000208       0x10 build/stm32f1xx_hal_msp.o
 .debug_ranges  0x0000000000000218       0xd0 build/stm32f1xx_hal_hcd.o
 .debug_ranges  0x00000000000002e8      0x170 build/stm32f1xx_ll_usb.o
 .debug_ranges  0x0000000000000458       0xc0 build/stm32f1xx_hal.o
 .debug_ranges  0x0000000000000518       0xa0 build/stm32f1xx_hal_rcc.o
 .debug_ranges  0x00000000000005b8       0x58 build/stm32f1xx_hal_rcc_ex.o
 .debug_ranges  0x0000000000000610       0x48 build/stm32f1xx_hal_gpio.o
 .debug_ranges  0x0000000000000658       0xe0 build/stm32f1xx_hal_cortex.o
 .debug_ranges  0x0000000000000738      0x358 build/stm32f1xx_hal_tim.o
 .debug_ranges  0x0000000000000a90      0x128 build/stm32f1xx_hal_tim_ex.o
 .debug_ranges  0x0000000000000bb8      0x1c0 build/stm32f1xx_hal_uart.o
 .debug_ranges  0x0000000000000d78       0x18 build/system_stm32f1xx.o
 .debug_ranges  0x0000000000000d90       0x38 build/diskio.o
 .debug_ranges  0x0000000000000dc8      0x200 build/ff.o
 .debug_ranges  0x0000000000000fc8       0x30 build/ff_gen_drv.o
 .debug_ranges  0x0000000000000ff8       0x18 build/ccsbcs.o
 .debug_ranges  0x0000000000001010       0x30 build/usbh_diskio.o
 .debug_ranges  0x0000000000001040       0x98 build/usbh_core.o
 .debug_ranges  0x00000000000010d8       0x88 build/usbh_ctlreq.o
 .debug_ranges  0x0000000000001160       0x50 build/usbh_ioreq.o
 .debug_ranges  0x00000000000011b0       0x30 build/usbh_pipes.o
 .debug_ranges  0x00000000000011e0       0x68 build/usbh_msc.o
 .debug_ranges  0x0000000000001248       0x38 build/usbh_msc_bot.o
 .debug_ranges  0x0000000000001280       0x38 build/usbh_msc_scsi.o
 .debug_ranges  0x00000000000012b8      0x130 build/Buffer_Gcode.o
 .debug_ranges  0x00000000000013e8       0x58 build/Descritization_Gcode.o
 .debug_ranges  0x0000000000001440       0x28 build/GcodeConverter_Gcode.o
 .debug_ranges  0x0000000000001468       0x70 build/VirtualPrinters_Gcode.o
 .debug_ranges  0x00000000000014d8       0x10 build/CharacterConverter_LCD.o
 .debug_ranges  0x00000000000014e8       0x68 build/Driver_LCD.o
 .debug_ranges  0x0000000000001550       0xc0 build/GPIOandTIM_LCD.o
 .debug_ranges  0x0000000000001610       0x20 build/Interface_LCD.o
 .debug_ranges  0x0000000000001630       0x78 build/TextConverter_LCD.o
 .debug_ranges  0x00000000000016a8       0xc0 build/Constructor_Menu.o
 .debug_ranges  0x0000000000001768       0x10 build/MainMenu_Menu.o
 .debug_ranges  0x0000000000001778       0xd0 build/FunctionsForButtons.o
 .debug_ranges  0x0000000000001848       0x48 build/Driver_Motors.o
 .debug_ranges  0x0000000000001890       0xc8 build/GPIO_Motors.o
 .debug_ranges  0x0000000000001958       0x20 build/State_USBdrive.o
 .debug_ranges  0x0000000000001978       0x98 build/Driver_USBdrive.o
 .debug_ranges  0x0000000000001a10       0x70 build/coordinates.o
 .debug_ranges  0x0000000000001a80       0x20 build/startup_stm32f105xc.o
 .debug_ranges  0x0000000000001aa0       0x40 /usr/lib/gcc/arm-none-eabi/6.3.1/../../../arm-none-eabi/lib/thumb/v7-m/libc_nano.a(lib_a-nano-mallocr.o)
 .debug_ranges  0x0000000000001ae0       0x10 /usr/lib/gcc/arm-none-eabi/6.3.1/../../../arm-none-eabi/lib/thumb/v7-m/libc_nano.a(lib_a-strcpy.o)
 .debug_ranges  0x0000000000001af0       0xc0 /usr/lib/gcc/arm-none-eabi/6.3.1/../../../arm-none-eabi/lib/thumb/v7-m/libc_nano.a(lib_a-strtod.o)
 .debug_ranges  0x0000000000001bb0       0x30 /usr/lib/gcc/arm-none-eabi/6.3.1/../../../arm-none-eabi/lib/thumb/v7-m/libc_nano.a(lib_a-strtol.o)
 .debug_ranges  0x0000000000001be0       0x70 /usr/lib/gcc/arm-none-eabi/6.3.1/../../../arm-none-eabi/lib/thumb/v7-m/libc_nano.a(lib_a-findfp.o)
 .debug_ranges  0x0000000000001c50       0x38 /usr/lib/gcc/arm-none-eabi/6.3.1/../../../arm-none-eabi/lib/thumb/v7-m/libc_nano.a(lib_a-gdtoa-gethex.o)
 .debug_ranges  0x0000000000001c88       0x20 /usr/lib/gcc/arm-none-eabi/6.3.1/../../../arm-none-eabi/lib/thumb/v7-m/libc_nano.a(lib_a-locale.o)
 .debug_ranges  0x0000000000001ca8       0xf0 /usr/lib/gcc/arm-none-eabi/6.3.1/../../../arm-none-eabi/lib/thumb/v7-m/libc_nano.a(lib_a-mprec.o)
 .debug_ranges  0x0000000000001d98       0x48 /usr/lib/gcc/arm-none-eabi/6.3.1/../../../arm-none-eabi/lib/thumb/v7-m/libc_nano.a(lib_a-nano-svfprintf.o)
 .debug_ranges  0x0000000000001de0       0x20 /usr/lib/gcc/arm-none-eabi/6.3.1/../../../arm-none-eabi/lib/thumb/v7-m/libc_nano.a(lib_a-nano-vfprintf.o)
 .debug_ranges  0x0000000000001e00       0x70 /usr/lib/gcc/arm-none-eabi/6.3.1/../../../arm-none-eabi/lib/thumb/v7-m/libc_nano.a(lib_a-nano-vfprintf_i.o)
 .debug_ranges  0x0000000000001e70       0x10 /usr/lib/gcc/arm-none-eabi/6.3.1/../../../arm-none-eabi/lib/thumb/v7-m/libc_nano.a(lib_a-strlen-stub.o)
 .debug_ranges  0x0000000000001e80      0x110 /usr/lib/gcc/arm-none-eabi/6.3.1/../../../arm-none-eabi/lib/thumb/v7-m/libc_nano.a(lib_a-svfwprintf.o)
 .debug_ranges  0x0000000000001f90       0x18 /usr/lib/gcc/arm-none-eabi/6.3.1/../../../arm-none-eabi/lib/thumb/v7-m/libc_nano.a(lib_a-wbuf.o)
 .debug_ranges  0x0000000000001fa8       0x30 /usr/lib/gcc/arm-none-eabi/6.3.1/../../../arm-none-eabi/lib/thumb/v7-m/libc_nano.a(lib_a-wsetup.o)
 .debug_ranges  0x0000000000001fd8       0x38 /usr/lib/gcc/arm-none-eabi/6.3.1/../../../arm-none-eabi/lib/thumb/v7-m/libc_nano.a(lib_a-btowc.o)
 .debug_ranges  0x0000000000002010       0x20 /usr/lib/gcc/arm-none-eabi/6.3.1/../../../arm-none-eabi/lib/thumb/v7-m/libc_nano.a(lib_a-dtoa.o)
 .debug_ranges  0x0000000000002030       0x50 /usr/lib/gcc/arm-none-eabi/6.3.1/../../../arm-none-eabi/lib/thumb/v7-m/libc_nano.a(lib_a-fflush.o)
 .debug_ranges  0x0000000000002080       0x28 /usr/lib/gcc/arm-none-eabi/6.3.1/../../../arm-none-eabi/lib/thumb/v7-m/libc_nano.a(lib_a-fvwrite.o)
 .debug_ranges  0x00000000000020a8       0xe0 /usr/lib/gcc/arm-none-eabi/6.3.1/../../../arm-none-eabi/lib/thumb/v7-m/libm.a(lib_a-e_pow.o)
 .debug_ranges  0x0000000000002188       0x18 /usr/lib/gcc/arm-none-eabi/6.3.1/../../../arm-none-eabi/lib/thumb/v7-m/libm.a(lib_a-e_sqrt.o)
 .debug_ranges  0x00000000000021a0       0x30 /usr/lib/gcc/arm-none-eabi/6.3.1/../../../arm-none-eabi/lib/thumb/v7-m/libm.a(lib_a-s_rint.o)
 .debug_ranges  0x00000000000021d0       0x30 /usr/lib/gcc/arm-none-eabi/6.3.1/../../../arm-none-eabi/lib/thumb/v7-m/libm.a(lib_a-s_scalbn.o)
 .debug_ranges  0x0000000000002200       0xf0 /usr/lib/gcc/arm-none-eabi/6.3.1/thumb/v7-m/libgcc.a(_udivmoddi4.o)

.debug_line     0x0000000000000000    0x187a9
 .debug_line    0x0000000000000000      0x589 build/main.o
 .debug_line    0x0000000000000589      0x1e5 build/gpio.o
 .debug_line    0x000000000000076e      0x2f2 build/fatfs.o
 .debug_line    0x0000000000000a60      0x30e build/tim.o
 .debug_line    0x0000000000000d6e      0x25b build/usart.o
 .debug_line    0x0000000000000fc9      0x2de build/usb_host.o
 .debug_line    0x00000000000012a7      0x486 build/usbh_conf.o
 .debug_line    0x000000000000172d      0x1c4 build/usbh_platform.o
 .debug_line    0x00000000000018f1      0x3e8 build/stm32f1xx_it.o
 .debug_line    0x0000000000001cd9      0x1ae build/stm32f1xx_hal_msp.o
 .debug_line    0x0000000000001e87      0x5d6 build/stm32f1xx_hal_hcd.o
 .debug_line    0x000000000000245d      0x7a3 build/stm32f1xx_ll_usb.o
 .debug_line    0x0000000000002c00      0x3a0 build/stm32f1xx_hal.o
 .debug_line    0x0000000000002fa0      0x550 build/stm32f1xx_hal_rcc.o
 .debug_line    0x00000000000034f0      0x3d0 build/stm32f1xx_hal_rcc_ex.o
 .debug_line    0x00000000000038c0      0x3a8 build/stm32f1xx_hal_gpio.o
 .debug_line    0x0000000000003c68      0x394 build/stm32f1xx_hal_cortex.o
 .debug_line    0x0000000000003ffc     0x11ff build/stm32f1xx_hal_tim.o
 .debug_line    0x00000000000051fb      0x7aa build/stm32f1xx_hal_tim_ex.o
 .debug_line    0x00000000000059a5      0xb0a build/stm32f1xx_hal_uart.o
 .debug_line    0x00000000000064af      0x1f4 build/system_stm32f1xx.o
 .debug_line    0x00000000000066a3      0x2ec build/diskio.o
 .debug_line    0x000000000000698f     0x14ca build/ff.o
 .debug_line    0x0000000000007e59      0x2f4 build/ff_gen_drv.o
 .debug_line    0x000000000000814d      0x2f1 build/ccsbcs.o
 .debug_line    0x000000000000843e      0x36f build/usbh_diskio.o
 .debug_line    0x00000000000087ad      0x4e2 build/usbh_core.o
 .debug_line    0x0000000000008c8f      0x504 build/usbh_ctlreq.o
 .debug_line    0x0000000000009193      0x2e9 build/usbh_ioreq.o
 .debug_line    0x000000000000947c      0x29f build/usbh_pipes.o
 .debug_line    0x000000000000971b      0x52d build/usbh_msc.o
 .debug_line    0x0000000000009c48      0x459 build/usbh_msc_bot.o
 .debug_line    0x000000000000a0a1      0x392 build/usbh_msc_scsi.o
 .debug_line    0x000000000000a433      0x64e build/Buffer_Gcode.o
 .debug_line    0x000000000000aa81      0x1d9 build/Descritization_Gcode.o
 .debug_line    0x000000000000ac5a      0x303 build/GcodeConverter_Gcode.o
 .debug_line    0x000000000000af5d      0x2cb build/VirtualPrinters_Gcode.o
 .debug_line    0x000000000000b228      0x207 build/CharacterConverter_LCD.o
 .debug_line    0x000000000000b42f      0x32d build/Driver_LCD.o
 .debug_line    0x000000000000b75c      0x390 build/GPIOandTIM_LCD.o
 .debug_line    0x000000000000baec      0x143 build/Interface_LCD.o
 .debug_line    0x000000000000bc2f      0x251 build/TextConverter_LCD.o
 .debug_line    0x000000000000be80      0x2e8 build/Constructor_Menu.o
 .debug_line    0x000000000000c168      0x109 build/MainMenu_Menu.o
 .debug_line    0x000000000000c271      0x71e build/FunctionsForButtons.o
 .debug_line    0x000000000000c98f      0x141 build/Driver_Motors.o
 .debug_line    0x000000000000cad0      0x390 build/GPIO_Motors.o
 .debug_line    0x000000000000ce60       0x7f build/State_USBdrive.o
 .debug_line    0x000000000000cedf      0x68e build/Driver_USBdrive.o
 .debug_line    0x000000000000d56d       0xfc build/coordinates.o
 .debug_line    0x000000000000d669       0x73 build/startup_stm32f105xc.o
 .debug_line    0x000000000000d6dc      0x143 /usr/lib/gcc/arm-none-eabi/6.3.1/../../../arm-none-eabi/lib/thumb/v7-m/libc_nano.a(lib_a-atof.o)
 .debug_line    0x000000000000d81f      0x145 /usr/lib/gcc/arm-none-eabi/6.3.1/../../../arm-none-eabi/lib/thumb/v7-m/libc_nano.a(lib_a-atoi.o)
 .debug_line    0x000000000000d964       0xe9 /usr/lib/gcc/arm-none-eabi/6.3.1/../../../arm-none-eabi/lib/thumb/v7-m/libc_nano.a(lib_a-impure.o)
 .debug_line    0x000000000000da4d      0x154 /usr/lib/gcc/arm-none-eabi/6.3.1/../../../arm-none-eabi/lib/thumb/v7-m/libc_nano.a(lib_a-malloc.o)
 .debug_line    0x000000000000dba1      0x1e2 /usr/lib/gcc/arm-none-eabi/6.3.1/../../../arm-none-eabi/lib/thumb/v7-m/libc_nano.a(lib_a-memset.o)
 .debug_line    0x000000000000dd83      0x1a9 /usr/lib/gcc/arm-none-eabi/6.3.1/../../../arm-none-eabi/lib/thumb/v7-m/libc_nano.a(lib_a-nano-freer.o)
 .debug_line    0x000000000000df2c      0x1c0 /usr/lib/gcc/arm-none-eabi/6.3.1/../../../arm-none-eabi/lib/thumb/v7-m/libc_nano.a(lib_a-nano-mallocr.o)
 .debug_line    0x000000000000e0ec      0x1ab /usr/lib/gcc/arm-none-eabi/6.3.1/../../../arm-none-eabi/lib/thumb/v7-m/libc_nano.a(lib_a-printf.o)
 .debug_line    0x000000000000e297      0x15a /usr/lib/gcc/arm-none-eabi/6.3.1/../../../arm-none-eabi/lib/thumb/v7-m/libc_nano.a(lib_a-sbrkr.o)
 .debug_line    0x000000000000e3f1      0x1a1 /usr/lib/gcc/arm-none-eabi/6.3.1/../../../arm-none-eabi/lib/thumb/v7-m/libc_nano.a(lib_a-sprintf.o)
 .debug_line    0x000000000000e592      0x179 /usr/lib/gcc/arm-none-eabi/6.3.1/../../../arm-none-eabi/lib/thumb/v7-m/libc_nano.a(lib_a-strchr.o)
 .debug_line    0x000000000000e70b      0x14d /usr/lib/gcc/arm-none-eabi/6.3.1/../../../arm-none-eabi/lib/thumb/v7-m/libc_nano.a(lib_a-strcpy.o)
 .debug_line    0x000000000000e858      0x711 /usr/lib/gcc/arm-none-eabi/6.3.1/../../../arm-none-eabi/lib/thumb/v7-m/libc_nano.a(lib_a-strtod.o)
 .debug_line    0x000000000000ef69      0x23f /usr/lib/gcc/arm-none-eabi/6.3.1/../../../arm-none-eabi/lib/thumb/v7-m/libc_nano.a(lib_a-strtol.o)
 .debug_line    0x000000000000f1a8      0x279 /usr/lib/gcc/arm-none-eabi/6.3.1/../../../arm-none-eabi/lib/thumb/v7-m/libc_nano.a(lib_a-swprintf.o)
 .debug_line    0x000000000000f421      0x14b /usr/lib/gcc/arm-none-eabi/6.3.1/../../../arm-none-eabi/lib/thumb/v7-m/libc_nano.a(lib_a-wcscpy.o)
 .debug_line    0x000000000000f56c      0x145 /usr/lib/gcc/arm-none-eabi/6.3.1/../../../arm-none-eabi/lib/thumb/v7-m/libc_nano.a(lib_a-wcslen.o)
 .debug_line    0x000000000000f6b1      0x15d /usr/lib/gcc/arm-none-eabi/6.3.1/../../../arm-none-eabi/lib/thumb/v7-m/libc_nano.a(lib_a-wcsstr.o)
 .debug_line    0x000000000000f80e      0x152 /usr/lib/gcc/arm-none-eabi/6.3.1/../../../arm-none-eabi/lib/thumb/v7-m/libc_nano.a(lib_a-wmemcpy.o)
 .debug_line    0x000000000000f960      0x282 /usr/lib/gcc/arm-none-eabi/6.3.1/../../../arm-none-eabi/lib/thumb/v7-m/libc_nano.a(lib_a-findfp.o)
 .debug_line    0x000000000000fbe2      0x1ba /usr/lib/gcc/arm-none-eabi/6.3.1/../../../arm-none-eabi/lib/thumb/v7-m/libc_nano.a(lib_a-fwalk.o)
 .debug_line    0x000000000000fd9c      0x3f1 /usr/lib/gcc/arm-none-eabi/6.3.1/../../../arm-none-eabi/lib/thumb/v7-m/libc_nano.a(lib_a-gdtoa-gethex.o)
 .debug_line    0x000000000001018d      0x271 /usr/lib/gcc/arm-none-eabi/6.3.1/../../../arm-none-eabi/lib/thumb/v7-m/libc_nano.a(lib_a-gdtoa-hexnan.o)
 .debug_line    0x00000000000103fe      0x209 /usr/lib/gcc/arm-none-eabi/6.3.1/../../../arm-none-eabi/lib/thumb/v7-m/libc_nano.a(lib_a-locale.o)
 .debug_line    0x0000000000010607      0x189 /usr/lib/gcc/arm-none-eabi/6.3.1/../../../arm-none-eabi/lib/thumb/v7-m/libc_nano.a(lib_a-localeconv.o)
 .debug_line    0x0000000000010790      0x1d8 /usr/lib/gcc/arm-none-eabi/6.3.1/../../../arm-none-eabi/lib/thumb/v7-m/libc_nano.a(lib_a-mbtowc_r.o)
 .debug_line    0x0000000000010968       0xbe /usr/lib/gcc/arm-none-eabi/6.3.1/../../../arm-none-eabi/lib/thumb/v7-m/libc_nano.a(lib_a-memcpy.o)
 .debug_line    0x0000000000010a26      0x144 /usr/lib/gcc/arm-none-eabi/6.3.1/../../../arm-none-eabi/lib/thumb/v7-m/libc_nano.a(lib_a-mlock.o)
 .debug_line    0x0000000000010b6a      0x625 /usr/lib/gcc/arm-none-eabi/6.3.1/../../../arm-none-eabi/lib/thumb/v7-m/libc_nano.a(lib_a-mprec.o)
 .debug_line    0x000000000001118f      0x16c /usr/lib/gcc/arm-none-eabi/6.3.1/../../../arm-none-eabi/lib/thumb/v7-m/libc_nano.a(lib_a-nano-callocr.o)
 .debug_line    0x00000000000112fb      0x3e4 /usr/lib/gcc/arm-none-eabi/6.3.1/../../../arm-none-eabi/lib/thumb/v7-m/libc_nano.a(lib_a-nano-svfprintf.o)
 .debug_line    0x00000000000116df      0x3b9 /usr/lib/gcc/arm-none-eabi/6.3.1/../../../arm-none-eabi/lib/thumb/v7-m/libc_nano.a(lib_a-nano-vfprintf.o)
 .debug_line    0x0000000000011a98      0x3e4 /usr/lib/gcc/arm-none-eabi/6.3.1/../../../arm-none-eabi/lib/thumb/v7-m/libc_nano.a(lib_a-nano-vfprintf_i.o)
 .debug_line    0x0000000000011e7c      0x181 /usr/lib/gcc/arm-none-eabi/6.3.1/../../../arm-none-eabi/lib/thumb/v7-m/libc_nano.a(lib_a-reent.o)
 .debug_line    0x0000000000011ffd      0x143 /usr/lib/gcc/arm-none-eabi/6.3.1/../../../arm-none-eabi/lib/thumb/v7-m/libc_nano.a(lib_a-sf_nan.o)
 .debug_line    0x0000000000012140      0x1b0 /usr/lib/gcc/arm-none-eabi/6.3.1/../../../arm-none-eabi/lib/thumb/v7-m/libc_nano.a(lib_a-stdio.o)
 .debug_line    0x00000000000122f0      0x103 /usr/lib/gcc/arm-none-eabi/6.3.1/../../../arm-none-eabi/lib/thumb/v7-m/libc_nano.a(lib_a-strcmp.o)
 .debug_line    0x00000000000123f3      0x152 /usr/lib/gcc/arm-none-eabi/6.3.1/../../../arm-none-eabi/lib/thumb/v7-m/libc_nano.a(lib_a-strlen-stub.o)
 .debug_line    0x0000000000012545      0x1a1 /usr/lib/gcc/arm-none-eabi/6.3.1/../../../arm-none-eabi/lib/thumb/v7-m/libc_nano.a(lib_a-strncmp.o)
 .debug_line    0x00000000000126e6      0x7ac /usr/lib/gcc/arm-none-eabi/6.3.1/../../../arm-none-eabi/lib/thumb/v7-m/libc_nano.a(lib_a-svfwprintf.o)
 .debug_line    0x0000000000012e92      0x1e4 /usr/lib/gcc/arm-none-eabi/6.3.1/../../../arm-none-eabi/lib/thumb/v7-m/libc_nano.a(lib_a-wbuf.o)
 .debug_line    0x0000000000013076      0x1ce /usr/lib/gcc/arm-none-eabi/6.3.1/../../../arm-none-eabi/lib/thumb/v7-m/libc_nano.a(lib_a-wctomb_r.o)
 .debug_line    0x0000000000013244      0x160 /usr/lib/gcc/arm-none-eabi/6.3.1/../../../arm-none-eabi/lib/thumb/v7-m/libc_nano.a(lib_a-wmemchr.o)
 .debug_line    0x00000000000133a4      0x15d /usr/lib/gcc/arm-none-eabi/6.3.1/../../../arm-none-eabi/lib/thumb/v7-m/libc_nano.a(lib_a-writer.o)
 .debug_line    0x0000000000013501      0x1e6 /usr/lib/gcc/arm-none-eabi/6.3.1/../../../arm-none-eabi/lib/thumb/v7-m/libc_nano.a(lib_a-wsetup.o)
 .debug_line    0x00000000000136e7      0x1ec /usr/lib/gcc/arm-none-eabi/6.3.1/../../../arm-none-eabi/lib/thumb/v7-m/libc_nano.a(lib_a-btowc.o)
 .debug_line    0x00000000000138d3      0x15b /usr/lib/gcc/arm-none-eabi/6.3.1/../../../arm-none-eabi/lib/thumb/v7-m/libc_nano.a(lib_a-closer.o)
 .debug_line    0x0000000000013a2e      0x163 /usr/lib/gcc/arm-none-eabi/6.3.1/../../../arm-none-eabi/lib/thumb/v7-m/libc_nano.a(lib_a-ctype_.o)
 .debug_line    0x0000000000013b91      0x70a /usr/lib/gcc/arm-none-eabi/6.3.1/../../../arm-none-eabi/lib/thumb/v7-m/libc_nano.a(lib_a-dtoa.o)
 .debug_line    0x000000000001429b      0x255 /usr/lib/gcc/arm-none-eabi/6.3.1/../../../arm-none-eabi/lib/thumb/v7-m/libc_nano.a(lib_a-fflush.o)
 .debug_line    0x00000000000144f0      0x2ca /usr/lib/gcc/arm-none-eabi/6.3.1/../../../arm-none-eabi/lib/thumb/v7-m/libc_nano.a(lib_a-fvwrite.o)
 .debug_line    0x00000000000147ba      0x15d /usr/lib/gcc/arm-none-eabi/6.3.1/../../../arm-none-eabi/lib/thumb/v7-m/libc_nano.a(lib_a-lseekr.o)
 .debug_line    0x0000000000014917      0x270 /usr/lib/gcc/arm-none-eabi/6.3.1/../../../arm-none-eabi/lib/thumb/v7-m/libc_nano.a(lib_a-makebuf.o)
 .debug_line    0x0000000000014b87      0x188 /usr/lib/gcc/arm-none-eabi/6.3.1/../../../arm-none-eabi/lib/thumb/v7-m/libc_nano.a(lib_a-memchr-stub.o)
 .debug_line    0x0000000000014d0f      0x1f1 /usr/lib/gcc/arm-none-eabi/6.3.1/../../../arm-none-eabi/lib/thumb/v7-m/libc_nano.a(lib_a-memmove.o)
 .debug_line    0x0000000000014f00      0x179 /usr/lib/gcc/arm-none-eabi/6.3.1/../../../arm-none-eabi/lib/thumb/v7-m/libc_nano.a(lib_a-nano-reallocr.o)
 .debug_line    0x0000000000015079      0x15c /usr/lib/gcc/arm-none-eabi/6.3.1/../../../arm-none-eabi/lib/thumb/v7-m/libc_nano.a(lib_a-readr.o)
 .debug_line    0x00000000000151d5      0x1e4 /usr/lib/gcc/arm-none-eabi/6.3.1/../../../arm-none-eabi/lib/thumb/v7-m/libc_nano.a(lib_a-fstatr.o)
 .debug_line    0x00000000000153b9      0x15c /usr/lib/gcc/arm-none-eabi/6.3.1/../../../arm-none-eabi/lib/thumb/v7-m/libc_nano.a(lib_a-isattyr.o)
 .debug_line    0x0000000000015515      0x15a /usr/lib/gcc/arm-none-eabi/6.3.1/../../../arm-none-eabi/lib/thumb/v7-m/libc_nano.a(lib_a-nano-msizer.o)
 .debug_line    0x000000000001566f      0x1ca /usr/lib/gcc/arm-none-eabi/6.3.1/../../../arm-none-eabi/lib/thumb/v7-m/libm.a(lib_a-sf_lround.o)
 .debug_line    0x0000000000015839      0x24e /usr/lib/gcc/arm-none-eabi/6.3.1/../../../arm-none-eabi/lib/thumb/v7-m/libm.a(lib_a-w_pow.o)
 .debug_line    0x0000000000015a87      0x1ae /usr/lib/gcc/arm-none-eabi/6.3.1/../../../arm-none-eabi/lib/thumb/v7-m/libm.a(lib_a-w_sqrt.o)
 .debug_line    0x0000000000015c35      0x1b1 /usr/lib/gcc/arm-none-eabi/6.3.1/../../../arm-none-eabi/lib/thumb/v7-m/libm.a(lib_a-wf_sqrt.o)
 .debug_line    0x0000000000015de6      0x391 /usr/lib/gcc/arm-none-eabi/6.3.1/../../../arm-none-eabi/lib/thumb/v7-m/libm.a(lib_a-e_pow.o)
 .debug_line    0x0000000000016177      0x2af /usr/lib/gcc/arm-none-eabi/6.3.1/../../../arm-none-eabi/lib/thumb/v7-m/libm.a(lib_a-e_sqrt.o)
 .debug_line    0x0000000000016426      0x259 /usr/lib/gcc/arm-none-eabi/6.3.1/../../../arm-none-eabi/lib/thumb/v7-m/libm.a(lib_a-ef_sqrt.o)
 .debug_line    0x000000000001667f      0x1d9 /usr/lib/gcc/arm-none-eabi/6.3.1/../../../arm-none-eabi/lib/thumb/v7-m/libm.a(lib_a-s_fabs.o)
 .debug_line    0x0000000000016858      0x1ad /usr/lib/gcc/arm-none-eabi/6.3.1/../../../arm-none-eabi/lib/thumb/v7-m/libm.a(lib_a-s_finite.o)
 .debug_line    0x0000000000016a05      0x136 /usr/lib/gcc/arm-none-eabi/6.3.1/../../../arm-none-eabi/lib/thumb/v7-m/libm.a(lib_a-s_lib_ver.o)
 .debug_line    0x0000000000016b3b      0x147 /usr/lib/gcc/arm-none-eabi/6.3.1/../../../arm-none-eabi/lib/thumb/v7-m/libm.a(lib_a-s_matherr.o)
 .debug_line    0x0000000000016c82      0x144 /usr/lib/gcc/arm-none-eabi/6.3.1/../../../arm-none-eabi/lib/thumb/v7-m/libm.a(lib_a-s_nan.o)
 .debug_line    0x0000000000016dc6      0x200 /usr/lib/gcc/arm-none-eabi/6.3.1/../../../arm-none-eabi/lib/thumb/v7-m/libm.a(lib_a-s_rint.o)
 .debug_line    0x0000000000016fc6      0x1e3 /usr/lib/gcc/arm-none-eabi/6.3.1/../../../arm-none-eabi/lib/thumb/v7-m/libm.a(lib_a-s_scalbn.o)
 .debug_line    0x00000000000171a9      0x103 /usr/lib/gcc/arm-none-eabi/6.3.1/../../../arm-none-eabi/lib/thumb/v7-m/libnosys.a(close.o)
 .debug_line    0x00000000000172ac      0x1ca /usr/lib/gcc/arm-none-eabi/6.3.1/../../../arm-none-eabi/lib/thumb/v7-m/libnosys.a(fstat.o)
 .debug_line    0x0000000000017476      0x104 /usr/lib/gcc/arm-none-eabi/6.3.1/../../../arm-none-eabi/lib/thumb/v7-m/libnosys.a(isatty.o)
 .debug_line    0x000000000001757a      0x103 /usr/lib/gcc/arm-none-eabi/6.3.1/../../../arm-none-eabi/lib/thumb/v7-m/libnosys.a(lseek.o)
 .debug_line    0x000000000001767d      0x102 /usr/lib/gcc/arm-none-eabi/6.3.1/../../../arm-none-eabi/lib/thumb/v7-m/libnosys.a(read.o)
 .debug_line    0x000000000001777f       0x5b /usr/lib/gcc/arm-none-eabi/6.3.1/../../../arm-none-eabi/lib/thumb/v7-m/libnosys.a(sbrk.o)
 .debug_line    0x00000000000177da      0x183 /usr/lib/gcc/arm-none-eabi/6.3.1/thumb/v7-m/libgcc.a(_arm_addsubdf3.o)
 .debug_line    0x000000000001795d      0x19f /usr/lib/gcc/arm-none-eabi/6.3.1/thumb/v7-m/libgcc.a(_arm_muldivdf3.o)
 .debug_line    0x0000000000017afc       0xbe /usr/lib/gcc/arm-none-eabi/6.3.1/thumb/v7-m/libgcc.a(_arm_cmpdf2.o)
 .debug_line    0x0000000000017bba       0x6f /usr/lib/gcc/arm-none-eabi/6.3.1/thumb/v7-m/libgcc.a(_arm_unorddf2.o)
 .debug_line    0x0000000000017c29       0x7a /usr/lib/gcc/arm-none-eabi/6.3.1/thumb/v7-m/libgcc.a(_arm_fixdfsi.o)
 .debug_line    0x0000000000017ca3       0x76 /usr/lib/gcc/arm-none-eabi/6.3.1/thumb/v7-m/libgcc.a(_arm_fixunsdfsi.o)
 .debug_line    0x0000000000017d19       0x8e /usr/lib/gcc/arm-none-eabi/6.3.1/thumb/v7-m/libgcc.a(_arm_truncdfsf2.o)
 .debug_line    0x0000000000017da7      0x11a /usr/lib/gcc/arm-none-eabi/6.3.1/thumb/v7-m/libgcc.a(_arm_addsubsf3.o)
 .debug_line    0x0000000000017ec1      0x13d /usr/lib/gcc/arm-none-eabi/6.3.1/thumb/v7-m/libgcc.a(_arm_muldivsf3.o)
 .debug_line    0x0000000000017ffe       0xb2 /usr/lib/gcc/arm-none-eabi/6.3.1/thumb/v7-m/libgcc.a(_arm_cmpsf2.o)
 .debug_line    0x00000000000180b0       0x6f /usr/lib/gcc/arm-none-eabi/6.3.1/thumb/v7-m/libgcc.a(_arm_unordsf2.o)
 .debug_line    0x000000000001811f       0x7a /usr/lib/gcc/arm-none-eabi/6.3.1/thumb/v7-m/libgcc.a(_arm_fixsfsi.o)
 .debug_line    0x0000000000018199       0x61 /usr/lib/gcc/arm-none-eabi/6.3.1/thumb/v7-m/libgcc.a(_aeabi_uldivmod.o)
 .debug_line    0x00000000000181fa      0x104 /usr/lib/gcc/arm-none-eabi/6.3.1/thumb/v7-m/libgcc.a(_fixdfdi.o)
 .debug_line    0x00000000000182fe      0x102 /usr/lib/gcc/arm-none-eabi/6.3.1/thumb/v7-m/libgcc.a(_fixunsdfdi.o)
 .debug_line    0x0000000000018400      0x244 /usr/lib/gcc/arm-none-eabi/6.3.1/thumb/v7-m/libgcc.a(_udivmoddi4.o)
 .debug_line    0x0000000000018644       0x61 /usr/lib/gcc/arm-none-eabi/6.3.1/thumb/v7-m/libgcc.a(_dvmd_tls.o)
 .debug_line    0x00000000000186a5      0x104 /usr/lib/gcc/arm-none-eabi/6.3.1/../../../arm-none-eabi/lib/thumb/v7-m/libc_nano.a(lib_a-errno.o)

.debug_str      0x0000000000000000     0xb2f1
 .debug_str     0x0000000000000000     0x1da8 build/main.o
                                       0x1fdd (size before relaxing)
 .debug_str     0x0000000000001da8       0x93 build/gpio.o
                                        0x71a (size before relaxing)
 .debug_str     0x0000000000001e3b       0x29 build/fatfs.o
                                        0xf99 (size before relaxing)
 .debug_str     0x0000000000001e64      0x15d build/tim.o
                                        0xfc1 (size before relaxing)
 .debug_str     0x0000000000001fc1       0x87 build/usart.o
                                        0xb17 (size before relaxing)
 .debug_str     0x0000000000002048      0x118 build/usb_host.o
                                        0xf5c (size before relaxing)
 .debug_str     0x0000000000002160      0x744 build/usbh_conf.o
                                       0x1a90 (size before relaxing)
 .debug_str     0x00000000000028a4       0x22 build/usbh_platform.o
                                        0x6ac (size before relaxing)
 .debug_str     0x00000000000028c6      0x1e6 build/stm32f1xx_it.o
                                       0x128b (size before relaxing)
 .debug_str     0x0000000000002aac       0x24 build/stm32f1xx_hal_msp.o
                                        0x6bc (size before relaxing)
 .debug_str     0x0000000000002ad0      0x29c build/stm32f1xx_hal_hcd.o
                                        0xe81 (size before relaxing)
 .debug_str     0x0000000000002d6c      0x47b build/stm32f1xx_ll_usb.o
                                        0xfa0 (size before relaxing)
 .debug_str     0x00000000000031e7      0x24c build/stm32f1xx_hal.o
                                        0xce7 (size before relaxing)
 .debug_str     0x0000000000003433      0x1f8 build/stm32f1xx_hal_rcc.o
                                        0xaec (size before relaxing)
 .debug_str     0x000000000000362b      0x11c build/stm32f1xx_hal_rcc_ex.o
                                        0x98e (size before relaxing)
 .debug_str     0x0000000000003747       0xfa build/stm32f1xx_hal_gpio.o
                                        0x8a8 (size before relaxing)
 .debug_str     0x0000000000003841      0x2a7 build/stm32f1xx_hal_cortex.o
                                        0xe01 (size before relaxing)
 .debug_str     0x0000000000003ae8      0xc91 build/stm32f1xx_hal_tim.o
                                       0x17c9 (size before relaxing)
 .debug_str     0x0000000000004779      0x47e build/stm32f1xx_hal_tim_ex.o
                                       0x106b (size before relaxing)
 .debug_str     0x0000000000004bf7      0x505 build/stm32f1xx_hal_uart.o
                                        0xfe2 (size before relaxing)
 .debug_str     0x00000000000050fc       0x7d build/system_stm32f1xx.o
                                        0x73e (size before relaxing)
 .debug_str     0x0000000000005179       0x5b build/diskio.o
                                        0xedc (size before relaxing)
 .debug_str     0x00000000000051d4      0x4ff build/ff.o
                                       0x148b (size before relaxing)
 .debug_str     0x00000000000056d3       0x8e build/ff_gen_drv.o
                                        0xf32 (size before relaxing)
 .debug_str     0x0000000000005761       0x46 build/ccsbcs.o
                                        0xe33 (size before relaxing)
 .debug_str     0x00000000000057a7      0x28a build/usbh_diskio.o
                                       0x1137 (size before relaxing)
 .debug_str     0x0000000000005a31      0x1a7 build/usbh_core.o
                                       0x10d0 (size before relaxing)
 .debug_str     0x0000000000005bd8      0x1fa build/usbh_ctlreq.o
                                       0x10ea (size before relaxing)
 .debug_str     0x0000000000005dd2       0xbb build/usbh_ioreq.o
                                        0xf1f (size before relaxing)
 .debug_str     0x0000000000005e8d       0x64 build/usbh_pipes.o
                                        0xeb5 (size before relaxing)
 .debug_str     0x0000000000005ef1      0x42f build/usbh_msc.o
                                       0x151f (size before relaxing)
 .debug_str     0x0000000000006320       0xf6 build/usbh_msc_bot.o
                                       0x1489 (size before relaxing)
 .debug_str     0x0000000000006416       0x4f build/usbh_msc_scsi.o
                                       0x1356 (size before relaxing)
 .debug_str     0x0000000000006465      0x7ca build/Buffer_Gcode.o
                                        0xf36 (size before relaxing)
 .debug_str     0x0000000000006c2f      0x122 build/Descritization_Gcode.o
                                        0x833 (size before relaxing)
 .debug_str     0x0000000000006d51       0xff build/GcodeConverter_Gcode.o
                                        0x7d1 (size before relaxing)
 .debug_str     0x0000000000006e50      0x168 build/VirtualPrinters_Gcode.o
                                        0x8f9 (size before relaxing)
 .debug_str     0x0000000000006fb8       0x63 build/CharacterConverter_LCD.o
                                        0x59d (size before relaxing)
 .debug_str     0x000000000000701b      0x281 build/Driver_LCD.o
                                        0x358 (size before relaxing)
 .debug_str     0x000000000000729c       0x25 build/GPIOandTIM_LCD.o
                                        0xb89 (size before relaxing)
 .debug_str     0x00000000000072c1       0x90 build/Interface_LCD.o
                                        0x691 (size before relaxing)
 .debug_str     0x0000000000007351      0x1a7 build/TextConverter_LCD.o
                                        0x7e2 (size before relaxing)
 .debug_str     0x00000000000074f8      0x221 build/Constructor_Menu.o
                                        0x7db (size before relaxing)
 .debug_str     0x0000000000007719       0x19 build/MainMenu_Menu.o
                                        0x612 (size before relaxing)
 .debug_str     0x0000000000007732      0x319 build/FunctionsForButtons.o
                                       0x172c (size before relaxing)
 .debug_str     0x0000000000007a4b      0x1fb build/Driver_Motors.o
                                        0x322 (size before relaxing)
 .debug_str     0x0000000000007c46       0xe1 build/GPIO_Motors.o
                                        0xc56 (size before relaxing)
 .debug_str     0x0000000000007d27       0x32 build/State_USBdrive.o
                                        0x15b (size before relaxing)
 .debug_str     0x0000000000007d59      0x18e build/Driver_USBdrive.o
                                       0x145b (size before relaxing)
 .debug_str     0x0000000000007ee7       0x12 build/coordinates.o
                                        0x1b4 (size before relaxing)
 .debug_str     0x0000000000007ef9      0x1ae /usr/lib/gcc/arm-none-eabi/6.3.1/../../../arm-none-eabi/lib/thumb/v7-m/libc_nano.a(lib_a-atof.o)
                                        0x5ea (size before relaxing)
 .debug_str     0x00000000000080a7       0x48 /usr/lib/gcc/arm-none-eabi/6.3.1/../../../arm-none-eabi/lib/thumb/v7-m/libc_nano.a(lib_a-atoi.o)
                                        0x5f5 (size before relaxing)
 .debug_str     0x00000000000080ef       0x9d /usr/lib/gcc/arm-none-eabi/6.3.1/../../../arm-none-eabi/lib/thumb/v7-m/libc_nano.a(lib_a-impure.o)
                                        0x5d9 (size before relaxing)
 .debug_str     0x000000000000818c       0x4f /usr/lib/gcc/arm-none-eabi/6.3.1/../../../arm-none-eabi/lib/thumb/v7-m/libc_nano.a(lib_a-malloc.o)
                                        0x60a (size before relaxing)
 .debug_str     0x00000000000081db      0x2e0 /usr/lib/gcc/arm-none-eabi/6.3.1/../../../arm-none-eabi/lib/thumb/v7-m/libc_nano.a(lib_a-memset.o)
                                        0x906 (size before relaxing)
 .debug_str     0x00000000000084bb      0x134 /usr/lib/gcc/arm-none-eabi/6.3.1/../../../arm-none-eabi/lib/thumb/v7-m/libc_nano.a(lib_a-nano-freer.o)
                                        0x709 (size before relaxing)
 .debug_str     0x00000000000085ef       0x32 /usr/lib/gcc/arm-none-eabi/6.3.1/../../../arm-none-eabi/lib/thumb/v7-m/libc_nano.a(lib_a-nano-mallocr.o)
                                        0x720 (size before relaxing)
 .debug_str     0x0000000000008621      0x19e /usr/lib/gcc/arm-none-eabi/6.3.1/../../../arm-none-eabi/lib/thumb/v7-m/libc_nano.a(lib_a-printf.o)
                                        0x753 (size before relaxing)
 .debug_str     0x00000000000087bf       0x44 /usr/lib/gcc/arm-none-eabi/6.3.1/../../../arm-none-eabi/lib/thumb/v7-m/libc_nano.a(lib_a-sbrkr.o)
                                        0x61c (size before relaxing)
 .debug_str     0x0000000000008803       0x49 /usr/lib/gcc/arm-none-eabi/6.3.1/../../../arm-none-eabi/lib/thumb/v7-m/libc_nano.a(lib_a-sprintf.o)
                                        0x754 (size before relaxing)
 .debug_str     0x000000000000884c       0x31 /usr/lib/gcc/arm-none-eabi/6.3.1/../../../arm-none-eabi/lib/thumb/v7-m/libc_nano.a(lib_a-strchr.o)
                                        0x5e8 (size before relaxing)
 .debug_str     0x000000000000887d       0xa0 /usr/lib/gcc/arm-none-eabi/6.3.1/../../../arm-none-eabi/lib/thumb/v7-m/libc_nano.a(lib_a-strcpy.o)
                                        0x5e3 (size before relaxing)
 .debug_str     0x000000000000891d      0x2f8 /usr/lib/gcc/arm-none-eabi/6.3.1/../../../arm-none-eabi/lib/thumb/v7-m/libc_nano.a(lib_a-strtod.o)
                                        0xc84 (size before relaxing)
 .debug_str     0x0000000000008c15       0x77 /usr/lib/gcc/arm-none-eabi/6.3.1/../../../arm-none-eabi/lib/thumb/v7-m/libc_nano.a(lib_a-strtol.o)
                                        0x9a9 (size before relaxing)
 .debug_str     0x0000000000008c8c       0x4c /usr/lib/gcc/arm-none-eabi/6.3.1/../../../arm-none-eabi/lib/thumb/v7-m/libc_nano.a(lib_a-swprintf.o)
                                        0x783 (size before relaxing)
 .debug_str     0x0000000000008cd8       0x31 /usr/lib/gcc/arm-none-eabi/6.3.1/../../../arm-none-eabi/lib/thumb/v7-m/libc_nano.a(lib_a-wcscpy.o)
                                        0x5de (size before relaxing)
 .debug_str     0x0000000000008d09       0x31 /usr/lib/gcc/arm-none-eabi/6.3.1/../../../arm-none-eabi/lib/thumb/v7-m/libc_nano.a(lib_a-wcslen.o)
                                        0x5e5 (size before relaxing)
 .debug_str     0x0000000000008d3a       0x38 /usr/lib/gcc/arm-none-eabi/6.3.1/../../../arm-none-eabi/lib/thumb/v7-m/libc_nano.a(lib_a-wcsstr.o)
                                        0x5ec (size before relaxing)
 .debug_str     0x0000000000008d72       0x32 /usr/lib/gcc/arm-none-eabi/6.3.1/../../../arm-none-eabi/lib/thumb/v7-m/libc_nano.a(lib_a-wmemcpy.o)
                                        0x5ee (size before relaxing)
 .debug_str     0x0000000000008da4      0x175 /usr/lib/gcc/arm-none-eabi/6.3.1/../../../arm-none-eabi/lib/thumb/v7-m/libc_nano.a(lib_a-findfp.o)
                                        0x89b (size before relaxing)
 .debug_str     0x0000000000008f19       0x3e /usr/lib/gcc/arm-none-eabi/6.3.1/../../../arm-none-eabi/lib/thumb/v7-m/libc_nano.a(lib_a-fwalk.o)
                                        0x74f (size before relaxing)
 .debug_str     0x0000000000008f57       0xd9 /usr/lib/gcc/arm-none-eabi/6.3.1/../../../arm-none-eabi/lib/thumb/v7-m/libc_nano.a(lib_a-gdtoa-gethex.o)
                                        0xbb1 (size before relaxing)
 .debug_str     0x0000000000009030       0x3f /usr/lib/gcc/arm-none-eabi/6.3.1/../../../arm-none-eabi/lib/thumb/v7-m/libc_nano.a(lib_a-gdtoa-hexnan.o)
                                        0xabc (size before relaxing)
 .debug_str     0x000000000000906f      0x107 /usr/lib/gcc/arm-none-eabi/6.3.1/../../../arm-none-eabi/lib/thumb/v7-m/libc_nano.a(lib_a-locale.o)
                                        0x9d3 (size before relaxing)
 .debug_str     0x0000000000009176       0x5d /usr/lib/gcc/arm-none-eabi/6.3.1/../../../arm-none-eabi/lib/thumb/v7-m/libc_nano.a(lib_a-localeconv.o)
                                        0x96b (size before relaxing)
 .debug_str     0x00000000000091d3       0x52 /usr/lib/gcc/arm-none-eabi/6.3.1/../../../arm-none-eabi/lib/thumb/v7-m/libc_nano.a(lib_a-mbtowc_r.o)
                                        0x97c (size before relaxing)
 .debug_str     0x0000000000009225       0x49 /usr/lib/gcc/arm-none-eabi/6.3.1/../../../arm-none-eabi/lib/thumb/v7-m/libc_nano.a(lib_a-mlock.o)
                                        0x605 (size before relaxing)
 .debug_str     0x000000000000926e       0x86 /usr/lib/gcc/arm-none-eabi/6.3.1/../../../arm-none-eabi/lib/thumb/v7-m/libc_nano.a(lib_a-mprec.o)
                                        0xa8f (size before relaxing)
 .debug_str     0x00000000000092f4        0x5 /usr/lib/gcc/arm-none-eabi/6.3.1/../../../arm-none-eabi/lib/thumb/v7-m/libc_nano.a(lib_a-nano-callocr.o)
                                        0x6df (size before relaxing)
 .debug_str     0x00000000000092f9      0x11e /usr/lib/gcc/arm-none-eabi/6.3.1/../../../arm-none-eabi/lib/thumb/v7-m/libc_nano.a(lib_a-nano-svfprintf.o)
                                        0xc29 (size before relaxing)
 .debug_str     0x0000000000009417       0x5d /usr/lib/gcc/arm-none-eabi/6.3.1/../../../arm-none-eabi/lib/thumb/v7-m/libc_nano.a(lib_a-nano-vfprintf.o)
                                        0xc42 (size before relaxing)
 .debug_str     0x0000000000009474       0x8a /usr/lib/gcc/arm-none-eabi/6.3.1/../../../arm-none-eabi/lib/thumb/v7-m/libc_nano.a(lib_a-nano-vfprintf_i.o)
                                        0xbc0 (size before relaxing)
 .debug_str     0x00000000000094fe       0x5b /usr/lib/gcc/arm-none-eabi/6.3.1/../../../arm-none-eabi/lib/thumb/v7-m/libc_nano.a(lib_a-reent.o)
                                        0x615 (size before relaxing)
 .debug_str     0x0000000000009559      0x12b /usr/lib/gcc/arm-none-eabi/6.3.1/../../../arm-none-eabi/lib/thumb/v7-m/libc_nano.a(lib_a-sf_nan.o)
                                        0x650 (size before relaxing)
 .debug_str     0x0000000000009684       0x8f /usr/lib/gcc/arm-none-eabi/6.3.1/../../../arm-none-eabi/lib/thumb/v7-m/libc_nano.a(lib_a-stdio.o)
                                        0x7a3 (size before relaxing)
 .debug_str     0x0000000000009713       0x3e /usr/lib/gcc/arm-none-eabi/6.3.1/../../../arm-none-eabi/lib/thumb/v7-m/libc_nano.a(lib_a-strlen-stub.o)
                                        0x5ef (size before relaxing)
 .debug_str     0x0000000000009751       0x32 /usr/lib/gcc/arm-none-eabi/6.3.1/../../../arm-none-eabi/lib/thumb/v7-m/libc_nano.a(lib_a-strncmp.o)
                                        0x5df (size before relaxing)
 .debug_str     0x0000000000009783       0xde /usr/lib/gcc/arm-none-eabi/6.3.1/../../../arm-none-eabi/lib/thumb/v7-m/libc_nano.a(lib_a-svfwprintf.o)
                                        0x993 (size before relaxing)
 .debug_str     0x0000000000009861       0x40 /usr/lib/gcc/arm-none-eabi/6.3.1/../../../arm-none-eabi/lib/thumb/v7-m/libc_nano.a(lib_a-wbuf.o)
                                        0x762 (size before relaxing)
 .debug_str     0x00000000000098a1       0x53 /usr/lib/gcc/arm-none-eabi/6.3.1/../../../arm-none-eabi/lib/thumb/v7-m/libc_nano.a(lib_a-wctomb_r.o)
                                        0x983 (size before relaxing)
 .debug_str     0x00000000000098f4       0x32 /usr/lib/gcc/arm-none-eabi/6.3.1/../../../arm-none-eabi/lib/thumb/v7-m/libc_nano.a(lib_a-wmemchr.o)
                                        0x5e7 (size before relaxing)
 .debug_str     0x0000000000009926       0x30 /usr/lib/gcc/arm-none-eabi/6.3.1/../../../arm-none-eabi/lib/thumb/v7-m/libc_nano.a(lib_a-writer.o)
                                        0x619 (size before relaxing)
 .debug_str     0x0000000000009956       0x3d /usr/lib/gcc/arm-none-eabi/6.3.1/../../../arm-none-eabi/lib/thumb/v7-m/libc_nano.a(lib_a-wsetup.o)
                                        0x75d (size before relaxing)
 .debug_str     0x0000000000009993       0x30 /usr/lib/gcc/arm-none-eabi/6.3.1/../../../arm-none-eabi/lib/thumb/v7-m/libc_nano.a(lib_a-btowc.o)
                                        0x958 (size before relaxing)
 .debug_str     0x00000000000099c3       0x30 /usr/lib/gcc/arm-none-eabi/6.3.1/../../../arm-none-eabi/lib/thumb/v7-m/libc_nano.a(lib_a-closer.o)
                                        0x609 (size before relaxing)
 .debug_str     0x00000000000099f3       0x91 /usr/lib/gcc/arm-none-eabi/6.3.1/../../../arm-none-eabi/lib/thumb/v7-m/libc_nano.a(lib_a-ctype_.o)
                                        0x8f1 (size before relaxing)
 .debug_str     0x0000000000009a84       0xba /usr/lib/gcc/arm-none-eabi/6.3.1/../../../arm-none-eabi/lib/thumb/v7-m/libc_nano.a(lib_a-dtoa.o)
                                        0xae6 (size before relaxing)
 .debug_str     0x0000000000009b3e       0x53 /usr/lib/gcc/arm-none-eabi/6.3.1/../../../arm-none-eabi/lib/thumb/v7-m/libc_nano.a(lib_a-fflush.o)
                                        0x78b (size before relaxing)
 .debug_str     0x0000000000009b91       0x40 /usr/lib/gcc/arm-none-eabi/6.3.1/../../../arm-none-eabi/lib/thumb/v7-m/libc_nano.a(lib_a-fvwrite.o)
                                        0x7dc (size before relaxing)
 .debug_str     0x0000000000009bd1       0x30 /usr/lib/gcc/arm-none-eabi/6.3.1/../../../arm-none-eabi/lib/thumb/v7-m/libc_nano.a(lib_a-lseekr.o)
                                        0x617 (size before relaxing)
 .debug_str     0x0000000000009c01      0x167 /usr/lib/gcc/arm-none-eabi/6.3.1/../../../arm-none-eabi/lib/thumb/v7-m/libc_nano.a(lib_a-makebuf.o)
                                        0x8d9 (size before relaxing)
 .debug_str     0x0000000000009d68       0x4c /usr/lib/gcc/arm-none-eabi/6.3.1/../../../arm-none-eabi/lib/thumb/v7-m/libc_nano.a(lib_a-memchr-stub.o)
                                        0x609 (size before relaxing)
 .debug_str     0x0000000000009db4       0x53 /usr/lib/gcc/arm-none-eabi/6.3.1/../../../arm-none-eabi/lib/thumb/v7-m/libc_nano.a(lib_a-memmove.o)
                                        0x925 (size before relaxing)
 .debug_str     0x0000000000009e07       0x23 /usr/lib/gcc/arm-none-eabi/6.3.1/../../../arm-none-eabi/lib/thumb/v7-m/libc_nano.a(lib_a-nano-reallocr.o)
                                        0x706 (size before relaxing)
 .debug_str     0x0000000000009e2a       0x2f /usr/lib/gcc/arm-none-eabi/6.3.1/../../../arm-none-eabi/lib/thumb/v7-m/libc_nano.a(lib_a-readr.o)
                                        0x617 (size before relaxing)
 .debug_str     0x0000000000009e59       0x3d /usr/lib/gcc/arm-none-eabi/6.3.1/../../../arm-none-eabi/lib/thumb/v7-m/libc_nano.a(lib_a-fstatr.o)
                                        0x780 (size before relaxing)
 .debug_str     0x0000000000009e96       0x39 /usr/lib/gcc/arm-none-eabi/6.3.1/../../../arm-none-eabi/lib/thumb/v7-m/libc_nano.a(lib_a-isattyr.o)
                                        0x613 (size before relaxing)
 .debug_str     0x0000000000009ecf        0xf /usr/lib/gcc/arm-none-eabi/6.3.1/../../../arm-none-eabi/lib/thumb/v7-m/libc_nano.a(lib_a-nano-msizer.o)
                                        0x6e4 (size before relaxing)
 .debug_str     0x0000000000009ede       0xc3 /usr/lib/gcc/arm-none-eabi/6.3.1/../../../arm-none-eabi/lib/thumb/v7-m/libm.a(lib_a-sf_lround.o)
                                        0x666 (size before relaxing)
 .debug_str     0x0000000000009fa1       0xbb /usr/lib/gcc/arm-none-eabi/6.3.1/../../../arm-none-eabi/lib/thumb/v7-m/libm.a(lib_a-w_pow.o)
                                        0x656 (size before relaxing)
 .debug_str     0x000000000000a05c       0x3e /usr/lib/gcc/arm-none-eabi/6.3.1/../../../arm-none-eabi/lib/thumb/v7-m/libm.a(lib_a-w_sqrt.o)
                                        0x651 (size before relaxing)
 .debug_str     0x000000000000a09a       0x40 /usr/lib/gcc/arm-none-eabi/6.3.1/../../../arm-none-eabi/lib/thumb/v7-m/libm.a(lib_a-wf_sqrt.o)
                                        0x654 (size before relaxing)
 .debug_str     0x000000000000a0da       0xb8 /usr/lib/gcc/arm-none-eabi/6.3.1/../../../arm-none-eabi/lib/thumb/v7-m/libm.a(lib_a-e_pow.o)
                                        0x6b7 (size before relaxing)
 .debug_str     0x000000000000a192       0xa0 /usr/lib/gcc/arm-none-eabi/6.3.1/../../../arm-none-eabi/lib/thumb/v7-m/libm.a(lib_a-e_sqrt.o)
                                        0x65d (size before relaxing)
 .debug_str     0x000000000000a232       0x3f /usr/lib/gcc/arm-none-eabi/6.3.1/../../../arm-none-eabi/lib/thumb/v7-m/libm.a(lib_a-ef_sqrt.o)
                                        0x658 (size before relaxing)
 .debug_str     0x000000000000a271       0x34 /usr/lib/gcc/arm-none-eabi/6.3.1/../../../arm-none-eabi/lib/thumb/v7-m/libm.a(lib_a-s_fabs.o)
                                        0x633 (size before relaxing)
 .debug_str     0x000000000000a2a5       0x33 /usr/lib/gcc/arm-none-eabi/6.3.1/../../../arm-none-eabi/lib/thumb/v7-m/libm.a(lib_a-s_finite.o)
                                        0x648 (size before relaxing)
 .debug_str     0x000000000000a2d8       0x34 /usr/lib/gcc/arm-none-eabi/6.3.1/../../../arm-none-eabi/lib/thumb/v7-m/libm.a(lib_a-s_lib_ver.o)
                                        0x605 (size before relaxing)
 .debug_str     0x000000000000a30c       0x34 /usr/lib/gcc/arm-none-eabi/6.3.1/../../../arm-none-eabi/lib/thumb/v7-m/libm.a(lib_a-s_matherr.o)
                                        0x632 (size before relaxing)
 .debug_str     0x000000000000a340       0x30 /usr/lib/gcc/arm-none-eabi/6.3.1/../../../arm-none-eabi/lib/thumb/v7-m/libm.a(lib_a-s_nan.o)
                                        0x608 (size before relaxing)
 .debug_str     0x000000000000a370       0x3f /usr/lib/gcc/arm-none-eabi/6.3.1/../../../arm-none-eabi/lib/thumb/v7-m/libm.a(lib_a-s_rint.o)
                                        0x659 (size before relaxing)
 .debug_str     0x000000000000a3af       0x40 /usr/lib/gcc/arm-none-eabi/6.3.1/../../../arm-none-eabi/lib/thumb/v7-m/libm.a(lib_a-s_scalbn.o)
                                        0x669 (size before relaxing)
 .debug_str     0x000000000000a3ef      0x101 /usr/lib/gcc/arm-none-eabi/6.3.1/../../../arm-none-eabi/lib/thumb/v7-m/libnosys.a(close.o)
                                        0x592 (size before relaxing)
 .debug_str     0x000000000000a4f0       0x2c /usr/lib/gcc/arm-none-eabi/6.3.1/../../../arm-none-eabi/lib/thumb/v7-m/libnosys.a(fstat.o)
                                        0x703 (size before relaxing)
 .debug_str     0x000000000000a51c       0x2d /usr/lib/gcc/arm-none-eabi/6.3.1/../../../arm-none-eabi/lib/thumb/v7-m/libnosys.a(isatty.o)
                                        0x599 (size before relaxing)
 .debug_str     0x000000000000a549       0x2c /usr/lib/gcc/arm-none-eabi/6.3.1/../../../arm-none-eabi/lib/thumb/v7-m/libnosys.a(lseek.o)
                                        0x597 (size before relaxing)
 .debug_str     0x000000000000a575       0x2b /usr/lib/gcc/arm-none-eabi/6.3.1/../../../arm-none-eabi/lib/thumb/v7-m/libnosys.a(read.o)
                                        0x58f (size before relaxing)
 .debug_str     0x000000000000a5a0       0x39 /usr/lib/gcc/arm-none-eabi/6.3.1/../../../arm-none-eabi/lib/thumb/v7-m/libnosys.a(sbrk.o)
                                        0x120 (size before relaxing)
 .debug_str     0x000000000000a5d9      0xba0 /usr/lib/gcc/arm-none-eabi/6.3.1/thumb/v7-m/libgcc.a(_fixdfdi.o)
                                        0xc7e (size before relaxing)
 .debug_str     0x000000000000b179       0x10 /usr/lib/gcc/arm-none-eabi/6.3.1/thumb/v7-m/libgcc.a(_fixunsdfdi.o)
                                        0xc6f (size before relaxing)
 .debug_str     0x000000000000b189       0xd8 /usr/lib/gcc/arm-none-eabi/6.3.1/thumb/v7-m/libgcc.a(_udivmoddi4.o)
                                        0xcbc (size before relaxing)
 .debug_str     0x000000000000b261       0x90 /usr/lib/gcc/arm-none-eabi/6.3.1/../../../arm-none-eabi/lib/thumb/v7-m/libc_nano.a(lib_a-errno.o)
                                        0x5eb (size before relaxing)

.debug_frame    0x0000000000000000     0x75cc
 .debug_frame   0x0000000000000000       0x80 build/main.o
 .debug_frame   0x0000000000000080       0x48 build/gpio.o
 .debug_frame   0x00000000000000c8       0x3c build/fatfs.o
 .debug_frame   0x0000000000000104       0xcc build/tim.o
 .debug_frame   0x00000000000001d0       0x6c build/usart.o
 .debug_frame   0x000000000000023c       0x64 build/usb_host.o
 .debug_frame   0x00000000000002a0      0x268 build/usbh_conf.o
 .debug_frame   0x0000000000000508       0x2c build/usbh_platform.o
 .debug_frame   0x0000000000000534      0x154 build/stm32f1xx_it.o
 .debug_frame   0x0000000000000688       0x28 build/stm32f1xx_hal_msp.o
 .debug_frame   0x00000000000006b0      0x2e0 build/stm32f1xx_hal_hcd.o
 .debug_frame   0x0000000000000990      0x520 build/stm32f1xx_ll_usb.o
 .debug_frame   0x0000000000000eb0      0x1c0 build/stm32f1xx_hal.o
 .debug_frame   0x0000000000001070      0x1a8 build/stm32f1xx_hal_rcc.o
 .debug_frame   0x0000000000001218      0x104 build/stm32f1xx_hal_rcc_ex.o
 .debug_frame   0x000000000000131c       0xe8 build/stm32f1xx_hal_gpio.o
 .debug_frame   0x0000000000001404      0x13c build/stm32f1xx_hal_cortex.o
 .debug_frame   0x0000000000001540      0xb1c build/stm32f1xx_hal_tim.o
 .debug_frame   0x000000000000205c      0x3e4 build/stm32f1xx_hal_tim_ex.o
 .debug_frame   0x0000000000002440      0x57c build/stm32f1xx_hal_uart.o
 .debug_frame   0x00000000000029bc       0x40 build/system_stm32f1xx.o
 .debug_frame   0x00000000000029fc       0xb4 build/diskio.o
 .debug_frame   0x0000000000002ab0      0x9dc build/ff.o
 .debug_frame   0x000000000000348c       0x88 build/ff_gen_drv.o
 .debug_frame   0x0000000000003514       0x30 build/ccsbcs.o
 .debug_frame   0x0000000000003544       0xb0 build/usbh_diskio.o
 .debug_frame   0x00000000000035f4      0x20c build/usbh_core.o
 .debug_frame   0x0000000000003800      0x200 build/usbh_ctlreq.o
 .debug_frame   0x0000000000003a00      0x154 build/usbh_ioreq.o
 .debug_frame   0x0000000000003b54       0x8c build/usbh_pipes.o
 .debug_frame   0x0000000000003be0      0x188 build/usbh_msc.o
 .debug_frame   0x0000000000003d68       0xbc build/usbh_msc_bot.o
 .debug_frame   0x0000000000003e24       0xd4 build/usbh_msc_scsi.o
 .debug_frame   0x0000000000003ef8      0x5ec build/Buffer_Gcode.o
 .debug_frame   0x00000000000044e4      0x170 build/Descritization_Gcode.o
 .debug_frame   0x0000000000004654       0xb8 build/GcodeConverter_Gcode.o
 .debug_frame   0x000000000000470c      0x144 build/VirtualPrinters_Gcode.o
 .debug_frame   0x0000000000004850       0x20 build/CharacterConverter_LCD.o
 .debug_frame   0x0000000000004870      0x160 build/Driver_LCD.o
 .debug_frame   0x00000000000049d0      0x294 build/GPIOandTIM_LCD.o
 .debug_frame   0x0000000000004c64       0x5c build/Interface_LCD.o
 .debug_frame   0x0000000000004cc0      0x1b8 build/TextConverter_LCD.o
 .debug_frame   0x0000000000004e78      0x204 build/Constructor_Menu.o
 .debug_frame   0x000000000000507c       0x38 build/MainMenu_Menu.o
 .debug_frame   0x00000000000050b4      0x25c build/FunctionsForButtons.o
 .debug_frame   0x0000000000005310       0xb4 build/Driver_Motors.o
 .debug_frame   0x00000000000053c4      0x2b0 build/GPIO_Motors.o
 .debug_frame   0x0000000000005674       0x40 build/State_USBdrive.o
 .debug_frame   0x00000000000056b4      0x1c8 build/Driver_USBdrive.o
 .debug_frame   0x000000000000587c       0xe0 build/coordinates.o
 .debug_frame   0x000000000000595c       0x20 /usr/lib/gcc/arm-none-eabi/6.3.1/../../../arm-none-eabi/lib/thumb/v7-m/libc_nano.a(lib_a-atof.o)
 .debug_frame   0x000000000000597c       0x30 /usr/lib/gcc/arm-none-eabi/6.3.1/../../../arm-none-eabi/lib/thumb/v7-m/libc_nano.a(lib_a-atoi.o)
 .debug_frame   0x00000000000059ac       0x30 /usr/lib/gcc/arm-none-eabi/6.3.1/../../../arm-none-eabi/lib/thumb/v7-m/libc_nano.a(lib_a-malloc.o)
 .debug_frame   0x00000000000059dc       0x38 /usr/lib/gcc/arm-none-eabi/6.3.1/../../../arm-none-eabi/lib/thumb/v7-m/libc_nano.a(lib_a-memset.o)
 .debug_frame   0x0000000000005a14       0x54 /usr/lib/gcc/arm-none-eabi/6.3.1/../../../arm-none-eabi/lib/thumb/v7-m/libc_nano.a(lib_a-nano-freer.o)
 .debug_frame   0x0000000000005a68       0x30 /usr/lib/gcc/arm-none-eabi/6.3.1/../../../arm-none-eabi/lib/thumb/v7-m/libc_nano.a(lib_a-nano-mallocr.o)
 .debug_frame   0x0000000000005a98       0x84 /usr/lib/gcc/arm-none-eabi/6.3.1/../../../arm-none-eabi/lib/thumb/v7-m/libc_nano.a(lib_a-printf.o)
 .debug_frame   0x0000000000005b1c       0x2c /usr/lib/gcc/arm-none-eabi/6.3.1/../../../arm-none-eabi/lib/thumb/v7-m/libc_nano.a(lib_a-sbrkr.o)
 .debug_frame   0x0000000000005b48       0x80 /usr/lib/gcc/arm-none-eabi/6.3.1/../../../arm-none-eabi/lib/thumb/v7-m/libc_nano.a(lib_a-sprintf.o)
 .debug_frame   0x0000000000005bc8       0x30 /usr/lib/gcc/arm-none-eabi/6.3.1/../../../arm-none-eabi/lib/thumb/v7-m/libc_nano.a(lib_a-strchr.o)
 .debug_frame   0x0000000000005bf8       0x20 /usr/lib/gcc/arm-none-eabi/6.3.1/../../../arm-none-eabi/lib/thumb/v7-m/libc_nano.a(lib_a-strcpy.o)
 .debug_frame   0x0000000000005c18      0x110 /usr/lib/gcc/arm-none-eabi/6.3.1/../../../arm-none-eabi/lib/thumb/v7-m/libc_nano.a(lib_a-strtod.o)
 .debug_frame   0x0000000000005d28       0x9c /usr/lib/gcc/arm-none-eabi/6.3.1/../../../arm-none-eabi/lib/thumb/v7-m/libc_nano.a(lib_a-strtol.o)
 .debug_frame   0x0000000000005dc4       0x80 /usr/lib/gcc/arm-none-eabi/6.3.1/../../../arm-none-eabi/lib/thumb/v7-m/libc_nano.a(lib_a-swprintf.o)
 .debug_frame   0x0000000000005e44       0x20 /usr/lib/gcc/arm-none-eabi/6.3.1/../../../arm-none-eabi/lib/thumb/v7-m/libc_nano.a(lib_a-wcscpy.o)
 .debug_frame   0x0000000000005e64       0x20 /usr/lib/gcc/arm-none-eabi/6.3.1/../../../arm-none-eabi/lib/thumb/v7-m/libc_nano.a(lib_a-wcslen.o)
 .debug_frame   0x0000000000005e84       0x2c /usr/lib/gcc/arm-none-eabi/6.3.1/../../../arm-none-eabi/lib/thumb/v7-m/libc_nano.a(lib_a-wcsstr.o)
 .debug_frame   0x0000000000005eb0       0x20 /usr/lib/gcc/arm-none-eabi/6.3.1/../../../arm-none-eabi/lib/thumb/v7-m/libc_nano.a(lib_a-wmemcpy.o)
 .debug_frame   0x0000000000005ed0      0x120 /usr/lib/gcc/arm-none-eabi/6.3.1/../../../arm-none-eabi/lib/thumb/v7-m/libc_nano.a(lib_a-findfp.o)
 .debug_frame   0x0000000000005ff0       0x54 /usr/lib/gcc/arm-none-eabi/6.3.1/../../../arm-none-eabi/lib/thumb/v7-m/libc_nano.a(lib_a-fwalk.o)
 .debug_frame   0x0000000000006044       0x68 /usr/lib/gcc/arm-none-eabi/6.3.1/../../../arm-none-eabi/lib/thumb/v7-m/libc_nano.a(lib_a-gdtoa-gethex.o)
 .debug_frame   0x00000000000060ac       0x70 /usr/lib/gcc/arm-none-eabi/6.3.1/../../../arm-none-eabi/lib/thumb/v7-m/libc_nano.a(lib_a-gdtoa-hexnan.o)
 .debug_frame   0x000000000000611c       0x6c /usr/lib/gcc/arm-none-eabi/6.3.1/../../../arm-none-eabi/lib/thumb/v7-m/libc_nano.a(lib_a-locale.o)
 .debug_frame   0x0000000000006188       0x40 /usr/lib/gcc/arm-none-eabi/6.3.1/../../../arm-none-eabi/lib/thumb/v7-m/libc_nano.a(lib_a-localeconv.o)
 .debug_frame   0x00000000000061c8       0x4c /usr/lib/gcc/arm-none-eabi/6.3.1/../../../arm-none-eabi/lib/thumb/v7-m/libc_nano.a(lib_a-mbtowc_r.o)
 .debug_frame   0x0000000000006214       0x30 /usr/lib/gcc/arm-none-eabi/6.3.1/../../../arm-none-eabi/lib/thumb/v7-m/libc_nano.a(lib_a-mlock.o)
 .debug_frame   0x0000000000006244      0x280 /usr/lib/gcc/arm-none-eabi/6.3.1/../../../arm-none-eabi/lib/thumb/v7-m/libc_nano.a(lib_a-mprec.o)
 .debug_frame   0x00000000000064c4       0x2c /usr/lib/gcc/arm-none-eabi/6.3.1/../../../arm-none-eabi/lib/thumb/v7-m/libc_nano.a(lib_a-nano-callocr.o)
 .debug_frame   0x00000000000064f0       0x98 /usr/lib/gcc/arm-none-eabi/6.3.1/../../../arm-none-eabi/lib/thumb/v7-m/libc_nano.a(lib_a-nano-svfprintf.o)
 .debug_frame   0x0000000000006588       0xbc /usr/lib/gcc/arm-none-eabi/6.3.1/../../../arm-none-eabi/lib/thumb/v7-m/libc_nano.a(lib_a-nano-vfprintf.o)
 .debug_frame   0x0000000000006644       0x68 /usr/lib/gcc/arm-none-eabi/6.3.1/../../../arm-none-eabi/lib/thumb/v7-m/libc_nano.a(lib_a-nano-vfprintf_i.o)
 .debug_frame   0x00000000000066ac       0x6c /usr/lib/gcc/arm-none-eabi/6.3.1/../../../arm-none-eabi/lib/thumb/v7-m/libc_nano.a(lib_a-reent.o)
 .debug_frame   0x0000000000006718       0x20 /usr/lib/gcc/arm-none-eabi/6.3.1/../../../arm-none-eabi/lib/thumb/v7-m/libc_nano.a(lib_a-sf_nan.o)
 .debug_frame   0x0000000000006738       0x88 /usr/lib/gcc/arm-none-eabi/6.3.1/../../../arm-none-eabi/lib/thumb/v7-m/libc_nano.a(lib_a-stdio.o)
 .debug_frame   0x00000000000067c0       0x34 /usr/lib/gcc/arm-none-eabi/6.3.1/../../../arm-none-eabi/lib/thumb/v7-m/libc_nano.a(lib_a-strcmp.o)
 .debug_frame   0x00000000000067f4       0x20 /usr/lib/gcc/arm-none-eabi/6.3.1/../../../arm-none-eabi/lib/thumb/v7-m/libc_nano.a(lib_a-strlen-stub.o)
 .debug_frame   0x0000000000006814       0x48 /usr/lib/gcc/arm-none-eabi/6.3.1/../../../arm-none-eabi/lib/thumb/v7-m/libc_nano.a(lib_a-strncmp.o)
 .debug_frame   0x000000000000685c       0x74 /usr/lib/gcc/arm-none-eabi/6.3.1/../../../arm-none-eabi/lib/thumb/v7-m/libc_nano.a(lib_a-svfwprintf.o)
 .debug_frame   0x00000000000068d0       0x40 /usr/lib/gcc/arm-none-eabi/6.3.1/../../../arm-none-eabi/lib/thumb/v7-m/libc_nano.a(lib_a-wbuf.o)
 .debug_frame   0x0000000000006910       0x3c /usr/lib/gcc/arm-none-eabi/6.3.1/../../../arm-none-eabi/lib/thumb/v7-m/libc_nano.a(lib_a-wctomb_r.o)
 .debug_frame   0x000000000000694c       0x2c /usr/lib/gcc/arm-none-eabi/6.3.1/../../../arm-none-eabi/lib/thumb/v7-m/libc_nano.a(lib_a-wmemchr.o)
 .debug_frame   0x0000000000006978       0x30 /usr/lib/gcc/arm-none-eabi/6.3.1/../../../arm-none-eabi/lib/thumb/v7-m/libc_nano.a(lib_a-writer.o)
 .debug_frame   0x00000000000069a8       0x2c /usr/lib/gcc/arm-none-eabi/6.3.1/../../../arm-none-eabi/lib/thumb/v7-m/libc_nano.a(lib_a-wsetup.o)
 .debug_frame   0x00000000000069d4       0x50 /usr/lib/gcc/arm-none-eabi/6.3.1/../../../arm-none-eabi/lib/thumb/v7-m/libc_nano.a(lib_a-btowc.o)
 .debug_frame   0x0000000000006a24       0x2c /usr/lib/gcc/arm-none-eabi/6.3.1/../../../arm-none-eabi/lib/thumb/v7-m/libc_nano.a(lib_a-closer.o)
 .debug_frame   0x0000000000006a50       0x88 /usr/lib/gcc/arm-none-eabi/6.3.1/../../../arm-none-eabi/lib/thumb/v7-m/libc_nano.a(lib_a-dtoa.o)
 .debug_frame   0x0000000000006ad8       0x70 /usr/lib/gcc/arm-none-eabi/6.3.1/../../../arm-none-eabi/lib/thumb/v7-m/libc_nano.a(lib_a-fflush.o)
 .debug_frame   0x0000000000006b48       0x64 /usr/lib/gcc/arm-none-eabi/6.3.1/../../../arm-none-eabi/lib/thumb/v7-m/libc_nano.a(lib_a-fvwrite.o)
 .debug_frame   0x0000000000006bac       0x30 /usr/lib/gcc/arm-none-eabi/6.3.1/../../../arm-none-eabi/lib/thumb/v7-m/libc_nano.a(lib_a-lseekr.o)
 .debug_frame   0x0000000000006bdc       0x64 /usr/lib/gcc/arm-none-eabi/6.3.1/../../../arm-none-eabi/lib/thumb/v7-m/libc_nano.a(lib_a-makebuf.o)
 .debug_frame   0x0000000000006c40       0x34 /usr/lib/gcc/arm-none-eabi/6.3.1/../../../arm-none-eabi/lib/thumb/v7-m/libc_nano.a(lib_a-memchr-stub.o)
 .debug_frame   0x0000000000006c74       0x40 /usr/lib/gcc/arm-none-eabi/6.3.1/../../../arm-none-eabi/lib/thumb/v7-m/libc_nano.a(lib_a-memmove.o)
 .debug_frame   0x0000000000006cb4       0x48 /usr/lib/gcc/arm-none-eabi/6.3.1/../../../arm-none-eabi/lib/thumb/v7-m/libc_nano.a(lib_a-nano-reallocr.o)
 .debug_frame   0x0000000000006cfc       0x30 /usr/lib/gcc/arm-none-eabi/6.3.1/../../../arm-none-eabi/lib/thumb/v7-m/libc_nano.a(lib_a-readr.o)
 .debug_frame   0x0000000000006d2c       0x2c /usr/lib/gcc/arm-none-eabi/6.3.1/../../../arm-none-eabi/lib/thumb/v7-m/libc_nano.a(lib_a-fstatr.o)
 .debug_frame   0x0000000000006d58       0x2c /usr/lib/gcc/arm-none-eabi/6.3.1/../../../arm-none-eabi/lib/thumb/v7-m/libc_nano.a(lib_a-isattyr.o)
 .debug_frame   0x0000000000006d84       0x20 /usr/lib/gcc/arm-none-eabi/6.3.1/../../../arm-none-eabi/lib/thumb/v7-m/libc_nano.a(lib_a-nano-msizer.o)
 .debug_frame   0x0000000000006da4       0x28 /usr/lib/gcc/arm-none-eabi/6.3.1/../../../arm-none-eabi/lib/thumb/v7-m/libm.a(lib_a-sf_lround.o)
 .debug_frame   0x0000000000006dcc       0x48 /usr/lib/gcc/arm-none-eabi/6.3.1/../../../arm-none-eabi/lib/thumb/v7-m/libm.a(lib_a-w_pow.o)
 .debug_frame   0x0000000000006e14       0x44 /usr/lib/gcc/arm-none-eabi/6.3.1/../../../arm-none-eabi/lib/thumb/v7-m/libm.a(lib_a-w_sqrt.o)
 .debug_frame   0x0000000000006e58       0x3c /usr/lib/gcc/arm-none-eabi/6.3.1/../../../arm-none-eabi/lib/thumb/v7-m/libm.a(lib_a-wf_sqrt.o)
 .debug_frame   0x0000000000006e94       0x68 /usr/lib/gcc/arm-none-eabi/6.3.1/../../../arm-none-eabi/lib/thumb/v7-m/libm.a(lib_a-e_pow.o)
 .debug_frame   0x0000000000006efc       0x30 /usr/lib/gcc/arm-none-eabi/6.3.1/../../../arm-none-eabi/lib/thumb/v7-m/libm.a(lib_a-e_sqrt.o)
 .debug_frame   0x0000000000006f2c       0x30 /usr/lib/gcc/arm-none-eabi/6.3.1/../../../arm-none-eabi/lib/thumb/v7-m/libm.a(lib_a-ef_sqrt.o)
 .debug_frame   0x0000000000006f5c       0x20 /usr/lib/gcc/arm-none-eabi/6.3.1/../../../arm-none-eabi/lib/thumb/v7-m/libm.a(lib_a-s_fabs.o)
 .debug_frame   0x0000000000006f7c       0x20 /usr/lib/gcc/arm-none-eabi/6.3.1/../../../arm-none-eabi/lib/thumb/v7-m/libm.a(lib_a-s_finite.o)
 .debug_frame   0x0000000000006f9c       0x20 /usr/lib/gcc/arm-none-eabi/6.3.1/../../../arm-none-eabi/lib/thumb/v7-m/libm.a(lib_a-s_matherr.o)
 .debug_frame   0x0000000000006fbc       0x20 /usr/lib/gcc/arm-none-eabi/6.3.1/../../../arm-none-eabi/lib/thumb/v7-m/libm.a(lib_a-s_nan.o)
 .debug_frame   0x0000000000006fdc       0x38 /usr/lib/gcc/arm-none-eabi/6.3.1/../../../arm-none-eabi/lib/thumb/v7-m/libm.a(lib_a-s_rint.o)
 .debug_frame   0x0000000000007014       0x30 /usr/lib/gcc/arm-none-eabi/6.3.1/../../../arm-none-eabi/lib/thumb/v7-m/libm.a(lib_a-s_scalbn.o)
 .debug_frame   0x0000000000007044       0x20 /usr/lib/gcc/arm-none-eabi/6.3.1/../../../arm-none-eabi/lib/thumb/v7-m/libnosys.a(close.o)
 .debug_frame   0x0000000000007064       0x20 /usr/lib/gcc/arm-none-eabi/6.3.1/../../../arm-none-eabi/lib/thumb/v7-m/libnosys.a(fstat.o)
 .debug_frame   0x0000000000007084       0x20 /usr/lib/gcc/arm-none-eabi/6.3.1/../../../arm-none-eabi/lib/thumb/v7-m/libnosys.a(isatty.o)
 .debug_frame   0x00000000000070a4       0x20 /usr/lib/gcc/arm-none-eabi/6.3.1/../../../arm-none-eabi/lib/thumb/v7-m/libnosys.a(lseek.o)
 .debug_frame   0x00000000000070c4       0x20 /usr/lib/gcc/arm-none-eabi/6.3.1/../../../arm-none-eabi/lib/thumb/v7-m/libnosys.a(read.o)
 .debug_frame   0x00000000000070e4       0x20 /usr/lib/gcc/arm-none-eabi/6.3.1/../../../arm-none-eabi/lib/thumb/v7-m/libnosys.a(sbrk.o)
 .debug_frame   0x0000000000007104       0xac /usr/lib/gcc/arm-none-eabi/6.3.1/thumb/v7-m/libgcc.a(_arm_addsubdf3.o)
 .debug_frame   0x00000000000071b0       0x50 /usr/lib/gcc/arm-none-eabi/6.3.1/thumb/v7-m/libgcc.a(_arm_muldivdf3.o)
 .debug_frame   0x0000000000007200       0xc4 /usr/lib/gcc/arm-none-eabi/6.3.1/thumb/v7-m/libgcc.a(_arm_cmpdf2.o)
 .debug_frame   0x00000000000072c4       0x20 /usr/lib/gcc/arm-none-eabi/6.3.1/thumb/v7-m/libgcc.a(_arm_unorddf2.o)
 .debug_frame   0x00000000000072e4       0x24 /usr/lib/gcc/arm-none-eabi/6.3.1/thumb/v7-m/libgcc.a(_arm_fixdfsi.o)
 .debug_frame   0x0000000000007308       0x24 /usr/lib/gcc/arm-none-eabi/6.3.1/thumb/v7-m/libgcc.a(_arm_fixunsdfsi.o)
 .debug_frame   0x000000000000732c       0x24 /usr/lib/gcc/arm-none-eabi/6.3.1/thumb/v7-m/libgcc.a(_arm_truncdfsf2.o)
 .debug_frame   0x0000000000007350       0x4c /usr/lib/gcc/arm-none-eabi/6.3.1/thumb/v7-m/libgcc.a(_arm_addsubsf3.o)
 .debug_frame   0x000000000000739c       0x38 /usr/lib/gcc/arm-none-eabi/6.3.1/thumb/v7-m/libgcc.a(_arm_muldivsf3.o)
 .debug_frame   0x00000000000073d4       0xc8 /usr/lib/gcc/arm-none-eabi/6.3.1/thumb/v7-m/libgcc.a(_arm_cmpsf2.o)
 .debug_frame   0x000000000000749c       0x24 /usr/lib/gcc/arm-none-eabi/6.3.1/thumb/v7-m/libgcc.a(_arm_unordsf2.o)
 .debug_frame   0x00000000000074c0       0x24 /usr/lib/gcc/arm-none-eabi/6.3.1/thumb/v7-m/libgcc.a(_arm_fixsfsi.o)
 .debug_frame   0x00000000000074e4       0x2c /usr/lib/gcc/arm-none-eabi/6.3.1/thumb/v7-m/libgcc.a(_aeabi_uldivmod.o)
 .debug_frame   0x0000000000007510       0x3c /usr/lib/gcc/arm-none-eabi/6.3.1/thumb/v7-m/libgcc.a(_fixdfdi.o)
 .debug_frame   0x000000000000754c       0x2c /usr/lib/gcc/arm-none-eabi/6.3.1/thumb/v7-m/libgcc.a(_fixunsdfdi.o)
 .debug_frame   0x0000000000007578       0x34 /usr/lib/gcc/arm-none-eabi/6.3.1/thumb/v7-m/libgcc.a(_udivmoddi4.o)
 .debug_frame   0x00000000000075ac       0x20 /usr/lib/gcc/arm-none-eabi/6.3.1/../../../arm-none-eabi/lib/thumb/v7-m/libc_nano.a(lib_a-errno.o)

.stab           0x0000000000000000       0x84
 .stab          0x0000000000000000       0x24 /usr/lib/gcc/arm-none-eabi/6.3.1/../../../arm-none-eabi/lib/thumb/v7-m/libnosys.a(close.o)
 .stab          0x0000000000000024       0x18 /usr/lib/gcc/arm-none-eabi/6.3.1/../../../arm-none-eabi/lib/thumb/v7-m/libnosys.a(fstat.o)
                                         0x24 (size before relaxing)
 .stab          0x000000000000003c       0x18 /usr/lib/gcc/arm-none-eabi/6.3.1/../../../arm-none-eabi/lib/thumb/v7-m/libnosys.a(isatty.o)
                                         0x24 (size before relaxing)
 .stab          0x0000000000000054       0x18 /usr/lib/gcc/arm-none-eabi/6.3.1/../../../arm-none-eabi/lib/thumb/v7-m/libnosys.a(lseek.o)
                                         0x24 (size before relaxing)
 .stab          0x000000000000006c       0x18 /usr/lib/gcc/arm-none-eabi/6.3.1/../../../arm-none-eabi/lib/thumb/v7-m/libnosys.a(read.o)
                                         0x24 (size before relaxing)

.stabstr        0x0000000000000000      0x117
 .stabstr       0x0000000000000000      0x117 /usr/lib/gcc/arm-none-eabi/6.3.1/../../../arm-none-eabi/lib/thumb/v7-m/libnosys.a(close.o)

Cross Reference Table

Symbol                                            File
ADC1_2_IRQHandler                                 build/startup_stm32f105xc.o
AHBPrescTable                                     build/system_stm32f1xx.o
                                                  build/stm32f1xx_hal_rcc.o
APBPrescTable                                     build/system_stm32f1xx.o
                                                  build/stm32f1xx_hal_rcc.o
Appli_state                                       build/usb_host.o
BackwardE_Motors                                  build/GPIO_Motors.o
BackwardX_Motors                                  build/GPIO_Motors.o
                                                  build/Driver_Motors.o
BackwardY_Motors                                  build/GPIO_Motors.o
                                                  build/Driver_Motors.o
BackwardZ_Motors                                  build/GPIO_Motors.o
                                                  build/Driver_Motors.o
BusFault_Handler                                  build/stm32f1xx_it.o
CAN1_RX0_IRQHandler                               build/startup_stm32f105xc.o
CAN1_RX1_IRQHandler                               build/startup_stm32f105xc.o
CAN1_SCE_IRQHandler                               build/startup_stm32f105xc.o
CAN1_TX_IRQHandler                                build/startup_stm32f105xc.o
CAN2_RX0_IRQHandler                               build/startup_stm32f105xc.o
CAN2_RX1_IRQHandler                               build/startup_stm32f105xc.o
CAN2_SCE_IRQHandler                               build/startup_stm32f105xc.o
CAN2_TX_IRQHandler                                build/startup_stm32f105xc.o
DB0_high_LCD                                      build/GPIOandTIM_LCD.o
                                                  build/Driver_LCD.o
DB0_low_LCD                                       build/GPIOandTIM_LCD.o
                                                  build/Driver_LCD.o
DB1_high_LCD                                      build/GPIOandTIM_LCD.o
                                                  build/Driver_LCD.o
DB1_low_LCD                                       build/GPIOandTIM_LCD.o
                                                  build/Driver_LCD.o
DB2_high_LCD                                      build/GPIOandTIM_LCD.o
                                                  build/Driver_LCD.o
DB2_low_LCD                                       build/GPIOandTIM_LCD.o
                                                  build/Driver_LCD.o
DB3_high_LCD                                      build/GPIOandTIM_LCD.o
                                                  build/Driver_LCD.o
DB3_low_LCD                                       build/GPIOandTIM_LCD.o
                                                  build/Driver_LCD.o
DB4_high_LCD                                      build/GPIOandTIM_LCD.o
                                                  build/Driver_LCD.o
DB4_low_LCD                                       build/GPIOandTIM_LCD.o
                                                  build/Driver_LCD.o
DB5_high_LCD                                      build/GPIOandTIM_LCD.o
                                                  build/Driver_LCD.o
DB5_low_LCD                                       build/GPIOandTIM_LCD.o
                                                  build/Driver_LCD.o
DB6_high_LCD                                      build/GPIOandTIM_LCD.o
                                                  build/Driver_LCD.o
DB6_low_LCD                                       build/GPIOandTIM_LCD.o
                                                  build/Driver_LCD.o
DB7_high_LCD                                      build/GPIOandTIM_LCD.o
                                                  build/Driver_LCD.o
DB7_low_LCD                                       build/GPIOandTIM_LCD.o
                                                  build/Driver_LCD.o
DMA1_Channel1_IRQHandler                          build/startup_stm32f105xc.o
DMA1_Channel2_IRQHandler                          build/startup_stm32f105xc.o
DMA1_Channel3_IRQHandler                          build/startup_stm32f105xc.o
DMA1_Channel4_IRQHandler                          build/startup_stm32f105xc.o
DMA1_Channel5_IRQHandler                          build/startup_stm32f105xc.o
DMA1_Channel6_IRQHandler                          build/startup_stm32f105xc.o
DMA1_Channel7_IRQHandler                          build/startup_stm32f105xc.o
DMA2_Channel1_IRQHandler                          build/startup_stm32f105xc.o
DMA2_Channel2_IRQHandler                          build/startup_stm32f105xc.o
DMA2_Channel3_IRQHandler                          build/startup_stm32f105xc.o
DMA2_Channel4_IRQHandler                          build/startup_stm32f105xc.o
DMA2_Channel5_IRQHandler                          build/startup_stm32f105xc.o
DebugMon_Handler                                  build/stm32f1xx_it.o
Default_Handler                                   build/startup_stm32f105xc.o
DisableE_Motors                                   build/GPIO_Motors.o
                                                  build/Driver_Motors.o
DisableX_Motors                                   build/GPIO_Motors.o
                                                  build/Driver_Motors.o
DisableY_Motors                                   build/GPIO_Motors.o
                                                  build/Driver_Motors.o
DisableZ_Motors                                   build/GPIO_Motors.o
                                                  build/Driver_Motors.o
EMPTY_STRING                                      build/TextConverter_LCD.o
                                                  build/FunctionsForButtons.o
EXTI0_IRQHandler                                  build/startup_stm32f105xc.o
EXTI15_10_IRQHandler                              build/startup_stm32f105xc.o
EXTI1_IRQHandler                                  build/startup_stm32f105xc.o
EXTI2_IRQHandler                                  build/startup_stm32f105xc.o
EXTI3_IRQHandler                                  build/startup_stm32f105xc.o
EXTI4_IRQHandler                                  build/startup_stm32f105xc.o
EXTI9_5_IRQHandler                                build/startup_stm32f105xc.o
E_high_LCD                                        build/GPIOandTIM_LCD.o
                                                  build/Driver_LCD.o
E_low_LCD                                         build/GPIOandTIM_LCD.o
                                                  build/Driver_LCD.o
EnableE_Motors                                    build/GPIO_Motors.o
                                                  build/Driver_Motors.o
EnableX_Motors                                    build/GPIO_Motors.o
                                                  build/Driver_Motors.o
EnableY_Motors                                    build/GPIO_Motors.o
                                                  build/Driver_Motors.o
EnableZ_Motors                                    build/GPIO_Motors.o
                                                  build/Driver_Motors.o
Error_Handler                                     build/main.o
                                                  build/usbh_conf.o
                                                  build/usb_host.o
                                                  build/usart.o
                                                  build/tim.o
FATFS_GetAttachedDriversNbr                       build/ff_gen_drv.o
FATFS_LinkDriver                                  build/ff_gen_drv.o
                                                  build/fatfs.o
FATFS_LinkDriverEx                                build/ff_gen_drv.o
FATFS_UnLinkDriver                                build/ff_gen_drv.o
FATFS_UnLinkDriverEx                              build/ff_gen_drv.o
FLASH_IRQHandler                                  build/startup_stm32f105xc.o
FLASH_PageErase                                   build/stm32f1xx_hal_flash_ex.o
                                                  build/stm32f1xx_hal_flash.o
FLASH_WaitForLastOperation                        build/stm32f1xx_hal_flash.o
                                                  build/stm32f1xx_hal_flash_ex.o
ForwardE_Motors                                   build/GPIO_Motors.o
ForwardX_Motors                                   build/GPIO_Motors.o
                                                  build/Driver_Motors.o
ForwardY_Motors                                   build/GPIO_Motors.o
                                                  build/Driver_Motors.o
ForwardZ_Motors                                   build/GPIO_Motors.o
                                                  build/Driver_Motors.o
HAL_DBGMCU_DisableDBGSleepMode                    build/stm32f1xx_hal.o
HAL_DBGMCU_DisableDBGStandbyMode                  build/stm32f1xx_hal.o
HAL_DBGMCU_DisableDBGStopMode                     build/stm32f1xx_hal.o
HAL_DBGMCU_EnableDBGSleepMode                     build/stm32f1xx_hal.o
HAL_DBGMCU_EnableDBGStandbyMode                   build/stm32f1xx_hal.o
HAL_DBGMCU_EnableDBGStopMode                      build/stm32f1xx_hal.o
HAL_DMA_Abort                                     build/stm32f1xx_hal_dma.o
                                                  build/stm32f1xx_hal_uart.o
                                                  build/stm32f1xx_hal_tim.o
HAL_DMA_Abort_IT                                  build/stm32f1xx_hal_dma.o
                                                  build/stm32f1xx_hal_uart.o
HAL_DMA_DeInit                                    build/stm32f1xx_hal_dma.o
HAL_DMA_GetError                                  build/stm32f1xx_hal_dma.o
HAL_DMA_GetState                                  build/stm32f1xx_hal_dma.o
HAL_DMA_IRQHandler                                build/stm32f1xx_hal_dma.o
HAL_DMA_Init                                      build/stm32f1xx_hal_dma.o
HAL_DMA_PollForTransfer                           build/stm32f1xx_hal_dma.o
HAL_DMA_RegisterCallback                          build/stm32f1xx_hal_dma.o
HAL_DMA_Start                                     build/stm32f1xx_hal_dma.o
HAL_DMA_Start_IT                                  build/stm32f1xx_hal_dma.o
                                                  build/stm32f1xx_hal_uart.o
                                                  build/stm32f1xx_hal_tim_ex.o
                                                  build/stm32f1xx_hal_tim.o
HAL_DMA_UnRegisterCallback                        build/stm32f1xx_hal_dma.o
HAL_DeInit                                        build/stm32f1xx_hal.o
HAL_Delay                                         build/stm32f1xx_hal.o
                                                  build/FunctionsForButtons.o
                                                  build/GPIOandTIM_LCD.o
                                                  build/stm32f1xx_ll_usb.o
                                                  build/usbh_conf.o
                                                  build/main.o
HAL_FLASHEx_Erase                                 build/stm32f1xx_hal_flash_ex.o
HAL_FLASHEx_Erase_IT                              build/stm32f1xx_hal_flash_ex.o
HAL_FLASHEx_OBErase                               build/stm32f1xx_hal_flash_ex.o
HAL_FLASHEx_OBGetConfig                           build/stm32f1xx_hal_flash_ex.o
HAL_FLASHEx_OBGetUserData                         build/stm32f1xx_hal_flash_ex.o
HAL_FLASHEx_OBProgram                             build/stm32f1xx_hal_flash_ex.o
HAL_FLASH_EndOfOperationCallback                  build/stm32f1xx_hal_flash.o
HAL_FLASH_GetError                                build/stm32f1xx_hal_flash.o
HAL_FLASH_IRQHandler                              build/stm32f1xx_hal_flash.o
HAL_FLASH_Lock                                    build/stm32f1xx_hal_flash.o
HAL_FLASH_OB_Launch                               build/stm32f1xx_hal_flash.o
HAL_FLASH_OB_Lock                                 build/stm32f1xx_hal_flash.o
HAL_FLASH_OB_Unlock                               build/stm32f1xx_hal_flash.o
HAL_FLASH_OperationErrorCallback                  build/stm32f1xx_hal_flash.o
HAL_FLASH_Program                                 build/stm32f1xx_hal_flash.o
HAL_FLASH_Program_IT                              build/stm32f1xx_hal_flash.o
HAL_FLASH_Unlock                                  build/stm32f1xx_hal_flash.o
HAL_GPIOEx_ConfigEventout                         build/stm32f1xx_hal_gpio_ex.o
HAL_GPIOEx_DisableEventout                        build/stm32f1xx_hal_gpio_ex.o
HAL_GPIOEx_EnableEventout                         build/stm32f1xx_hal_gpio_ex.o
HAL_GPIO_DeInit                                   build/stm32f1xx_hal_gpio.o
                                                  build/usbh_conf.o
                                                  build/usart.o
HAL_GPIO_EXTI_Callback                            build/stm32f1xx_hal_gpio.o
HAL_GPIO_EXTI_IRQHandler                          build/stm32f1xx_hal_gpio.o
HAL_GPIO_Init                                     build/stm32f1xx_hal_gpio.o
                                                  build/stm32f1xx_hal_rcc.o
                                                  build/usbh_conf.o
                                                  build/usart.o
                                                  build/gpio.o
HAL_GPIO_LockPin                                  build/stm32f1xx_hal_gpio.o
HAL_GPIO_ReadPin                                  build/stm32f1xx_hal_gpio.o
                                                  build/main.o
HAL_GPIO_TogglePin                                build/stm32f1xx_hal_gpio.o
HAL_GPIO_WritePin                                 build/stm32f1xx_hal_gpio.o
                                                  build/GPIO_Motors.o
                                                  build/GPIOandTIM_LCD.o
                                                  build/usbh_platform.o
                                                  build/gpio.o
                                                  build/main.o
HAL_GetDEVID                                      build/stm32f1xx_hal.o
HAL_GetHalVersion                                 build/stm32f1xx_hal.o
HAL_GetREVID                                      build/stm32f1xx_hal.o
HAL_GetTick                                       build/stm32f1xx_hal.o
                                                  build/stm32f1xx_hal_uart.o
                                                  build/stm32f1xx_hal_flash.o
                                                  build/stm32f1xx_hal_dma.o
                                                  build/stm32f1xx_hal_rcc_ex.o
                                                  build/stm32f1xx_hal_rcc.o
HAL_GetTickFreq                                   build/stm32f1xx_hal.o
HAL_GetTickPrio                                   build/stm32f1xx_hal.o
HAL_GetUID                                        build/stm32f1xx_hal.o
HAL_HCD_Connect_Callback                          build/usbh_conf.o
HAL_HCD_DeInit                                    build/stm32f1xx_hal_hcd.o
                                                  build/usbh_conf.o
HAL_HCD_Disconnect_Callback                       build/usbh_conf.o
HAL_HCD_GetCurrentFrame                           build/stm32f1xx_hal_hcd.o
                                                  build/usbh_conf.o
HAL_HCD_GetCurrentSpeed                           build/stm32f1xx_hal_hcd.o
                                                  build/usbh_conf.o
HAL_HCD_GetState                                  build/stm32f1xx_hal_hcd.o
HAL_HCD_HC_GetState                               build/stm32f1xx_hal_hcd.o
HAL_HCD_HC_GetURBState                            build/stm32f1xx_hal_hcd.o
                                                  build/usbh_conf.o
HAL_HCD_HC_GetXferCount                           build/stm32f1xx_hal_hcd.o
                                                  build/usbh_conf.o
HAL_HCD_HC_Halt                                   build/stm32f1xx_hal_hcd.o
                                                  build/usbh_conf.o
HAL_HCD_HC_Init                                   build/stm32f1xx_hal_hcd.o
                                                  build/usbh_conf.o
HAL_HCD_HC_NotifyURBChange_Callback               build/usbh_conf.o
HAL_HCD_HC_SubmitRequest                          build/stm32f1xx_hal_hcd.o
                                                  build/usbh_conf.o
HAL_HCD_IRQHandler                                build/stm32f1xx_hal_hcd.o
                                                  build/stm32f1xx_it.o
HAL_HCD_Init                                      build/stm32f1xx_hal_hcd.o
                                                  build/usbh_conf.o
HAL_HCD_MspDeInit                                 build/usbh_conf.o
HAL_HCD_MspInit                                   build/usbh_conf.o
HAL_HCD_ResetPort                                 build/stm32f1xx_hal_hcd.o
                                                  build/usbh_conf.o
HAL_HCD_SOF_Callback                              build/usbh_conf.o
HAL_HCD_Start                                     build/stm32f1xx_hal_hcd.o
                                                  build/usbh_conf.o
HAL_HCD_Stop                                      build/stm32f1xx_hal_hcd.o
                                                  build/usbh_conf.o
HAL_HalfDuplex_EnableReceiver                     build/stm32f1xx_hal_uart.o
HAL_HalfDuplex_EnableTransmitter                  build/stm32f1xx_hal_uart.o
HAL_HalfDuplex_Init                               build/stm32f1xx_hal_uart.o
HAL_IncTick                                       build/stm32f1xx_hal.o
                                                  build/stm32f1xx_it.o
HAL_Init                                          build/stm32f1xx_hal.o
                                                  build/main.o
HAL_InitTick                                      build/stm32f1xx_hal.o
                                                  build/stm32f1xx_hal_rcc.o
HAL_LIN_Init                                      build/stm32f1xx_hal_uart.o
HAL_LIN_SendBreak                                 build/stm32f1xx_hal_uart.o
HAL_MspDeInit                                     build/stm32f1xx_hal.o
HAL_MspInit                                       build/stm32f1xx_hal_msp.o
HAL_MultiProcessor_EnterMuteMode                  build/stm32f1xx_hal_uart.o
HAL_MultiProcessor_ExitMuteMode                   build/stm32f1xx_hal_uart.o
HAL_MultiProcessor_Init                           build/stm32f1xx_hal_uart.o
HAL_NVIC_ClearPendingIRQ                          build/stm32f1xx_hal_cortex.o
HAL_NVIC_DisableIRQ                               build/stm32f1xx_hal_cortex.o
                                                  build/usbh_conf.o
                                                  build/tim.o
HAL_NVIC_EnableIRQ                                build/stm32f1xx_hal_cortex.o
                                                  build/usbh_conf.o
                                                  build/tim.o
                                                  build/main.o
HAL_NVIC_GetActive                                build/stm32f1xx_hal_cortex.o
HAL_NVIC_GetPendingIRQ                            build/stm32f1xx_hal_cortex.o
HAL_NVIC_GetPriority                              build/stm32f1xx_hal_cortex.o
HAL_NVIC_GetPriorityGrouping                      build/stm32f1xx_hal_cortex.o
HAL_NVIC_SetPendingIRQ                            build/stm32f1xx_hal_cortex.o
HAL_NVIC_SetPriority                              build/stm32f1xx_hal_cortex.o
                                                  build/stm32f1xx_hal.o
                                                  build/usbh_conf.o
                                                  build/tim.o
HAL_NVIC_SetPriorityGrouping                      build/stm32f1xx_hal_cortex.o
                                                  build/stm32f1xx_hal.o
HAL_NVIC_SystemReset                              build/stm32f1xx_hal_cortex.o
                                                  build/stm32f1xx_hal_flash.o
HAL_PWR_ConfigPVD                                 build/stm32f1xx_hal_pwr.o
HAL_PWR_DeInit                                    build/stm32f1xx_hal_pwr.o
HAL_PWR_DisableBkUpAccess                         build/stm32f1xx_hal_pwr.o
HAL_PWR_DisablePVD                                build/stm32f1xx_hal_pwr.o
HAL_PWR_DisableSEVOnPend                          build/stm32f1xx_hal_pwr.o
HAL_PWR_DisableSleepOnExit                        build/stm32f1xx_hal_pwr.o
HAL_PWR_DisableWakeUpPin                          build/stm32f1xx_hal_pwr.o
HAL_PWR_EnableBkUpAccess                          build/stm32f1xx_hal_pwr.o
HAL_PWR_EnablePVD                                 build/stm32f1xx_hal_pwr.o
HAL_PWR_EnableSEVOnPend                           build/stm32f1xx_hal_pwr.o
HAL_PWR_EnableSleepOnExit                         build/stm32f1xx_hal_pwr.o
HAL_PWR_EnableWakeUpPin                           build/stm32f1xx_hal_pwr.o
HAL_PWR_EnterSLEEPMode                            build/stm32f1xx_hal_pwr.o
HAL_PWR_EnterSTANDBYMode                          build/stm32f1xx_hal_pwr.o
HAL_PWR_EnterSTOPMode                             build/stm32f1xx_hal_pwr.o
HAL_PWR_PVDCallback                               build/stm32f1xx_hal_pwr.o
HAL_PWR_PVD_IRQHandler                            build/stm32f1xx_hal_pwr.o
HAL_RCCEx_DisablePLL2                             build/stm32f1xx_hal_rcc_ex.o
HAL_RCCEx_DisablePLLI2S                           build/stm32f1xx_hal_rcc_ex.o
HAL_RCCEx_EnablePLL2                              build/stm32f1xx_hal_rcc_ex.o
HAL_RCCEx_EnablePLLI2S                            build/stm32f1xx_hal_rcc_ex.o
HAL_RCCEx_GetPeriphCLKConfig                      build/stm32f1xx_hal_rcc_ex.o
HAL_RCCEx_GetPeriphCLKFreq                        build/stm32f1xx_hal_rcc_ex.o
HAL_RCCEx_PeriphCLKConfig                         build/stm32f1xx_hal_rcc_ex.o
                                                  build/main.o
HAL_RCC_CSSCallback                               build/stm32f1xx_hal_rcc.o
HAL_RCC_ClockConfig                               build/stm32f1xx_hal_rcc.o
                                                  build/main.o
HAL_RCC_DeInit                                    build/stm32f1xx_hal_rcc.o
HAL_RCC_DisableCSS                                build/stm32f1xx_hal_rcc.o
HAL_RCC_EnableCSS                                 build/stm32f1xx_hal_rcc.o
HAL_RCC_GetClockConfig                            build/stm32f1xx_hal_rcc.o
HAL_RCC_GetHCLKFreq                               build/stm32f1xx_hal_rcc.o
HAL_RCC_GetOscConfig                              build/stm32f1xx_hal_rcc.o
HAL_RCC_GetPCLK1Freq                              build/stm32f1xx_hal_rcc.o
                                                  build/stm32f1xx_hal_uart.o
HAL_RCC_GetPCLK2Freq                              build/stm32f1xx_hal_rcc.o
                                                  build/stm32f1xx_hal_uart.o
                                                  build/stm32f1xx_hal_rcc_ex.o
HAL_RCC_GetSysClockFreq                           build/stm32f1xx_hal_rcc.o
                                                  build/stm32f1xx_hal_rcc_ex.o
HAL_RCC_MCOConfig                                 build/stm32f1xx_hal_rcc.o
HAL_RCC_NMI_IRQHandler                            build/stm32f1xx_hal_rcc.o
HAL_RCC_OscConfig                                 build/stm32f1xx_hal_rcc.o
                                                  build/main.o
HAL_ResumeTick                                    build/stm32f1xx_hal.o
HAL_SYSTICK_CLKSourceConfig                       build/stm32f1xx_hal_cortex.o
HAL_SYSTICK_Callback                              build/stm32f1xx_hal_cortex.o
HAL_SYSTICK_Config                                build/stm32f1xx_hal_cortex.o
                                                  build/stm32f1xx_hal.o
HAL_SYSTICK_IRQHandler                            build/stm32f1xx_hal_cortex.o
HAL_SetTickFreq                                   build/stm32f1xx_hal.o
HAL_SuspendTick                                   build/stm32f1xx_hal.o
HAL_TIMEx_BreakCallback                           build/stm32f1xx_hal_tim_ex.o
                                                  build/stm32f1xx_hal_tim.o
HAL_TIMEx_CommutationCallback                     build/stm32f1xx_hal_tim_ex.o
                                                  build/stm32f1xx_hal_tim.o
HAL_TIMEx_ConfigBreakDeadTime                     build/stm32f1xx_hal_tim_ex.o
HAL_TIMEx_ConfigCommutationEvent                  build/stm32f1xx_hal_tim_ex.o
HAL_TIMEx_ConfigCommutationEvent_DMA              build/stm32f1xx_hal_tim_ex.o
HAL_TIMEx_ConfigCommutationEvent_IT               build/stm32f1xx_hal_tim_ex.o
HAL_TIMEx_HallSensor_DeInit                       build/stm32f1xx_hal_tim_ex.o
HAL_TIMEx_HallSensor_GetState                     build/stm32f1xx_hal_tim_ex.o
HAL_TIMEx_HallSensor_Init                         build/stm32f1xx_hal_tim_ex.o
HAL_TIMEx_HallSensor_MspDeInit                    build/stm32f1xx_hal_tim_ex.o
HAL_TIMEx_HallSensor_MspInit                      build/stm32f1xx_hal_tim_ex.o
HAL_TIMEx_HallSensor_Start                        build/stm32f1xx_hal_tim_ex.o
HAL_TIMEx_HallSensor_Start_DMA                    build/stm32f1xx_hal_tim_ex.o
HAL_TIMEx_HallSensor_Start_IT                     build/stm32f1xx_hal_tim_ex.o
HAL_TIMEx_HallSensor_Stop                         build/stm32f1xx_hal_tim_ex.o
HAL_TIMEx_HallSensor_Stop_DMA                     build/stm32f1xx_hal_tim_ex.o
HAL_TIMEx_HallSensor_Stop_IT                      build/stm32f1xx_hal_tim_ex.o
HAL_TIMEx_MasterConfigSynchronization             build/stm32f1xx_hal_tim_ex.o
                                                  build/tim.o
HAL_TIMEx_OCN_Start                               build/stm32f1xx_hal_tim_ex.o
HAL_TIMEx_OCN_Start_DMA                           build/stm32f1xx_hal_tim_ex.o
HAL_TIMEx_OCN_Start_IT                            build/stm32f1xx_hal_tim_ex.o
HAL_TIMEx_OCN_Stop                                build/stm32f1xx_hal_tim_ex.o
HAL_TIMEx_OCN_Stop_DMA                            build/stm32f1xx_hal_tim_ex.o
HAL_TIMEx_OCN_Stop_IT                             build/stm32f1xx_hal_tim_ex.o
HAL_TIMEx_OnePulseN_Start                         build/stm32f1xx_hal_tim_ex.o
HAL_TIMEx_OnePulseN_Start_IT                      build/stm32f1xx_hal_tim_ex.o
HAL_TIMEx_OnePulseN_Stop                          build/stm32f1xx_hal_tim_ex.o
HAL_TIMEx_OnePulseN_Stop_IT                       build/stm32f1xx_hal_tim_ex.o
HAL_TIMEx_PWMN_Start                              build/stm32f1xx_hal_tim_ex.o
HAL_TIMEx_PWMN_Start_DMA                          build/stm32f1xx_hal_tim_ex.o
HAL_TIMEx_PWMN_Start_IT                           build/stm32f1xx_hal_tim_ex.o
HAL_TIMEx_PWMN_Stop                               build/stm32f1xx_hal_tim_ex.o
HAL_TIMEx_PWMN_Stop_DMA                           build/stm32f1xx_hal_tim_ex.o
HAL_TIMEx_PWMN_Stop_IT                            build/stm32f1xx_hal_tim_ex.o
HAL_TIM_Base_DeInit                               build/stm32f1xx_hal_tim.o
HAL_TIM_Base_GetState                             build/stm32f1xx_hal_tim.o
HAL_TIM_Base_Init                                 build/stm32f1xx_hal_tim.o
                                                  build/tim.o
HAL_TIM_Base_MspDeInit                            build/tim.o
HAL_TIM_Base_MspInit                              build/tim.o
HAL_TIM_Base_Start                                build/stm32f1xx_hal_tim.o
HAL_TIM_Base_Start_DMA                            build/stm32f1xx_hal_tim.o
HAL_TIM_Base_Start_IT                             build/stm32f1xx_hal_tim.o
                                                  build/main.o
HAL_TIM_Base_Stop                                 build/stm32f1xx_hal_tim.o
HAL_TIM_Base_Stop_DMA                             build/stm32f1xx_hal_tim.o
HAL_TIM_Base_Stop_IT                              build/stm32f1xx_hal_tim.o
HAL_TIM_ConfigClockSource                         build/stm32f1xx_hal_tim.o
                                                  build/tim.o
HAL_TIM_ConfigOCrefClear                          build/stm32f1xx_hal_tim.o
HAL_TIM_ConfigTI1Input                            build/stm32f1xx_hal_tim.o
HAL_TIM_DMABurst_ReadStart                        build/stm32f1xx_hal_tim.o
HAL_TIM_DMABurst_ReadStop                         build/stm32f1xx_hal_tim.o
HAL_TIM_DMABurst_WriteStart                       build/stm32f1xx_hal_tim.o
HAL_TIM_DMABurst_WriteStop                        build/stm32f1xx_hal_tim.o
HAL_TIM_Encoder_DeInit                            build/stm32f1xx_hal_tim.o
HAL_TIM_Encoder_GetState                          build/stm32f1xx_hal_tim.o
HAL_TIM_Encoder_Init                              build/stm32f1xx_hal_tim.o
HAL_TIM_Encoder_MspDeInit                         build/stm32f1xx_hal_tim.o
HAL_TIM_Encoder_MspInit                           build/stm32f1xx_hal_tim.o
HAL_TIM_Encoder_Start                             build/stm32f1xx_hal_tim.o
HAL_TIM_Encoder_Start_DMA                         build/stm32f1xx_hal_tim.o
HAL_TIM_Encoder_Start_IT                          build/stm32f1xx_hal_tim.o
HAL_TIM_Encoder_Stop                              build/stm32f1xx_hal_tim.o
HAL_TIM_Encoder_Stop_DMA                          build/stm32f1xx_hal_tim.o
HAL_TIM_Encoder_Stop_IT                           build/stm32f1xx_hal_tim.o
HAL_TIM_ErrorCallback                             build/stm32f1xx_hal_tim.o
HAL_TIM_GenerateEvent                             build/stm32f1xx_hal_tim.o
HAL_TIM_IC_CaptureCallback                        build/stm32f1xx_hal_tim.o
HAL_TIM_IC_ConfigChannel                          build/stm32f1xx_hal_tim.o
HAL_TIM_IC_DeInit                                 build/stm32f1xx_hal_tim.o
HAL_TIM_IC_GetState                               build/stm32f1xx_hal_tim.o
HAL_TIM_IC_Init                                   build/stm32f1xx_hal_tim.o
HAL_TIM_IC_MspDeInit                              build/stm32f1xx_hal_tim.o
HAL_TIM_IC_MspInit                                build/stm32f1xx_hal_tim.o
HAL_TIM_IC_Start                                  build/stm32f1xx_hal_tim.o
HAL_TIM_IC_Start_DMA                              build/stm32f1xx_hal_tim.o
HAL_TIM_IC_Start_IT                               build/stm32f1xx_hal_tim.o
HAL_TIM_IC_Stop                                   build/stm32f1xx_hal_tim.o
HAL_TIM_IC_Stop_DMA                               build/stm32f1xx_hal_tim.o
HAL_TIM_IC_Stop_IT                                build/stm32f1xx_hal_tim.o
HAL_TIM_IRQHandler                                build/stm32f1xx_hal_tim.o
                                                  build/stm32f1xx_it.o
HAL_TIM_OC_ConfigChannel                          build/stm32f1xx_hal_tim.o
HAL_TIM_OC_DeInit                                 build/stm32f1xx_hal_tim.o
HAL_TIM_OC_DelayElapsedCallback                   build/stm32f1xx_hal_tim.o
HAL_TIM_OC_GetState                               build/stm32f1xx_hal_tim.o
HAL_TIM_OC_Init                                   build/stm32f1xx_hal_tim.o
HAL_TIM_OC_MspDeInit                              build/stm32f1xx_hal_tim.o
HAL_TIM_OC_MspInit                                build/stm32f1xx_hal_tim.o
HAL_TIM_OC_Start                                  build/stm32f1xx_hal_tim.o
HAL_TIM_OC_Start_DMA                              build/stm32f1xx_hal_tim.o
HAL_TIM_OC_Start_IT                               build/stm32f1xx_hal_tim.o
HAL_TIM_OC_Stop                                   build/stm32f1xx_hal_tim.o
HAL_TIM_OC_Stop_DMA                               build/stm32f1xx_hal_tim.o
HAL_TIM_OC_Stop_IT                                build/stm32f1xx_hal_tim.o
HAL_TIM_OnePulse_ConfigChannel                    build/stm32f1xx_hal_tim.o
HAL_TIM_OnePulse_DeInit                           build/stm32f1xx_hal_tim.o
HAL_TIM_OnePulse_GetState                         build/stm32f1xx_hal_tim.o
HAL_TIM_OnePulse_Init                             build/stm32f1xx_hal_tim.o
HAL_TIM_OnePulse_MspDeInit                        build/stm32f1xx_hal_tim.o
HAL_TIM_OnePulse_MspInit                          build/stm32f1xx_hal_tim.o
HAL_TIM_OnePulse_Start                            build/stm32f1xx_hal_tim.o
HAL_TIM_OnePulse_Start_IT                         build/stm32f1xx_hal_tim.o
HAL_TIM_OnePulse_Stop                             build/stm32f1xx_hal_tim.o
HAL_TIM_OnePulse_Stop_IT                          build/stm32f1xx_hal_tim.o
HAL_TIM_PWM_ConfigChannel                         build/stm32f1xx_hal_tim.o
HAL_TIM_PWM_DeInit                                build/stm32f1xx_hal_tim.o
HAL_TIM_PWM_GetState                              build/stm32f1xx_hal_tim.o
HAL_TIM_PWM_Init                                  build/stm32f1xx_hal_tim.o
HAL_TIM_PWM_MspDeInit                             build/stm32f1xx_hal_tim.o
HAL_TIM_PWM_MspInit                               build/stm32f1xx_hal_tim.o
HAL_TIM_PWM_PulseFinishedCallback                 build/stm32f1xx_hal_tim.o
HAL_TIM_PWM_Start                                 build/stm32f1xx_hal_tim.o
HAL_TIM_PWM_Start_DMA                             build/stm32f1xx_hal_tim.o
HAL_TIM_PWM_Start_IT                              build/stm32f1xx_hal_tim.o
HAL_TIM_PWM_Stop                                  build/stm32f1xx_hal_tim.o
HAL_TIM_PWM_Stop_DMA                              build/stm32f1xx_hal_tim.o
HAL_TIM_PWM_Stop_IT                               build/stm32f1xx_hal_tim.o
HAL_TIM_PeriodElapsedCallback                     build/stm32f1xx_hal_tim.o
HAL_TIM_ReadCapturedValue                         build/stm32f1xx_hal_tim.o
HAL_TIM_SlaveConfigSynchronization                build/stm32f1xx_hal_tim.o
HAL_TIM_SlaveConfigSynchronization_IT             build/stm32f1xx_hal_tim.o
HAL_TIM_TriggerCallback                           build/stm32f1xx_hal_tim.o
HAL_UART_Abort                                    build/stm32f1xx_hal_uart.o
HAL_UART_AbortCpltCallback                        build/stm32f1xx_hal_uart.o
HAL_UART_AbortReceive                             build/stm32f1xx_hal_uart.o
HAL_UART_AbortReceiveCpltCallback                 build/stm32f1xx_hal_uart.o
HAL_UART_AbortReceive_IT                          build/stm32f1xx_hal_uart.o
HAL_UART_AbortTransmit                            build/stm32f1xx_hal_uart.o
HAL_UART_AbortTransmitCpltCallback                build/stm32f1xx_hal_uart.o
HAL_UART_AbortTransmit_IT                         build/stm32f1xx_hal_uart.o
HAL_UART_Abort_IT                                 build/stm32f1xx_hal_uart.o
HAL_UART_DMAPause                                 build/stm32f1xx_hal_uart.o
HAL_UART_DMAResume                                build/stm32f1xx_hal_uart.o
HAL_UART_DMAStop                                  build/stm32f1xx_hal_uart.o
HAL_UART_DeInit                                   build/stm32f1xx_hal_uart.o
HAL_UART_ErrorCallback                            build/stm32f1xx_hal_uart.o
HAL_UART_GetError                                 build/stm32f1xx_hal_uart.o
HAL_UART_GetState                                 build/stm32f1xx_hal_uart.o
HAL_UART_IRQHandler                               build/stm32f1xx_hal_uart.o
HAL_UART_Init                                     build/stm32f1xx_hal_uart.o
                                                  build/usart.o
HAL_UART_MspDeInit                                build/usart.o
HAL_UART_MspInit                                  build/usart.o
HAL_UART_Receive                                  build/stm32f1xx_hal_uart.o
HAL_UART_Receive_DMA                              build/stm32f1xx_hal_uart.o
HAL_UART_Receive_IT                               build/stm32f1xx_hal_uart.o
HAL_UART_RxCpltCallback                           build/stm32f1xx_hal_uart.o
HAL_UART_RxHalfCpltCallback                       build/stm32f1xx_hal_uart.o
HAL_UART_Transmit                                 build/stm32f1xx_hal_uart.o
                                                  build/main.o
HAL_UART_Transmit_DMA                             build/stm32f1xx_hal_uart.o
HAL_UART_Transmit_IT                              build/stm32f1xx_hal_uart.o
HAL_UART_TxCpltCallback                           build/stm32f1xx_hal_uart.o
HAL_UART_TxHalfCpltCallback                       build/stm32f1xx_hal_uart.o
HardFault_Handler                                 build/stm32f1xx_it.o
I2C1_ER_IRQHandler                                build/startup_stm32f105xc.o
I2C1_EV_IRQHandler                                build/startup_stm32f105xc.o
I2C2_ER_IRQHandler                                build/startup_stm32f105xc.o
I2C2_EV_IRQHandler                                build/startup_stm32f105xc.o
MX_DriverVbusFS                                   build/usbh_platform.o
                                                  build/usbh_conf.o
MX_FATFS_Init                                     build/fatfs.o
                                                  build/main.o
MX_GPIO_Init                                      build/gpio.o
                                                  build/main.o
MX_SYS_Init                                       build/sys.o
MX_TIM2_Init                                      build/tim.o
                                                  build/main.o
MX_TIM3_Init                                      build/tim.o
                                                  build/main.o
MX_TIM4_Init                                      build/tim.o
                                                  build/main.o
MX_TIM5_Init                                      build/tim.o
                                                  build/main.o
MX_USART2_UART_Init                               build/usart.o
                                                  build/main.o
MX_USB_HOST_Init                                  build/usb_host.o
                                                  build/main.o
MX_USB_HOST_Process                               build/usb_host.o
                                                  build/main.o
MemManage_Handler                                 build/stm32f1xx_it.o
NMI_Handler                                       build/stm32f1xx_it.o
OTG_FS_IRQHandler                                 build/stm32f1xx_it.o
OTG_FS_WKUP_IRQHandler                            build/startup_stm32f105xc.o
PVD_IRQHandler                                    build/startup_stm32f105xc.o
PendSV_Handler                                    build/stm32f1xx_it.o
RCC_IRQHandler                                    build/startup_stm32f105xc.o
RS_high_LCD                                       build/GPIOandTIM_LCD.o
                                                  build/Driver_LCD.o
RS_low_LCD                                        build/GPIOandTIM_LCD.o
                                                  build/Driver_LCD.o
RTC_Alarm_IRQHandler                              build/startup_stm32f105xc.o
RTC_IRQHandler                                    build/startup_stm32f105xc.o
RW_high_LCD                                       build/GPIOandTIM_LCD.o
RW_low_LCD                                        build/GPIOandTIM_LCD.o
                                                  build/Driver_LCD.o
Ready_LCD                                         build/GPIOandTIM_LCD.o
                                                  build/Driver_LCD.o
Reset_Handler                                     build/startup_stm32f105xc.o
SPI1_IRQHandler                                   build/startup_stm32f105xc.o
SPI2_IRQHandler                                   build/startup_stm32f105xc.o
SPI3_IRQHandler                                   build/startup_stm32f105xc.o
SVC_Handler                                       build/stm32f1xx_it.o
StepOffE_Motors                                   build/GPIO_Motors.o
StepOffX_Motors                                   build/GPIO_Motors.o
                                                  build/Driver_Motors.o
StepOffY_Motors                                   build/GPIO_Motors.o
                                                  build/Driver_Motors.o
StepOffZ_Motors                                   build/GPIO_Motors.o
                                                  build/Driver_Motors.o
StepOnE_Motors                                    build/GPIO_Motors.o
StepOnX_Motors                                    build/GPIO_Motors.o
                                                  build/Driver_Motors.o
StepOnY_Motors                                    build/GPIO_Motors.o
                                                  build/Driver_Motors.o
StepOnZ_Motors                                    build/GPIO_Motors.o
                                                  build/Driver_Motors.o
SysTick_Handler                                   build/stm32f1xx_it.o
SystemClock_Config                                build/main.o
SystemCoreClock                                   build/system_stm32f1xx.o
                                                  build/stm32f1xx_hal_rcc.o
                                                  build/stm32f1xx_hal.o
SystemCoreClockUpdate                             build/system_stm32f1xx.o
SystemInit                                        build/system_stm32f1xx.o
                                                  build/startup_stm32f105xc.o
TAMPER_IRQHandler                                 build/startup_stm32f105xc.o
TIM1_BRK_IRQHandler                               build/startup_stm32f105xc.o
TIM1_CC_IRQHandler                                build/startup_stm32f105xc.o
TIM1_TRG_COM_IRQHandler                           build/startup_stm32f105xc.o
TIM1_UP_IRQHandler                                build/startup_stm32f105xc.o
TIM2_IRQHandler                                   build/stm32f1xx_it.o
TIM3_IRQHandler                                   build/stm32f1xx_it.o
TIM4_IRQHandler                                   build/stm32f1xx_it.o
TIM5_IRQHandler                                   build/stm32f1xx_it.o
TIM6_IRQHandler                                   build/startup_stm32f105xc.o
TIM7_IRQHandler                                   build/startup_stm32f105xc.o
TIMEx_DMACommutationCplt                          build/stm32f1xx_hal_tim_ex.o
                                                  build/stm32f1xx_hal_tim.o
TIM_Base_SetConfig                                build/stm32f1xx_hal_tim.o
                                                  build/stm32f1xx_hal_tim_ex.o
TIM_CCxChannelCmd                                 build/stm32f1xx_hal_tim.o
                                                  build/stm32f1xx_hal_tim_ex.o
TIM_DMACaptureCplt                                build/stm32f1xx_hal_tim.o
                                                  build/stm32f1xx_hal_tim_ex.o
TIM_DMADelayPulseCplt                             build/stm32f1xx_hal_tim.o
                                                  build/stm32f1xx_hal_tim_ex.o
TIM_DMAError                                      build/stm32f1xx_hal_tim.o
                                                  build/stm32f1xx_hal_tim_ex.o
TIM_OC2_SetConfig                                 build/stm32f1xx_hal_tim.o
                                                  build/stm32f1xx_hal_tim_ex.o
TIM_TI1_SetConfig                                 build/stm32f1xx_hal_tim.o
                                                  build/stm32f1xx_hal_tim_ex.o
ThereIsNodeAbove_Menu                             build/Constructor_Menu.o
                                                  build/FunctionsForButtons.o
ThereIsNodeBelow_Menu                             build/Constructor_Menu.o
                                                  build/FunctionsForButtons.o
UART4_IRQHandler                                  build/startup_stm32f105xc.o
UART5_IRQHandler                                  build/startup_stm32f105xc.o
USART1_IRQHandler                                 build/startup_stm32f105xc.o
USART2_IRQHandler                                 build/startup_stm32f105xc.o
USART3_IRQHandler                                 build/startup_stm32f105xc.o
USBHFatFS                                         build/fatfs.o
USBHFile                                          build/fatfs.o
USBHPath                                          build/fatfs.o
                                                  build/Driver_USBdrive.o
                                                  build/FunctionsForButtons.o
USBH_AllocPipe                                    build/usbh_pipes.o
                                                  build/usbh_msc.o
                                                  build/usbh_core.o
USBH_BulkReceiveData                              build/usbh_ioreq.o
                                                  build/usbh_msc_bot.o
USBH_BulkSendData                                 build/usbh_ioreq.o
                                                  build/usbh_msc_bot.o
USBH_ClosePipe                                    build/usbh_pipes.o
                                                  build/usbh_msc.o
USBH_ClrFeature                                   build/usbh_ctlreq.o
                                                  build/usbh_msc_bot.o
                                                  build/usbh_msc.o
USBH_CtlReceiveData                               build/usbh_ioreq.o
                                                  build/usbh_ctlreq.o
USBH_CtlReq                                       build/usbh_ctlreq.o
                                                  build/usbh_msc_bot.o
USBH_CtlSendData                                  build/usbh_ioreq.o
                                                  build/usbh_ctlreq.o
USBH_CtlSendSetup                                 build/usbh_ioreq.o
                                                  build/usbh_ctlreq.o
USBH_DeInit                                       build/usbh_core.o
USBH_Delay                                        build/usbh_conf.o
                                                  build/usbh_core.o
USBH_Driver                                       build/usbh_diskio.o
                                                  build/fatfs.o
USBH_FindInterface                                build/usbh_core.o
                                                  build/usbh_msc.o
USBH_FindInterfaceIndex                           build/usbh_core.o
USBH_FreePipe                                     build/usbh_pipes.o
                                                  build/usbh_msc.o
                                                  build/usbh_core.o
USBH_GetActiveClass                               build/usbh_core.o
USBH_GetDescriptor                                build/usbh_ctlreq.o
USBH_GetNextDesc                                  build/usbh_ctlreq.o
USBH_Get_CfgDesc                                  build/usbh_ctlreq.o
                                                  build/usbh_core.o
USBH_Get_DevDesc                                  build/usbh_ctlreq.o
                                                  build/usbh_core.o
USBH_Get_StringDesc                               build/usbh_ctlreq.o
                                                  build/usbh_core.o
USBH_Get_USB_Status                               build/usbh_conf.o
USBH_Init                                         build/usbh_core.o
                                                  build/usb_host.o
USBH_InterruptReceiveData                         build/usbh_ioreq.o
USBH_InterruptSendData                            build/usbh_ioreq.o
USBH_IsocReceiveData                              build/usbh_ioreq.o
USBH_IsocSendData                                 build/usbh_ioreq.o
USBH_LL_ClosePipe                                 build/usbh_conf.o
                                                  build/usbh_pipes.o
USBH_LL_Connect                                   build/usbh_core.o
                                                  build/usbh_conf.o
USBH_LL_DeInit                                    build/usbh_conf.o
USBH_LL_Disconnect                                build/usbh_core.o
                                                  build/usbh_conf.o
USBH_LL_DriverVBUS                                build/usbh_conf.o
                                                  build/usbh_core.o
USBH_LL_GetLastXferSize                           build/usbh_conf.o
                                                  build/usbh_msc_bot.o
USBH_LL_GetSpeed                                  build/usbh_conf.o
                                                  build/usbh_core.o
USBH_LL_GetToggle                                 build/usbh_conf.o
                                                  build/usbh_msc_bot.o
USBH_LL_GetURBState                               build/usbh_conf.o
                                                  build/usbh_msc_bot.o
                                                  build/usbh_ctlreq.o
USBH_LL_IncTimer                                  build/usbh_core.o
                                                  build/usbh_conf.o
USBH_LL_Init                                      build/usbh_conf.o
                                                  build/usbh_core.o
USBH_LL_OpenPipe                                  build/usbh_conf.o
                                                  build/usbh_pipes.o
USBH_LL_ResetPort                                 build/usbh_conf.o
                                                  build/usbh_core.o
USBH_LL_SetTimer                                  build/usbh_core.o
                                                  build/usbh_conf.o
USBH_LL_SetToggle                                 build/usbh_conf.o
                                                  build/usbh_msc_bot.o
                                                  build/usbh_msc.o
USBH_LL_Start                                     build/usbh_conf.o
                                                  build/usbh_core.o
USBH_LL_Stop                                      build/usbh_conf.o
                                                  build/usbh_ctlreq.o
                                                  build/usbh_core.o
USBH_LL_SubmitURB                                 build/usbh_conf.o
                                                  build/usbh_ioreq.o
USBH_MSC_BOT_Init                                 build/usbh_msc_bot.o
                                                  build/usbh_msc.o
USBH_MSC_BOT_Process                              build/usbh_msc_bot.o
                                                  build/usbh_msc_scsi.o
USBH_MSC_BOT_REQ_GetMaxLUN                        build/usbh_msc_bot.o
                                                  build/usbh_msc.o
USBH_MSC_BOT_REQ_Reset                            build/usbh_msc_bot.o
USBH_MSC_GetLUNInfo                               build/usbh_msc.o
                                                  build/usbh_diskio.o
USBH_MSC_GetMaxLUN                                build/usbh_msc.o
USBH_MSC_IsReady                                  build/usbh_msc.o
USBH_MSC_Read                                     build/usbh_msc.o
                                                  build/usbh_diskio.o
USBH_MSC_SCSI_Inquiry                             build/usbh_msc_scsi.o
                                                  build/usbh_msc.o
USBH_MSC_SCSI_Read                                build/usbh_msc_scsi.o
                                                  build/usbh_msc.o
USBH_MSC_SCSI_ReadCapacity                        build/usbh_msc_scsi.o
                                                  build/usbh_msc.o
USBH_MSC_SCSI_RequestSense                        build/usbh_msc_scsi.o
                                                  build/usbh_msc.o
USBH_MSC_SCSI_TestUnitReady                       build/usbh_msc_scsi.o
                                                  build/usbh_msc.o
USBH_MSC_SCSI_Write                               build/usbh_msc_scsi.o
                                                  build/usbh_msc.o
USBH_MSC_UnitIsReady                              build/usbh_msc.o
                                                  build/usbh_diskio.o
USBH_MSC_Write                                    build/usbh_msc.o
                                                  build/usbh_diskio.o
USBH_OpenPipe                                     build/usbh_pipes.o
                                                  build/usbh_msc.o
                                                  build/usbh_core.o
USBH_Process                                      build/usbh_core.o
                                                  build/usb_host.o
USBH_ReEnumerate                                  build/usbh_core.o
USBH_RegisterClass                                build/usbh_core.o
                                                  build/usb_host.o
USBH_SelectInterface                              build/usbh_core.o
                                                  build/usbh_msc.o
USBH_SetAddress                                   build/usbh_ctlreq.o
                                                  build/usbh_core.o
USBH_SetCfg                                       build/usbh_ctlreq.o
                                                  build/usbh_core.o
USBH_SetInterface                                 build/usbh_ctlreq.o
USBH_Start                                        build/usbh_core.o
                                                  build/usb_host.o
USBH_Stop                                         build/usbh_core.o
USBH_initialize                                   build/usbh_diskio.o
USBH_ioctl                                        build/usbh_diskio.o
USBH_msc                                          build/usbh_msc.o
                                                  build/usb_host.o
USBH_read                                         build/usbh_diskio.o
USBH_status                                       build/usbh_diskio.o
USBH_write                                        build/usbh_diskio.o
USB_ActivateEndpoint                              build/stm32f1xx_ll_usb.o
USB_ActivateRemoteWakeup                          build/stm32f1xx_ll_usb.o
USB_ActivateSetup                                 build/stm32f1xx_ll_usb.o
USB_ClearInterrupts                               build/stm32f1xx_ll_usb.o
USB_CoreInit                                      build/stm32f1xx_ll_usb.o
                                                  build/stm32f1xx_hal_hcd.o
USB_DeActivateRemoteWakeup                        build/stm32f1xx_ll_usb.o
USB_DeactivateEndpoint                            build/stm32f1xx_ll_usb.o
USB_DevConnect                                    build/stm32f1xx_ll_usb.o
USB_DevDisconnect                                 build/stm32f1xx_ll_usb.o
USB_DevInit                                       build/stm32f1xx_ll_usb.o
USB_DisableGlobalInt                              build/stm32f1xx_ll_usb.o
                                                  build/stm32f1xx_hal_hcd.o
USB_DoPing                                        build/stm32f1xx_ll_usb.o
USB_DriveVbus                                     build/stm32f1xx_ll_usb.o
                                                  build/stm32f1xx_hal_hcd.o
USB_EP0StartXfer                                  build/stm32f1xx_ll_usb.o
USB_EP0_OutStart                                  build/stm32f1xx_ll_usb.o
USB_EPClearStall                                  build/stm32f1xx_ll_usb.o
USB_EPSetStall                                    build/stm32f1xx_ll_usb.o
USB_EPStartXfer                                   build/stm32f1xx_ll_usb.o
USB_EnableGlobalInt                               build/stm32f1xx_ll_usb.o
                                                  build/stm32f1xx_hal_hcd.o
USB_FlushRxFifo                                   build/stm32f1xx_ll_usb.o
USB_FlushTxFifo                                   build/stm32f1xx_ll_usb.o
USB_GetCurrentFrame                               build/stm32f1xx_ll_usb.o
                                                  build/stm32f1xx_hal_hcd.o
USB_GetDevSpeed                                   build/stm32f1xx_ll_usb.o
USB_GetHostSpeed                                  build/stm32f1xx_ll_usb.o
                                                  build/stm32f1xx_hal_hcd.o
USB_GetMode                                       build/stm32f1xx_ll_usb.o
                                                  build/stm32f1xx_hal_hcd.o
USB_HC_Halt                                       build/stm32f1xx_ll_usb.o
                                                  build/stm32f1xx_hal_hcd.o
USB_HC_Init                                       build/stm32f1xx_ll_usb.o
                                                  build/stm32f1xx_hal_hcd.o
USB_HC_ReadInterrupt                              build/stm32f1xx_ll_usb.o
                                                  build/stm32f1xx_hal_hcd.o
USB_HC_StartXfer                                  build/stm32f1xx_ll_usb.o
                                                  build/stm32f1xx_hal_hcd.o
USB_HostInit                                      build/stm32f1xx_ll_usb.o
                                                  build/stm32f1xx_hal_hcd.o
USB_InitFSLSPClkSel                               build/stm32f1xx_ll_usb.o
                                                  build/stm32f1xx_hal_hcd.o
USB_ReadDevAllInEpInterrupt                       build/stm32f1xx_ll_usb.o
USB_ReadDevAllOutEpInterrupt                      build/stm32f1xx_ll_usb.o
USB_ReadDevInEPInterrupt                          build/stm32f1xx_ll_usb.o
USB_ReadDevOutEPInterrupt                         build/stm32f1xx_ll_usb.o
USB_ReadInterrupts                                build/stm32f1xx_ll_usb.o
                                                  build/stm32f1xx_hal_hcd.o
USB_ReadPacket                                    build/stm32f1xx_ll_usb.o
                                                  build/stm32f1xx_hal_hcd.o
USB_ResetPort                                     build/stm32f1xx_ll_usb.o
                                                  build/stm32f1xx_hal_hcd.o
USB_SetCurrentMode                                build/stm32f1xx_ll_usb.o
                                                  build/stm32f1xx_hal_hcd.o
USB_SetDevAddress                                 build/stm32f1xx_ll_usb.o
USB_SetDevSpeed                                   build/stm32f1xx_ll_usb.o
USB_StopDevice                                    build/stm32f1xx_ll_usb.o
USB_StopHost                                      build/stm32f1xx_ll_usb.o
                                                  build/stm32f1xx_hal_hcd.o
USB_WritePacket                                   build/stm32f1xx_ll_usb.o
UsageFault_Handler                                build/stm32f1xx_it.o
WWDG_IRQHandler                                   build/startup_stm32f105xc.o
_Balloc                                           /usr/lib/gcc/arm-none-eabi/6.3.1/../../../arm-none-eabi/lib/thumb/v7-m/libc_nano.a(lib_a-mprec.o)
                                                  /usr/lib/gcc/arm-none-eabi/6.3.1/../../../arm-none-eabi/lib/thumb/v7-m/libc_nano.a(lib_a-dtoa.o)
                                                  /usr/lib/gcc/arm-none-eabi/6.3.1/../../../arm-none-eabi/lib/thumb/v7-m/libc_nano.a(lib_a-gdtoa-gethex.o)
                                                  /usr/lib/gcc/arm-none-eabi/6.3.1/../../../arm-none-eabi/lib/thumb/v7-m/libc_nano.a(lib_a-strtod.o)
_Bfree                                            /usr/lib/gcc/arm-none-eabi/6.3.1/../../../arm-none-eabi/lib/thumb/v7-m/libc_nano.a(lib_a-mprec.o)
                                                  /usr/lib/gcc/arm-none-eabi/6.3.1/../../../arm-none-eabi/lib/thumb/v7-m/libc_nano.a(lib_a-dtoa.o)
                                                  /usr/lib/gcc/arm-none-eabi/6.3.1/../../../arm-none-eabi/lib/thumb/v7-m/libc_nano.a(lib_a-gdtoa-gethex.o)
                                                  /usr/lib/gcc/arm-none-eabi/6.3.1/../../../arm-none-eabi/lib/thumb/v7-m/libc_nano.a(lib_a-strtod.o)
_ITM_deregisterTMCloneTable                       /usr/lib/gcc/arm-none-eabi/6.3.1/thumb/v7-m/crtbegin.o
_ITM_registerTMCloneTable                         /usr/lib/gcc/arm-none-eabi/6.3.1/thumb/v7-m/crtbegin.o
_Jv_RegisterClasses                               /usr/lib/gcc/arm-none-eabi/6.3.1/thumb/v7-m/crtbegin.o
_PathLocale                                       /usr/lib/gcc/arm-none-eabi/6.3.1/../../../arm-none-eabi/lib/thumb/v7-m/libc_nano.a(lib_a-locale.o)
__TMC_END__                                       /usr/lib/gcc/arm-none-eabi/6.3.1/thumb/v7-m/crtend.o
                                                  /usr/lib/gcc/arm-none-eabi/6.3.1/thumb/v7-m/crtbegin.o
__adddf3                                          /usr/lib/gcc/arm-none-eabi/6.3.1/thumb/v7-m/libgcc.a(_arm_addsubdf3.o)
__addsf3                                          /usr/lib/gcc/arm-none-eabi/6.3.1/thumb/v7-m/libgcc.a(_arm_addsubsf3.o)
__aeabi_cdcmpeq                                   /usr/lib/gcc/arm-none-eabi/6.3.1/thumb/v7-m/libgcc.a(_arm_cmpdf2.o)
__aeabi_cdcmple                                   /usr/lib/gcc/arm-none-eabi/6.3.1/thumb/v7-m/libgcc.a(_arm_cmpdf2.o)
__aeabi_cdrcmple                                  /usr/lib/gcc/arm-none-eabi/6.3.1/thumb/v7-m/libgcc.a(_arm_cmpdf2.o)
__aeabi_cfcmpeq                                   /usr/lib/gcc/arm-none-eabi/6.3.1/thumb/v7-m/libgcc.a(_arm_cmpsf2.o)
__aeabi_cfcmple                                   /usr/lib/gcc/arm-none-eabi/6.3.1/thumb/v7-m/libgcc.a(_arm_cmpsf2.o)
__aeabi_cfrcmple                                  /usr/lib/gcc/arm-none-eabi/6.3.1/thumb/v7-m/libgcc.a(_arm_cmpsf2.o)
__aeabi_d2f                                       /usr/lib/gcc/arm-none-eabi/6.3.1/thumb/v7-m/libgcc.a(_arm_truncdfsf2.o)
                                                  /usr/lib/gcc/arm-none-eabi/6.3.1/../../../arm-none-eabi/lib/thumb/v7-m/libm.a(lib_a-wf_sqrt.o)
                                                  /usr/lib/gcc/arm-none-eabi/6.3.1/../../../arm-none-eabi/lib/thumb/v7-m/libc_nano.a(lib_a-strtod.o)
                                                  build/GcodeConverter_Gcode.o
                                                  build/Buffer_Gcode.o
__aeabi_d2iz                                      /usr/lib/gcc/arm-none-eabi/6.3.1/thumb/v7-m/libgcc.a(_arm_fixdfsi.o)
                                                  /usr/lib/gcc/arm-none-eabi/6.3.1/../../../arm-none-eabi/lib/thumb/v7-m/libc_nano.a(lib_a-dtoa.o)
                                                  build/TextConverter_LCD.o
__aeabi_d2lz                                      /usr/lib/gcc/arm-none-eabi/6.3.1/thumb/v7-m/libgcc.a(_fixdfdi.o)
                                                  /usr/lib/gcc/arm-none-eabi/6.3.1/../../../arm-none-eabi/lib/thumb/v7-m/libc_nano.a(lib_a-strtod.o)
__aeabi_d2uiz                                     /usr/lib/gcc/arm-none-eabi/6.3.1/thumb/v7-m/libgcc.a(_arm_fixunsdfsi.o)
                                                  /usr/lib/gcc/arm-none-eabi/6.3.1/thumb/v7-m/libgcc.a(_fixunsdfdi.o)
                                                  /usr/lib/gcc/arm-none-eabi/6.3.1/../../../arm-none-eabi/lib/thumb/v7-m/libc_nano.a(lib_a-strtod.o)
__aeabi_d2ulz                                     /usr/lib/gcc/arm-none-eabi/6.3.1/thumb/v7-m/libgcc.a(_fixunsdfdi.o)
                                                  /usr/lib/gcc/arm-none-eabi/6.3.1/thumb/v7-m/libgcc.a(_fixdfdi.o)
__aeabi_dadd                                      /usr/lib/gcc/arm-none-eabi/6.3.1/thumb/v7-m/libgcc.a(_arm_addsubdf3.o)
                                                  /usr/lib/gcc/arm-none-eabi/6.3.1/../../../arm-none-eabi/lib/thumb/v7-m/libm.a(lib_a-s_scalbn.o)
                                                  /usr/lib/gcc/arm-none-eabi/6.3.1/../../../arm-none-eabi/lib/thumb/v7-m/libm.a(lib_a-s_rint.o)
                                                  /usr/lib/gcc/arm-none-eabi/6.3.1/../../../arm-none-eabi/lib/thumb/v7-m/libm.a(lib_a-e_sqrt.o)
                                                  /usr/lib/gcc/arm-none-eabi/6.3.1/../../../arm-none-eabi/lib/thumb/v7-m/libm.a(lib_a-e_pow.o)
                                                  /usr/lib/gcc/arm-none-eabi/6.3.1/../../../arm-none-eabi/lib/thumb/v7-m/libm.a(lib_a-s_round.o)
                                                  /usr/lib/gcc/arm-none-eabi/6.3.1/../../../arm-none-eabi/lib/thumb/v7-m/libc_nano.a(lib_a-dtoa.o)
                                                  /usr/lib/gcc/arm-none-eabi/6.3.1/../../../arm-none-eabi/lib/thumb/v7-m/libc_nano.a(lib_a-strtod.o)
                                                  build/Buffer_Gcode.o
__aeabi_dcmpeq                                    /usr/lib/gcc/arm-none-eabi/6.3.1/thumb/v7-m/libgcc.a(_arm_cmpdf2.o)
                                                  /usr/lib/gcc/arm-none-eabi/6.3.1/../../../arm-none-eabi/lib/thumb/v7-m/libm.a(lib_a-w_pow.o)
                                                  /usr/lib/gcc/arm-none-eabi/6.3.1/../../../arm-none-eabi/lib/thumb/v7-m/libc_nano.a(lib_a-dtoa.o)
                                                  /usr/lib/gcc/arm-none-eabi/6.3.1/../../../arm-none-eabi/lib/thumb/v7-m/libc_nano.a(lib_a-svfwprintf.o)
                                                  /usr/lib/gcc/arm-none-eabi/6.3.1/../../../arm-none-eabi/lib/thumb/v7-m/libc_nano.a(lib_a-strtod.o)
__aeabi_dcmpge                                    /usr/lib/gcc/arm-none-eabi/6.3.1/thumb/v7-m/libgcc.a(_arm_cmpdf2.o)
                                                  /usr/lib/gcc/arm-none-eabi/6.3.1/../../../arm-none-eabi/lib/thumb/v7-m/libm.a(lib_a-e_pow.o)
                                                  /usr/lib/gcc/arm-none-eabi/6.3.1/../../../arm-none-eabi/lib/thumb/v7-m/libc_nano.a(lib_a-dtoa.o)
__aeabi_dcmpgt                                    /usr/lib/gcc/arm-none-eabi/6.3.1/thumb/v7-m/libgcc.a(_arm_cmpdf2.o)
                                                  /usr/lib/gcc/arm-none-eabi/6.3.1/../../../arm-none-eabi/lib/thumb/v7-m/libm.a(lib_a-e_pow.o)
                                                  /usr/lib/gcc/arm-none-eabi/6.3.1/../../../arm-none-eabi/lib/thumb/v7-m/libc_nano.a(lib_a-dtoa.o)
                                                  /usr/lib/gcc/arm-none-eabi/6.3.1/../../../arm-none-eabi/lib/thumb/v7-m/libc_nano.a(lib_a-strtod.o)
                                                  build/Buffer_Gcode.o
__aeabi_dcmple                                    /usr/lib/gcc/arm-none-eabi/6.3.1/thumb/v7-m/libgcc.a(_arm_cmpdf2.o)
                                                  /usr/lib/gcc/arm-none-eabi/6.3.1/../../../arm-none-eabi/lib/thumb/v7-m/libc_nano.a(lib_a-svfwprintf.o)
                                                  /usr/lib/gcc/arm-none-eabi/6.3.1/../../../arm-none-eabi/lib/thumb/v7-m/libc_nano.a(lib_a-strtod.o)
__aeabi_dcmplt                                    /usr/lib/gcc/arm-none-eabi/6.3.1/thumb/v7-m/libgcc.a(_arm_cmpdf2.o)
                                                  /usr/lib/gcc/arm-none-eabi/6.3.1/thumb/v7-m/libgcc.a(_fixdfdi.o)
                                                  /usr/lib/gcc/arm-none-eabi/6.3.1/../../../arm-none-eabi/lib/thumb/v7-m/libm.a(lib_a-w_sqrt.o)
                                                  /usr/lib/gcc/arm-none-eabi/6.3.1/../../../arm-none-eabi/lib/thumb/v7-m/libm.a(lib_a-w_pow.o)
                                                  /usr/lib/gcc/arm-none-eabi/6.3.1/../../../arm-none-eabi/lib/thumb/v7-m/libc_nano.a(lib_a-dtoa.o)
                                                  /usr/lib/gcc/arm-none-eabi/6.3.1/../../../arm-none-eabi/lib/thumb/v7-m/libc_nano.a(lib_a-svfwprintf.o)
                                                  /usr/lib/gcc/arm-none-eabi/6.3.1/../../../arm-none-eabi/lib/thumb/v7-m/libc_nano.a(lib_a-strtod.o)
                                                  build/Buffer_Gcode.o
__aeabi_dcmpun                                    /usr/lib/gcc/arm-none-eabi/6.3.1/thumb/v7-m/libgcc.a(_arm_unorddf2.o)
                                                  /usr/lib/gcc/arm-none-eabi/6.3.1/../../../arm-none-eabi/lib/thumb/v7-m/libm.a(lib_a-w_sqrt.o)
                                                  /usr/lib/gcc/arm-none-eabi/6.3.1/../../../arm-none-eabi/lib/thumb/v7-m/libm.a(lib_a-w_pow.o)
                                                  /usr/lib/gcc/arm-none-eabi/6.3.1/../../../arm-none-eabi/lib/thumb/v7-m/libc_nano.a(lib_a-svfwprintf.o)
                                                  /usr/lib/gcc/arm-none-eabi/6.3.1/../../../arm-none-eabi/lib/thumb/v7-m/libc_nano.a(lib_a-strtod.o)
__aeabi_ddiv                                      /usr/lib/gcc/arm-none-eabi/6.3.1/thumb/v7-m/libgcc.a(_arm_muldivdf3.o)
                                                  /usr/lib/gcc/arm-none-eabi/6.3.1/../../../arm-none-eabi/lib/thumb/v7-m/libm.a(lib_a-e_sqrt.o)
                                                  /usr/lib/gcc/arm-none-eabi/6.3.1/../../../arm-none-eabi/lib/thumb/v7-m/libm.a(lib_a-e_pow.o)
                                                  /usr/lib/gcc/arm-none-eabi/6.3.1/../../../arm-none-eabi/lib/thumb/v7-m/libm.a(lib_a-wf_sqrt.o)
                                                  /usr/lib/gcc/arm-none-eabi/6.3.1/../../../arm-none-eabi/lib/thumb/v7-m/libm.a(lib_a-w_sqrt.o)
                                                  /usr/lib/gcc/arm-none-eabi/6.3.1/../../../arm-none-eabi/lib/thumb/v7-m/libm.a(lib_a-w_pow.o)
                                                  /usr/lib/gcc/arm-none-eabi/6.3.1/../../../arm-none-eabi/lib/thumb/v7-m/libc_nano.a(lib_a-dtoa.o)
                                                  /usr/lib/gcc/arm-none-eabi/6.3.1/../../../arm-none-eabi/lib/thumb/v7-m/libc_nano.a(lib_a-mprec.o)
                                                  /usr/lib/gcc/arm-none-eabi/6.3.1/../../../arm-none-eabi/lib/thumb/v7-m/libc_nano.a(lib_a-strtod.o)
                                                  build/Buffer_Gcode.o
__aeabi_dmul                                      /usr/lib/gcc/arm-none-eabi/6.3.1/thumb/v7-m/libgcc.a(_arm_muldivdf3.o)
                                                  /usr/lib/gcc/arm-none-eabi/6.3.1/thumb/v7-m/libgcc.a(_fixunsdfdi.o)
                                                  /usr/lib/gcc/arm-none-eabi/6.3.1/../../../arm-none-eabi/lib/thumb/v7-m/libm.a(lib_a-s_scalbn.o)
                                                  /usr/lib/gcc/arm-none-eabi/6.3.1/../../../arm-none-eabi/lib/thumb/v7-m/libm.a(lib_a-e_sqrt.o)
                                                  /usr/lib/gcc/arm-none-eabi/6.3.1/../../../arm-none-eabi/lib/thumb/v7-m/libm.a(lib_a-e_pow.o)
                                                  /usr/lib/gcc/arm-none-eabi/6.3.1/../../../arm-none-eabi/lib/thumb/v7-m/libm.a(lib_a-w_pow.o)
                                                  /usr/lib/gcc/arm-none-eabi/6.3.1/../../../arm-none-eabi/lib/thumb/v7-m/libc_nano.a(lib_a-dtoa.o)
                                                  /usr/lib/gcc/arm-none-eabi/6.3.1/../../../arm-none-eabi/lib/thumb/v7-m/libc_nano.a(lib_a-mprec.o)
                                                  /usr/lib/gcc/arm-none-eabi/6.3.1/../../../arm-none-eabi/lib/thumb/v7-m/libc_nano.a(lib_a-strtod.o)
                                                  build/TextConverter_LCD.o
                                                  build/Buffer_Gcode.o
__aeabi_drsub                                     /usr/lib/gcc/arm-none-eabi/6.3.1/thumb/v7-m/libgcc.a(_arm_addsubdf3.o)
__aeabi_dsub                                      /usr/lib/gcc/arm-none-eabi/6.3.1/thumb/v7-m/libgcc.a(_arm_addsubdf3.o)
                                                  /usr/lib/gcc/arm-none-eabi/6.3.1/thumb/v7-m/libgcc.a(_fixunsdfdi.o)
                                                  /usr/lib/gcc/arm-none-eabi/6.3.1/../../../arm-none-eabi/lib/thumb/v7-m/libm.a(lib_a-s_rint.o)
                                                  /usr/lib/gcc/arm-none-eabi/6.3.1/../../../arm-none-eabi/lib/thumb/v7-m/libm.a(lib_a-e_sqrt.o)
                                                  /usr/lib/gcc/arm-none-eabi/6.3.1/../../../arm-none-eabi/lib/thumb/v7-m/libm.a(lib_a-e_pow.o)
                                                  /usr/lib/gcc/arm-none-eabi/6.3.1/../../../arm-none-eabi/lib/thumb/v7-m/libc_nano.a(lib_a-dtoa.o)
                                                  /usr/lib/gcc/arm-none-eabi/6.3.1/../../../arm-none-eabi/lib/thumb/v7-m/libc_nano.a(lib_a-strtod.o)
                                                  build/Buffer_Gcode.o
__aeabi_f2d                                       /usr/lib/gcc/arm-none-eabi/6.3.1/thumb/v7-m/libgcc.a(_arm_addsubdf3.o)
                                                  /usr/lib/gcc/arm-none-eabi/6.3.1/../../../arm-none-eabi/lib/thumb/v7-m/libm.a(lib_a-wf_sqrt.o)
                                                  build/TextConverter_LCD.o
                                                  build/Buffer_Gcode.o
__aeabi_f2iz                                      /usr/lib/gcc/arm-none-eabi/6.3.1/thumb/v7-m/libgcc.a(_arm_fixsfsi.o)
                                                  /usr/lib/gcc/arm-none-eabi/6.3.1/../../../arm-none-eabi/lib/thumb/v7-m/libm.a(lib_a-sf_lround.o)
                                                  build/TextConverter_LCD.o
__aeabi_fadd                                      /usr/lib/gcc/arm-none-eabi/6.3.1/thumb/v7-m/libgcc.a(_arm_addsubsf3.o)
                                                  /usr/lib/gcc/arm-none-eabi/6.3.1/../../../arm-none-eabi/lib/thumb/v7-m/libm.a(lib_a-ef_sqrt.o)
                                                  build/VirtualPrinters_Gcode.o
                                                  build/Buffer_Gcode.o
__aeabi_fcmpeq                                    /usr/lib/gcc/arm-none-eabi/6.3.1/thumb/v7-m/libgcc.a(_arm_cmpsf2.o)
__aeabi_fcmpge                                    /usr/lib/gcc/arm-none-eabi/6.3.1/thumb/v7-m/libgcc.a(_arm_cmpsf2.o)
                                                  build/TextConverter_LCD.o
__aeabi_fcmpgt                                    /usr/lib/gcc/arm-none-eabi/6.3.1/thumb/v7-m/libgcc.a(_arm_cmpsf2.o)
                                                  build/Buffer_Gcode.o
__aeabi_fcmple                                    /usr/lib/gcc/arm-none-eabi/6.3.1/thumb/v7-m/libgcc.a(_arm_cmpsf2.o)
                                                  /usr/lib/gcc/arm-none-eabi/6.3.1/../../../arm-none-eabi/lib/thumb/v7-m/libc_nano.a(lib_a-strtod.o)
__aeabi_fcmplt                                    /usr/lib/gcc/arm-none-eabi/6.3.1/thumb/v7-m/libgcc.a(_arm_cmpsf2.o)
                                                  /usr/lib/gcc/arm-none-eabi/6.3.1/../../../arm-none-eabi/lib/thumb/v7-m/libm.a(lib_a-wf_sqrt.o)
                                                  build/TextConverter_LCD.o
                                                  build/Buffer_Gcode.o
__aeabi_fcmpun                                    /usr/lib/gcc/arm-none-eabi/6.3.1/thumb/v7-m/libgcc.a(_arm_unordsf2.o)
                                                  /usr/lib/gcc/arm-none-eabi/6.3.1/../../../arm-none-eabi/lib/thumb/v7-m/libm.a(lib_a-wf_sqrt.o)
                                                  /usr/lib/gcc/arm-none-eabi/6.3.1/../../../arm-none-eabi/lib/thumb/v7-m/libc_nano.a(lib_a-strtod.o)
__aeabi_fdiv                                      /usr/lib/gcc/arm-none-eabi/6.3.1/thumb/v7-m/libgcc.a(_arm_muldivsf3.o)
                                                  /usr/lib/gcc/arm-none-eabi/6.3.1/../../../arm-none-eabi/lib/thumb/v7-m/libm.a(lib_a-ef_sqrt.o)
                                                  build/Descritization_Gcode.o
                                                  build/Buffer_Gcode.o
__aeabi_fmul                                      /usr/lib/gcc/arm-none-eabi/6.3.1/thumb/v7-m/libgcc.a(_arm_muldivsf3.o)
                                                  /usr/lib/gcc/arm-none-eabi/6.3.1/../../../arm-none-eabi/lib/thumb/v7-m/libm.a(lib_a-ef_sqrt.o)
                                                  build/VirtualPrinters_Gcode.o
                                                  build/Descritization_Gcode.o
                                                  build/Buffer_Gcode.o
__aeabi_frsub                                     /usr/lib/gcc/arm-none-eabi/6.3.1/thumb/v7-m/libgcc.a(_arm_addsubsf3.o)
__aeabi_fsub                                      /usr/lib/gcc/arm-none-eabi/6.3.1/thumb/v7-m/libgcc.a(_arm_addsubsf3.o)
                                                  /usr/lib/gcc/arm-none-eabi/6.3.1/../../../arm-none-eabi/lib/thumb/v7-m/libm.a(lib_a-ef_sqrt.o)
                                                  build/TextConverter_LCD.o
                                                  build/VirtualPrinters_Gcode.o
                                                  build/Buffer_Gcode.o
__aeabi_i2d                                       /usr/lib/gcc/arm-none-eabi/6.3.1/thumb/v7-m/libgcc.a(_arm_addsubdf3.o)
                                                  /usr/lib/gcc/arm-none-eabi/6.3.1/../../../arm-none-eabi/lib/thumb/v7-m/libm.a(lib_a-e_pow.o)
                                                  /usr/lib/gcc/arm-none-eabi/6.3.1/../../../arm-none-eabi/lib/thumb/v7-m/libc_nano.a(lib_a-dtoa.o)
                                                  build/TextConverter_LCD.o
                                                  build/Buffer_Gcode.o
__aeabi_i2f                                       /usr/lib/gcc/arm-none-eabi/6.3.1/thumb/v7-m/libgcc.a(_arm_addsubsf3.o)
                                                  build/TextConverter_LCD.o
                                                  build/VirtualPrinters_Gcode.o
                                                  build/Buffer_Gcode.o
__aeabi_idiv0                                     /usr/lib/gcc/arm-none-eabi/6.3.1/thumb/v7-m/libgcc.a(_dvmd_tls.o)
__aeabi_l2d                                       /usr/lib/gcc/arm-none-eabi/6.3.1/thumb/v7-m/libgcc.a(_arm_addsubdf3.o)
                                                  /usr/lib/gcc/arm-none-eabi/6.3.1/../../../arm-none-eabi/lib/thumb/v7-m/libc_nano.a(lib_a-strtod.o)
__aeabi_l2f                                       /usr/lib/gcc/arm-none-eabi/6.3.1/thumb/v7-m/libgcc.a(_arm_addsubsf3.o)
__aeabi_ldiv0                                     /usr/lib/gcc/arm-none-eabi/6.3.1/thumb/v7-m/libgcc.a(_dvmd_tls.o)
                                                  /usr/lib/gcc/arm-none-eabi/6.3.1/thumb/v7-m/libgcc.a(_aeabi_uldivmod.o)
__aeabi_ui2d                                      /usr/lib/gcc/arm-none-eabi/6.3.1/thumb/v7-m/libgcc.a(_arm_addsubdf3.o)
                                                  /usr/lib/gcc/arm-none-eabi/6.3.1/thumb/v7-m/libgcc.a(_fixunsdfdi.o)
                                                  /usr/lib/gcc/arm-none-eabi/6.3.1/../../../arm-none-eabi/lib/thumb/v7-m/libc_nano.a(lib_a-dtoa.o)
                                                  /usr/lib/gcc/arm-none-eabi/6.3.1/../../../arm-none-eabi/lib/thumb/v7-m/libc_nano.a(lib_a-strtod.o)
__aeabi_ui2f                                      /usr/lib/gcc/arm-none-eabi/6.3.1/thumb/v7-m/libgcc.a(_arm_addsubsf3.o)
__aeabi_ul2d                                      /usr/lib/gcc/arm-none-eabi/6.3.1/thumb/v7-m/libgcc.a(_arm_addsubdf3.o)
__aeabi_ul2f                                      /usr/lib/gcc/arm-none-eabi/6.3.1/thumb/v7-m/libgcc.a(_arm_addsubsf3.o)
__aeabi_uldivmod                                  /usr/lib/gcc/arm-none-eabi/6.3.1/thumb/v7-m/libgcc.a(_aeabi_uldivmod.o)
                                                  build/stm32f1xx_hal_rcc.o
__any_on                                          /usr/lib/gcc/arm-none-eabi/6.3.1/../../../arm-none-eabi/lib/thumb/v7-m/libc_nano.a(lib_a-mprec.o)
                                                  /usr/lib/gcc/arm-none-eabi/6.3.1/../../../arm-none-eabi/lib/thumb/v7-m/libc_nano.a(lib_a-gdtoa-gethex.o)
__ascii_mbtowc                                    /usr/lib/gcc/arm-none-eabi/6.3.1/../../../arm-none-eabi/lib/thumb/v7-m/libc_nano.a(lib_a-mbtowc_r.o)
                                                  /usr/lib/gcc/arm-none-eabi/6.3.1/../../../arm-none-eabi/lib/thumb/v7-m/libc_nano.a(lib_a-locale.o)
__ascii_wctomb                                    /usr/lib/gcc/arm-none-eabi/6.3.1/../../../arm-none-eabi/lib/thumb/v7-m/libc_nano.a(lib_a-wctomb_r.o)
                                                  /usr/lib/gcc/arm-none-eabi/6.3.1/../../../arm-none-eabi/lib/thumb/v7-m/libc_nano.a(lib_a-locale.o)
__atexit_dummy                                    /usr/lib/gcc/arm-none-eabi/6.3.1/../../../arm-none-eabi/lib/thumb/v7-m/libc_nano.a(lib_a-__atexit.o)
__b2d                                             /usr/lib/gcc/arm-none-eabi/6.3.1/../../../arm-none-eabi/lib/thumb/v7-m/libc_nano.a(lib_a-mprec.o)
__bss_end__                                       /usr/lib/gcc/arm-none-eabi/6.3.1/../../../arm-none-eabi/lib/thumb/v7-m/crt0.o
__bss_start__                                     /usr/lib/gcc/arm-none-eabi/6.3.1/../../../arm-none-eabi/lib/thumb/v7-m/crt0.o
__call_exitprocs                                  /usr/lib/gcc/arm-none-eabi/6.3.1/../../../arm-none-eabi/lib/thumb/v7-m/libc_nano.a(lib_a-__call_atexit.o)
                                                  /usr/lib/gcc/arm-none-eabi/6.3.1/../../../arm-none-eabi/lib/thumb/v7-m/libc_nano.a(lib_a-__atexit.o)
                                                  /usr/lib/gcc/arm-none-eabi/6.3.1/../../../arm-none-eabi/lib/thumb/v7-m/libc_nano.a(lib_a-exit.o)
__cmpdf2                                          /usr/lib/gcc/arm-none-eabi/6.3.1/thumb/v7-m/libgcc.a(_arm_cmpdf2.o)
__cmpsf2                                          /usr/lib/gcc/arm-none-eabi/6.3.1/thumb/v7-m/libgcc.a(_arm_cmpsf2.o)
__copybits                                        /usr/lib/gcc/arm-none-eabi/6.3.1/../../../arm-none-eabi/lib/thumb/v7-m/libc_nano.a(lib_a-mprec.o)
                                                  /usr/lib/gcc/arm-none-eabi/6.3.1/../../../arm-none-eabi/lib/thumb/v7-m/libc_nano.a(lib_a-strtod.o)
__d2b                                             /usr/lib/gcc/arm-none-eabi/6.3.1/../../../arm-none-eabi/lib/thumb/v7-m/libc_nano.a(lib_a-mprec.o)
                                                  /usr/lib/gcc/arm-none-eabi/6.3.1/../../../arm-none-eabi/lib/thumb/v7-m/libc_nano.a(lib_a-dtoa.o)
                                                  /usr/lib/gcc/arm-none-eabi/6.3.1/../../../arm-none-eabi/lib/thumb/v7-m/libc_nano.a(lib_a-strtod.o)
__deregister_frame_info                           /usr/lib/gcc/arm-none-eabi/6.3.1/thumb/v7-m/crtbegin.o
__divdf3                                          /usr/lib/gcc/arm-none-eabi/6.3.1/thumb/v7-m/libgcc.a(_arm_muldivdf3.o)
__divsf3                                          /usr/lib/gcc/arm-none-eabi/6.3.1/thumb/v7-m/libgcc.a(_arm_muldivsf3.o)
__dso_handle                                      /usr/lib/gcc/arm-none-eabi/6.3.1/thumb/v7-m/crtbegin.o
__eqdf2                                           /usr/lib/gcc/arm-none-eabi/6.3.1/thumb/v7-m/libgcc.a(_arm_cmpdf2.o)
__eqsf2                                           /usr/lib/gcc/arm-none-eabi/6.3.1/thumb/v7-m/libgcc.a(_arm_cmpsf2.o)
__errno                                           /usr/lib/gcc/arm-none-eabi/6.3.1/../../../arm-none-eabi/lib/thumb/v7-m/libc_nano.a(lib_a-errno.o)
                                                  /usr/lib/gcc/arm-none-eabi/6.3.1/../../../arm-none-eabi/lib/thumb/v7-m/libm.a(lib_a-wf_sqrt.o)
                                                  /usr/lib/gcc/arm-none-eabi/6.3.1/../../../arm-none-eabi/lib/thumb/v7-m/libm.a(lib_a-w_sqrt.o)
                                                  /usr/lib/gcc/arm-none-eabi/6.3.1/../../../arm-none-eabi/lib/thumb/v7-m/libm.a(lib_a-w_pow.o)
__extendsfdf2                                     /usr/lib/gcc/arm-none-eabi/6.3.1/thumb/v7-m/libgcc.a(_arm_addsubdf3.o)
__fdlib_version                                   /usr/lib/gcc/arm-none-eabi/6.3.1/../../../arm-none-eabi/lib/thumb/v7-m/libm.a(lib_a-s_lib_ver.o)
                                                  /usr/lib/gcc/arm-none-eabi/6.3.1/../../../arm-none-eabi/lib/thumb/v7-m/libm.a(lib_a-wf_sqrt.o)
                                                  /usr/lib/gcc/arm-none-eabi/6.3.1/../../../arm-none-eabi/lib/thumb/v7-m/libm.a(lib_a-w_sqrt.o)
                                                  /usr/lib/gcc/arm-none-eabi/6.3.1/../../../arm-none-eabi/lib/thumb/v7-m/libm.a(lib_a-w_pow.o)
__fini_array_end                                  /usr/lib/gcc/arm-none-eabi/6.3.1/../../../arm-none-eabi/lib/thumb/v7-m/libc_nano.a(lib_a-fini.o)
__fini_array_start                                /usr/lib/gcc/arm-none-eabi/6.3.1/../../../arm-none-eabi/lib/thumb/v7-m/libc_nano.a(lib_a-fini.o)
__fixdfdi                                         /usr/lib/gcc/arm-none-eabi/6.3.1/thumb/v7-m/libgcc.a(_fixdfdi.o)
__fixdfsi                                         /usr/lib/gcc/arm-none-eabi/6.3.1/thumb/v7-m/libgcc.a(_arm_fixdfsi.o)
__fixsfsi                                         /usr/lib/gcc/arm-none-eabi/6.3.1/thumb/v7-m/libgcc.a(_arm_fixsfsi.o)
__fixunsdfdi                                      /usr/lib/gcc/arm-none-eabi/6.3.1/thumb/v7-m/libgcc.a(_fixunsdfdi.o)
__fixunsdfsi                                      /usr/lib/gcc/arm-none-eabi/6.3.1/thumb/v7-m/libgcc.a(_arm_fixunsdfsi.o)
__floatdidf                                       /usr/lib/gcc/arm-none-eabi/6.3.1/thumb/v7-m/libgcc.a(_arm_addsubdf3.o)
__floatdisf                                       /usr/lib/gcc/arm-none-eabi/6.3.1/thumb/v7-m/libgcc.a(_arm_addsubsf3.o)
__floatsidf                                       /usr/lib/gcc/arm-none-eabi/6.3.1/thumb/v7-m/libgcc.a(_arm_addsubdf3.o)
__floatsisf                                       /usr/lib/gcc/arm-none-eabi/6.3.1/thumb/v7-m/libgcc.a(_arm_addsubsf3.o)
__floatundidf                                     /usr/lib/gcc/arm-none-eabi/6.3.1/thumb/v7-m/libgcc.a(_arm_addsubdf3.o)
__floatundisf                                     /usr/lib/gcc/arm-none-eabi/6.3.1/thumb/v7-m/libgcc.a(_arm_addsubsf3.o)
__floatunsidf                                     /usr/lib/gcc/arm-none-eabi/6.3.1/thumb/v7-m/libgcc.a(_arm_addsubdf3.o)
__floatunsisf                                     /usr/lib/gcc/arm-none-eabi/6.3.1/thumb/v7-m/libgcc.a(_arm_addsubsf3.o)
__fp_lock_all                                     /usr/lib/gcc/arm-none-eabi/6.3.1/../../../arm-none-eabi/lib/thumb/v7-m/libc_nano.a(lib_a-findfp.o)
__fp_unlock_all                                   /usr/lib/gcc/arm-none-eabi/6.3.1/../../../arm-none-eabi/lib/thumb/v7-m/libc_nano.a(lib_a-findfp.o)
__gedf2                                           /usr/lib/gcc/arm-none-eabi/6.3.1/thumb/v7-m/libgcc.a(_arm_cmpdf2.o)
__gesf2                                           /usr/lib/gcc/arm-none-eabi/6.3.1/thumb/v7-m/libgcc.a(_arm_cmpsf2.o)
__gethex                                          /usr/lib/gcc/arm-none-eabi/6.3.1/../../../arm-none-eabi/lib/thumb/v7-m/libc_nano.a(lib_a-gdtoa-gethex.o)
                                                  /usr/lib/gcc/arm-none-eabi/6.3.1/../../../arm-none-eabi/lib/thumb/v7-m/libc_nano.a(lib_a-strtod.o)
__global_locale                                   /usr/lib/gcc/arm-none-eabi/6.3.1/../../../arm-none-eabi/lib/thumb/v7-m/libc_nano.a(lib_a-locale.o)
                                                  /usr/lib/gcc/arm-none-eabi/6.3.1/../../../arm-none-eabi/lib/thumb/v7-m/libc_nano.a(lib_a-btowc.o)
                                                  /usr/lib/gcc/arm-none-eabi/6.3.1/../../../arm-none-eabi/lib/thumb/v7-m/libc_nano.a(lib_a-wctomb_r.o)
                                                  /usr/lib/gcc/arm-none-eabi/6.3.1/../../../arm-none-eabi/lib/thumb/v7-m/libc_nano.a(lib_a-mbtowc_r.o)
                                                  /usr/lib/gcc/arm-none-eabi/6.3.1/../../../arm-none-eabi/lib/thumb/v7-m/libc_nano.a(lib_a-localeconv.o)
                                                  /usr/lib/gcc/arm-none-eabi/6.3.1/../../../arm-none-eabi/lib/thumb/v7-m/libc_nano.a(lib_a-strtol.o)
                                                  /usr/lib/gcc/arm-none-eabi/6.3.1/../../../arm-none-eabi/lib/thumb/v7-m/libc_nano.a(lib_a-strtod.o)
__gtdf2                                           /usr/lib/gcc/arm-none-eabi/6.3.1/thumb/v7-m/libgcc.a(_arm_cmpdf2.o)
__gtsf2                                           /usr/lib/gcc/arm-none-eabi/6.3.1/thumb/v7-m/libgcc.a(_arm_cmpsf2.o)
__hexdig                                          /usr/lib/gcc/arm-none-eabi/6.3.1/../../../arm-none-eabi/lib/thumb/v7-m/libc_nano.a(lib_a-gdtoa-gethex.o)
                                                  /usr/lib/gcc/arm-none-eabi/6.3.1/../../../arm-none-eabi/lib/thumb/v7-m/libc_nano.a(lib_a-gdtoa-hexnan.o)
__hexnan                                          /usr/lib/gcc/arm-none-eabi/6.3.1/../../../arm-none-eabi/lib/thumb/v7-m/libc_nano.a(lib_a-gdtoa-hexnan.o)
                                                  /usr/lib/gcc/arm-none-eabi/6.3.1/../../../arm-none-eabi/lib/thumb/v7-m/libc_nano.a(lib_a-strtod.o)
__hi0bits                                         /usr/lib/gcc/arm-none-eabi/6.3.1/../../../arm-none-eabi/lib/thumb/v7-m/libc_nano.a(lib_a-mprec.o)
                                                  /usr/lib/gcc/arm-none-eabi/6.3.1/../../../arm-none-eabi/lib/thumb/v7-m/libc_nano.a(lib_a-dtoa.o)
                                                  /usr/lib/gcc/arm-none-eabi/6.3.1/../../../arm-none-eabi/lib/thumb/v7-m/libc_nano.a(lib_a-gdtoa-gethex.o)
__i2b                                             /usr/lib/gcc/arm-none-eabi/6.3.1/../../../arm-none-eabi/lib/thumb/v7-m/libc_nano.a(lib_a-mprec.o)
                                                  /usr/lib/gcc/arm-none-eabi/6.3.1/../../../arm-none-eabi/lib/thumb/v7-m/libc_nano.a(lib_a-dtoa.o)
                                                  /usr/lib/gcc/arm-none-eabi/6.3.1/../../../arm-none-eabi/lib/thumb/v7-m/libc_nano.a(lib_a-strtod.o)
__ieee754_pow                                     /usr/lib/gcc/arm-none-eabi/6.3.1/../../../arm-none-eabi/lib/thumb/v7-m/libm.a(lib_a-e_pow.o)
                                                  /usr/lib/gcc/arm-none-eabi/6.3.1/../../../arm-none-eabi/lib/thumb/v7-m/libm.a(lib_a-w_pow.o)
__ieee754_sqrt                                    /usr/lib/gcc/arm-none-eabi/6.3.1/../../../arm-none-eabi/lib/thumb/v7-m/libm.a(lib_a-e_sqrt.o)
                                                  /usr/lib/gcc/arm-none-eabi/6.3.1/../../../arm-none-eabi/lib/thumb/v7-m/libm.a(lib_a-e_pow.o)
                                                  /usr/lib/gcc/arm-none-eabi/6.3.1/../../../arm-none-eabi/lib/thumb/v7-m/libm.a(lib_a-w_sqrt.o)
__ieee754_sqrtf                                   /usr/lib/gcc/arm-none-eabi/6.3.1/../../../arm-none-eabi/lib/thumb/v7-m/libm.a(lib_a-ef_sqrt.o)
                                                  /usr/lib/gcc/arm-none-eabi/6.3.1/../../../arm-none-eabi/lib/thumb/v7-m/libm.a(lib_a-wf_sqrt.o)
__init_array_end                                  /usr/lib/gcc/arm-none-eabi/6.3.1/../../../arm-none-eabi/lib/thumb/v7-m/libc_nano.a(lib_a-init.o)
__init_array_start                                /usr/lib/gcc/arm-none-eabi/6.3.1/../../../arm-none-eabi/lib/thumb/v7-m/libc_nano.a(lib_a-init.o)
__ledf2                                           /usr/lib/gcc/arm-none-eabi/6.3.1/thumb/v7-m/libgcc.a(_arm_cmpdf2.o)
__lesf2                                           /usr/lib/gcc/arm-none-eabi/6.3.1/thumb/v7-m/libgcc.a(_arm_cmpsf2.o)
__libc_fini_array                                 /usr/lib/gcc/arm-none-eabi/6.3.1/../../../arm-none-eabi/lib/thumb/v7-m/libc_nano.a(lib_a-fini.o)
                                                  /usr/lib/gcc/arm-none-eabi/6.3.1/../../../arm-none-eabi/lib/thumb/v7-m/crt0.o
__libc_init_array                                 /usr/lib/gcc/arm-none-eabi/6.3.1/../../../arm-none-eabi/lib/thumb/v7-m/libc_nano.a(lib_a-init.o)
                                                  /usr/lib/gcc/arm-none-eabi/6.3.1/../../../arm-none-eabi/lib/thumb/v7-m/crt0.o
__lo0bits                                         /usr/lib/gcc/arm-none-eabi/6.3.1/../../../arm-none-eabi/lib/thumb/v7-m/libc_nano.a(lib_a-mprec.o)
__locale_ctype_ptr                                /usr/lib/gcc/arm-none-eabi/6.3.1/../../../arm-none-eabi/lib/thumb/v7-m/libc_nano.a(lib_a-locale.o)
__locale_ctype_ptr_l                              /usr/lib/gcc/arm-none-eabi/6.3.1/../../../arm-none-eabi/lib/thumb/v7-m/libc_nano.a(lib_a-locale.o)
                                                  /usr/lib/gcc/arm-none-eabi/6.3.1/../../../arm-none-eabi/lib/thumb/v7-m/libc_nano.a(lib_a-strtol.o)
__locale_mb_cur_max                               /usr/lib/gcc/arm-none-eabi/6.3.1/../../../arm-none-eabi/lib/thumb/v7-m/libc_nano.a(lib_a-locale.o)
__localeconv_l                                    /usr/lib/gcc/arm-none-eabi/6.3.1/../../../arm-none-eabi/lib/thumb/v7-m/libc_nano.a(lib_a-localeconv.o)
                                                  /usr/lib/gcc/arm-none-eabi/6.3.1/../../../arm-none-eabi/lib/thumb/v7-m/libc_nano.a(lib_a-gdtoa-gethex.o)
                                                  /usr/lib/gcc/arm-none-eabi/6.3.1/../../../arm-none-eabi/lib/thumb/v7-m/libc_nano.a(lib_a-strtod.o)
__lshift                                          /usr/lib/gcc/arm-none-eabi/6.3.1/../../../arm-none-eabi/lib/thumb/v7-m/libc_nano.a(lib_a-mprec.o)
                                                  /usr/lib/gcc/arm-none-eabi/6.3.1/../../../arm-none-eabi/lib/thumb/v7-m/libc_nano.a(lib_a-dtoa.o)
                                                  /usr/lib/gcc/arm-none-eabi/6.3.1/../../../arm-none-eabi/lib/thumb/v7-m/libc_nano.a(lib_a-gdtoa-gethex.o)
                                                  /usr/lib/gcc/arm-none-eabi/6.3.1/../../../arm-none-eabi/lib/thumb/v7-m/libc_nano.a(lib_a-strtod.o)
__ltdf2                                           /usr/lib/gcc/arm-none-eabi/6.3.1/thumb/v7-m/libgcc.a(_arm_cmpdf2.o)
__ltsf2                                           /usr/lib/gcc/arm-none-eabi/6.3.1/thumb/v7-m/libgcc.a(_arm_cmpsf2.o)
__malloc_free_list                                /usr/lib/gcc/arm-none-eabi/6.3.1/../../../arm-none-eabi/lib/thumb/v7-m/libc_nano.a(lib_a-nano-mallocr.o)
                                                  /usr/lib/gcc/arm-none-eabi/6.3.1/../../../arm-none-eabi/lib/thumb/v7-m/libc_nano.a(lib_a-nano-freer.o)
__malloc_lock                                     /usr/lib/gcc/arm-none-eabi/6.3.1/../../../arm-none-eabi/lib/thumb/v7-m/libc_nano.a(lib_a-mlock.o)
                                                  /usr/lib/gcc/arm-none-eabi/6.3.1/../../../arm-none-eabi/lib/thumb/v7-m/libc_nano.a(lib_a-nano-mallocr.o)
                                                  /usr/lib/gcc/arm-none-eabi/6.3.1/../../../arm-none-eabi/lib/thumb/v7-m/libc_nano.a(lib_a-nano-freer.o)
__malloc_sbrk_start                               /usr/lib/gcc/arm-none-eabi/6.3.1/../../../arm-none-eabi/lib/thumb/v7-m/libc_nano.a(lib_a-nano-mallocr.o)
__malloc_unlock                                   /usr/lib/gcc/arm-none-eabi/6.3.1/../../../arm-none-eabi/lib/thumb/v7-m/libc_nano.a(lib_a-mlock.o)
                                                  /usr/lib/gcc/arm-none-eabi/6.3.1/../../../arm-none-eabi/lib/thumb/v7-m/libc_nano.a(lib_a-nano-mallocr.o)
                                                  /usr/lib/gcc/arm-none-eabi/6.3.1/../../../arm-none-eabi/lib/thumb/v7-m/libc_nano.a(lib_a-nano-freer.o)
__match                                           /usr/lib/gcc/arm-none-eabi/6.3.1/../../../arm-none-eabi/lib/thumb/v7-m/libc_nano.a(lib_a-gdtoa-hexnan.o)
                                                  /usr/lib/gcc/arm-none-eabi/6.3.1/../../../arm-none-eabi/lib/thumb/v7-m/libc_nano.a(lib_a-strtod.o)
__mcmp                                            /usr/lib/gcc/arm-none-eabi/6.3.1/../../../arm-none-eabi/lib/thumb/v7-m/libc_nano.a(lib_a-mprec.o)
                                                  /usr/lib/gcc/arm-none-eabi/6.3.1/../../../arm-none-eabi/lib/thumb/v7-m/libc_nano.a(lib_a-dtoa.o)
                                                  /usr/lib/gcc/arm-none-eabi/6.3.1/../../../arm-none-eabi/lib/thumb/v7-m/libc_nano.a(lib_a-strtod.o)
__mdiff                                           /usr/lib/gcc/arm-none-eabi/6.3.1/../../../arm-none-eabi/lib/thumb/v7-m/libc_nano.a(lib_a-mprec.o)
                                                  /usr/lib/gcc/arm-none-eabi/6.3.1/../../../arm-none-eabi/lib/thumb/v7-m/libc_nano.a(lib_a-dtoa.o)
                                                  /usr/lib/gcc/arm-none-eabi/6.3.1/../../../arm-none-eabi/lib/thumb/v7-m/libc_nano.a(lib_a-strtod.o)
__mprec_bigtens                                   /usr/lib/gcc/arm-none-eabi/6.3.1/../../../arm-none-eabi/lib/thumb/v7-m/libc_nano.a(lib_a-mprec.o)
                                                  /usr/lib/gcc/arm-none-eabi/6.3.1/../../../arm-none-eabi/lib/thumb/v7-m/libc_nano.a(lib_a-dtoa.o)
                                                  /usr/lib/gcc/arm-none-eabi/6.3.1/../../../arm-none-eabi/lib/thumb/v7-m/libc_nano.a(lib_a-strtod.o)
__mprec_tens                                      /usr/lib/gcc/arm-none-eabi/6.3.1/../../../arm-none-eabi/lib/thumb/v7-m/libc_nano.a(lib_a-mprec.o)
                                                  /usr/lib/gcc/arm-none-eabi/6.3.1/../../../arm-none-eabi/lib/thumb/v7-m/libc_nano.a(lib_a-dtoa.o)
                                                  /usr/lib/gcc/arm-none-eabi/6.3.1/../../../arm-none-eabi/lib/thumb/v7-m/libc_nano.a(lib_a-strtod.o)
__mprec_tinytens                                  /usr/lib/gcc/arm-none-eabi/6.3.1/../../../arm-none-eabi/lib/thumb/v7-m/libc_nano.a(lib_a-mprec.o)
__muldf3                                          /usr/lib/gcc/arm-none-eabi/6.3.1/thumb/v7-m/libgcc.a(_arm_muldivdf3.o)
__mulsf3                                          /usr/lib/gcc/arm-none-eabi/6.3.1/thumb/v7-m/libgcc.a(_arm_muldivsf3.o)
__multadd                                         /usr/lib/gcc/arm-none-eabi/6.3.1/../../../arm-none-eabi/lib/thumb/v7-m/libc_nano.a(lib_a-mprec.o)
                                                  /usr/lib/gcc/arm-none-eabi/6.3.1/../../../arm-none-eabi/lib/thumb/v7-m/libc_nano.a(lib_a-dtoa.o)
__multiply                                        /usr/lib/gcc/arm-none-eabi/6.3.1/../../../arm-none-eabi/lib/thumb/v7-m/libc_nano.a(lib_a-mprec.o)
                                                  /usr/lib/gcc/arm-none-eabi/6.3.1/../../../arm-none-eabi/lib/thumb/v7-m/libc_nano.a(lib_a-dtoa.o)
                                                  /usr/lib/gcc/arm-none-eabi/6.3.1/../../../arm-none-eabi/lib/thumb/v7-m/libc_nano.a(lib_a-strtod.o)
__nedf2                                           /usr/lib/gcc/arm-none-eabi/6.3.1/thumb/v7-m/libgcc.a(_arm_cmpdf2.o)
__nesf2                                           /usr/lib/gcc/arm-none-eabi/6.3.1/thumb/v7-m/libgcc.a(_arm_cmpsf2.o)
__on_exit_args                                    /usr/lib/gcc/arm-none-eabi/6.3.1/../../../arm-none-eabi/lib/thumb/v7-m/libc_nano.a(lib_a-__atexit.o)
__pow5mult                                        /usr/lib/gcc/arm-none-eabi/6.3.1/../../../arm-none-eabi/lib/thumb/v7-m/libc_nano.a(lib_a-mprec.o)
                                                  /usr/lib/gcc/arm-none-eabi/6.3.1/../../../arm-none-eabi/lib/thumb/v7-m/libc_nano.a(lib_a-dtoa.o)
                                                  /usr/lib/gcc/arm-none-eabi/6.3.1/../../../arm-none-eabi/lib/thumb/v7-m/libc_nano.a(lib_a-strtod.o)
__preinit_array_end                               /usr/lib/gcc/arm-none-eabi/6.3.1/../../../arm-none-eabi/lib/thumb/v7-m/libc_nano.a(lib_a-init.o)
__preinit_array_start                             /usr/lib/gcc/arm-none-eabi/6.3.1/../../../arm-none-eabi/lib/thumb/v7-m/libc_nano.a(lib_a-init.o)
__ratio                                           /usr/lib/gcc/arm-none-eabi/6.3.1/../../../arm-none-eabi/lib/thumb/v7-m/libc_nano.a(lib_a-mprec.o)
                                                  /usr/lib/gcc/arm-none-eabi/6.3.1/../../../arm-none-eabi/lib/thumb/v7-m/libc_nano.a(lib_a-strtod.o)
__register_exitproc                               /usr/lib/gcc/arm-none-eabi/6.3.1/../../../arm-none-eabi/lib/thumb/v7-m/libc_nano.a(lib_a-__atexit.o)
                                                  /usr/lib/gcc/arm-none-eabi/6.3.1/../../../arm-none-eabi/lib/thumb/v7-m/libc_nano.a(lib_a-atexit.o)
__register_frame_info                             /usr/lib/gcc/arm-none-eabi/6.3.1/thumb/v7-m/crtbegin.o
__s2b                                             /usr/lib/gcc/arm-none-eabi/6.3.1/../../../arm-none-eabi/lib/thumb/v7-m/libc_nano.a(lib_a-mprec.o)
                                                  /usr/lib/gcc/arm-none-eabi/6.3.1/../../../arm-none-eabi/lib/thumb/v7-m/libc_nano.a(lib_a-strtod.o)
__sclose                                          /usr/lib/gcc/arm-none-eabi/6.3.1/../../../arm-none-eabi/lib/thumb/v7-m/libc_nano.a(lib_a-stdio.o)
                                                  /usr/lib/gcc/arm-none-eabi/6.3.1/../../../arm-none-eabi/lib/thumb/v7-m/libc_nano.a(lib_a-findfp.o)
__seofread                                        /usr/lib/gcc/arm-none-eabi/6.3.1/../../../arm-none-eabi/lib/thumb/v7-m/libc_nano.a(lib_a-stdio.o)
__sf_fake_stderr                                  /usr/lib/gcc/arm-none-eabi/6.3.1/../../../arm-none-eabi/lib/thumb/v7-m/libc_nano.a(lib_a-findfp.o)
                                                  /usr/lib/gcc/arm-none-eabi/6.3.1/../../../arm-none-eabi/lib/thumb/v7-m/libc_nano.a(lib_a-fflush.o)
                                                  /usr/lib/gcc/arm-none-eabi/6.3.1/../../../arm-none-eabi/lib/thumb/v7-m/libc_nano.a(lib_a-wsetup.o)
                                                  /usr/lib/gcc/arm-none-eabi/6.3.1/../../../arm-none-eabi/lib/thumb/v7-m/libc_nano.a(lib_a-wbuf.o)
                                                  /usr/lib/gcc/arm-none-eabi/6.3.1/../../../arm-none-eabi/lib/thumb/v7-m/libc_nano.a(lib_a-nano-vfprintf.o)
                                                  /usr/lib/gcc/arm-none-eabi/6.3.1/../../../arm-none-eabi/lib/thumb/v7-m/libc_nano.a(lib_a-impure.o)
__sf_fake_stdin                                   /usr/lib/gcc/arm-none-eabi/6.3.1/../../../arm-none-eabi/lib/thumb/v7-m/libc_nano.a(lib_a-findfp.o)
                                                  /usr/lib/gcc/arm-none-eabi/6.3.1/../../../arm-none-eabi/lib/thumb/v7-m/libc_nano.a(lib_a-fflush.o)
                                                  /usr/lib/gcc/arm-none-eabi/6.3.1/../../../arm-none-eabi/lib/thumb/v7-m/libc_nano.a(lib_a-wsetup.o)
                                                  /usr/lib/gcc/arm-none-eabi/6.3.1/../../../arm-none-eabi/lib/thumb/v7-m/libc_nano.a(lib_a-wbuf.o)
                                                  /usr/lib/gcc/arm-none-eabi/6.3.1/../../../arm-none-eabi/lib/thumb/v7-m/libc_nano.a(lib_a-nano-vfprintf.o)
                                                  /usr/lib/gcc/arm-none-eabi/6.3.1/../../../arm-none-eabi/lib/thumb/v7-m/libc_nano.a(lib_a-impure.o)
__sf_fake_stdout                                  /usr/lib/gcc/arm-none-eabi/6.3.1/../../../arm-none-eabi/lib/thumb/v7-m/libc_nano.a(lib_a-findfp.o)
                                                  /usr/lib/gcc/arm-none-eabi/6.3.1/../../../arm-none-eabi/lib/thumb/v7-m/libc_nano.a(lib_a-fflush.o)
                                                  /usr/lib/gcc/arm-none-eabi/6.3.1/../../../arm-none-eabi/lib/thumb/v7-m/libc_nano.a(lib_a-wsetup.o)
                                                  /usr/lib/gcc/arm-none-eabi/6.3.1/../../../arm-none-eabi/lib/thumb/v7-m/libc_nano.a(lib_a-wbuf.o)
                                                  /usr/lib/gcc/arm-none-eabi/6.3.1/../../../arm-none-eabi/lib/thumb/v7-m/libc_nano.a(lib_a-nano-vfprintf.o)
                                                  /usr/lib/gcc/arm-none-eabi/6.3.1/../../../arm-none-eabi/lib/thumb/v7-m/libc_nano.a(lib_a-impure.o)
__sflush_r                                        /usr/lib/gcc/arm-none-eabi/6.3.1/../../../arm-none-eabi/lib/thumb/v7-m/libc_nano.a(lib_a-fflush.o)
__sfmoreglue                                      /usr/lib/gcc/arm-none-eabi/6.3.1/../../../arm-none-eabi/lib/thumb/v7-m/libc_nano.a(lib_a-findfp.o)
__sfp                                             /usr/lib/gcc/arm-none-eabi/6.3.1/../../../arm-none-eabi/lib/thumb/v7-m/libc_nano.a(lib_a-findfp.o)
__sfp_lock_acquire                                /usr/lib/gcc/arm-none-eabi/6.3.1/../../../arm-none-eabi/lib/thumb/v7-m/libc_nano.a(lib_a-findfp.o)
__sfp_lock_release                                /usr/lib/gcc/arm-none-eabi/6.3.1/../../../arm-none-eabi/lib/thumb/v7-m/libc_nano.a(lib_a-findfp.o)
__sfputs_r                                        /usr/lib/gcc/arm-none-eabi/6.3.1/../../../arm-none-eabi/lib/thumb/v7-m/libc_nano.a(lib_a-nano-vfprintf.o)
__sfvwrite_r                                      /usr/lib/gcc/arm-none-eabi/6.3.1/../../../arm-none-eabi/lib/thumb/v7-m/libc_nano.a(lib_a-fvwrite.o)
                                                  /usr/lib/gcc/arm-none-eabi/6.3.1/../../../arm-none-eabi/lib/thumb/v7-m/libc_nano.a(lib_a-nano-vfprintf.o)
__sinit                                           /usr/lib/gcc/arm-none-eabi/6.3.1/../../../arm-none-eabi/lib/thumb/v7-m/libc_nano.a(lib_a-findfp.o)
                                                  /usr/lib/gcc/arm-none-eabi/6.3.1/../../../arm-none-eabi/lib/thumb/v7-m/libc_nano.a(lib_a-fflush.o)
                                                  /usr/lib/gcc/arm-none-eabi/6.3.1/../../../arm-none-eabi/lib/thumb/v7-m/libc_nano.a(lib_a-wsetup.o)
                                                  /usr/lib/gcc/arm-none-eabi/6.3.1/../../../arm-none-eabi/lib/thumb/v7-m/libc_nano.a(lib_a-wbuf.o)
                                                  /usr/lib/gcc/arm-none-eabi/6.3.1/../../../arm-none-eabi/lib/thumb/v7-m/libc_nano.a(lib_a-nano-vfprintf.o)
                                                  /usr/lib/gcc/arm-none-eabi/6.3.1/../../../arm-none-eabi/lib/thumb/v7-m/libc_nano.a(lib_a-printf.o)
__sinit_lock_acquire                              /usr/lib/gcc/arm-none-eabi/6.3.1/../../../arm-none-eabi/lib/thumb/v7-m/libc_nano.a(lib_a-findfp.o)
__sinit_lock_release                              /usr/lib/gcc/arm-none-eabi/6.3.1/../../../arm-none-eabi/lib/thumb/v7-m/libc_nano.a(lib_a-findfp.o)
__smakebuf_r                                      /usr/lib/gcc/arm-none-eabi/6.3.1/../../../arm-none-eabi/lib/thumb/v7-m/libc_nano.a(lib_a-makebuf.o)
                                                  /usr/lib/gcc/arm-none-eabi/6.3.1/../../../arm-none-eabi/lib/thumb/v7-m/libc_nano.a(lib_a-wsetup.o)
__sprint_r                                        /usr/lib/gcc/arm-none-eabi/6.3.1/../../../arm-none-eabi/lib/thumb/v7-m/libc_nano.a(lib_a-nano-vfprintf.o)
__sread                                           /usr/lib/gcc/arm-none-eabi/6.3.1/../../../arm-none-eabi/lib/thumb/v7-m/libc_nano.a(lib_a-stdio.o)
                                                  /usr/lib/gcc/arm-none-eabi/6.3.1/../../../arm-none-eabi/lib/thumb/v7-m/libc_nano.a(lib_a-findfp.o)
__sseek                                           /usr/lib/gcc/arm-none-eabi/6.3.1/../../../arm-none-eabi/lib/thumb/v7-m/libc_nano.a(lib_a-stdio.o)
                                                  /usr/lib/gcc/arm-none-eabi/6.3.1/../../../arm-none-eabi/lib/thumb/v7-m/libc_nano.a(lib_a-findfp.o)
__ssprint_r                                       /usr/lib/gcc/arm-none-eabi/6.3.1/../../../arm-none-eabi/lib/thumb/v7-m/libc_nano.a(lib_a-nano-svfprintf.o)
__ssputs_r                                        /usr/lib/gcc/arm-none-eabi/6.3.1/../../../arm-none-eabi/lib/thumb/v7-m/libc_nano.a(lib_a-nano-svfprintf.o)
                                                  /usr/lib/gcc/arm-none-eabi/6.3.1/../../../arm-none-eabi/lib/thumb/v7-m/libc_nano.a(lib_a-svfwprintf.o)
__stack                                           /usr/lib/gcc/arm-none-eabi/6.3.1/../../../arm-none-eabi/lib/thumb/v7-m/crt0.o
__subdf3                                          /usr/lib/gcc/arm-none-eabi/6.3.1/thumb/v7-m/libgcc.a(_arm_addsubdf3.o)
__subsf3                                          /usr/lib/gcc/arm-none-eabi/6.3.1/thumb/v7-m/libgcc.a(_arm_addsubsf3.o)
__swbuf                                           /usr/lib/gcc/arm-none-eabi/6.3.1/../../../arm-none-eabi/lib/thumb/v7-m/libc_nano.a(lib_a-wbuf.o)
__swbuf_r                                         /usr/lib/gcc/arm-none-eabi/6.3.1/../../../arm-none-eabi/lib/thumb/v7-m/libc_nano.a(lib_a-wbuf.o)
                                                  /usr/lib/gcc/arm-none-eabi/6.3.1/../../../arm-none-eabi/lib/thumb/v7-m/libc_nano.a(lib_a-nano-vfprintf.o)
__swhatbuf_r                                      /usr/lib/gcc/arm-none-eabi/6.3.1/../../../arm-none-eabi/lib/thumb/v7-m/libc_nano.a(lib_a-makebuf.o)
__swrite                                          /usr/lib/gcc/arm-none-eabi/6.3.1/../../../arm-none-eabi/lib/thumb/v7-m/libc_nano.a(lib_a-stdio.o)
                                                  /usr/lib/gcc/arm-none-eabi/6.3.1/../../../arm-none-eabi/lib/thumb/v7-m/libc_nano.a(lib_a-findfp.o)
__swsetup_r                                       /usr/lib/gcc/arm-none-eabi/6.3.1/../../../arm-none-eabi/lib/thumb/v7-m/libc_nano.a(lib_a-wsetup.o)
                                                  /usr/lib/gcc/arm-none-eabi/6.3.1/../../../arm-none-eabi/lib/thumb/v7-m/libc_nano.a(lib_a-fvwrite.o)
                                                  /usr/lib/gcc/arm-none-eabi/6.3.1/../../../arm-none-eabi/lib/thumb/v7-m/libc_nano.a(lib_a-wbuf.o)
                                                  /usr/lib/gcc/arm-none-eabi/6.3.1/../../../arm-none-eabi/lib/thumb/v7-m/libc_nano.a(lib_a-nano-vfprintf.o)
__truncdfsf2                                      /usr/lib/gcc/arm-none-eabi/6.3.1/thumb/v7-m/libgcc.a(_arm_truncdfsf2.o)
__udivmoddi4                                      /usr/lib/gcc/arm-none-eabi/6.3.1/thumb/v7-m/libgcc.a(_udivmoddi4.o)
                                                  /usr/lib/gcc/arm-none-eabi/6.3.1/thumb/v7-m/libgcc.a(_aeabi_uldivmod.o)
__ulp                                             /usr/lib/gcc/arm-none-eabi/6.3.1/../../../arm-none-eabi/lib/thumb/v7-m/libc_nano.a(lib_a-mprec.o)
                                                  /usr/lib/gcc/arm-none-eabi/6.3.1/../../../arm-none-eabi/lib/thumb/v7-m/libc_nano.a(lib_a-strtod.o)
__unorddf2                                        /usr/lib/gcc/arm-none-eabi/6.3.1/thumb/v7-m/libgcc.a(_arm_unorddf2.o)
__unordsf2                                        /usr/lib/gcc/arm-none-eabi/6.3.1/thumb/v7-m/libgcc.a(_arm_unordsf2.o)
_atoi_r                                           /usr/lib/gcc/arm-none-eabi/6.3.1/../../../arm-none-eabi/lib/thumb/v7-m/libc_nano.a(lib_a-atoi.o)
_calloc_r                                         /usr/lib/gcc/arm-none-eabi/6.3.1/../../../arm-none-eabi/lib/thumb/v7-m/libc_nano.a(lib_a-nano-callocr.o)
                                                  /usr/lib/gcc/arm-none-eabi/6.3.1/../../../arm-none-eabi/lib/thumb/v7-m/libc_nano.a(lib_a-mprec.o)
_cleanup                                          /usr/lib/gcc/arm-none-eabi/6.3.1/../../../arm-none-eabi/lib/thumb/v7-m/libc_nano.a(lib_a-findfp.o)
_cleanup_r                                        /usr/lib/gcc/arm-none-eabi/6.3.1/../../../arm-none-eabi/lib/thumb/v7-m/libc_nano.a(lib_a-findfp.o)
                                                  /usr/lib/gcc/arm-none-eabi/6.3.1/../../../arm-none-eabi/lib/thumb/v7-m/libc_nano.a(lib_a-makebuf.o)
_close                                            /usr/lib/gcc/arm-none-eabi/6.3.1/../../../arm-none-eabi/lib/thumb/v7-m/libnosys.a(close.o)
                                                  /usr/lib/gcc/arm-none-eabi/6.3.1/../../../arm-none-eabi/lib/thumb/v7-m/libc_nano.a(lib_a-closer.o)
_close_r                                          /usr/lib/gcc/arm-none-eabi/6.3.1/../../../arm-none-eabi/lib/thumb/v7-m/libc_nano.a(lib_a-closer.o)
                                                  /usr/lib/gcc/arm-none-eabi/6.3.1/../../../arm-none-eabi/lib/thumb/v7-m/libc_nano.a(lib_a-stdio.o)
_ctype_                                           /usr/lib/gcc/arm-none-eabi/6.3.1/../../../arm-none-eabi/lib/thumb/v7-m/libc_nano.a(lib_a-ctype_.o)
                                                  /usr/lib/gcc/arm-none-eabi/6.3.1/../../../arm-none-eabi/lib/thumb/v7-m/libc_nano.a(lib_a-locale.o)
_dtoa_r                                           /usr/lib/gcc/arm-none-eabi/6.3.1/../../../arm-none-eabi/lib/thumb/v7-m/libc_nano.a(lib_a-dtoa.o)
                                                  /usr/lib/gcc/arm-none-eabi/6.3.1/../../../arm-none-eabi/lib/thumb/v7-m/libc_nano.a(lib_a-svfwprintf.o)
_ebss                                             build/startup_stm32f105xc.o
_edata                                            build/startup_stm32f105xc.o
_estack                                           build/startup_stm32f105xc.o
_exit                                             /usr/lib/gcc/arm-none-eabi/6.3.1/../../../arm-none-eabi/lib/thumb/v7-m/libnosys.a(_exit.o)
                                                  /usr/lib/gcc/arm-none-eabi/6.3.1/../../../arm-none-eabi/lib/thumb/v7-m/libc_nano.a(lib_a-exit.o)
_fflush_r                                         /usr/lib/gcc/arm-none-eabi/6.3.1/../../../arm-none-eabi/lib/thumb/v7-m/libc_nano.a(lib_a-fflush.o)
                                                  /usr/lib/gcc/arm-none-eabi/6.3.1/../../../arm-none-eabi/lib/thumb/v7-m/libc_nano.a(lib_a-fvwrite.o)
                                                  /usr/lib/gcc/arm-none-eabi/6.3.1/../../../arm-none-eabi/lib/thumb/v7-m/libc_nano.a(lib_a-wbuf.o)
                                                  /usr/lib/gcc/arm-none-eabi/6.3.1/../../../arm-none-eabi/lib/thumb/v7-m/libc_nano.a(lib_a-findfp.o)
_fini                                             /usr/lib/gcc/arm-none-eabi/6.3.1/thumb/v7-m/crti.o
                                                  /usr/lib/gcc/arm-none-eabi/6.3.1/../../../arm-none-eabi/lib/thumb/v7-m/libc_nano.a(lib_a-fini.o)
_free_r                                           /usr/lib/gcc/arm-none-eabi/6.3.1/../../../arm-none-eabi/lib/thumb/v7-m/libc_nano.a(lib_a-nano-freer.o)
                                                  /usr/lib/gcc/arm-none-eabi/6.3.1/../../../arm-none-eabi/lib/thumb/v7-m/libc_nano.a(lib_a-nano-reallocr.o)
                                                  /usr/lib/gcc/arm-none-eabi/6.3.1/../../../arm-none-eabi/lib/thumb/v7-m/libc_nano.a(lib_a-fvwrite.o)
                                                  /usr/lib/gcc/arm-none-eabi/6.3.1/../../../arm-none-eabi/lib/thumb/v7-m/libc_nano.a(lib_a-fflush.o)
                                                  /usr/lib/gcc/arm-none-eabi/6.3.1/../../../arm-none-eabi/lib/thumb/v7-m/libc_nano.a(lib_a-wsetup.o)
                                                  /usr/lib/gcc/arm-none-eabi/6.3.1/../../../arm-none-eabi/lib/thumb/v7-m/libc_nano.a(lib_a-svfwprintf.o)
                                                  /usr/lib/gcc/arm-none-eabi/6.3.1/../../../arm-none-eabi/lib/thumb/v7-m/libc_nano.a(lib_a-reent.o)
                                                  /usr/lib/gcc/arm-none-eabi/6.3.1/../../../arm-none-eabi/lib/thumb/v7-m/libc_nano.a(lib_a-nano-svfprintf.o)
                                                  /usr/lib/gcc/arm-none-eabi/6.3.1/../../../arm-none-eabi/lib/thumb/v7-m/libc_nano.a(lib_a-malloc.o)
_fstat                                            /usr/lib/gcc/arm-none-eabi/6.3.1/../../../arm-none-eabi/lib/thumb/v7-m/libnosys.a(fstat.o)
                                                  /usr/lib/gcc/arm-none-eabi/6.3.1/../../../arm-none-eabi/lib/thumb/v7-m/libc_nano.a(lib_a-fstatr.o)
_fstat_r                                          /usr/lib/gcc/arm-none-eabi/6.3.1/../../../arm-none-eabi/lib/thumb/v7-m/libc_nano.a(lib_a-fstatr.o)
                                                  /usr/lib/gcc/arm-none-eabi/6.3.1/../../../arm-none-eabi/lib/thumb/v7-m/libc_nano.a(lib_a-makebuf.o)
_fwalk                                            /usr/lib/gcc/arm-none-eabi/6.3.1/../../../arm-none-eabi/lib/thumb/v7-m/libc_nano.a(lib_a-fwalk.o)
                                                  /usr/lib/gcc/arm-none-eabi/6.3.1/../../../arm-none-eabi/lib/thumb/v7-m/libc_nano.a(lib_a-findfp.o)
_fwalk_reent                                      /usr/lib/gcc/arm-none-eabi/6.3.1/../../../arm-none-eabi/lib/thumb/v7-m/libc_nano.a(lib_a-fwalk.o)
                                                  /usr/lib/gcc/arm-none-eabi/6.3.1/../../../arm-none-eabi/lib/thumb/v7-m/libc_nano.a(lib_a-fflush.o)
                                                  /usr/lib/gcc/arm-none-eabi/6.3.1/../../../arm-none-eabi/lib/thumb/v7-m/libc_nano.a(lib_a-findfp.o)
_global_atexit                                    /usr/lib/gcc/arm-none-eabi/6.3.1/../../../arm-none-eabi/lib/thumb/v7-m/libc_nano.a(lib_a-__call_atexit.o)
                                                  /usr/lib/gcc/arm-none-eabi/6.3.1/../../../arm-none-eabi/lib/thumb/v7-m/libc_nano.a(lib_a-__atexit.o)
_global_impure_ptr                                /usr/lib/gcc/arm-none-eabi/6.3.1/../../../arm-none-eabi/lib/thumb/v7-m/libc_nano.a(lib_a-impure.o)
                                                  /usr/lib/gcc/arm-none-eabi/6.3.1/../../../arm-none-eabi/lib/thumb/v7-m/libc_nano.a(lib_a-fflush.o)
                                                  /usr/lib/gcc/arm-none-eabi/6.3.1/../../../arm-none-eabi/lib/thumb/v7-m/libc_nano.a(lib_a-findfp.o)
                                                  /usr/lib/gcc/arm-none-eabi/6.3.1/../../../arm-none-eabi/lib/thumb/v7-m/libc_nano.a(lib_a-exit.o)
_impure_ptr                                       /usr/lib/gcc/arm-none-eabi/6.3.1/../../../arm-none-eabi/lib/thumb/v7-m/libc_nano.a(lib_a-impure.o)
                                                  /usr/lib/gcc/arm-none-eabi/6.3.1/../../../arm-none-eabi/lib/thumb/v7-m/libc_nano.a(lib_a-errno.o)
                                                  /usr/lib/gcc/arm-none-eabi/6.3.1/../../../arm-none-eabi/lib/thumb/v7-m/libc_nano.a(lib_a-fflush.o)
                                                  /usr/lib/gcc/arm-none-eabi/6.3.1/../../../arm-none-eabi/lib/thumb/v7-m/libc_nano.a(lib_a-btowc.o)
                                                  /usr/lib/gcc/arm-none-eabi/6.3.1/../../../arm-none-eabi/lib/thumb/v7-m/libc_nano.a(lib_a-wsetup.o)
                                                  /usr/lib/gcc/arm-none-eabi/6.3.1/../../../arm-none-eabi/lib/thumb/v7-m/libc_nano.a(lib_a-wctomb_r.o)
                                                  /usr/lib/gcc/arm-none-eabi/6.3.1/../../../arm-none-eabi/lib/thumb/v7-m/libc_nano.a(lib_a-wbuf.o)
                                                  /usr/lib/gcc/arm-none-eabi/6.3.1/../../../arm-none-eabi/lib/thumb/v7-m/libc_nano.a(lib_a-reent.o)
                                                  /usr/lib/gcc/arm-none-eabi/6.3.1/../../../arm-none-eabi/lib/thumb/v7-m/libc_nano.a(lib_a-nano-vfprintf.o)
                                                  /usr/lib/gcc/arm-none-eabi/6.3.1/../../../arm-none-eabi/lib/thumb/v7-m/libc_nano.a(lib_a-mbtowc_r.o)
                                                  /usr/lib/gcc/arm-none-eabi/6.3.1/../../../arm-none-eabi/lib/thumb/v7-m/libc_nano.a(lib_a-localeconv.o)
                                                  /usr/lib/gcc/arm-none-eabi/6.3.1/../../../arm-none-eabi/lib/thumb/v7-m/libc_nano.a(lib_a-locale.o)
                                                  /usr/lib/gcc/arm-none-eabi/6.3.1/../../../arm-none-eabi/lib/thumb/v7-m/libc_nano.a(lib_a-findfp.o)
                                                  /usr/lib/gcc/arm-none-eabi/6.3.1/../../../arm-none-eabi/lib/thumb/v7-m/libc_nano.a(lib_a-swprintf.o)
                                                  /usr/lib/gcc/arm-none-eabi/6.3.1/../../../arm-none-eabi/lib/thumb/v7-m/libc_nano.a(lib_a-strtol.o)
                                                  /usr/lib/gcc/arm-none-eabi/6.3.1/../../../arm-none-eabi/lib/thumb/v7-m/libc_nano.a(lib_a-strtod.o)
                                                  /usr/lib/gcc/arm-none-eabi/6.3.1/../../../arm-none-eabi/lib/thumb/v7-m/libc_nano.a(lib_a-sprintf.o)
                                                  /usr/lib/gcc/arm-none-eabi/6.3.1/../../../arm-none-eabi/lib/thumb/v7-m/libc_nano.a(lib_a-printf.o)
                                                  /usr/lib/gcc/arm-none-eabi/6.3.1/../../../arm-none-eabi/lib/thumb/v7-m/libc_nano.a(lib_a-malloc.o)
_init                                             /usr/lib/gcc/arm-none-eabi/6.3.1/thumb/v7-m/crti.o
                                                  /usr/lib/gcc/arm-none-eabi/6.3.1/../../../arm-none-eabi/lib/thumb/v7-m/libc_nano.a(lib_a-init.o)
_iprintf_r                                        /usr/lib/gcc/arm-none-eabi/6.3.1/../../../arm-none-eabi/lib/thumb/v7-m/libc_nano.a(lib_a-printf.o)
_isatty                                           /usr/lib/gcc/arm-none-eabi/6.3.1/../../../arm-none-eabi/lib/thumb/v7-m/libnosys.a(isatty.o)
                                                  /usr/lib/gcc/arm-none-eabi/6.3.1/../../../arm-none-eabi/lib/thumb/v7-m/libc_nano.a(lib_a-isattyr.o)
_isatty_r                                         /usr/lib/gcc/arm-none-eabi/6.3.1/../../../arm-none-eabi/lib/thumb/v7-m/libc_nano.a(lib_a-isattyr.o)
                                                  /usr/lib/gcc/arm-none-eabi/6.3.1/../../../arm-none-eabi/lib/thumb/v7-m/libc_nano.a(lib_a-makebuf.o)
_localeconv_r                                     /usr/lib/gcc/arm-none-eabi/6.3.1/../../../arm-none-eabi/lib/thumb/v7-m/libc_nano.a(lib_a-localeconv.o)
                                                  /usr/lib/gcc/arm-none-eabi/6.3.1/../../../arm-none-eabi/lib/thumb/v7-m/libc_nano.a(lib_a-svfwprintf.o)
_lseek                                            /usr/lib/gcc/arm-none-eabi/6.3.1/../../../arm-none-eabi/lib/thumb/v7-m/libnosys.a(lseek.o)
                                                  /usr/lib/gcc/arm-none-eabi/6.3.1/../../../arm-none-eabi/lib/thumb/v7-m/libc_nano.a(lib_a-lseekr.o)
_lseek_r                                          /usr/lib/gcc/arm-none-eabi/6.3.1/../../../arm-none-eabi/lib/thumb/v7-m/libc_nano.a(lib_a-lseekr.o)
                                                  /usr/lib/gcc/arm-none-eabi/6.3.1/../../../arm-none-eabi/lib/thumb/v7-m/libc_nano.a(lib_a-stdio.o)
_mainCRTStartup                                   /usr/lib/gcc/arm-none-eabi/6.3.1/../../../arm-none-eabi/lib/thumb/v7-m/crt0.o
_malloc_r                                         /usr/lib/gcc/arm-none-eabi/6.3.1/../../../arm-none-eabi/lib/thumb/v7-m/libc_nano.a(lib_a-nano-mallocr.o)
                                                  /usr/lib/gcc/arm-none-eabi/6.3.1/../../../arm-none-eabi/lib/thumb/v7-m/libc_nano.a(lib_a-nano-reallocr.o)
                                                  /usr/lib/gcc/arm-none-eabi/6.3.1/../../../arm-none-eabi/lib/thumb/v7-m/libc_nano.a(lib_a-makebuf.o)
                                                  /usr/lib/gcc/arm-none-eabi/6.3.1/../../../arm-none-eabi/lib/thumb/v7-m/libc_nano.a(lib_a-fvwrite.o)
                                                  /usr/lib/gcc/arm-none-eabi/6.3.1/../../../arm-none-eabi/lib/thumb/v7-m/libc_nano.a(lib_a-svfwprintf.o)
                                                  /usr/lib/gcc/arm-none-eabi/6.3.1/../../../arm-none-eabi/lib/thumb/v7-m/libc_nano.a(lib_a-nano-svfprintf.o)
                                                  /usr/lib/gcc/arm-none-eabi/6.3.1/../../../arm-none-eabi/lib/thumb/v7-m/libc_nano.a(lib_a-nano-callocr.o)
                                                  /usr/lib/gcc/arm-none-eabi/6.3.1/../../../arm-none-eabi/lib/thumb/v7-m/libc_nano.a(lib_a-findfp.o)
                                                  /usr/lib/gcc/arm-none-eabi/6.3.1/../../../arm-none-eabi/lib/thumb/v7-m/libc_nano.a(lib_a-malloc.o)
_malloc_usable_size_r                             /usr/lib/gcc/arm-none-eabi/6.3.1/../../../arm-none-eabi/lib/thumb/v7-m/libc_nano.a(lib_a-nano-msizer.o)
                                                  /usr/lib/gcc/arm-none-eabi/6.3.1/../../../arm-none-eabi/lib/thumb/v7-m/libc_nano.a(lib_a-nano-reallocr.o)
_mbtowc_r                                         /usr/lib/gcc/arm-none-eabi/6.3.1/../../../arm-none-eabi/lib/thumb/v7-m/libc_nano.a(lib_a-mbtowc_r.o)
_mprec_log10                                      /usr/lib/gcc/arm-none-eabi/6.3.1/../../../arm-none-eabi/lib/thumb/v7-m/libc_nano.a(lib_a-mprec.o)
_printf_common                                    /usr/lib/gcc/arm-none-eabi/6.3.1/../../../arm-none-eabi/lib/thumb/v7-m/libc_nano.a(lib_a-nano-vfprintf_i.o)
_printf_float                                     /usr/lib/gcc/arm-none-eabi/6.3.1/../../../arm-none-eabi/lib/thumb/v7-m/libc_nano.a(lib_a-nano-vfprintf.o)
                                                  /usr/lib/gcc/arm-none-eabi/6.3.1/../../../arm-none-eabi/lib/thumb/v7-m/libc_nano.a(lib_a-nano-svfprintf.o)
_printf_i                                         /usr/lib/gcc/arm-none-eabi/6.3.1/../../../arm-none-eabi/lib/thumb/v7-m/libc_nano.a(lib_a-nano-vfprintf_i.o)
                                                  /usr/lib/gcc/arm-none-eabi/6.3.1/../../../arm-none-eabi/lib/thumb/v7-m/libc_nano.a(lib_a-nano-vfprintf.o)
                                                  /usr/lib/gcc/arm-none-eabi/6.3.1/../../../arm-none-eabi/lib/thumb/v7-m/libc_nano.a(lib_a-nano-svfprintf.o)
_printf_r                                         /usr/lib/gcc/arm-none-eabi/6.3.1/../../../arm-none-eabi/lib/thumb/v7-m/libc_nano.a(lib_a-printf.o)
_read                                             /usr/lib/gcc/arm-none-eabi/6.3.1/../../../arm-none-eabi/lib/thumb/v7-m/libnosys.a(read.o)
                                                  /usr/lib/gcc/arm-none-eabi/6.3.1/../../../arm-none-eabi/lib/thumb/v7-m/libc_nano.a(lib_a-readr.o)
_read_r                                           /usr/lib/gcc/arm-none-eabi/6.3.1/../../../arm-none-eabi/lib/thumb/v7-m/libc_nano.a(lib_a-readr.o)
                                                  /usr/lib/gcc/arm-none-eabi/6.3.1/../../../arm-none-eabi/lib/thumb/v7-m/libc_nano.a(lib_a-stdio.o)
_realloc_r                                        /usr/lib/gcc/arm-none-eabi/6.3.1/../../../arm-none-eabi/lib/thumb/v7-m/libc_nano.a(lib_a-nano-reallocr.o)
                                                  /usr/lib/gcc/arm-none-eabi/6.3.1/../../../arm-none-eabi/lib/thumb/v7-m/libc_nano.a(lib_a-fvwrite.o)
                                                  /usr/lib/gcc/arm-none-eabi/6.3.1/../../../arm-none-eabi/lib/thumb/v7-m/libc_nano.a(lib_a-nano-svfprintf.o)
_reclaim_reent                                    /usr/lib/gcc/arm-none-eabi/6.3.1/../../../arm-none-eabi/lib/thumb/v7-m/libc_nano.a(lib_a-reent.o)
_sbrk                                             /usr/lib/gcc/arm-none-eabi/6.3.1/../../../arm-none-eabi/lib/thumb/v7-m/libnosys.a(sbrk.o)
                                                  /usr/lib/gcc/arm-none-eabi/6.3.1/../../../arm-none-eabi/lib/thumb/v7-m/libc_nano.a(lib_a-sbrkr.o)
_sbrk_r                                           /usr/lib/gcc/arm-none-eabi/6.3.1/../../../arm-none-eabi/lib/thumb/v7-m/libc_nano.a(lib_a-sbrkr.o)
                                                  /usr/lib/gcc/arm-none-eabi/6.3.1/../../../arm-none-eabi/lib/thumb/v7-m/libc_nano.a(lib_a-nano-mallocr.o)
_sbss                                             build/startup_stm32f105xc.o
_sdata                                            build/startup_stm32f105xc.o
_setlocale_r                                      /usr/lib/gcc/arm-none-eabi/6.3.1/../../../arm-none-eabi/lib/thumb/v7-m/libc_nano.a(lib_a-locale.o)
_sidata                                           build/startup_stm32f105xc.o
_siprintf_r                                       /usr/lib/gcc/arm-none-eabi/6.3.1/../../../arm-none-eabi/lib/thumb/v7-m/libc_nano.a(lib_a-sprintf.o)
_sprintf_r                                        /usr/lib/gcc/arm-none-eabi/6.3.1/../../../arm-none-eabi/lib/thumb/v7-m/libc_nano.a(lib_a-sprintf.o)
_start                                            /usr/lib/gcc/arm-none-eabi/6.3.1/../../../arm-none-eabi/lib/thumb/v7-m/crt0.o
_strtod_l                                         /usr/lib/gcc/arm-none-eabi/6.3.1/../../../arm-none-eabi/lib/thumb/v7-m/libc_nano.a(lib_a-strtod.o)
_strtod_r                                         /usr/lib/gcc/arm-none-eabi/6.3.1/../../../arm-none-eabi/lib/thumb/v7-m/libc_nano.a(lib_a-strtod.o)
_strtol_r                                         /usr/lib/gcc/arm-none-eabi/6.3.1/../../../arm-none-eabi/lib/thumb/v7-m/libc_nano.a(lib_a-strtol.o)
                                                  /usr/lib/gcc/arm-none-eabi/6.3.1/../../../arm-none-eabi/lib/thumb/v7-m/libc_nano.a(lib_a-atoi.o)
_svfiprintf_r                                     /usr/lib/gcc/arm-none-eabi/6.3.1/../../../arm-none-eabi/lib/thumb/v7-m/libc_nano.a(lib_a-nano-svfprintf.o)
_svfprintf_r                                      /usr/lib/gcc/arm-none-eabi/6.3.1/../../../arm-none-eabi/lib/thumb/v7-m/libc_nano.a(lib_a-nano-svfprintf.o)
                                                  /usr/lib/gcc/arm-none-eabi/6.3.1/../../../arm-none-eabi/lib/thumb/v7-m/libc_nano.a(lib_a-sprintf.o)
_svfwprintf_r                                     /usr/lib/gcc/arm-none-eabi/6.3.1/../../../arm-none-eabi/lib/thumb/v7-m/libc_nano.a(lib_a-svfwprintf.o)
                                                  /usr/lib/gcc/arm-none-eabi/6.3.1/../../../arm-none-eabi/lib/thumb/v7-m/libc_nano.a(lib_a-swprintf.o)
_swprintf_r                                       /usr/lib/gcc/arm-none-eabi/6.3.1/../../../arm-none-eabi/lib/thumb/v7-m/libc_nano.a(lib_a-swprintf.o)
_vfiprintf_r                                      /usr/lib/gcc/arm-none-eabi/6.3.1/../../../arm-none-eabi/lib/thumb/v7-m/libc_nano.a(lib_a-nano-vfprintf.o)
_vfprintf_r                                       /usr/lib/gcc/arm-none-eabi/6.3.1/../../../arm-none-eabi/lib/thumb/v7-m/libc_nano.a(lib_a-nano-vfprintf.o)
                                                  /usr/lib/gcc/arm-none-eabi/6.3.1/../../../arm-none-eabi/lib/thumb/v7-m/libc_nano.a(lib_a-printf.o)
_wctomb_r                                         /usr/lib/gcc/arm-none-eabi/6.3.1/../../../arm-none-eabi/lib/thumb/v7-m/libc_nano.a(lib_a-wctomb_r.o)
_write                                            build/main.o
                                                  /usr/lib/gcc/arm-none-eabi/6.3.1/../../../arm-none-eabi/lib/thumb/v7-m/libc_nano.a(lib_a-writer.o)
_write_r                                          /usr/lib/gcc/arm-none-eabi/6.3.1/../../../arm-none-eabi/lib/thumb/v7-m/libc_nano.a(lib_a-writer.o)
                                                  /usr/lib/gcc/arm-none-eabi/6.3.1/../../../arm-none-eabi/lib/thumb/v7-m/libc_nano.a(lib_a-stdio.o)
addElementToDescreteCommandBuffer_Gcode           build/Buffer_Gcode.o
                                                  build/FunctionsForButtons.o
addFloatNumberToString                            build/TextConverter_LCD.o
addIntNumberToString                              build/TextConverter_LCD.o
atexit                                            /usr/lib/gcc/arm-none-eabi/6.3.1/../../../arm-none-eabi/lib/thumb/v7-m/libc_nano.a(lib_a-atexit.o)
                                                  /usr/lib/gcc/arm-none-eabi/6.3.1/../../../arm-none-eabi/lib/thumb/v7-m/crt0.o
atof                                              /usr/lib/gcc/arm-none-eabi/6.3.1/../../../arm-none-eabi/lib/thumb/v7-m/libc_nano.a(lib_a-atof.o)
                                                  build/GcodeConverter_Gcode.o
atoi                                              /usr/lib/gcc/arm-none-eabi/6.3.1/../../../arm-none-eabi/lib/thumb/v7-m/libc_nano.a(lib_a-atoi.o)
                                                  build/GcodeConverter_Gcode.o
btowc                                             /usr/lib/gcc/arm-none-eabi/6.3.1/../../../arm-none-eabi/lib/thumb/v7-m/libc_nano.a(lib_a-btowc.o)
                                                  /usr/lib/gcc/arm-none-eabi/6.3.1/../../../arm-none-eabi/lib/thumb/v7-m/libc_nano.a(lib_a-svfwprintf.o)
changeFilamentOk_Menu                             build/FunctionsForButtons.o
                                                  build/MainMenu_Menu.o
checkFreeSpaceCommandBuffer_Gcode                 build/Buffer_Gcode.o
                                                  build/FunctionsForButtons.o
cleanup_glue                                      /usr/lib/gcc/arm-none-eabi/6.3.1/../../../arm-none-eabi/lib/thumb/v7-m/libc_nano.a(lib_a-reent.o)
clearDescreteBuffer_Gcode                         build/Buffer_Gcode.o
clearLine_TextConverter_LCD                       build/TextConverter_LCD.o
clear_display_LCD                                 build/Driver_LCD.o
                                                  build/Interface_LCD.o
closeDirectory_Menu                               build/FunctionsForButtons.o
clust2sect                                        build/ff.o
convertCharacter_LCD                              build/CharacterConverter_LCD.o
                                                  build/Interface_LCD.o
convertCommand_Gcode                              build/GcodeConverter_Gcode.o
                                                  build/FunctionsForButtons.o
createCommandBuffer_Gcode                         build/Buffer_Gcode.o
                                                  build/main.o
createDescreteCommandBuffer_Gcode                 build/Buffer_Gcode.o
                                                  build/main.o
createDescretization_Gcode                        build/Descritization_Gcode.o
                                                  build/main.o
createDownNode_Menu                               build/Constructor_Menu.o
                                                  build/FunctionsForButtons.o
                                                  build/MainMenu_Menu.o
createDriver_USBdrive                             build/Driver_USBdrive.o
                                                  build/main.o
createFirstNode_Menu                              build/Constructor_Menu.o
                                                  build/MainMenu_Menu.o
createGcodeConverter_Gcode                        build/GcodeConverter_Gcode.o
                                                  build/main.o
createRightNode_Menu                              build/Constructor_Menu.o
                                                  build/FunctionsForButtons.o
                                                  build/MainMenu_Menu.o
createState_USBdrive                              build/State_USBdrive.o
                                                  build/main.o
create_LCD                                        build/Interface_LCD.o
                                                  build/TextConverter_LCD.o
create_Motors                                     build/Driver_Motors.o
create_TextConverter_LCD                          build/TextConverter_LCD.o
                                                  build/main.o
create_coordinates                                build/coordinates.o
                                                  build/main.o
decE_coordinates                                  build/coordinates.o
                                                  build/GPIO_Motors.o
decX_coordinates                                  build/coordinates.o
                                                  build/GPIO_Motors.o
decY_coordinates                                  build/coordinates.o
                                                  build/GPIO_Motors.o
decZ_coordinates                                  build/coordinates.o
                                                  build/GPIO_Motors.o
defaultCommand                                    build/Buffer_Gcode.o
defaultDescreteCommand                            build/Buffer_Gcode.o
                                                  build/FunctionsForButtons.o
descreteCommandAnalyser_Gcode                     build/Buffer_Gcode.o
                                                  build/FunctionsForButtons.o
destroyAllNodes_Menu                              build/Constructor_Menu.o
destroyDownNode_Menu                              build/Constructor_Menu.o
destroyFirstNode_Menu                             build/Constructor_Menu.o
destroyRightColomn_Menu                           build/Constructor_Menu.o
destroyRightNode_Menu                             build/Constructor_Menu.o
                                                  build/FunctionsForButtons.o
disable_Motors                                    build/Driver_Motors.o
disk                                              build/ff_gen_drv.o
                                                  build/diskio.o
disk_initialize                                   build/diskio.o
                                                  build/ff.o
disk_ioctl                                        build/diskio.o
                                                  build/ff.o
disk_read                                         build/diskio.o
                                                  build/ff.o
disk_status                                       build/diskio.o
                                                  build/ff.o
disk_write                                        build/diskio.o
                                                  build/ff.o
doStepE_Motors                                    build/Driver_Motors.o
                                                  build/VirtualPrinters_Gcode.o
doStepX_Motors                                    build/Driver_Motors.o
                                                  build/VirtualPrinters_Gcode.o
doStepY_Motors                                    build/Driver_Motors.o
                                                  build/VirtualPrinters_Gcode.o
doStepZ_Motors                                    build/Driver_Motors.o
                                                  build/VirtualPrinters_Gcode.o
emptyFunction_Menu                                build/FunctionsForButtons.o
                                                  build/MainMenu_Menu.o
enable_Motors                                     build/Driver_Motors.o
end                                               /usr/lib/gcc/arm-none-eabi/6.3.1/../../../arm-none-eabi/lib/thumb/v7-m/libnosys.a(sbrk.o)
endOfFile_USBdrive                                build/Driver_USBdrive.o
                                                  build/FunctionsForButtons.o
englishBack_Menu                                  build/FunctionsForButtons.o
englishOk_Menu                                    build/FunctionsForButtons.o
                                                  build/MainMenu_Menu.o
enoghSpaceIsReservedCommandBuffer_Gcode           build/Buffer_Gcode.o
                                                  build/FunctionsForButtons.o
eraseFirstCommandBuffer_Gcode                     build/Buffer_Gcode.o
                                                  build/stm32f1xx_it.o
errno                                             /usr/lib/gcc/arm-none-eabi/6.3.1/../../../arm-none-eabi/lib/thumb/v7-m/libc_nano.a(lib_a-reent.o)
                                                  /usr/lib/gcc/arm-none-eabi/6.3.1/../../../arm-none-eabi/lib/thumb/v7-m/libnosys.a(read.o)
                                                  /usr/lib/gcc/arm-none-eabi/6.3.1/../../../arm-none-eabi/lib/thumb/v7-m/libnosys.a(lseek.o)
                                                  /usr/lib/gcc/arm-none-eabi/6.3.1/../../../arm-none-eabi/lib/thumb/v7-m/libnosys.a(isatty.o)
                                                  /usr/lib/gcc/arm-none-eabi/6.3.1/../../../arm-none-eabi/lib/thumb/v7-m/libnosys.a(fstat.o)
                                                  /usr/lib/gcc/arm-none-eabi/6.3.1/../../../arm-none-eabi/lib/thumb/v7-m/libnosys.a(close.o)
                                                  /usr/lib/gcc/arm-none-eabi/6.3.1/../../../arm-none-eabi/lib/thumb/v7-m/libc_nano.a(lib_a-isattyr.o)
                                                  /usr/lib/gcc/arm-none-eabi/6.3.1/../../../arm-none-eabi/lib/thumb/v7-m/libc_nano.a(lib_a-fstatr.o)
                                                  /usr/lib/gcc/arm-none-eabi/6.3.1/../../../arm-none-eabi/lib/thumb/v7-m/libc_nano.a(lib_a-readr.o)
                                                  /usr/lib/gcc/arm-none-eabi/6.3.1/../../../arm-none-eabi/lib/thumb/v7-m/libc_nano.a(lib_a-lseekr.o)
                                                  /usr/lib/gcc/arm-none-eabi/6.3.1/../../../arm-none-eabi/lib/thumb/v7-m/libc_nano.a(lib_a-closer.o)
                                                  /usr/lib/gcc/arm-none-eabi/6.3.1/../../../arm-none-eabi/lib/thumb/v7-m/libc_nano.a(lib_a-writer.o)
                                                  /usr/lib/gcc/arm-none-eabi/6.3.1/../../../arm-none-eabi/lib/thumb/v7-m/libc_nano.a(lib_a-sbrkr.o)
evaluatePrinter_Gcode                             build/VirtualPrinters_Gcode.o
                                                  build/stm32f1xx_it.o
evaluate_Motors                                   build/Driver_Motors.o
                                                  build/stm32f1xx_it.o
evaluationPeriod_Gcode                            build/VirtualPrinters_Gcode.o
exit                                              /usr/lib/gcc/arm-none-eabi/6.3.1/../../../arm-none-eabi/lib/thumb/v7-m/libc_nano.a(lib_a-exit.o)
                                                  /usr/lib/gcc/arm-none-eabi/6.3.1/../../../arm-none-eabi/lib/thumb/v7-m/crt0.o
f_chmod                                           build/ff.o
f_close                                           build/ff.o
                                                  build/Driver_USBdrive.o
f_closedir                                        build/ff.o
                                                  build/Driver_USBdrive.o
f_getfree                                         build/ff.o
f_gets                                            build/ff.o
                                                  build/Driver_USBdrive.o
f_lseek                                           build/ff.o
f_mkdir                                           build/ff.o
f_mkfs                                            build/ff.o
f_mount                                           build/ff.o
                                                  build/Driver_USBdrive.o
f_open                                            build/ff.o
                                                  build/Driver_USBdrive.o
f_opendir                                         build/ff.o
                                                  build/Driver_USBdrive.o
f_printf                                          build/ff.o
f_putc                                            build/ff.o
f_puts                                            build/ff.o
f_read                                            build/ff.o
f_readdir                                         build/ff.o
                                                  build/Driver_USBdrive.o
f_rename                                          build/ff.o
f_stat                                            build/ff.o
f_sync                                            build/ff.o
f_truncate                                        build/ff.o
f_unlink                                          build/ff.o
f_utime                                           build/ff.o
f_write                                           build/ff.o
fabs                                              /usr/lib/gcc/arm-none-eabi/6.3.1/../../../arm-none-eabi/lib/thumb/v7-m/libm.a(lib_a-s_fabs.o)
                                                  /usr/lib/gcc/arm-none-eabi/6.3.1/../../../arm-none-eabi/lib/thumb/v7-m/libm.a(lib_a-e_pow.o)
ff_convert                                        build/ccsbcs.o
                                                  build/ff.o
ff_wtoupper                                       build/ccsbcs.o
                                                  build/ff.o
fflush                                            /usr/lib/gcc/arm-none-eabi/6.3.1/../../../arm-none-eabi/lib/thumb/v7-m/libc_nano.a(lib_a-fflush.o)
finite                                            /usr/lib/gcc/arm-none-eabi/6.3.1/../../../arm-none-eabi/lib/thumb/v7-m/libm.a(lib_a-s_finite.o)
                                                  /usr/lib/gcc/arm-none-eabi/6.3.1/../../../arm-none-eabi/lib/thumb/v7-m/libm.a(lib_a-w_pow.o)
firstInCommandBuffer_Gcode                        build/Buffer_Gcode.o
firstOutCommandBuffer_Gcode                       build/Buffer_Gcode.o
                                                  build/stm32f1xx_it.o
free                                              /usr/lib/gcc/arm-none-eabi/6.3.1/../../../arm-none-eabi/lib/thumb/v7-m/libc_nano.a(lib_a-malloc.o)
                                                  /usr/lib/gcc/arm-none-eabi/6.3.1/../../../arm-none-eabi/lib/thumb/v7-m/libc_nano.a(lib_a-__call_atexit.o)
                                                  build/Constructor_Menu.o
                                                  build/usbh_msc.o
g_pfnVectors                                      build/startup_stm32f105xc.o
getCommandBufferElement_Gcode                     build/Buffer_Gcode.o
getConvertedCommand_Gcode                         build/GcodeConverter_Gcode.o
                                                  build/FunctionsForButtons.o
getCurrentE_Gcode                                 build/VirtualPrinters_Gcode.o
getCurrentNode_Menu                               build/Constructor_Menu.o
                                                  build/main.o
getCurrentX_Gcode                                 build/VirtualPrinters_Gcode.o
getCurrentY_Gcode                                 build/VirtualPrinters_Gcode.o
getCurrentZ_Gcode                                 build/VirtualPrinters_Gcode.o
getDescreteCommandBufferElement_Gcode             build/Buffer_Gcode.o
getDescreteCommand_Gcode                          build/Descritization_Gcode.o
                                                  build/FunctionsForButtons.o
getE_coordinates                                  build/coordinates.o
                                                  build/stm32f1xx_it.o
getItemType_USBdrive                              build/Driver_USBdrive.o
                                                  build/FunctionsForButtons.o
getLine_TextConverter_LCD                         build/TextConverter_LCD.o
getLongName_USBdrive                              build/Driver_USBdrive.o
getMountedStatus                                  build/Driver_USBdrive.o
                                                  build/FunctionsForButtons.o
                                                  build/usb_host.o
getName_Menu                                      build/Constructor_Menu.o
                                                  build/FunctionsForButtons.o
                                                  build/main.o
getName_USBdrive                                  build/Driver_USBdrive.o
getPath_USBdrive                                  build/Driver_USBdrive.o
                                                  build/FunctionsForButtons.o
getState_USBdrive                                 build/State_USBdrive.o
                                                  build/FunctionsForButtons.o
                                                  build/main.o
getStringFromFile_USBdrive                        build/Driver_USBdrive.o
                                                  build/FunctionsForButtons.o
getTitle_Menu                                     build/Constructor_Menu.o
                                                  build/FunctionsForButtons.o
                                                  build/main.o
getWideLongName_USBdrive                          build/Driver_USBdrive.o
                                                  build/FunctionsForButtons.o
getWidePath_USBdrive                              build/Driver_USBdrive.o
getX_coordinates                                  build/coordinates.o
                                                  build/stm32f1xx_it.o
getY_coordinates                                  build/coordinates.o
                                                  build/stm32f1xx_it.o
getZ_coordinates                                  build/coordinates.o
                                                  build/stm32f1xx_it.o
get_fat                                           build/ff.o
get_fattime                                       build/fatfs.o
                                                  build/ff.o
hUsbHostFS                                        build/usb_host.o
                                                  build/usbh_diskio.o
hardware_init_hook                                /usr/lib/gcc/arm-none-eabi/6.3.1/../../../arm-none-eabi/lib/thumb/v7-m/crt0.o
helpBack_Menu                                     build/FunctionsForButtons.o
                                                  build/MainMenu_Menu.o
helpOk_Menu                                       build/FunctionsForButtons.o
                                                  build/MainMenu_Menu.o
hhcd_USB_OTG_FS                                   build/usbh_conf.o
                                                  build/stm32f1xx_it.o
homeLine_TextConverter_LCD                        build/TextConverter_LCD.o
htim2                                             build/tim.o
                                                  build/stm32f1xx_it.o
htim3                                             build/tim.o
                                                  build/stm32f1xx_it.o
                                                  build/main.o
htim4                                             build/tim.o
                                                  build/stm32f1xx_it.o
                                                  build/main.o
htim5                                             build/tim.o
                                                  build/stm32f1xx_it.o
                                                  build/main.o
huart2                                            build/usart.o
                                                  build/main.o
incE_coordinates                                  build/coordinates.o
                                                  build/GPIO_Motors.o
incX_coordinates                                  build/coordinates.o
                                                  build/GPIO_Motors.o
incY_coordinates                                  build/coordinates.o
                                                  build/GPIO_Motors.o
incZ_coordinates                                  build/coordinates.o
                                                  build/GPIO_Motors.o
iprintf                                           /usr/lib/gcc/arm-none-eabi/6.3.1/../../../arm-none-eabi/lib/thumb/v7-m/libc_nano.a(lib_a-printf.o)
localeconv                                        /usr/lib/gcc/arm-none-eabi/6.3.1/../../../arm-none-eabi/lib/thumb/v7-m/libc_nano.a(lib_a-localeconv.o)
lroundf                                           /usr/lib/gcc/arm-none-eabi/6.3.1/../../../arm-none-eabi/lib/thumb/v7-m/libm.a(lib_a-sf_lround.o)
                                                  build/VirtualPrinters_Gcode.o
                                                  build/Descritization_Gcode.o
                                                  build/Buffer_Gcode.o
main                                              build/main.o
                                                  build/startup_stm32f105xc.o
                                                  /usr/lib/gcc/arm-none-eabi/6.3.1/../../../arm-none-eabi/lib/thumb/v7-m/crt0.o
malloc                                            /usr/lib/gcc/arm-none-eabi/6.3.1/../../../arm-none-eabi/lib/thumb/v7-m/libc_nano.a(lib_a-malloc.o)
                                                  /usr/lib/gcc/arm-none-eabi/6.3.1/../../../arm-none-eabi/lib/thumb/v7-m/libc_nano.a(lib_a-dtoa.o)
                                                  /usr/lib/gcc/arm-none-eabi/6.3.1/../../../arm-none-eabi/lib/thumb/v7-m/libc_nano.a(lib_a-btowc.o)
                                                  /usr/lib/gcc/arm-none-eabi/6.3.1/../../../arm-none-eabi/lib/thumb/v7-m/libc_nano.a(lib_a-mprec.o)
                                                  /usr/lib/gcc/arm-none-eabi/6.3.1/../../../arm-none-eabi/lib/thumb/v7-m/libc_nano.a(lib_a-__atexit.o)
                                                  build/Constructor_Menu.o
                                                  build/usbh_msc.o
matherr                                           /usr/lib/gcc/arm-none-eabi/6.3.1/../../../arm-none-eabi/lib/thumb/v7-m/libm.a(lib_a-s_matherr.o)
                                                  /usr/lib/gcc/arm-none-eabi/6.3.1/../../../arm-none-eabi/lib/thumb/v7-m/libm.a(lib_a-wf_sqrt.o)
                                                  /usr/lib/gcc/arm-none-eabi/6.3.1/../../../arm-none-eabi/lib/thumb/v7-m/libm.a(lib_a-w_sqrt.o)
                                                  /usr/lib/gcc/arm-none-eabi/6.3.1/../../../arm-none-eabi/lib/thumb/v7-m/libm.a(lib_a-w_pow.o)
memchr                                            /usr/lib/gcc/arm-none-eabi/6.3.1/../../../arm-none-eabi/lib/thumb/v7-m/libc_nano.a(lib_a-memchr-stub.o)
                                                  /usr/lib/gcc/arm-none-eabi/6.3.1/../../../arm-none-eabi/lib/thumb/v7-m/libc_nano.a(lib_a-fvwrite.o)
                                                  /usr/lib/gcc/arm-none-eabi/6.3.1/../../../arm-none-eabi/lib/thumb/v7-m/libc_nano.a(lib_a-svfwprintf.o)
                                                  /usr/lib/gcc/arm-none-eabi/6.3.1/../../../arm-none-eabi/lib/thumb/v7-m/libc_nano.a(lib_a-nano-vfprintf_i.o)
                                                  /usr/lib/gcc/arm-none-eabi/6.3.1/../../../arm-none-eabi/lib/thumb/v7-m/libc_nano.a(lib_a-nano-vfprintf.o)
                                                  /usr/lib/gcc/arm-none-eabi/6.3.1/../../../arm-none-eabi/lib/thumb/v7-m/libc_nano.a(lib_a-nano-svfprintf.o)
memcpy                                            /usr/lib/gcc/arm-none-eabi/6.3.1/../../../arm-none-eabi/lib/thumb/v7-m/libc_nano.a(lib_a-memcpy.o)
                                                  /usr/lib/gcc/arm-none-eabi/6.3.1/../../../arm-none-eabi/lib/thumb/v7-m/libc_nano.a(lib_a-nano-reallocr.o)
                                                  /usr/lib/gcc/arm-none-eabi/6.3.1/../../../arm-none-eabi/lib/thumb/v7-m/libc_nano.a(lib_a-fvwrite.o)
                                                  /usr/lib/gcc/arm-none-eabi/6.3.1/../../../arm-none-eabi/lib/thumb/v7-m/libc_nano.a(lib_a-dtoa.o)
                                                  /usr/lib/gcc/arm-none-eabi/6.3.1/../../../arm-none-eabi/lib/thumb/v7-m/libc_nano.a(lib_a-nano-svfprintf.o)
                                                  /usr/lib/gcc/arm-none-eabi/6.3.1/../../../arm-none-eabi/lib/thumb/v7-m/libc_nano.a(lib_a-mprec.o)
                                                  /usr/lib/gcc/arm-none-eabi/6.3.1/../../../arm-none-eabi/lib/thumb/v7-m/libc_nano.a(lib_a-gdtoa-gethex.o)
                                                  /usr/lib/gcc/arm-none-eabi/6.3.1/../../../arm-none-eabi/lib/thumb/v7-m/libc_nano.a(lib_a-wmemcpy.o)
                                                  /usr/lib/gcc/arm-none-eabi/6.3.1/../../../arm-none-eabi/lib/thumb/v7-m/libc_nano.a(lib_a-strtod.o)
memmove                                           /usr/lib/gcc/arm-none-eabi/6.3.1/../../../arm-none-eabi/lib/thumb/v7-m/libc_nano.a(lib_a-memmove.o)
                                                  /usr/lib/gcc/arm-none-eabi/6.3.1/../../../arm-none-eabi/lib/thumb/v7-m/libc_nano.a(lib_a-fvwrite.o)
                                                  /usr/lib/gcc/arm-none-eabi/6.3.1/../../../arm-none-eabi/lib/thumb/v7-m/libc_nano.a(lib_a-nano-svfprintf.o)
memset                                            /usr/lib/gcc/arm-none-eabi/6.3.1/../../../arm-none-eabi/lib/thumb/v7-m/libc_nano.a(lib_a-memset.o)
                                                  /usr/lib/gcc/arm-none-eabi/6.3.1/../../../arm-none-eabi/lib/thumb/v7-m/libc_nano.a(lib_a-btowc.o)
                                                  /usr/lib/gcc/arm-none-eabi/6.3.1/../../../arm-none-eabi/lib/thumb/v7-m/libc_nano.a(lib_a-nano-callocr.o)
                                                  /usr/lib/gcc/arm-none-eabi/6.3.1/../../../arm-none-eabi/lib/thumb/v7-m/libc_nano.a(lib_a-findfp.o)
                                                  build/Driver_USBdrive.o
                                                  build/Buffer_Gcode.o
                                                  build/usbh_msc_scsi.o
                                                  build/usbh_msc.o
                                                  build/main.o
                                                  /usr/lib/gcc/arm-none-eabi/6.3.1/../../../arm-none-eabi/lib/thumb/v7-m/crt0.o
mount_USBdrive                                    build/Driver_USBdrive.o
                                                  build/FunctionsForButtons.o
moveComleted                                      build/VirtualPrinters_Gcode.o
                                                  build/FunctionsForButtons.o
moveDown_Menu                                     build/Constructor_Menu.o
                                                  build/FunctionsForButtons.o
                                                  build/MainMenu_Menu.o
                                                  build/main.o
moveLeft_Menu                                     build/Constructor_Menu.o
                                                  build/FunctionsForButtons.o
                                                  build/MainMenu_Menu.o
moveRight_Menu                                    build/Constructor_Menu.o
                                                  build/FunctionsForButtons.o
                                                  build/MainMenu_Menu.o
moveToTheFirstNode_Menu                           build/Constructor_Menu.o
                                                  build/MainMenu_Menu.o
                                                  build/main.o
moveUp_Menu                                       build/Constructor_Menu.o
                                                  build/FunctionsForButtons.o
move_to_line_LCD                                  build/Driver_LCD.o
                                                  build/Interface_LCD.o
nan                                               /usr/lib/gcc/arm-none-eabi/6.3.1/../../../arm-none-eabi/lib/thumb/v7-m/libm.a(lib_a-s_nan.o)
                                                  /usr/lib/gcc/arm-none-eabi/6.3.1/../../../arm-none-eabi/lib/thumb/v7-m/libm.a(lib_a-e_pow.o)
nanf                                              /usr/lib/gcc/arm-none-eabi/6.3.1/../../../arm-none-eabi/lib/thumb/v7-m/libc_nano.a(lib_a-sf_nan.o)
                                                  /usr/lib/gcc/arm-none-eabi/6.3.1/../../../arm-none-eabi/lib/thumb/v7-m/libc_nano.a(lib_a-strtod.o)
openDirectory_Menu                                build/FunctionsForButtons.o
openDirectory_USBdrive                            build/Driver_USBdrive.o
                                                  build/FunctionsForButtons.o
openFile_USBdrive                                 build/Driver_USBdrive.o
                                                  build/FunctionsForButtons.o
pFlash                                            build/stm32f1xx_hal_flash.o
                                                  build/stm32f1xx_hal_flash_ex.o
pow                                               /usr/lib/gcc/arm-none-eabi/6.3.1/../../../arm-none-eabi/lib/thumb/v7-m/libm.a(lib_a-w_pow.o)
                                                  build/TextConverter_LCD.o
                                                  build/Buffer_Gcode.o
printLine_LCD                                     build/Interface_LCD.o
                                                  build/TextConverter_LCD.o
printOk_Menu                                      build/FunctionsForButtons.o
                                                  build/MainMenu_Menu.o
printf                                            /usr/lib/gcc/arm-none-eabi/6.3.1/../../../arm-none-eabi/lib/thumb/v7-m/libc_nano.a(lib_a-printf.o)
                                                  build/stm32f1xx_it.o
putLine_TextConverter_LCD                         build/TextConverter_LCD.o
                                                  build/FunctionsForButtons.o
                                                  build/main.o
put_fat                                           build/ff.o
readItem_USBdrive                                 build/Driver_USBdrive.o
                                                  build/FunctionsForButtons.o
retUSBH                                           build/fatfs.o
return_home_LCD                                   build/Driver_LCD.o
                                                  build/Interface_LCD.o
rint                                              /usr/lib/gcc/arm-none-eabi/6.3.1/../../../arm-none-eabi/lib/thumb/v7-m/libm.a(lib_a-s_rint.o)
                                                  /usr/lib/gcc/arm-none-eabi/6.3.1/../../../arm-none-eabi/lib/thumb/v7-m/libm.a(lib_a-w_pow.o)
round                                             /usr/lib/gcc/arm-none-eabi/6.3.1/../../../arm-none-eabi/lib/thumb/v7-m/libm.a(lib_a-s_round.o)
                                                  build/TextConverter_LCD.o
runGcode_Menu                                     build/FunctionsForButtons.o
russianBack_Menu                                  build/FunctionsForButtons.o
russianOk_Menu                                    build/FunctionsForButtons.o
                                                  build/MainMenu_Menu.o
scalbn                                            /usr/lib/gcc/arm-none-eabi/6.3.1/../../../arm-none-eabi/lib/thumb/v7-m/libm.a(lib_a-s_scalbn.o)
                                                  /usr/lib/gcc/arm-none-eabi/6.3.1/../../../arm-none-eabi/lib/thumb/v7-m/libm.a(lib_a-e_pow.o)
sendCommandToPrinter_Gcode                        build/VirtualPrinters_Gcode.o
                                                  build/stm32f1xx_it.o
setDescreteCommand_Gcode                          build/Descritization_Gcode.o
                                                  build/FunctionsForButtons.o
setFunctionBack                                   build/Constructor_Menu.o
                                                  build/FunctionsForButtons.o
                                                  build/MainMenu_Menu.o
setFunctionDown                                   build/Constructor_Menu.o
                                                  build/FunctionsForButtons.o
                                                  build/MainMenu_Menu.o
setFunctionOk                                     build/Constructor_Menu.o
                                                  build/FunctionsForButtons.o
                                                  build/MainMenu_Menu.o
setFunctionUp                                     build/Constructor_Menu.o
                                                  build/FunctionsForButtons.o
                                                  build/MainMenu_Menu.o
setMainMenu_Menu                                  build/MainMenu_Menu.o
                                                  build/main.o
setState_USBdrive                                 build/State_USBdrive.o
                                                  build/usb_host.o
setTheTemperatureBack_Menu                        build/FunctionsForButtons.o
                                                  build/MainMenu_Menu.o
setTheTemperatureDown_Menu                        build/FunctionsForButtons.o
                                                  build/MainMenu_Menu.o
setTheTemperatureOk_Menu                          build/FunctionsForButtons.o
                                                  build/MainMenu_Menu.o
setTheTemperatureUp_Menu                          build/FunctionsForButtons.o
                                                  build/MainMenu_Menu.o
set_cursor_moving_to_the_right_LCD                build/Driver_LCD.o
                                                  build/Interface_LCD.o
set_dataLenght_numberOfLines_fontType_LCD         build/Driver_LCD.o
                                                  build/Interface_LCD.o
set_do_not_display_cursor_LCD                     build/Driver_LCD.o
                                                  build/Interface_LCD.o
setlocale                                         /usr/lib/gcc/arm-none-eabi/6.3.1/../../../arm-none-eabi/lib/thumb/v7-m/libc_nano.a(lib_a-locale.o)
shiftLine_TextConverter_LCD                       build/TextConverter_LCD.o
simpleNavigationBack_Menu                         build/FunctionsForButtons.o
                                                  build/MainMenu_Menu.o
simpleNavigationDown_Menu                         build/FunctionsForButtons.o
                                                  build/MainMenu_Menu.o
simpleNavigationOk_Menu                           build/FunctionsForButtons.o
                                                  build/MainMenu_Menu.o
simpleNavigationUp_Menu                           build/FunctionsForButtons.o
                                                  build/MainMenu_Menu.o
siprintf                                          /usr/lib/gcc/arm-none-eabi/6.3.1/../../../arm-none-eabi/lib/thumb/v7-m/libc_nano.a(lib_a-sprintf.o)
smoothStop_Gcode                                  build/Buffer_Gcode.o
software_init_hook                                /usr/lib/gcc/arm-none-eabi/6.3.1/../../../arm-none-eabi/lib/thumb/v7-m/crt0.o
sprintf                                           /usr/lib/gcc/arm-none-eabi/6.3.1/../../../arm-none-eabi/lib/thumb/v7-m/libc_nano.a(lib_a-sprintf.o)
                                                  build/Driver_USBdrive.o
                                                  build/FunctionsForButtons.o
sqrt                                              /usr/lib/gcc/arm-none-eabi/6.3.1/../../../arm-none-eabi/lib/thumb/v7-m/libm.a(lib_a-w_sqrt.o)
                                                  build/Buffer_Gcode.o
sqrtf                                             /usr/lib/gcc/arm-none-eabi/6.3.1/../../../arm-none-eabi/lib/thumb/v7-m/libm.a(lib_a-wf_sqrt.o)
                                                  build/Buffer_Gcode.o
strchr                                            /usr/lib/gcc/arm-none-eabi/6.3.1/../../../arm-none-eabi/lib/thumb/v7-m/libc_nano.a(lib_a-strchr.o)
                                                  build/GcodeConverter_Gcode.o
strcmp                                            /usr/lib/gcc/arm-none-eabi/6.3.1/../../../arm-none-eabi/lib/thumb/v7-m/libc_nano.a(lib_a-strcmp.o)
                                                  /usr/lib/gcc/arm-none-eabi/6.3.1/../../../arm-none-eabi/lib/thumb/v7-m/libc_nano.a(lib_a-locale.o)
strcpy                                            /usr/lib/gcc/arm-none-eabi/6.3.1/../../../arm-none-eabi/lib/thumb/v7-m/libc_nano.a(lib_a-strcpy.o)
                                                  build/Driver_USBdrive.o
strlen                                            /usr/lib/gcc/arm-none-eabi/6.3.1/../../../arm-none-eabi/lib/thumb/v7-m/libc_nano.a(lib_a-strlen-stub.o)
                                                  /usr/lib/gcc/arm-none-eabi/6.3.1/../../../arm-none-eabi/lib/thumb/v7-m/libc_nano.a(lib_a-svfwprintf.o)
                                                  /usr/lib/gcc/arm-none-eabi/6.3.1/../../../arm-none-eabi/lib/thumb/v7-m/libc_nano.a(lib_a-gdtoa-gethex.o)
                                                  /usr/lib/gcc/arm-none-eabi/6.3.1/../../../arm-none-eabi/lib/thumb/v7-m/libc_nano.a(lib_a-strtod.o)
strncmp                                           /usr/lib/gcc/arm-none-eabi/6.3.1/../../../arm-none-eabi/lib/thumb/v7-m/libc_nano.a(lib_a-strncmp.o)
                                                  /usr/lib/gcc/arm-none-eabi/6.3.1/../../../arm-none-eabi/lib/thumb/v7-m/libc_nano.a(lib_a-gdtoa-gethex.o)
                                                  /usr/lib/gcc/arm-none-eabi/6.3.1/../../../arm-none-eabi/lib/thumb/v7-m/libc_nano.a(lib_a-strtod.o)
strtod                                            /usr/lib/gcc/arm-none-eabi/6.3.1/../../../arm-none-eabi/lib/thumb/v7-m/libc_nano.a(lib_a-strtod.o)
                                                  /usr/lib/gcc/arm-none-eabi/6.3.1/../../../arm-none-eabi/lib/thumb/v7-m/libc_nano.a(lib_a-atof.o)
strtod_l                                          /usr/lib/gcc/arm-none-eabi/6.3.1/../../../arm-none-eabi/lib/thumb/v7-m/libc_nano.a(lib_a-strtod.o)
strtof                                            /usr/lib/gcc/arm-none-eabi/6.3.1/../../../arm-none-eabi/lib/thumb/v7-m/libc_nano.a(lib_a-strtod.o)
strtof_l                                          /usr/lib/gcc/arm-none-eabi/6.3.1/../../../arm-none-eabi/lib/thumb/v7-m/libc_nano.a(lib_a-strtod.o)
strtol                                            /usr/lib/gcc/arm-none-eabi/6.3.1/../../../arm-none-eabi/lib/thumb/v7-m/libc_nano.a(lib_a-strtol.o)
                                                  /usr/lib/gcc/arm-none-eabi/6.3.1/../../../arm-none-eabi/lib/thumb/v7-m/libc_nano.a(lib_a-atoi.o)
strtol_l                                          /usr/lib/gcc/arm-none-eabi/6.3.1/../../../arm-none-eabi/lib/thumb/v7-m/libc_nano.a(lib_a-strtol.o)
swprintf                                          /usr/lib/gcc/arm-none-eabi/6.3.1/../../../arm-none-eabi/lib/thumb/v7-m/libc_nano.a(lib_a-swprintf.o)
                                                  build/TextConverter_LCD.o
unmount_USBdrive                                  build/Driver_USBdrive.o
                                                  build/usb_host.o
updateLine_TextConverter_LCD                      build/TextConverter_LCD.o
                                                  build/FunctionsForButtons.o
                                                  build/main.o
uwTick                                            build/stm32f1xx_hal.o
uwTickFreq                                        build/stm32f1xx_hal.o
uwTickPrio                                        build/stm32f1xx_hal.o
vfiprintf                                         /usr/lib/gcc/arm-none-eabi/6.3.1/../../../arm-none-eabi/lib/thumb/v7-m/libc_nano.a(lib_a-nano-vfprintf.o)
vfprintf                                          /usr/lib/gcc/arm-none-eabi/6.3.1/../../../arm-none-eabi/lib/thumb/v7-m/libc_nano.a(lib_a-nano-vfprintf.o)
virtualPrintersCreate_Gcode                       build/VirtualPrinters_Gcode.o
                                                  build/main.o
wcscpy                                            /usr/lib/gcc/arm-none-eabi/6.3.1/../../../arm-none-eabi/lib/thumb/v7-m/libc_nano.a(lib_a-wcscpy.o)
                                                  build/TextConverter_LCD.o
wcslen                                            /usr/lib/gcc/arm-none-eabi/6.3.1/../../../arm-none-eabi/lib/thumb/v7-m/libc_nano.a(lib_a-wcslen.o)
                                                  /usr/lib/gcc/arm-none-eabi/6.3.1/../../../arm-none-eabi/lib/thumb/v7-m/libc_nano.a(lib_a-svfwprintf.o)
                                                  /usr/lib/gcc/arm-none-eabi/6.3.1/../../../arm-none-eabi/lib/thumb/v7-m/libc_nano.a(lib_a-wcsstr.o)
                                                  build/TextConverter_LCD.o
wcsstr                                            /usr/lib/gcc/arm-none-eabi/6.3.1/../../../arm-none-eabi/lib/thumb/v7-m/libc_nano.a(lib_a-wcsstr.o)
                                                  build/FunctionsForButtons.o
                                                  build/TextConverter_LCD.o
wmemchr                                           /usr/lib/gcc/arm-none-eabi/6.3.1/../../../arm-none-eabi/lib/thumb/v7-m/libc_nano.a(lib_a-wmemchr.o)
                                                  /usr/lib/gcc/arm-none-eabi/6.3.1/../../../arm-none-eabi/lib/thumb/v7-m/libc_nano.a(lib_a-svfwprintf.o)
wmemcpy                                           /usr/lib/gcc/arm-none-eabi/6.3.1/../../../arm-none-eabi/lib/thumb/v7-m/libc_nano.a(lib_a-wmemcpy.o)
                                                  build/Constructor_Menu.o
                                                  build/TextConverter_LCD.o
write_character                                   build/Driver_LCD.o
                                                  build/Interface_LCD.o
