ARM GAS  /tmp/ccisWkMY.s 			page 1


   1              		.cpu cortex-m3
   2              		.eabi_attribute 20, 1
   3              		.eabi_attribute 21, 1
   4              		.eabi_attribute 23, 3
   5              		.eabi_attribute 24, 1
   6              		.eabi_attribute 25, 1
   7              		.eabi_attribute 26, 1
   8              		.eabi_attribute 30, 1
   9              		.eabi_attribute 34, 1
  10              		.eabi_attribute 18, 4
  11              		.file	"usbh_msc_bot.c"
  12              		.text
  13              	.Ltext0:
  14              		.cfi_sections	.debug_frame
  15              		.section	.text.USBH_MSC_DecodeCSW,"ax",%progbits
  16              		.align	1
  17              		.syntax unified
  18              		.thumb
  19              		.thumb_func
  20              		.fpu softvfp
  22              	USBH_MSC_DecodeCSW:
  23              	.LFB71:
  24              		.file 1 "Middlewares/ST/STM32_USB_Host_Library/Class/MSC/Src/usbh_msc_bot.c"
   1:Middlewares/ST/STM32_USB_Host_Library/Class/MSC/Src/usbh_msc_bot.c **** /**
   2:Middlewares/ST/STM32_USB_Host_Library/Class/MSC/Src/usbh_msc_bot.c ****   ******************************************************************************
   3:Middlewares/ST/STM32_USB_Host_Library/Class/MSC/Src/usbh_msc_bot.c ****   * @file    usbh_msc_bot.c 
   4:Middlewares/ST/STM32_USB_Host_Library/Class/MSC/Src/usbh_msc_bot.c ****   * @author  MCD Application Team
   5:Middlewares/ST/STM32_USB_Host_Library/Class/MSC/Src/usbh_msc_bot.c ****   * @version V3.2.2
   6:Middlewares/ST/STM32_USB_Host_Library/Class/MSC/Src/usbh_msc_bot.c ****   * @date    07-July-2015
   7:Middlewares/ST/STM32_USB_Host_Library/Class/MSC/Src/usbh_msc_bot.c ****   * @brief   This file includes the BOT protocol related functions
   8:Middlewares/ST/STM32_USB_Host_Library/Class/MSC/Src/usbh_msc_bot.c ****   ******************************************************************************
   9:Middlewares/ST/STM32_USB_Host_Library/Class/MSC/Src/usbh_msc_bot.c ****   * @attention
  10:Middlewares/ST/STM32_USB_Host_Library/Class/MSC/Src/usbh_msc_bot.c ****   *
  11:Middlewares/ST/STM32_USB_Host_Library/Class/MSC/Src/usbh_msc_bot.c ****   * <h2><center>&copy; COPYRIGHT 2015 STMicroelectronics</center></h2>
  12:Middlewares/ST/STM32_USB_Host_Library/Class/MSC/Src/usbh_msc_bot.c ****   *
  13:Middlewares/ST/STM32_USB_Host_Library/Class/MSC/Src/usbh_msc_bot.c ****   * Licensed under MCD-ST Liberty SW License Agreement V2, (the "License");
  14:Middlewares/ST/STM32_USB_Host_Library/Class/MSC/Src/usbh_msc_bot.c ****   * You may not use this file except in compliance with the License.
  15:Middlewares/ST/STM32_USB_Host_Library/Class/MSC/Src/usbh_msc_bot.c ****   * You may obtain a copy of the License at:
  16:Middlewares/ST/STM32_USB_Host_Library/Class/MSC/Src/usbh_msc_bot.c ****   *
  17:Middlewares/ST/STM32_USB_Host_Library/Class/MSC/Src/usbh_msc_bot.c ****   *        http://www.st.com/software_license_agreement_liberty_v2
  18:Middlewares/ST/STM32_USB_Host_Library/Class/MSC/Src/usbh_msc_bot.c ****   *
  19:Middlewares/ST/STM32_USB_Host_Library/Class/MSC/Src/usbh_msc_bot.c ****   * Unless required by applicable law or agreed to in writing, software 
  20:Middlewares/ST/STM32_USB_Host_Library/Class/MSC/Src/usbh_msc_bot.c ****   * distributed under the License is distributed on an "AS IS" BASIS, 
  21:Middlewares/ST/STM32_USB_Host_Library/Class/MSC/Src/usbh_msc_bot.c ****   * WITHOUT WARRANTIES OR CONDITIONS OF ANY KIND, either express or implied.
  22:Middlewares/ST/STM32_USB_Host_Library/Class/MSC/Src/usbh_msc_bot.c ****   * See the License for the specific language governing permissions and
  23:Middlewares/ST/STM32_USB_Host_Library/Class/MSC/Src/usbh_msc_bot.c ****   * limitations under the License.
  24:Middlewares/ST/STM32_USB_Host_Library/Class/MSC/Src/usbh_msc_bot.c ****   *
  25:Middlewares/ST/STM32_USB_Host_Library/Class/MSC/Src/usbh_msc_bot.c ****   ******************************************************************************
  26:Middlewares/ST/STM32_USB_Host_Library/Class/MSC/Src/usbh_msc_bot.c ****   */ 
  27:Middlewares/ST/STM32_USB_Host_Library/Class/MSC/Src/usbh_msc_bot.c **** 
  28:Middlewares/ST/STM32_USB_Host_Library/Class/MSC/Src/usbh_msc_bot.c **** /* Includes ------------------------------------------------------------------*/
  29:Middlewares/ST/STM32_USB_Host_Library/Class/MSC/Src/usbh_msc_bot.c **** #include "usbh_msc_bot.h"
  30:Middlewares/ST/STM32_USB_Host_Library/Class/MSC/Src/usbh_msc_bot.c **** #include "usbh_msc.h"
  31:Middlewares/ST/STM32_USB_Host_Library/Class/MSC/Src/usbh_msc_bot.c **** 
  32:Middlewares/ST/STM32_USB_Host_Library/Class/MSC/Src/usbh_msc_bot.c **** /** @addtogroup USBH_LIB
  33:Middlewares/ST/STM32_USB_Host_Library/Class/MSC/Src/usbh_msc_bot.c **** * @{
  34:Middlewares/ST/STM32_USB_Host_Library/Class/MSC/Src/usbh_msc_bot.c **** */
ARM GAS  /tmp/ccisWkMY.s 			page 2


  35:Middlewares/ST/STM32_USB_Host_Library/Class/MSC/Src/usbh_msc_bot.c **** 
  36:Middlewares/ST/STM32_USB_Host_Library/Class/MSC/Src/usbh_msc_bot.c **** /** @addtogroup USBH_CLASS
  37:Middlewares/ST/STM32_USB_Host_Library/Class/MSC/Src/usbh_msc_bot.c **** * @{
  38:Middlewares/ST/STM32_USB_Host_Library/Class/MSC/Src/usbh_msc_bot.c **** */
  39:Middlewares/ST/STM32_USB_Host_Library/Class/MSC/Src/usbh_msc_bot.c **** 
  40:Middlewares/ST/STM32_USB_Host_Library/Class/MSC/Src/usbh_msc_bot.c **** /** @addtogroup USBH_MSC_CLASS
  41:Middlewares/ST/STM32_USB_Host_Library/Class/MSC/Src/usbh_msc_bot.c **** * @{
  42:Middlewares/ST/STM32_USB_Host_Library/Class/MSC/Src/usbh_msc_bot.c **** */
  43:Middlewares/ST/STM32_USB_Host_Library/Class/MSC/Src/usbh_msc_bot.c **** 
  44:Middlewares/ST/STM32_USB_Host_Library/Class/MSC/Src/usbh_msc_bot.c **** /** @defgroup USBH_MSC_BOT 
  45:Middlewares/ST/STM32_USB_Host_Library/Class/MSC/Src/usbh_msc_bot.c **** * @brief    This file includes the mass storage related functions
  46:Middlewares/ST/STM32_USB_Host_Library/Class/MSC/Src/usbh_msc_bot.c **** * @{
  47:Middlewares/ST/STM32_USB_Host_Library/Class/MSC/Src/usbh_msc_bot.c **** */ 
  48:Middlewares/ST/STM32_USB_Host_Library/Class/MSC/Src/usbh_msc_bot.c **** 
  49:Middlewares/ST/STM32_USB_Host_Library/Class/MSC/Src/usbh_msc_bot.c **** 
  50:Middlewares/ST/STM32_USB_Host_Library/Class/MSC/Src/usbh_msc_bot.c **** /** @defgroup USBH_MSC_BOT_Private_TypesDefinitions
  51:Middlewares/ST/STM32_USB_Host_Library/Class/MSC/Src/usbh_msc_bot.c **** * @{
  52:Middlewares/ST/STM32_USB_Host_Library/Class/MSC/Src/usbh_msc_bot.c **** */ 
  53:Middlewares/ST/STM32_USB_Host_Library/Class/MSC/Src/usbh_msc_bot.c **** /**
  54:Middlewares/ST/STM32_USB_Host_Library/Class/MSC/Src/usbh_msc_bot.c **** * @}
  55:Middlewares/ST/STM32_USB_Host_Library/Class/MSC/Src/usbh_msc_bot.c **** */ 
  56:Middlewares/ST/STM32_USB_Host_Library/Class/MSC/Src/usbh_msc_bot.c **** 
  57:Middlewares/ST/STM32_USB_Host_Library/Class/MSC/Src/usbh_msc_bot.c **** /** @defgroup USBH_MSC_BOT_Private_Defines
  58:Middlewares/ST/STM32_USB_Host_Library/Class/MSC/Src/usbh_msc_bot.c **** * @{
  59:Middlewares/ST/STM32_USB_Host_Library/Class/MSC/Src/usbh_msc_bot.c **** */ 
  60:Middlewares/ST/STM32_USB_Host_Library/Class/MSC/Src/usbh_msc_bot.c **** /**
  61:Middlewares/ST/STM32_USB_Host_Library/Class/MSC/Src/usbh_msc_bot.c **** * @}
  62:Middlewares/ST/STM32_USB_Host_Library/Class/MSC/Src/usbh_msc_bot.c **** */ 
  63:Middlewares/ST/STM32_USB_Host_Library/Class/MSC/Src/usbh_msc_bot.c **** 
  64:Middlewares/ST/STM32_USB_Host_Library/Class/MSC/Src/usbh_msc_bot.c **** /** @defgroup USBH_MSC_BOT_Private_Macros
  65:Middlewares/ST/STM32_USB_Host_Library/Class/MSC/Src/usbh_msc_bot.c **** * @{
  66:Middlewares/ST/STM32_USB_Host_Library/Class/MSC/Src/usbh_msc_bot.c **** */ 
  67:Middlewares/ST/STM32_USB_Host_Library/Class/MSC/Src/usbh_msc_bot.c **** /**
  68:Middlewares/ST/STM32_USB_Host_Library/Class/MSC/Src/usbh_msc_bot.c **** * @}
  69:Middlewares/ST/STM32_USB_Host_Library/Class/MSC/Src/usbh_msc_bot.c **** */ 
  70:Middlewares/ST/STM32_USB_Host_Library/Class/MSC/Src/usbh_msc_bot.c **** 
  71:Middlewares/ST/STM32_USB_Host_Library/Class/MSC/Src/usbh_msc_bot.c **** 
  72:Middlewares/ST/STM32_USB_Host_Library/Class/MSC/Src/usbh_msc_bot.c **** /** @defgroup USBH_MSC_BOT_Private_Variables
  73:Middlewares/ST/STM32_USB_Host_Library/Class/MSC/Src/usbh_msc_bot.c **** * @{
  74:Middlewares/ST/STM32_USB_Host_Library/Class/MSC/Src/usbh_msc_bot.c **** */ 
  75:Middlewares/ST/STM32_USB_Host_Library/Class/MSC/Src/usbh_msc_bot.c **** 
  76:Middlewares/ST/STM32_USB_Host_Library/Class/MSC/Src/usbh_msc_bot.c **** /**
  77:Middlewares/ST/STM32_USB_Host_Library/Class/MSC/Src/usbh_msc_bot.c **** * @}
  78:Middlewares/ST/STM32_USB_Host_Library/Class/MSC/Src/usbh_msc_bot.c **** */ 
  79:Middlewares/ST/STM32_USB_Host_Library/Class/MSC/Src/usbh_msc_bot.c **** 
  80:Middlewares/ST/STM32_USB_Host_Library/Class/MSC/Src/usbh_msc_bot.c **** 
  81:Middlewares/ST/STM32_USB_Host_Library/Class/MSC/Src/usbh_msc_bot.c **** /** @defgroup USBH_MSC_BOT_Private_FunctionPrototypes
  82:Middlewares/ST/STM32_USB_Host_Library/Class/MSC/Src/usbh_msc_bot.c **** * @{
  83:Middlewares/ST/STM32_USB_Host_Library/Class/MSC/Src/usbh_msc_bot.c **** */ 
  84:Middlewares/ST/STM32_USB_Host_Library/Class/MSC/Src/usbh_msc_bot.c **** static USBH_StatusTypeDef USBH_MSC_BOT_Abort(USBH_HandleTypeDef *phost, uint8_t lun, uint8_t dir);
  85:Middlewares/ST/STM32_USB_Host_Library/Class/MSC/Src/usbh_msc_bot.c **** static BOT_CSWStatusTypeDef USBH_MSC_DecodeCSW(USBH_HandleTypeDef *phost);
  86:Middlewares/ST/STM32_USB_Host_Library/Class/MSC/Src/usbh_msc_bot.c **** /**
  87:Middlewares/ST/STM32_USB_Host_Library/Class/MSC/Src/usbh_msc_bot.c **** * @}
  88:Middlewares/ST/STM32_USB_Host_Library/Class/MSC/Src/usbh_msc_bot.c **** */ 
  89:Middlewares/ST/STM32_USB_Host_Library/Class/MSC/Src/usbh_msc_bot.c **** 
  90:Middlewares/ST/STM32_USB_Host_Library/Class/MSC/Src/usbh_msc_bot.c **** 
  91:Middlewares/ST/STM32_USB_Host_Library/Class/MSC/Src/usbh_msc_bot.c **** /** @defgroup USBH_MSC_BOT_Exported_Variables
ARM GAS  /tmp/ccisWkMY.s 			page 3


  92:Middlewares/ST/STM32_USB_Host_Library/Class/MSC/Src/usbh_msc_bot.c **** * @{
  93:Middlewares/ST/STM32_USB_Host_Library/Class/MSC/Src/usbh_msc_bot.c **** */ 
  94:Middlewares/ST/STM32_USB_Host_Library/Class/MSC/Src/usbh_msc_bot.c **** /**
  95:Middlewares/ST/STM32_USB_Host_Library/Class/MSC/Src/usbh_msc_bot.c **** * @}
  96:Middlewares/ST/STM32_USB_Host_Library/Class/MSC/Src/usbh_msc_bot.c **** */ 
  97:Middlewares/ST/STM32_USB_Host_Library/Class/MSC/Src/usbh_msc_bot.c **** 
  98:Middlewares/ST/STM32_USB_Host_Library/Class/MSC/Src/usbh_msc_bot.c **** 
  99:Middlewares/ST/STM32_USB_Host_Library/Class/MSC/Src/usbh_msc_bot.c **** /** @defgroup USBH_MSC_BOT_Private_Functions
 100:Middlewares/ST/STM32_USB_Host_Library/Class/MSC/Src/usbh_msc_bot.c **** * @{
 101:Middlewares/ST/STM32_USB_Host_Library/Class/MSC/Src/usbh_msc_bot.c **** */ 
 102:Middlewares/ST/STM32_USB_Host_Library/Class/MSC/Src/usbh_msc_bot.c **** 
 103:Middlewares/ST/STM32_USB_Host_Library/Class/MSC/Src/usbh_msc_bot.c **** /**
 104:Middlewares/ST/STM32_USB_Host_Library/Class/MSC/Src/usbh_msc_bot.c ****   * @brief  USBH_MSC_BOT_REQ_Reset 
 105:Middlewares/ST/STM32_USB_Host_Library/Class/MSC/Src/usbh_msc_bot.c ****   *         The function the MSC BOT Reset request.
 106:Middlewares/ST/STM32_USB_Host_Library/Class/MSC/Src/usbh_msc_bot.c ****   * @param  phost: Host handle
 107:Middlewares/ST/STM32_USB_Host_Library/Class/MSC/Src/usbh_msc_bot.c ****   * @retval USBH Status
 108:Middlewares/ST/STM32_USB_Host_Library/Class/MSC/Src/usbh_msc_bot.c ****   */
 109:Middlewares/ST/STM32_USB_Host_Library/Class/MSC/Src/usbh_msc_bot.c **** USBH_StatusTypeDef USBH_MSC_BOT_REQ_Reset(USBH_HandleTypeDef *phost)
 110:Middlewares/ST/STM32_USB_Host_Library/Class/MSC/Src/usbh_msc_bot.c **** {
 111:Middlewares/ST/STM32_USB_Host_Library/Class/MSC/Src/usbh_msc_bot.c ****   
 112:Middlewares/ST/STM32_USB_Host_Library/Class/MSC/Src/usbh_msc_bot.c ****   phost->Control.setup.b.bmRequestType = USB_H2D | USB_REQ_TYPE_CLASS | \
 113:Middlewares/ST/STM32_USB_Host_Library/Class/MSC/Src/usbh_msc_bot.c ****                               USB_REQ_RECIPIENT_INTERFACE;
 114:Middlewares/ST/STM32_USB_Host_Library/Class/MSC/Src/usbh_msc_bot.c ****   
 115:Middlewares/ST/STM32_USB_Host_Library/Class/MSC/Src/usbh_msc_bot.c ****   phost->Control.setup.b.bRequest = USB_REQ_BOT_RESET;
 116:Middlewares/ST/STM32_USB_Host_Library/Class/MSC/Src/usbh_msc_bot.c ****   phost->Control.setup.b.wValue.w = 0;
 117:Middlewares/ST/STM32_USB_Host_Library/Class/MSC/Src/usbh_msc_bot.c ****   phost->Control.setup.b.wIndex.w = 0;
 118:Middlewares/ST/STM32_USB_Host_Library/Class/MSC/Src/usbh_msc_bot.c ****   phost->Control.setup.b.wLength.w = 0;           
 119:Middlewares/ST/STM32_USB_Host_Library/Class/MSC/Src/usbh_msc_bot.c ****   
 120:Middlewares/ST/STM32_USB_Host_Library/Class/MSC/Src/usbh_msc_bot.c ****   return USBH_CtlReq(phost, 0 , 0 );  
 121:Middlewares/ST/STM32_USB_Host_Library/Class/MSC/Src/usbh_msc_bot.c **** }
 122:Middlewares/ST/STM32_USB_Host_Library/Class/MSC/Src/usbh_msc_bot.c **** 
 123:Middlewares/ST/STM32_USB_Host_Library/Class/MSC/Src/usbh_msc_bot.c **** /**
 124:Middlewares/ST/STM32_USB_Host_Library/Class/MSC/Src/usbh_msc_bot.c ****   * @brief  USBH_MSC_BOT_REQ_GetMaxLUN 
 125:Middlewares/ST/STM32_USB_Host_Library/Class/MSC/Src/usbh_msc_bot.c ****   *         The function the MSC BOT GetMaxLUN request.
 126:Middlewares/ST/STM32_USB_Host_Library/Class/MSC/Src/usbh_msc_bot.c ****   * @param  phost: Host handle
 127:Middlewares/ST/STM32_USB_Host_Library/Class/MSC/Src/usbh_msc_bot.c ****   * @param  Maxlun: pointer to Maxlun variable
 128:Middlewares/ST/STM32_USB_Host_Library/Class/MSC/Src/usbh_msc_bot.c ****   * @retval USBH Status
 129:Middlewares/ST/STM32_USB_Host_Library/Class/MSC/Src/usbh_msc_bot.c ****   */
 130:Middlewares/ST/STM32_USB_Host_Library/Class/MSC/Src/usbh_msc_bot.c **** USBH_StatusTypeDef USBH_MSC_BOT_REQ_GetMaxLUN(USBH_HandleTypeDef *phost, uint8_t *Maxlun)
 131:Middlewares/ST/STM32_USB_Host_Library/Class/MSC/Src/usbh_msc_bot.c **** {
 132:Middlewares/ST/STM32_USB_Host_Library/Class/MSC/Src/usbh_msc_bot.c ****   phost->Control.setup.b.bmRequestType = USB_D2H | USB_REQ_TYPE_CLASS | \
 133:Middlewares/ST/STM32_USB_Host_Library/Class/MSC/Src/usbh_msc_bot.c ****                               USB_REQ_RECIPIENT_INTERFACE;
 134:Middlewares/ST/STM32_USB_Host_Library/Class/MSC/Src/usbh_msc_bot.c ****   
 135:Middlewares/ST/STM32_USB_Host_Library/Class/MSC/Src/usbh_msc_bot.c ****   phost->Control.setup.b.bRequest = USB_REQ_GET_MAX_LUN;
 136:Middlewares/ST/STM32_USB_Host_Library/Class/MSC/Src/usbh_msc_bot.c ****   phost->Control.setup.b.wValue.w = 0;
 137:Middlewares/ST/STM32_USB_Host_Library/Class/MSC/Src/usbh_msc_bot.c ****   phost->Control.setup.b.wIndex.w = 0;
 138:Middlewares/ST/STM32_USB_Host_Library/Class/MSC/Src/usbh_msc_bot.c ****   phost->Control.setup.b.wLength.w = 1;           
 139:Middlewares/ST/STM32_USB_Host_Library/Class/MSC/Src/usbh_msc_bot.c ****   
 140:Middlewares/ST/STM32_USB_Host_Library/Class/MSC/Src/usbh_msc_bot.c ****   return USBH_CtlReq(phost, Maxlun , 1 ); 
 141:Middlewares/ST/STM32_USB_Host_Library/Class/MSC/Src/usbh_msc_bot.c **** }
 142:Middlewares/ST/STM32_USB_Host_Library/Class/MSC/Src/usbh_msc_bot.c **** 
 143:Middlewares/ST/STM32_USB_Host_Library/Class/MSC/Src/usbh_msc_bot.c **** 
 144:Middlewares/ST/STM32_USB_Host_Library/Class/MSC/Src/usbh_msc_bot.c **** 
 145:Middlewares/ST/STM32_USB_Host_Library/Class/MSC/Src/usbh_msc_bot.c **** /**
 146:Middlewares/ST/STM32_USB_Host_Library/Class/MSC/Src/usbh_msc_bot.c ****   * @brief  USBH_MSC_BOT_Init 
 147:Middlewares/ST/STM32_USB_Host_Library/Class/MSC/Src/usbh_msc_bot.c ****   *         The function Initializes the BOT protocol.
 148:Middlewares/ST/STM32_USB_Host_Library/Class/MSC/Src/usbh_msc_bot.c ****   * @param  phost: Host handle
ARM GAS  /tmp/ccisWkMY.s 			page 4


 149:Middlewares/ST/STM32_USB_Host_Library/Class/MSC/Src/usbh_msc_bot.c ****   * @retval USBH Status
 150:Middlewares/ST/STM32_USB_Host_Library/Class/MSC/Src/usbh_msc_bot.c ****   */
 151:Middlewares/ST/STM32_USB_Host_Library/Class/MSC/Src/usbh_msc_bot.c **** USBH_StatusTypeDef USBH_MSC_BOT_Init(USBH_HandleTypeDef *phost)
 152:Middlewares/ST/STM32_USB_Host_Library/Class/MSC/Src/usbh_msc_bot.c **** {
 153:Middlewares/ST/STM32_USB_Host_Library/Class/MSC/Src/usbh_msc_bot.c ****   
 154:Middlewares/ST/STM32_USB_Host_Library/Class/MSC/Src/usbh_msc_bot.c ****   MSC_HandleTypeDef *MSC_Handle =  (MSC_HandleTypeDef *) phost->pActiveClass->pData;
 155:Middlewares/ST/STM32_USB_Host_Library/Class/MSC/Src/usbh_msc_bot.c ****   
 156:Middlewares/ST/STM32_USB_Host_Library/Class/MSC/Src/usbh_msc_bot.c ****   MSC_Handle->hbot.cbw.field.Signature = BOT_CBW_SIGNATURE;
 157:Middlewares/ST/STM32_USB_Host_Library/Class/MSC/Src/usbh_msc_bot.c ****   MSC_Handle->hbot.cbw.field.Tag = BOT_CBW_TAG;
 158:Middlewares/ST/STM32_USB_Host_Library/Class/MSC/Src/usbh_msc_bot.c ****   MSC_Handle->hbot.state = BOT_SEND_CBW;    
 159:Middlewares/ST/STM32_USB_Host_Library/Class/MSC/Src/usbh_msc_bot.c ****   MSC_Handle->hbot.cmd_state = BOT_CMD_SEND;   
 160:Middlewares/ST/STM32_USB_Host_Library/Class/MSC/Src/usbh_msc_bot.c ****   
 161:Middlewares/ST/STM32_USB_Host_Library/Class/MSC/Src/usbh_msc_bot.c ****   return USBH_OK;
 162:Middlewares/ST/STM32_USB_Host_Library/Class/MSC/Src/usbh_msc_bot.c **** }
 163:Middlewares/ST/STM32_USB_Host_Library/Class/MSC/Src/usbh_msc_bot.c **** 
 164:Middlewares/ST/STM32_USB_Host_Library/Class/MSC/Src/usbh_msc_bot.c **** 
 165:Middlewares/ST/STM32_USB_Host_Library/Class/MSC/Src/usbh_msc_bot.c **** 
 166:Middlewares/ST/STM32_USB_Host_Library/Class/MSC/Src/usbh_msc_bot.c **** /**
 167:Middlewares/ST/STM32_USB_Host_Library/Class/MSC/Src/usbh_msc_bot.c ****   * @brief  USBH_MSC_BOT_Process 
 168:Middlewares/ST/STM32_USB_Host_Library/Class/MSC/Src/usbh_msc_bot.c ****   *         The function handle the BOT protocol.
 169:Middlewares/ST/STM32_USB_Host_Library/Class/MSC/Src/usbh_msc_bot.c ****   * @param  phost: Host handle
 170:Middlewares/ST/STM32_USB_Host_Library/Class/MSC/Src/usbh_msc_bot.c ****   * @param  lun: Logical Unit Number
 171:Middlewares/ST/STM32_USB_Host_Library/Class/MSC/Src/usbh_msc_bot.c ****   * @retval USBH Status
 172:Middlewares/ST/STM32_USB_Host_Library/Class/MSC/Src/usbh_msc_bot.c ****   */
 173:Middlewares/ST/STM32_USB_Host_Library/Class/MSC/Src/usbh_msc_bot.c **** USBH_StatusTypeDef USBH_MSC_BOT_Process (USBH_HandleTypeDef *phost, uint8_t lun)
 174:Middlewares/ST/STM32_USB_Host_Library/Class/MSC/Src/usbh_msc_bot.c **** {
 175:Middlewares/ST/STM32_USB_Host_Library/Class/MSC/Src/usbh_msc_bot.c ****   USBH_StatusTypeDef   status = USBH_BUSY;
 176:Middlewares/ST/STM32_USB_Host_Library/Class/MSC/Src/usbh_msc_bot.c ****   USBH_StatusTypeDef   error  = USBH_BUSY;  
 177:Middlewares/ST/STM32_USB_Host_Library/Class/MSC/Src/usbh_msc_bot.c ****   BOT_CSWStatusTypeDef CSW_Status = BOT_CSW_CMD_FAILED;
 178:Middlewares/ST/STM32_USB_Host_Library/Class/MSC/Src/usbh_msc_bot.c ****   USBH_URBStateTypeDef URB_Status = USBH_URB_IDLE;
 179:Middlewares/ST/STM32_USB_Host_Library/Class/MSC/Src/usbh_msc_bot.c ****   MSC_HandleTypeDef *MSC_Handle =  (MSC_HandleTypeDef *) phost->pActiveClass->pData;
 180:Middlewares/ST/STM32_USB_Host_Library/Class/MSC/Src/usbh_msc_bot.c ****   uint8_t toggle = 0;
 181:Middlewares/ST/STM32_USB_Host_Library/Class/MSC/Src/usbh_msc_bot.c ****   
 182:Middlewares/ST/STM32_USB_Host_Library/Class/MSC/Src/usbh_msc_bot.c ****   switch (MSC_Handle->hbot.state)
 183:Middlewares/ST/STM32_USB_Host_Library/Class/MSC/Src/usbh_msc_bot.c ****   {
 184:Middlewares/ST/STM32_USB_Host_Library/Class/MSC/Src/usbh_msc_bot.c ****   case BOT_SEND_CBW:
 185:Middlewares/ST/STM32_USB_Host_Library/Class/MSC/Src/usbh_msc_bot.c ****     MSC_Handle->hbot.cbw.field.LUN = lun;
 186:Middlewares/ST/STM32_USB_Host_Library/Class/MSC/Src/usbh_msc_bot.c ****     MSC_Handle->hbot.state = BOT_SEND_CBW_WAIT;    
 187:Middlewares/ST/STM32_USB_Host_Library/Class/MSC/Src/usbh_msc_bot.c ****     USBH_BulkSendData (phost,
 188:Middlewares/ST/STM32_USB_Host_Library/Class/MSC/Src/usbh_msc_bot.c ****                        MSC_Handle->hbot.cbw.data, 
 189:Middlewares/ST/STM32_USB_Host_Library/Class/MSC/Src/usbh_msc_bot.c ****                        BOT_CBW_LENGTH, 
 190:Middlewares/ST/STM32_USB_Host_Library/Class/MSC/Src/usbh_msc_bot.c ****                        MSC_Handle->OutPipe,
 191:Middlewares/ST/STM32_USB_Host_Library/Class/MSC/Src/usbh_msc_bot.c ****                        1);
 192:Middlewares/ST/STM32_USB_Host_Library/Class/MSC/Src/usbh_msc_bot.c ****     
 193:Middlewares/ST/STM32_USB_Host_Library/Class/MSC/Src/usbh_msc_bot.c ****     break;
 194:Middlewares/ST/STM32_USB_Host_Library/Class/MSC/Src/usbh_msc_bot.c ****     
 195:Middlewares/ST/STM32_USB_Host_Library/Class/MSC/Src/usbh_msc_bot.c ****   case BOT_SEND_CBW_WAIT:
 196:Middlewares/ST/STM32_USB_Host_Library/Class/MSC/Src/usbh_msc_bot.c ****     
 197:Middlewares/ST/STM32_USB_Host_Library/Class/MSC/Src/usbh_msc_bot.c ****     URB_Status = USBH_LL_GetURBState(phost, MSC_Handle->OutPipe); 
 198:Middlewares/ST/STM32_USB_Host_Library/Class/MSC/Src/usbh_msc_bot.c ****     
 199:Middlewares/ST/STM32_USB_Host_Library/Class/MSC/Src/usbh_msc_bot.c ****     if(URB_Status == USBH_URB_DONE)
 200:Middlewares/ST/STM32_USB_Host_Library/Class/MSC/Src/usbh_msc_bot.c ****     { 
 201:Middlewares/ST/STM32_USB_Host_Library/Class/MSC/Src/usbh_msc_bot.c ****       if ( MSC_Handle->hbot.cbw.field.DataTransferLength != 0 )
 202:Middlewares/ST/STM32_USB_Host_Library/Class/MSC/Src/usbh_msc_bot.c ****       {
 203:Middlewares/ST/STM32_USB_Host_Library/Class/MSC/Src/usbh_msc_bot.c ****         /* If there is Data Transfer Stage */
 204:Middlewares/ST/STM32_USB_Host_Library/Class/MSC/Src/usbh_msc_bot.c ****         if (((MSC_Handle->hbot.cbw.field.Flags) & USB_REQ_DIR_MASK) == USB_D2H)
 205:Middlewares/ST/STM32_USB_Host_Library/Class/MSC/Src/usbh_msc_bot.c ****         {
ARM GAS  /tmp/ccisWkMY.s 			page 5


 206:Middlewares/ST/STM32_USB_Host_Library/Class/MSC/Src/usbh_msc_bot.c ****           /* Data Direction is IN */
 207:Middlewares/ST/STM32_USB_Host_Library/Class/MSC/Src/usbh_msc_bot.c ****           MSC_Handle->hbot.state = BOT_DATA_IN;
 208:Middlewares/ST/STM32_USB_Host_Library/Class/MSC/Src/usbh_msc_bot.c ****         }
 209:Middlewares/ST/STM32_USB_Host_Library/Class/MSC/Src/usbh_msc_bot.c ****         else
 210:Middlewares/ST/STM32_USB_Host_Library/Class/MSC/Src/usbh_msc_bot.c ****         {
 211:Middlewares/ST/STM32_USB_Host_Library/Class/MSC/Src/usbh_msc_bot.c ****           /* Data Direction is OUT */
 212:Middlewares/ST/STM32_USB_Host_Library/Class/MSC/Src/usbh_msc_bot.c ****           MSC_Handle->hbot.state = BOT_DATA_OUT;
 213:Middlewares/ST/STM32_USB_Host_Library/Class/MSC/Src/usbh_msc_bot.c ****         } 
 214:Middlewares/ST/STM32_USB_Host_Library/Class/MSC/Src/usbh_msc_bot.c ****       }
 215:Middlewares/ST/STM32_USB_Host_Library/Class/MSC/Src/usbh_msc_bot.c ****       
 216:Middlewares/ST/STM32_USB_Host_Library/Class/MSC/Src/usbh_msc_bot.c ****       else
 217:Middlewares/ST/STM32_USB_Host_Library/Class/MSC/Src/usbh_msc_bot.c ****       {/* If there is NO Data Transfer Stage */
 218:Middlewares/ST/STM32_USB_Host_Library/Class/MSC/Src/usbh_msc_bot.c ****         MSC_Handle->hbot.state = BOT_RECEIVE_CSW;
 219:Middlewares/ST/STM32_USB_Host_Library/Class/MSC/Src/usbh_msc_bot.c ****       }
 220:Middlewares/ST/STM32_USB_Host_Library/Class/MSC/Src/usbh_msc_bot.c **** #if (USBH_USE_OS == 1)
 221:Middlewares/ST/STM32_USB_Host_Library/Class/MSC/Src/usbh_msc_bot.c ****     osMessagePut ( phost->os_event, USBH_URB_EVENT, 0);
 222:Middlewares/ST/STM32_USB_Host_Library/Class/MSC/Src/usbh_msc_bot.c **** #endif   
 223:Middlewares/ST/STM32_USB_Host_Library/Class/MSC/Src/usbh_msc_bot.c ****     
 224:Middlewares/ST/STM32_USB_Host_Library/Class/MSC/Src/usbh_msc_bot.c ****     }   
 225:Middlewares/ST/STM32_USB_Host_Library/Class/MSC/Src/usbh_msc_bot.c ****     else if(URB_Status == USBH_URB_NOTREADY)
 226:Middlewares/ST/STM32_USB_Host_Library/Class/MSC/Src/usbh_msc_bot.c ****     {
 227:Middlewares/ST/STM32_USB_Host_Library/Class/MSC/Src/usbh_msc_bot.c ****       /* Re-send CBW */
 228:Middlewares/ST/STM32_USB_Host_Library/Class/MSC/Src/usbh_msc_bot.c ****       MSC_Handle->hbot.state = BOT_SEND_CBW;
 229:Middlewares/ST/STM32_USB_Host_Library/Class/MSC/Src/usbh_msc_bot.c **** #if (USBH_USE_OS == 1)
 230:Middlewares/ST/STM32_USB_Host_Library/Class/MSC/Src/usbh_msc_bot.c ****     osMessagePut ( phost->os_event, USBH_URB_EVENT, 0);
 231:Middlewares/ST/STM32_USB_Host_Library/Class/MSC/Src/usbh_msc_bot.c **** #endif       
 232:Middlewares/ST/STM32_USB_Host_Library/Class/MSC/Src/usbh_msc_bot.c ****     }     
 233:Middlewares/ST/STM32_USB_Host_Library/Class/MSC/Src/usbh_msc_bot.c ****     else if(URB_Status == USBH_URB_STALL)
 234:Middlewares/ST/STM32_USB_Host_Library/Class/MSC/Src/usbh_msc_bot.c ****     {
 235:Middlewares/ST/STM32_USB_Host_Library/Class/MSC/Src/usbh_msc_bot.c ****       MSC_Handle->hbot.state  = BOT_ERROR_OUT;
 236:Middlewares/ST/STM32_USB_Host_Library/Class/MSC/Src/usbh_msc_bot.c **** #if (USBH_USE_OS == 1)
 237:Middlewares/ST/STM32_USB_Host_Library/Class/MSC/Src/usbh_msc_bot.c ****     osMessagePut ( phost->os_event, USBH_URB_EVENT, 0);
 238:Middlewares/ST/STM32_USB_Host_Library/Class/MSC/Src/usbh_msc_bot.c **** #endif       
 239:Middlewares/ST/STM32_USB_Host_Library/Class/MSC/Src/usbh_msc_bot.c ****     }
 240:Middlewares/ST/STM32_USB_Host_Library/Class/MSC/Src/usbh_msc_bot.c ****     break;
 241:Middlewares/ST/STM32_USB_Host_Library/Class/MSC/Src/usbh_msc_bot.c ****     
 242:Middlewares/ST/STM32_USB_Host_Library/Class/MSC/Src/usbh_msc_bot.c ****   case BOT_DATA_IN:   
 243:Middlewares/ST/STM32_USB_Host_Library/Class/MSC/Src/usbh_msc_bot.c ****     /* Send first packet */        
 244:Middlewares/ST/STM32_USB_Host_Library/Class/MSC/Src/usbh_msc_bot.c ****     USBH_BulkReceiveData (phost,
 245:Middlewares/ST/STM32_USB_Host_Library/Class/MSC/Src/usbh_msc_bot.c ****                           MSC_Handle->hbot.pbuf, 
 246:Middlewares/ST/STM32_USB_Host_Library/Class/MSC/Src/usbh_msc_bot.c ****                           MSC_Handle->InEpSize , 
 247:Middlewares/ST/STM32_USB_Host_Library/Class/MSC/Src/usbh_msc_bot.c ****                           MSC_Handle->InPipe);
 248:Middlewares/ST/STM32_USB_Host_Library/Class/MSC/Src/usbh_msc_bot.c ****     
 249:Middlewares/ST/STM32_USB_Host_Library/Class/MSC/Src/usbh_msc_bot.c ****     MSC_Handle->hbot.state  = BOT_DATA_IN_WAIT;
 250:Middlewares/ST/STM32_USB_Host_Library/Class/MSC/Src/usbh_msc_bot.c ****     
 251:Middlewares/ST/STM32_USB_Host_Library/Class/MSC/Src/usbh_msc_bot.c ****     break;   
 252:Middlewares/ST/STM32_USB_Host_Library/Class/MSC/Src/usbh_msc_bot.c ****     
 253:Middlewares/ST/STM32_USB_Host_Library/Class/MSC/Src/usbh_msc_bot.c ****   case BOT_DATA_IN_WAIT:  
 254:Middlewares/ST/STM32_USB_Host_Library/Class/MSC/Src/usbh_msc_bot.c ****     
 255:Middlewares/ST/STM32_USB_Host_Library/Class/MSC/Src/usbh_msc_bot.c ****     URB_Status = USBH_LL_GetURBState(phost, MSC_Handle->InPipe); 
 256:Middlewares/ST/STM32_USB_Host_Library/Class/MSC/Src/usbh_msc_bot.c ****     
 257:Middlewares/ST/STM32_USB_Host_Library/Class/MSC/Src/usbh_msc_bot.c ****     if(URB_Status == USBH_URB_DONE) 
 258:Middlewares/ST/STM32_USB_Host_Library/Class/MSC/Src/usbh_msc_bot.c ****     {
 259:Middlewares/ST/STM32_USB_Host_Library/Class/MSC/Src/usbh_msc_bot.c ****       /* Adjust Data pointer and data length */
 260:Middlewares/ST/STM32_USB_Host_Library/Class/MSC/Src/usbh_msc_bot.c ****       if(MSC_Handle->hbot.cbw.field.DataTransferLength > MSC_Handle->InEpSize)
 261:Middlewares/ST/STM32_USB_Host_Library/Class/MSC/Src/usbh_msc_bot.c ****       {
 262:Middlewares/ST/STM32_USB_Host_Library/Class/MSC/Src/usbh_msc_bot.c ****           MSC_Handle->hbot.pbuf += MSC_Handle->InEpSize;
ARM GAS  /tmp/ccisWkMY.s 			page 6


 263:Middlewares/ST/STM32_USB_Host_Library/Class/MSC/Src/usbh_msc_bot.c ****           MSC_Handle->hbot.cbw.field.DataTransferLength -= MSC_Handle->InEpSize;  
 264:Middlewares/ST/STM32_USB_Host_Library/Class/MSC/Src/usbh_msc_bot.c ****       }
 265:Middlewares/ST/STM32_USB_Host_Library/Class/MSC/Src/usbh_msc_bot.c ****       else
 266:Middlewares/ST/STM32_USB_Host_Library/Class/MSC/Src/usbh_msc_bot.c ****       {
 267:Middlewares/ST/STM32_USB_Host_Library/Class/MSC/Src/usbh_msc_bot.c ****         MSC_Handle->hbot.cbw.field.DataTransferLength = 0;
 268:Middlewares/ST/STM32_USB_Host_Library/Class/MSC/Src/usbh_msc_bot.c ****       }
 269:Middlewares/ST/STM32_USB_Host_Library/Class/MSC/Src/usbh_msc_bot.c ****         
 270:Middlewares/ST/STM32_USB_Host_Library/Class/MSC/Src/usbh_msc_bot.c ****       /* More Data To be Received */
 271:Middlewares/ST/STM32_USB_Host_Library/Class/MSC/Src/usbh_msc_bot.c ****       if(MSC_Handle->hbot.cbw.field.DataTransferLength > 0)
 272:Middlewares/ST/STM32_USB_Host_Library/Class/MSC/Src/usbh_msc_bot.c ****       {
 273:Middlewares/ST/STM32_USB_Host_Library/Class/MSC/Src/usbh_msc_bot.c ****         /* Send next packet */        
 274:Middlewares/ST/STM32_USB_Host_Library/Class/MSC/Src/usbh_msc_bot.c ****         USBH_BulkReceiveData (phost,
 275:Middlewares/ST/STM32_USB_Host_Library/Class/MSC/Src/usbh_msc_bot.c ****                               MSC_Handle->hbot.pbuf, 
 276:Middlewares/ST/STM32_USB_Host_Library/Class/MSC/Src/usbh_msc_bot.c ****                               MSC_Handle->InEpSize , 
 277:Middlewares/ST/STM32_USB_Host_Library/Class/MSC/Src/usbh_msc_bot.c ****                               MSC_Handle->InPipe);
 278:Middlewares/ST/STM32_USB_Host_Library/Class/MSC/Src/usbh_msc_bot.c ****         
 279:Middlewares/ST/STM32_USB_Host_Library/Class/MSC/Src/usbh_msc_bot.c ****       }
 280:Middlewares/ST/STM32_USB_Host_Library/Class/MSC/Src/usbh_msc_bot.c ****       else
 281:Middlewares/ST/STM32_USB_Host_Library/Class/MSC/Src/usbh_msc_bot.c ****       {
 282:Middlewares/ST/STM32_USB_Host_Library/Class/MSC/Src/usbh_msc_bot.c ****         /* If value was 0, and successful transfer, then change the state */
 283:Middlewares/ST/STM32_USB_Host_Library/Class/MSC/Src/usbh_msc_bot.c ****         MSC_Handle->hbot.state  = BOT_RECEIVE_CSW;
 284:Middlewares/ST/STM32_USB_Host_Library/Class/MSC/Src/usbh_msc_bot.c **** #if (USBH_USE_OS == 1)
 285:Middlewares/ST/STM32_USB_Host_Library/Class/MSC/Src/usbh_msc_bot.c ****         osMessagePut ( phost->os_event, USBH_URB_EVENT, 0);
 286:Middlewares/ST/STM32_USB_Host_Library/Class/MSC/Src/usbh_msc_bot.c **** #endif 
 287:Middlewares/ST/STM32_USB_Host_Library/Class/MSC/Src/usbh_msc_bot.c ****       }
 288:Middlewares/ST/STM32_USB_Host_Library/Class/MSC/Src/usbh_msc_bot.c ****     }
 289:Middlewares/ST/STM32_USB_Host_Library/Class/MSC/Src/usbh_msc_bot.c ****     else if(URB_Status == USBH_URB_STALL)
 290:Middlewares/ST/STM32_USB_Host_Library/Class/MSC/Src/usbh_msc_bot.c ****     {
 291:Middlewares/ST/STM32_USB_Host_Library/Class/MSC/Src/usbh_msc_bot.c ****       /* This is Data IN Stage STALL Condition */
 292:Middlewares/ST/STM32_USB_Host_Library/Class/MSC/Src/usbh_msc_bot.c ****       MSC_Handle->hbot.state  = BOT_ERROR_IN;
 293:Middlewares/ST/STM32_USB_Host_Library/Class/MSC/Src/usbh_msc_bot.c ****       
 294:Middlewares/ST/STM32_USB_Host_Library/Class/MSC/Src/usbh_msc_bot.c ****       /* Refer to USB Mass-Storage Class : BOT (www.usb.org) 
 295:Middlewares/ST/STM32_USB_Host_Library/Class/MSC/Src/usbh_msc_bot.c ****       6.7.2 Host expects to receive data from the device
 296:Middlewares/ST/STM32_USB_Host_Library/Class/MSC/Src/usbh_msc_bot.c ****       3. On a STALL condition receiving data, then:
 297:Middlewares/ST/STM32_USB_Host_Library/Class/MSC/Src/usbh_msc_bot.c ****       The host shall accept the data received.
 298:Middlewares/ST/STM32_USB_Host_Library/Class/MSC/Src/usbh_msc_bot.c ****       The host shall clear the Bulk-In pipe.
 299:Middlewares/ST/STM32_USB_Host_Library/Class/MSC/Src/usbh_msc_bot.c ****       4. The host shall attempt to receive a CSW.*/
 300:Middlewares/ST/STM32_USB_Host_Library/Class/MSC/Src/usbh_msc_bot.c ****       
 301:Middlewares/ST/STM32_USB_Host_Library/Class/MSC/Src/usbh_msc_bot.c **** #if (USBH_USE_OS == 1)
 302:Middlewares/ST/STM32_USB_Host_Library/Class/MSC/Src/usbh_msc_bot.c ****     osMessagePut ( phost->os_event, USBH_URB_EVENT, 0);
 303:Middlewares/ST/STM32_USB_Host_Library/Class/MSC/Src/usbh_msc_bot.c **** #endif       
 304:Middlewares/ST/STM32_USB_Host_Library/Class/MSC/Src/usbh_msc_bot.c ****     }     
 305:Middlewares/ST/STM32_USB_Host_Library/Class/MSC/Src/usbh_msc_bot.c ****     break;  
 306:Middlewares/ST/STM32_USB_Host_Library/Class/MSC/Src/usbh_msc_bot.c ****     
 307:Middlewares/ST/STM32_USB_Host_Library/Class/MSC/Src/usbh_msc_bot.c ****   case BOT_DATA_OUT:
 308:Middlewares/ST/STM32_USB_Host_Library/Class/MSC/Src/usbh_msc_bot.c ****     
 309:Middlewares/ST/STM32_USB_Host_Library/Class/MSC/Src/usbh_msc_bot.c ****     USBH_BulkSendData (phost,
 310:Middlewares/ST/STM32_USB_Host_Library/Class/MSC/Src/usbh_msc_bot.c ****                        MSC_Handle->hbot.pbuf, 
 311:Middlewares/ST/STM32_USB_Host_Library/Class/MSC/Src/usbh_msc_bot.c ****                        MSC_Handle->OutEpSize , 
 312:Middlewares/ST/STM32_USB_Host_Library/Class/MSC/Src/usbh_msc_bot.c ****                        MSC_Handle->OutPipe,
 313:Middlewares/ST/STM32_USB_Host_Library/Class/MSC/Src/usbh_msc_bot.c ****                        1);
 314:Middlewares/ST/STM32_USB_Host_Library/Class/MSC/Src/usbh_msc_bot.c ****     
 315:Middlewares/ST/STM32_USB_Host_Library/Class/MSC/Src/usbh_msc_bot.c ****     
 316:Middlewares/ST/STM32_USB_Host_Library/Class/MSC/Src/usbh_msc_bot.c ****     MSC_Handle->hbot.state  = BOT_DATA_OUT_WAIT;
 317:Middlewares/ST/STM32_USB_Host_Library/Class/MSC/Src/usbh_msc_bot.c ****     break;
 318:Middlewares/ST/STM32_USB_Host_Library/Class/MSC/Src/usbh_msc_bot.c ****     
 319:Middlewares/ST/STM32_USB_Host_Library/Class/MSC/Src/usbh_msc_bot.c ****   case BOT_DATA_OUT_WAIT:
ARM GAS  /tmp/ccisWkMY.s 			page 7


 320:Middlewares/ST/STM32_USB_Host_Library/Class/MSC/Src/usbh_msc_bot.c ****     URB_Status = USBH_LL_GetURBState(phost, MSC_Handle->OutPipe);     
 321:Middlewares/ST/STM32_USB_Host_Library/Class/MSC/Src/usbh_msc_bot.c ****     
 322:Middlewares/ST/STM32_USB_Host_Library/Class/MSC/Src/usbh_msc_bot.c ****     if(URB_Status == USBH_URB_DONE)
 323:Middlewares/ST/STM32_USB_Host_Library/Class/MSC/Src/usbh_msc_bot.c ****     {
 324:Middlewares/ST/STM32_USB_Host_Library/Class/MSC/Src/usbh_msc_bot.c ****       /* Adjust Data pointer and data length */
 325:Middlewares/ST/STM32_USB_Host_Library/Class/MSC/Src/usbh_msc_bot.c ****       if(MSC_Handle->hbot.cbw.field.DataTransferLength > MSC_Handle->OutEpSize)
 326:Middlewares/ST/STM32_USB_Host_Library/Class/MSC/Src/usbh_msc_bot.c ****       {
 327:Middlewares/ST/STM32_USB_Host_Library/Class/MSC/Src/usbh_msc_bot.c ****           MSC_Handle->hbot.pbuf += MSC_Handle->OutEpSize;
 328:Middlewares/ST/STM32_USB_Host_Library/Class/MSC/Src/usbh_msc_bot.c ****           MSC_Handle->hbot.cbw.field.DataTransferLength -= MSC_Handle->OutEpSize; 
 329:Middlewares/ST/STM32_USB_Host_Library/Class/MSC/Src/usbh_msc_bot.c ****       }
 330:Middlewares/ST/STM32_USB_Host_Library/Class/MSC/Src/usbh_msc_bot.c ****       else
 331:Middlewares/ST/STM32_USB_Host_Library/Class/MSC/Src/usbh_msc_bot.c ****       {
 332:Middlewares/ST/STM32_USB_Host_Library/Class/MSC/Src/usbh_msc_bot.c ****         MSC_Handle->hbot.cbw.field.DataTransferLength = 0;
 333:Middlewares/ST/STM32_USB_Host_Library/Class/MSC/Src/usbh_msc_bot.c ****       } 
 334:Middlewares/ST/STM32_USB_Host_Library/Class/MSC/Src/usbh_msc_bot.c ****       
 335:Middlewares/ST/STM32_USB_Host_Library/Class/MSC/Src/usbh_msc_bot.c ****       /* More Data To be Sent */
 336:Middlewares/ST/STM32_USB_Host_Library/Class/MSC/Src/usbh_msc_bot.c ****       if(MSC_Handle->hbot.cbw.field.DataTransferLength > 0)
 337:Middlewares/ST/STM32_USB_Host_Library/Class/MSC/Src/usbh_msc_bot.c ****       {
 338:Middlewares/ST/STM32_USB_Host_Library/Class/MSC/Src/usbh_msc_bot.c ****         USBH_BulkSendData (phost,
 339:Middlewares/ST/STM32_USB_Host_Library/Class/MSC/Src/usbh_msc_bot.c ****                            MSC_Handle->hbot.pbuf, 
 340:Middlewares/ST/STM32_USB_Host_Library/Class/MSC/Src/usbh_msc_bot.c ****                            MSC_Handle->OutEpSize , 
 341:Middlewares/ST/STM32_USB_Host_Library/Class/MSC/Src/usbh_msc_bot.c ****                            MSC_Handle->OutPipe,
 342:Middlewares/ST/STM32_USB_Host_Library/Class/MSC/Src/usbh_msc_bot.c ****                            1);
 343:Middlewares/ST/STM32_USB_Host_Library/Class/MSC/Src/usbh_msc_bot.c ****       }
 344:Middlewares/ST/STM32_USB_Host_Library/Class/MSC/Src/usbh_msc_bot.c ****       else
 345:Middlewares/ST/STM32_USB_Host_Library/Class/MSC/Src/usbh_msc_bot.c ****       {
 346:Middlewares/ST/STM32_USB_Host_Library/Class/MSC/Src/usbh_msc_bot.c ****         /* If value was 0, and successful transfer, then change the state */
 347:Middlewares/ST/STM32_USB_Host_Library/Class/MSC/Src/usbh_msc_bot.c ****         MSC_Handle->hbot.state  = BOT_RECEIVE_CSW;
 348:Middlewares/ST/STM32_USB_Host_Library/Class/MSC/Src/usbh_msc_bot.c ****       }  
 349:Middlewares/ST/STM32_USB_Host_Library/Class/MSC/Src/usbh_msc_bot.c **** #if (USBH_USE_OS == 1)
 350:Middlewares/ST/STM32_USB_Host_Library/Class/MSC/Src/usbh_msc_bot.c ****     osMessagePut ( phost->os_event, USBH_URB_EVENT, 0);
 351:Middlewares/ST/STM32_USB_Host_Library/Class/MSC/Src/usbh_msc_bot.c **** #endif       
 352:Middlewares/ST/STM32_USB_Host_Library/Class/MSC/Src/usbh_msc_bot.c ****     }
 353:Middlewares/ST/STM32_USB_Host_Library/Class/MSC/Src/usbh_msc_bot.c ****     
 354:Middlewares/ST/STM32_USB_Host_Library/Class/MSC/Src/usbh_msc_bot.c ****     else if(URB_Status == USBH_URB_NOTREADY)
 355:Middlewares/ST/STM32_USB_Host_Library/Class/MSC/Src/usbh_msc_bot.c ****     {
 356:Middlewares/ST/STM32_USB_Host_Library/Class/MSC/Src/usbh_msc_bot.c ****       /* Resend same data */      
 357:Middlewares/ST/STM32_USB_Host_Library/Class/MSC/Src/usbh_msc_bot.c ****       MSC_Handle->hbot.state  = BOT_DATA_OUT;
 358:Middlewares/ST/STM32_USB_Host_Library/Class/MSC/Src/usbh_msc_bot.c **** #if (USBH_USE_OS == 1)
 359:Middlewares/ST/STM32_USB_Host_Library/Class/MSC/Src/usbh_msc_bot.c ****     osMessagePut ( phost->os_event, USBH_URB_EVENT, 0);
 360:Middlewares/ST/STM32_USB_Host_Library/Class/MSC/Src/usbh_msc_bot.c **** #endif       
 361:Middlewares/ST/STM32_USB_Host_Library/Class/MSC/Src/usbh_msc_bot.c ****     }
 362:Middlewares/ST/STM32_USB_Host_Library/Class/MSC/Src/usbh_msc_bot.c ****     
 363:Middlewares/ST/STM32_USB_Host_Library/Class/MSC/Src/usbh_msc_bot.c ****     else if(URB_Status == USBH_URB_STALL)
 364:Middlewares/ST/STM32_USB_Host_Library/Class/MSC/Src/usbh_msc_bot.c ****     {
 365:Middlewares/ST/STM32_USB_Host_Library/Class/MSC/Src/usbh_msc_bot.c ****       MSC_Handle->hbot.state  = BOT_ERROR_OUT;
 366:Middlewares/ST/STM32_USB_Host_Library/Class/MSC/Src/usbh_msc_bot.c ****       
 367:Middlewares/ST/STM32_USB_Host_Library/Class/MSC/Src/usbh_msc_bot.c ****       /* Refer to USB Mass-Storage Class : BOT (www.usb.org) 
 368:Middlewares/ST/STM32_USB_Host_Library/Class/MSC/Src/usbh_msc_bot.c ****       6.7.3 Ho - Host expects to send data to the device
 369:Middlewares/ST/STM32_USB_Host_Library/Class/MSC/Src/usbh_msc_bot.c ****       3. On a STALL condition sending data, then:
 370:Middlewares/ST/STM32_USB_Host_Library/Class/MSC/Src/usbh_msc_bot.c ****       " The host shall clear the Bulk-Out pipe.
 371:Middlewares/ST/STM32_USB_Host_Library/Class/MSC/Src/usbh_msc_bot.c ****       4. The host shall attempt to receive a CSW.
 372:Middlewares/ST/STM32_USB_Host_Library/Class/MSC/Src/usbh_msc_bot.c ****       */      
 373:Middlewares/ST/STM32_USB_Host_Library/Class/MSC/Src/usbh_msc_bot.c **** #if (USBH_USE_OS == 1)
 374:Middlewares/ST/STM32_USB_Host_Library/Class/MSC/Src/usbh_msc_bot.c ****       osMessagePut ( phost->os_event, USBH_URB_EVENT, 0);
 375:Middlewares/ST/STM32_USB_Host_Library/Class/MSC/Src/usbh_msc_bot.c **** #endif       
 376:Middlewares/ST/STM32_USB_Host_Library/Class/MSC/Src/usbh_msc_bot.c ****     }
ARM GAS  /tmp/ccisWkMY.s 			page 8


 377:Middlewares/ST/STM32_USB_Host_Library/Class/MSC/Src/usbh_msc_bot.c ****     break;
 378:Middlewares/ST/STM32_USB_Host_Library/Class/MSC/Src/usbh_msc_bot.c ****     
 379:Middlewares/ST/STM32_USB_Host_Library/Class/MSC/Src/usbh_msc_bot.c ****   case BOT_RECEIVE_CSW:
 380:Middlewares/ST/STM32_USB_Host_Library/Class/MSC/Src/usbh_msc_bot.c ****     
 381:Middlewares/ST/STM32_USB_Host_Library/Class/MSC/Src/usbh_msc_bot.c ****     USBH_BulkReceiveData (phost,
 382:Middlewares/ST/STM32_USB_Host_Library/Class/MSC/Src/usbh_msc_bot.c ****                           MSC_Handle->hbot.csw.data, 
 383:Middlewares/ST/STM32_USB_Host_Library/Class/MSC/Src/usbh_msc_bot.c ****                           BOT_CSW_LENGTH , 
 384:Middlewares/ST/STM32_USB_Host_Library/Class/MSC/Src/usbh_msc_bot.c ****                           MSC_Handle->InPipe);
 385:Middlewares/ST/STM32_USB_Host_Library/Class/MSC/Src/usbh_msc_bot.c ****     
 386:Middlewares/ST/STM32_USB_Host_Library/Class/MSC/Src/usbh_msc_bot.c ****     MSC_Handle->hbot.state  = BOT_RECEIVE_CSW_WAIT;
 387:Middlewares/ST/STM32_USB_Host_Library/Class/MSC/Src/usbh_msc_bot.c ****     break;
 388:Middlewares/ST/STM32_USB_Host_Library/Class/MSC/Src/usbh_msc_bot.c ****     
 389:Middlewares/ST/STM32_USB_Host_Library/Class/MSC/Src/usbh_msc_bot.c ****   case BOT_RECEIVE_CSW_WAIT:
 390:Middlewares/ST/STM32_USB_Host_Library/Class/MSC/Src/usbh_msc_bot.c ****     
 391:Middlewares/ST/STM32_USB_Host_Library/Class/MSC/Src/usbh_msc_bot.c ****     URB_Status = USBH_LL_GetURBState(phost, MSC_Handle->InPipe); 
 392:Middlewares/ST/STM32_USB_Host_Library/Class/MSC/Src/usbh_msc_bot.c ****     
 393:Middlewares/ST/STM32_USB_Host_Library/Class/MSC/Src/usbh_msc_bot.c ****     /* Decode CSW */
 394:Middlewares/ST/STM32_USB_Host_Library/Class/MSC/Src/usbh_msc_bot.c ****     if(URB_Status == USBH_URB_DONE)
 395:Middlewares/ST/STM32_USB_Host_Library/Class/MSC/Src/usbh_msc_bot.c ****     {
 396:Middlewares/ST/STM32_USB_Host_Library/Class/MSC/Src/usbh_msc_bot.c ****       MSC_Handle->hbot.state = BOT_SEND_CBW;    
 397:Middlewares/ST/STM32_USB_Host_Library/Class/MSC/Src/usbh_msc_bot.c ****       MSC_Handle->hbot.cmd_state = BOT_CMD_SEND;        
 398:Middlewares/ST/STM32_USB_Host_Library/Class/MSC/Src/usbh_msc_bot.c ****       CSW_Status = USBH_MSC_DecodeCSW(phost);
 399:Middlewares/ST/STM32_USB_Host_Library/Class/MSC/Src/usbh_msc_bot.c ****       
 400:Middlewares/ST/STM32_USB_Host_Library/Class/MSC/Src/usbh_msc_bot.c ****       if(CSW_Status == BOT_CSW_CMD_PASSED)
 401:Middlewares/ST/STM32_USB_Host_Library/Class/MSC/Src/usbh_msc_bot.c ****       {
 402:Middlewares/ST/STM32_USB_Host_Library/Class/MSC/Src/usbh_msc_bot.c ****         status = USBH_OK;
 403:Middlewares/ST/STM32_USB_Host_Library/Class/MSC/Src/usbh_msc_bot.c ****       }
 404:Middlewares/ST/STM32_USB_Host_Library/Class/MSC/Src/usbh_msc_bot.c ****       else
 405:Middlewares/ST/STM32_USB_Host_Library/Class/MSC/Src/usbh_msc_bot.c ****       {
 406:Middlewares/ST/STM32_USB_Host_Library/Class/MSC/Src/usbh_msc_bot.c ****         status = USBH_FAIL;
 407:Middlewares/ST/STM32_USB_Host_Library/Class/MSC/Src/usbh_msc_bot.c ****       }
 408:Middlewares/ST/STM32_USB_Host_Library/Class/MSC/Src/usbh_msc_bot.c **** #if (USBH_USE_OS == 1)
 409:Middlewares/ST/STM32_USB_Host_Library/Class/MSC/Src/usbh_msc_bot.c ****       osMessagePut ( phost->os_event, USBH_URB_EVENT, 0);
 410:Middlewares/ST/STM32_USB_Host_Library/Class/MSC/Src/usbh_msc_bot.c **** #endif       
 411:Middlewares/ST/STM32_USB_Host_Library/Class/MSC/Src/usbh_msc_bot.c ****     }
 412:Middlewares/ST/STM32_USB_Host_Library/Class/MSC/Src/usbh_msc_bot.c ****     else if(URB_Status == USBH_URB_STALL)     
 413:Middlewares/ST/STM32_USB_Host_Library/Class/MSC/Src/usbh_msc_bot.c ****     {
 414:Middlewares/ST/STM32_USB_Host_Library/Class/MSC/Src/usbh_msc_bot.c ****       MSC_Handle->hbot.state  = BOT_ERROR_IN;
 415:Middlewares/ST/STM32_USB_Host_Library/Class/MSC/Src/usbh_msc_bot.c **** #if (USBH_USE_OS == 1)
 416:Middlewares/ST/STM32_USB_Host_Library/Class/MSC/Src/usbh_msc_bot.c ****       osMessagePut ( phost->os_event, USBH_URB_EVENT, 0);
 417:Middlewares/ST/STM32_USB_Host_Library/Class/MSC/Src/usbh_msc_bot.c **** #endif       
 418:Middlewares/ST/STM32_USB_Host_Library/Class/MSC/Src/usbh_msc_bot.c ****     }
 419:Middlewares/ST/STM32_USB_Host_Library/Class/MSC/Src/usbh_msc_bot.c ****     break;
 420:Middlewares/ST/STM32_USB_Host_Library/Class/MSC/Src/usbh_msc_bot.c ****     
 421:Middlewares/ST/STM32_USB_Host_Library/Class/MSC/Src/usbh_msc_bot.c ****   case BOT_ERROR_IN: 
 422:Middlewares/ST/STM32_USB_Host_Library/Class/MSC/Src/usbh_msc_bot.c ****     error = USBH_MSC_BOT_Abort(phost, lun, BOT_DIR_IN);
 423:Middlewares/ST/STM32_USB_Host_Library/Class/MSC/Src/usbh_msc_bot.c ****     
 424:Middlewares/ST/STM32_USB_Host_Library/Class/MSC/Src/usbh_msc_bot.c ****     if (error == USBH_OK)
 425:Middlewares/ST/STM32_USB_Host_Library/Class/MSC/Src/usbh_msc_bot.c ****     {
 426:Middlewares/ST/STM32_USB_Host_Library/Class/MSC/Src/usbh_msc_bot.c ****       MSC_Handle->hbot.state = BOT_RECEIVE_CSW;
 427:Middlewares/ST/STM32_USB_Host_Library/Class/MSC/Src/usbh_msc_bot.c ****     }
 428:Middlewares/ST/STM32_USB_Host_Library/Class/MSC/Src/usbh_msc_bot.c ****     else if (error == USBH_UNRECOVERED_ERROR)
 429:Middlewares/ST/STM32_USB_Host_Library/Class/MSC/Src/usbh_msc_bot.c ****     {
 430:Middlewares/ST/STM32_USB_Host_Library/Class/MSC/Src/usbh_msc_bot.c ****       /* This means that there is a STALL Error limit, Do Reset Recovery */
 431:Middlewares/ST/STM32_USB_Host_Library/Class/MSC/Src/usbh_msc_bot.c ****       MSC_Handle->hbot.state = BOT_UNRECOVERED_ERROR;
 432:Middlewares/ST/STM32_USB_Host_Library/Class/MSC/Src/usbh_msc_bot.c ****     }
 433:Middlewares/ST/STM32_USB_Host_Library/Class/MSC/Src/usbh_msc_bot.c ****     break;
ARM GAS  /tmp/ccisWkMY.s 			page 9


 434:Middlewares/ST/STM32_USB_Host_Library/Class/MSC/Src/usbh_msc_bot.c ****     
 435:Middlewares/ST/STM32_USB_Host_Library/Class/MSC/Src/usbh_msc_bot.c ****   case BOT_ERROR_OUT: 
 436:Middlewares/ST/STM32_USB_Host_Library/Class/MSC/Src/usbh_msc_bot.c ****     error = USBH_MSC_BOT_Abort(phost, lun, BOT_DIR_OUT);
 437:Middlewares/ST/STM32_USB_Host_Library/Class/MSC/Src/usbh_msc_bot.c ****     
 438:Middlewares/ST/STM32_USB_Host_Library/Class/MSC/Src/usbh_msc_bot.c ****     if ( error == USBH_OK)
 439:Middlewares/ST/STM32_USB_Host_Library/Class/MSC/Src/usbh_msc_bot.c ****     { 
 440:Middlewares/ST/STM32_USB_Host_Library/Class/MSC/Src/usbh_msc_bot.c ****       
 441:Middlewares/ST/STM32_USB_Host_Library/Class/MSC/Src/usbh_msc_bot.c ****       toggle = USBH_LL_GetToggle(phost, MSC_Handle->OutPipe); 
 442:Middlewares/ST/STM32_USB_Host_Library/Class/MSC/Src/usbh_msc_bot.c ****       USBH_LL_SetToggle(phost, MSC_Handle->OutPipe, 1- toggle);   
 443:Middlewares/ST/STM32_USB_Host_Library/Class/MSC/Src/usbh_msc_bot.c ****       USBH_LL_SetToggle(phost, MSC_Handle->InPipe, 0);  
 444:Middlewares/ST/STM32_USB_Host_Library/Class/MSC/Src/usbh_msc_bot.c ****       MSC_Handle->hbot.state = BOT_ERROR_IN;        
 445:Middlewares/ST/STM32_USB_Host_Library/Class/MSC/Src/usbh_msc_bot.c ****     }
 446:Middlewares/ST/STM32_USB_Host_Library/Class/MSC/Src/usbh_msc_bot.c ****     else if (error == USBH_UNRECOVERED_ERROR)
 447:Middlewares/ST/STM32_USB_Host_Library/Class/MSC/Src/usbh_msc_bot.c ****     {
 448:Middlewares/ST/STM32_USB_Host_Library/Class/MSC/Src/usbh_msc_bot.c ****       MSC_Handle->hbot.state = BOT_UNRECOVERED_ERROR;
 449:Middlewares/ST/STM32_USB_Host_Library/Class/MSC/Src/usbh_msc_bot.c ****     }
 450:Middlewares/ST/STM32_USB_Host_Library/Class/MSC/Src/usbh_msc_bot.c ****     break;
 451:Middlewares/ST/STM32_USB_Host_Library/Class/MSC/Src/usbh_msc_bot.c ****     
 452:Middlewares/ST/STM32_USB_Host_Library/Class/MSC/Src/usbh_msc_bot.c ****     
 453:Middlewares/ST/STM32_USB_Host_Library/Class/MSC/Src/usbh_msc_bot.c ****   case BOT_UNRECOVERED_ERROR: 
 454:Middlewares/ST/STM32_USB_Host_Library/Class/MSC/Src/usbh_msc_bot.c ****     status = USBH_MSC_BOT_REQ_Reset(phost);
 455:Middlewares/ST/STM32_USB_Host_Library/Class/MSC/Src/usbh_msc_bot.c ****     if ( status == USBH_OK)
 456:Middlewares/ST/STM32_USB_Host_Library/Class/MSC/Src/usbh_msc_bot.c ****     {
 457:Middlewares/ST/STM32_USB_Host_Library/Class/MSC/Src/usbh_msc_bot.c ****       MSC_Handle->hbot.state = BOT_SEND_CBW; 
 458:Middlewares/ST/STM32_USB_Host_Library/Class/MSC/Src/usbh_msc_bot.c ****     }
 459:Middlewares/ST/STM32_USB_Host_Library/Class/MSC/Src/usbh_msc_bot.c ****     break;
 460:Middlewares/ST/STM32_USB_Host_Library/Class/MSC/Src/usbh_msc_bot.c ****     
 461:Middlewares/ST/STM32_USB_Host_Library/Class/MSC/Src/usbh_msc_bot.c ****   default:      
 462:Middlewares/ST/STM32_USB_Host_Library/Class/MSC/Src/usbh_msc_bot.c ****     break;
 463:Middlewares/ST/STM32_USB_Host_Library/Class/MSC/Src/usbh_msc_bot.c ****   }
 464:Middlewares/ST/STM32_USB_Host_Library/Class/MSC/Src/usbh_msc_bot.c ****   return status;
 465:Middlewares/ST/STM32_USB_Host_Library/Class/MSC/Src/usbh_msc_bot.c **** }
 466:Middlewares/ST/STM32_USB_Host_Library/Class/MSC/Src/usbh_msc_bot.c **** 
 467:Middlewares/ST/STM32_USB_Host_Library/Class/MSC/Src/usbh_msc_bot.c **** /**
 468:Middlewares/ST/STM32_USB_Host_Library/Class/MSC/Src/usbh_msc_bot.c ****   * @brief  USBH_MSC_BOT_Abort 
 469:Middlewares/ST/STM32_USB_Host_Library/Class/MSC/Src/usbh_msc_bot.c ****   *         The function handle the BOT Abort process.
 470:Middlewares/ST/STM32_USB_Host_Library/Class/MSC/Src/usbh_msc_bot.c ****   * @param  phost: Host handle
 471:Middlewares/ST/STM32_USB_Host_Library/Class/MSC/Src/usbh_msc_bot.c ****   * @param  lun: Logical Unit Number
 472:Middlewares/ST/STM32_USB_Host_Library/Class/MSC/Src/usbh_msc_bot.c ****   * @param  dir: direction (0: out / 1 : in)
 473:Middlewares/ST/STM32_USB_Host_Library/Class/MSC/Src/usbh_msc_bot.c ****   * @retval USBH Status
 474:Middlewares/ST/STM32_USB_Host_Library/Class/MSC/Src/usbh_msc_bot.c ****   */
 475:Middlewares/ST/STM32_USB_Host_Library/Class/MSC/Src/usbh_msc_bot.c **** static USBH_StatusTypeDef USBH_MSC_BOT_Abort(USBH_HandleTypeDef *phost, uint8_t lun, uint8_t dir)
 476:Middlewares/ST/STM32_USB_Host_Library/Class/MSC/Src/usbh_msc_bot.c **** {
 477:Middlewares/ST/STM32_USB_Host_Library/Class/MSC/Src/usbh_msc_bot.c ****   USBH_StatusTypeDef status = USBH_FAIL;
 478:Middlewares/ST/STM32_USB_Host_Library/Class/MSC/Src/usbh_msc_bot.c ****   MSC_HandleTypeDef *MSC_Handle =  (MSC_HandleTypeDef *) phost->pActiveClass->pData;
 479:Middlewares/ST/STM32_USB_Host_Library/Class/MSC/Src/usbh_msc_bot.c ****   
 480:Middlewares/ST/STM32_USB_Host_Library/Class/MSC/Src/usbh_msc_bot.c ****   switch (dir)
 481:Middlewares/ST/STM32_USB_Host_Library/Class/MSC/Src/usbh_msc_bot.c ****   {
 482:Middlewares/ST/STM32_USB_Host_Library/Class/MSC/Src/usbh_msc_bot.c ****   case BOT_DIR_IN :
 483:Middlewares/ST/STM32_USB_Host_Library/Class/MSC/Src/usbh_msc_bot.c ****     /* send ClrFeture on Bulk IN endpoint */
 484:Middlewares/ST/STM32_USB_Host_Library/Class/MSC/Src/usbh_msc_bot.c ****     status = USBH_ClrFeature(phost, MSC_Handle->InEp);
 485:Middlewares/ST/STM32_USB_Host_Library/Class/MSC/Src/usbh_msc_bot.c ****     
 486:Middlewares/ST/STM32_USB_Host_Library/Class/MSC/Src/usbh_msc_bot.c ****     break;
 487:Middlewares/ST/STM32_USB_Host_Library/Class/MSC/Src/usbh_msc_bot.c ****     
 488:Middlewares/ST/STM32_USB_Host_Library/Class/MSC/Src/usbh_msc_bot.c ****   case BOT_DIR_OUT :
 489:Middlewares/ST/STM32_USB_Host_Library/Class/MSC/Src/usbh_msc_bot.c ****     /*send ClrFeature on Bulk OUT endpoint */
 490:Middlewares/ST/STM32_USB_Host_Library/Class/MSC/Src/usbh_msc_bot.c ****     status = USBH_ClrFeature(phost, MSC_Handle->OutEp);
ARM GAS  /tmp/ccisWkMY.s 			page 10


 491:Middlewares/ST/STM32_USB_Host_Library/Class/MSC/Src/usbh_msc_bot.c ****     break;
 492:Middlewares/ST/STM32_USB_Host_Library/Class/MSC/Src/usbh_msc_bot.c ****     
 493:Middlewares/ST/STM32_USB_Host_Library/Class/MSC/Src/usbh_msc_bot.c ****   default:
 494:Middlewares/ST/STM32_USB_Host_Library/Class/MSC/Src/usbh_msc_bot.c ****     break;
 495:Middlewares/ST/STM32_USB_Host_Library/Class/MSC/Src/usbh_msc_bot.c ****   }
 496:Middlewares/ST/STM32_USB_Host_Library/Class/MSC/Src/usbh_msc_bot.c ****   return status;
 497:Middlewares/ST/STM32_USB_Host_Library/Class/MSC/Src/usbh_msc_bot.c **** }
 498:Middlewares/ST/STM32_USB_Host_Library/Class/MSC/Src/usbh_msc_bot.c **** 
 499:Middlewares/ST/STM32_USB_Host_Library/Class/MSC/Src/usbh_msc_bot.c **** /**
 500:Middlewares/ST/STM32_USB_Host_Library/Class/MSC/Src/usbh_msc_bot.c ****   * @brief  USBH_MSC_BOT_DecodeCSW
 501:Middlewares/ST/STM32_USB_Host_Library/Class/MSC/Src/usbh_msc_bot.c ****   *         This function decodes the CSW received by the device and updates the
 502:Middlewares/ST/STM32_USB_Host_Library/Class/MSC/Src/usbh_msc_bot.c ****   *         same to upper layer.
 503:Middlewares/ST/STM32_USB_Host_Library/Class/MSC/Src/usbh_msc_bot.c ****   * @param  phost: Host handle
 504:Middlewares/ST/STM32_USB_Host_Library/Class/MSC/Src/usbh_msc_bot.c ****   * @retval USBH Status
 505:Middlewares/ST/STM32_USB_Host_Library/Class/MSC/Src/usbh_msc_bot.c ****   * @notes
 506:Middlewares/ST/STM32_USB_Host_Library/Class/MSC/Src/usbh_msc_bot.c ****   *     Refer to USB Mass-Storage Class : BOT (www.usb.org)
 507:Middlewares/ST/STM32_USB_Host_Library/Class/MSC/Src/usbh_msc_bot.c ****   *    6.3.1 Valid CSW Conditions :
 508:Middlewares/ST/STM32_USB_Host_Library/Class/MSC/Src/usbh_msc_bot.c ****   *     The host shall consider the CSW valid when:
 509:Middlewares/ST/STM32_USB_Host_Library/Class/MSC/Src/usbh_msc_bot.c ****   *     1. dCSWSignature is equal to 53425355h
 510:Middlewares/ST/STM32_USB_Host_Library/Class/MSC/Src/usbh_msc_bot.c ****   *     2. the CSW is 13 (Dh) bytes in length,
 511:Middlewares/ST/STM32_USB_Host_Library/Class/MSC/Src/usbh_msc_bot.c ****   *     3. dCSWTag matches the dCBWTag from the corresponding CBW.
 512:Middlewares/ST/STM32_USB_Host_Library/Class/MSC/Src/usbh_msc_bot.c ****   */
 513:Middlewares/ST/STM32_USB_Host_Library/Class/MSC/Src/usbh_msc_bot.c **** 
 514:Middlewares/ST/STM32_USB_Host_Library/Class/MSC/Src/usbh_msc_bot.c **** static BOT_CSWStatusTypeDef USBH_MSC_DecodeCSW(USBH_HandleTypeDef *phost)
 515:Middlewares/ST/STM32_USB_Host_Library/Class/MSC/Src/usbh_msc_bot.c **** {
  25              		.loc 1 515 0
  26              		.cfi_startproc
  27              		@ args = 0, pretend = 0, frame = 0
  28              		@ frame_needed = 0, uses_anonymous_args = 0
  29              	.LVL0:
  30 0000 10B5     		push	{r4, lr}
  31              	.LCFI0:
  32              		.cfi_def_cfa_offset 8
  33              		.cfi_offset 4, -8
  34              		.cfi_offset 14, -4
 516:Middlewares/ST/STM32_USB_Host_Library/Class/MSC/Src/usbh_msc_bot.c ****   MSC_HandleTypeDef *MSC_Handle =  (MSC_HandleTypeDef *) phost->pActiveClass->pData;
  35              		.loc 1 516 0
  36 0002 D0F87433 		ldr	r3, [r0, #884]
  37 0006 DC69     		ldr	r4, [r3, #28]
  38              	.LVL1:
 517:Middlewares/ST/STM32_USB_Host_Library/Class/MSC/Src/usbh_msc_bot.c ****   BOT_CSWStatusTypeDef status = BOT_CSW_CMD_FAILED;
 518:Middlewares/ST/STM32_USB_Host_Library/Class/MSC/Src/usbh_msc_bot.c ****   
 519:Middlewares/ST/STM32_USB_Host_Library/Class/MSC/Src/usbh_msc_bot.c ****     /*Checking if the transfer length is different than 13*/    
 520:Middlewares/ST/STM32_USB_Host_Library/Class/MSC/Src/usbh_msc_bot.c ****     if(USBH_LL_GetLastXferSize(phost, MSC_Handle->InPipe) != BOT_CSW_LENGTH)
  39              		.loc 1 520 0
  40 0008 2179     		ldrb	r1, [r4, #4]	@ zero_extendqisi2
  41 000a FFF7FEFF 		bl	USBH_LL_GetLastXferSize
  42              	.LVL2:
  43 000e 0D28     		cmp	r0, #13
  44 0010 12D1     		bne	.L3
 521:Middlewares/ST/STM32_USB_Host_Library/Class/MSC/Src/usbh_msc_bot.c ****     {
 522:Middlewares/ST/STM32_USB_Host_Library/Class/MSC/Src/usbh_msc_bot.c ****       /*(4) Hi > Dn (Host expects to receive data from the device,
 523:Middlewares/ST/STM32_USB_Host_Library/Class/MSC/Src/usbh_msc_bot.c ****       Device intends to transfer no data)
 524:Middlewares/ST/STM32_USB_Host_Library/Class/MSC/Src/usbh_msc_bot.c ****       (5) Hi > Di (Host expects to receive data from the device,
 525:Middlewares/ST/STM32_USB_Host_Library/Class/MSC/Src/usbh_msc_bot.c ****       Device intends to send data to the host)
 526:Middlewares/ST/STM32_USB_Host_Library/Class/MSC/Src/usbh_msc_bot.c ****       (9) Ho > Dn (Host expects to send data to the device,
 527:Middlewares/ST/STM32_USB_Host_Library/Class/MSC/Src/usbh_msc_bot.c ****       Device intends to transfer no data)
ARM GAS  /tmp/ccisWkMY.s 			page 11


 528:Middlewares/ST/STM32_USB_Host_Library/Class/MSC/Src/usbh_msc_bot.c ****       (11) Ho > Do  (Host expects to send data to the device,
 529:Middlewares/ST/STM32_USB_Host_Library/Class/MSC/Src/usbh_msc_bot.c ****       Device intends to receive data from the host)*/
 530:Middlewares/ST/STM32_USB_Host_Library/Class/MSC/Src/usbh_msc_bot.c ****       
 531:Middlewares/ST/STM32_USB_Host_Library/Class/MSC/Src/usbh_msc_bot.c ****       
 532:Middlewares/ST/STM32_USB_Host_Library/Class/MSC/Src/usbh_msc_bot.c ****       status = BOT_CSW_PHASE_ERROR;
 533:Middlewares/ST/STM32_USB_Host_Library/Class/MSC/Src/usbh_msc_bot.c ****     }
 534:Middlewares/ST/STM32_USB_Host_Library/Class/MSC/Src/usbh_msc_bot.c ****     else
 535:Middlewares/ST/STM32_USB_Host_Library/Class/MSC/Src/usbh_msc_bot.c ****     { /* CSW length is Correct */
 536:Middlewares/ST/STM32_USB_Host_Library/Class/MSC/Src/usbh_msc_bot.c ****       
 537:Middlewares/ST/STM32_USB_Host_Library/Class/MSC/Src/usbh_msc_bot.c ****       /* Check validity of the CSW Signature and CSWStatus */
 538:Middlewares/ST/STM32_USB_Host_Library/Class/MSC/Src/usbh_msc_bot.c ****       if(MSC_Handle->hbot.csw.field.Signature == BOT_CSW_SIGNATURE)
  45              		.loc 1 538 0
  46 0012 A26F     		ldr	r2, [r4, #120]
  47 0014 0D4B     		ldr	r3, .L11
  48 0016 9A42     		cmp	r2, r3
  49 0018 10D1     		bne	.L4
 539:Middlewares/ST/STM32_USB_Host_Library/Class/MSC/Src/usbh_msc_bot.c ****       {/* Check Condition 1. dCSWSignature is equal to 53425355h */
 540:Middlewares/ST/STM32_USB_Host_Library/Class/MSC/Src/usbh_msc_bot.c ****         
 541:Middlewares/ST/STM32_USB_Host_Library/Class/MSC/Src/usbh_msc_bot.c ****         if(MSC_Handle->hbot.csw.field.Tag == MSC_Handle->hbot.cbw.field.Tag)
  50              		.loc 1 541 0
  51 001a E26F     		ldr	r2, [r4, #124]
  52 001c A36D     		ldr	r3, [r4, #88]
  53 001e 9A42     		cmp	r2, r3
  54 0020 01D0     		beq	.L10
 517:Middlewares/ST/STM32_USB_Host_Library/Class/MSC/Src/usbh_msc_bot.c ****   
  55              		.loc 1 517 0
  56 0022 0120     		movs	r0, #1
  57 0024 09E0     		b	.L2
  58              	.L10:
 542:Middlewares/ST/STM32_USB_Host_Library/Class/MSC/Src/usbh_msc_bot.c ****         {
 543:Middlewares/ST/STM32_USB_Host_Library/Class/MSC/Src/usbh_msc_bot.c ****           /* Check Condition 3. dCSWTag matches the dCBWTag from the 
 544:Middlewares/ST/STM32_USB_Host_Library/Class/MSC/Src/usbh_msc_bot.c ****           corresponding CBW */
 545:Middlewares/ST/STM32_USB_Host_Library/Class/MSC/Src/usbh_msc_bot.c **** 
 546:Middlewares/ST/STM32_USB_Host_Library/Class/MSC/Src/usbh_msc_bot.c ****           if(MSC_Handle->hbot.csw.field.Status == 0) 
  59              		.loc 1 546 0
  60 0026 94F88430 		ldrb	r3, [r4, #132]	@ zero_extendqisi2
  61 002a 4BB1     		cbz	r3, .L6
 547:Middlewares/ST/STM32_USB_Host_Library/Class/MSC/Src/usbh_msc_bot.c ****           {
 548:Middlewares/ST/STM32_USB_Host_Library/Class/MSC/Src/usbh_msc_bot.c ****             /* Refer to USB Mass-Storage Class : BOT (www.usb.org) 
 549:Middlewares/ST/STM32_USB_Host_Library/Class/MSC/Src/usbh_msc_bot.c ****             
 550:Middlewares/ST/STM32_USB_Host_Library/Class/MSC/Src/usbh_msc_bot.c ****             Hn Host expects no data transfers
 551:Middlewares/ST/STM32_USB_Host_Library/Class/MSC/Src/usbh_msc_bot.c ****             Hi Host expects to receive data from the device
 552:Middlewares/ST/STM32_USB_Host_Library/Class/MSC/Src/usbh_msc_bot.c ****             Ho Host expects to send data to the device
 553:Middlewares/ST/STM32_USB_Host_Library/Class/MSC/Src/usbh_msc_bot.c ****             
 554:Middlewares/ST/STM32_USB_Host_Library/Class/MSC/Src/usbh_msc_bot.c ****             Dn Device intends to transfer no data
 555:Middlewares/ST/STM32_USB_Host_Library/Class/MSC/Src/usbh_msc_bot.c ****             Di Device intends to send data to the host
 556:Middlewares/ST/STM32_USB_Host_Library/Class/MSC/Src/usbh_msc_bot.c ****             Do Device intends to receive data from the host
 557:Middlewares/ST/STM32_USB_Host_Library/Class/MSC/Src/usbh_msc_bot.c ****             
 558:Middlewares/ST/STM32_USB_Host_Library/Class/MSC/Src/usbh_msc_bot.c ****             Section 6.7 
 559:Middlewares/ST/STM32_USB_Host_Library/Class/MSC/Src/usbh_msc_bot.c ****             (1) Hn = Dn (Host expects no data transfers,
 560:Middlewares/ST/STM32_USB_Host_Library/Class/MSC/Src/usbh_msc_bot.c ****             Device intends to transfer no data)
 561:Middlewares/ST/STM32_USB_Host_Library/Class/MSC/Src/usbh_msc_bot.c ****             (6) Hi = Di (Host expects to receive data from the device,
 562:Middlewares/ST/STM32_USB_Host_Library/Class/MSC/Src/usbh_msc_bot.c ****             Device intends to send data to the host)
 563:Middlewares/ST/STM32_USB_Host_Library/Class/MSC/Src/usbh_msc_bot.c ****             (12) Ho = Do (Host expects to send data to the device, 
 564:Middlewares/ST/STM32_USB_Host_Library/Class/MSC/Src/usbh_msc_bot.c ****             Device intends to receive data from the host)
 565:Middlewares/ST/STM32_USB_Host_Library/Class/MSC/Src/usbh_msc_bot.c ****             
 566:Middlewares/ST/STM32_USB_Host_Library/Class/MSC/Src/usbh_msc_bot.c ****             */
ARM GAS  /tmp/ccisWkMY.s 			page 12


 567:Middlewares/ST/STM32_USB_Host_Library/Class/MSC/Src/usbh_msc_bot.c ****             
 568:Middlewares/ST/STM32_USB_Host_Library/Class/MSC/Src/usbh_msc_bot.c ****             status = BOT_CSW_CMD_PASSED;
 569:Middlewares/ST/STM32_USB_Host_Library/Class/MSC/Src/usbh_msc_bot.c ****           }
 570:Middlewares/ST/STM32_USB_Host_Library/Class/MSC/Src/usbh_msc_bot.c ****           else if(MSC_Handle->hbot.csw.field.Status == 1)
  62              		.loc 1 570 0
  63 002c 012B     		cmp	r3, #1
  64 002e 09D0     		beq	.L7
 571:Middlewares/ST/STM32_USB_Host_Library/Class/MSC/Src/usbh_msc_bot.c ****           {
 572:Middlewares/ST/STM32_USB_Host_Library/Class/MSC/Src/usbh_msc_bot.c ****             status = BOT_CSW_CMD_FAILED;
 573:Middlewares/ST/STM32_USB_Host_Library/Class/MSC/Src/usbh_msc_bot.c ****           }
 574:Middlewares/ST/STM32_USB_Host_Library/Class/MSC/Src/usbh_msc_bot.c ****           
 575:Middlewares/ST/STM32_USB_Host_Library/Class/MSC/Src/usbh_msc_bot.c ****           else if(MSC_Handle->hbot.csw.field.Status == 2)
  65              		.loc 1 575 0
  66 0030 022B     		cmp	r3, #2
  67 0032 09D0     		beq	.L8
 517:Middlewares/ST/STM32_USB_Host_Library/Class/MSC/Src/usbh_msc_bot.c ****   
  68              		.loc 1 517 0
  69 0034 0120     		movs	r0, #1
  70 0036 00E0     		b	.L2
  71              	.L3:
 532:Middlewares/ST/STM32_USB_Host_Library/Class/MSC/Src/usbh_msc_bot.c ****     }
  72              		.loc 1 532 0
  73 0038 0220     		movs	r0, #2
  74              	.L2:
  75              	.LVL3:
 576:Middlewares/ST/STM32_USB_Host_Library/Class/MSC/Src/usbh_msc_bot.c ****           { 
 577:Middlewares/ST/STM32_USB_Host_Library/Class/MSC/Src/usbh_msc_bot.c ****             /* Refer to USB Mass-Storage Class : BOT (www.usb.org) 
 578:Middlewares/ST/STM32_USB_Host_Library/Class/MSC/Src/usbh_msc_bot.c ****             Section 6.7 
 579:Middlewares/ST/STM32_USB_Host_Library/Class/MSC/Src/usbh_msc_bot.c ****             (2) Hn < Di ( Host expects no data transfers, 
 580:Middlewares/ST/STM32_USB_Host_Library/Class/MSC/Src/usbh_msc_bot.c ****             Device intends to send data to the host)
 581:Middlewares/ST/STM32_USB_Host_Library/Class/MSC/Src/usbh_msc_bot.c ****             (3) Hn < Do ( Host expects no data transfers, 
 582:Middlewares/ST/STM32_USB_Host_Library/Class/MSC/Src/usbh_msc_bot.c ****             Device intends to receive data from the host)
 583:Middlewares/ST/STM32_USB_Host_Library/Class/MSC/Src/usbh_msc_bot.c ****             (7) Hi < Di ( Host expects to receive data from the device, 
 584:Middlewares/ST/STM32_USB_Host_Library/Class/MSC/Src/usbh_msc_bot.c ****             Device intends to send data to the host)
 585:Middlewares/ST/STM32_USB_Host_Library/Class/MSC/Src/usbh_msc_bot.c ****             (8) Hi <> Do ( Host expects to receive data from the device, 
 586:Middlewares/ST/STM32_USB_Host_Library/Class/MSC/Src/usbh_msc_bot.c ****             Device intends to receive data from the host)
 587:Middlewares/ST/STM32_USB_Host_Library/Class/MSC/Src/usbh_msc_bot.c ****             (10) Ho <> Di (Host expects to send data to the device,
 588:Middlewares/ST/STM32_USB_Host_Library/Class/MSC/Src/usbh_msc_bot.c ****             Di Device intends to send data to the host)
 589:Middlewares/ST/STM32_USB_Host_Library/Class/MSC/Src/usbh_msc_bot.c ****             (13) Ho < Do (Host expects to send data to the device, 
 590:Middlewares/ST/STM32_USB_Host_Library/Class/MSC/Src/usbh_msc_bot.c ****             Device intends to receive data from the host)
 591:Middlewares/ST/STM32_USB_Host_Library/Class/MSC/Src/usbh_msc_bot.c ****             */
 592:Middlewares/ST/STM32_USB_Host_Library/Class/MSC/Src/usbh_msc_bot.c ****             
 593:Middlewares/ST/STM32_USB_Host_Library/Class/MSC/Src/usbh_msc_bot.c ****             status = BOT_CSW_PHASE_ERROR;
 594:Middlewares/ST/STM32_USB_Host_Library/Class/MSC/Src/usbh_msc_bot.c ****           }
 595:Middlewares/ST/STM32_USB_Host_Library/Class/MSC/Src/usbh_msc_bot.c ****         } /* CSW Tag Matching is Checked  */
 596:Middlewares/ST/STM32_USB_Host_Library/Class/MSC/Src/usbh_msc_bot.c ****       } /* CSW Signature Correct Checking */
 597:Middlewares/ST/STM32_USB_Host_Library/Class/MSC/Src/usbh_msc_bot.c ****       else
 598:Middlewares/ST/STM32_USB_Host_Library/Class/MSC/Src/usbh_msc_bot.c ****       {
 599:Middlewares/ST/STM32_USB_Host_Library/Class/MSC/Src/usbh_msc_bot.c ****         /* If the CSW Signature is not valid, We sall return the Phase Error to
 600:Middlewares/ST/STM32_USB_Host_Library/Class/MSC/Src/usbh_msc_bot.c ****         Upper Layers for Reset Recovery */
 601:Middlewares/ST/STM32_USB_Host_Library/Class/MSC/Src/usbh_msc_bot.c ****         
 602:Middlewares/ST/STM32_USB_Host_Library/Class/MSC/Src/usbh_msc_bot.c ****         status = BOT_CSW_PHASE_ERROR;
 603:Middlewares/ST/STM32_USB_Host_Library/Class/MSC/Src/usbh_msc_bot.c ****       }
 604:Middlewares/ST/STM32_USB_Host_Library/Class/MSC/Src/usbh_msc_bot.c ****     } /* CSW Length Check*/
 605:Middlewares/ST/STM32_USB_Host_Library/Class/MSC/Src/usbh_msc_bot.c ****     
 606:Middlewares/ST/STM32_USB_Host_Library/Class/MSC/Src/usbh_msc_bot.c ****   return status;
 607:Middlewares/ST/STM32_USB_Host_Library/Class/MSC/Src/usbh_msc_bot.c **** }
ARM GAS  /tmp/ccisWkMY.s 			page 13


  76              		.loc 1 607 0
  77 003a 10BD     		pop	{r4, pc}
  78              	.LVL4:
  79              	.L4:
 602:Middlewares/ST/STM32_USB_Host_Library/Class/MSC/Src/usbh_msc_bot.c ****       }
  80              		.loc 1 602 0
  81 003c 0220     		movs	r0, #2
  82 003e FCE7     		b	.L2
  83              	.L6:
 568:Middlewares/ST/STM32_USB_Host_Library/Class/MSC/Src/usbh_msc_bot.c ****           }
  84              		.loc 1 568 0
  85 0040 0020     		movs	r0, #0
  86 0042 FAE7     		b	.L2
  87              	.L7:
 572:Middlewares/ST/STM32_USB_Host_Library/Class/MSC/Src/usbh_msc_bot.c ****           }
  88              		.loc 1 572 0
  89 0044 0120     		movs	r0, #1
  90 0046 F8E7     		b	.L2
  91              	.L8:
 593:Middlewares/ST/STM32_USB_Host_Library/Class/MSC/Src/usbh_msc_bot.c ****           }
  92              		.loc 1 593 0
  93 0048 0220     		movs	r0, #2
  94 004a F6E7     		b	.L2
  95              	.L12:
  96              		.align	2
  97              	.L11:
  98 004c 55534253 		.word	1396855637
  99              		.cfi_endproc
 100              	.LFE71:
 102              		.section	.text.USBH_MSC_BOT_Abort,"ax",%progbits
 103              		.align	1
 104              		.syntax unified
 105              		.thumb
 106              		.thumb_func
 107              		.fpu softvfp
 109              	USBH_MSC_BOT_Abort:
 110              	.LFB70:
 476:Middlewares/ST/STM32_USB_Host_Library/Class/MSC/Src/usbh_msc_bot.c ****   USBH_StatusTypeDef status = USBH_FAIL;
 111              		.loc 1 476 0
 112              		.cfi_startproc
 113              		@ args = 0, pretend = 0, frame = 0
 114              		@ frame_needed = 0, uses_anonymous_args = 0
 115              	.LVL5:
 116 0000 08B5     		push	{r3, lr}
 117              	.LCFI1:
 118              		.cfi_def_cfa_offset 8
 119              		.cfi_offset 3, -8
 120              		.cfi_offset 14, -4
 121              	.LVL6:
 478:Middlewares/ST/STM32_USB_Host_Library/Class/MSC/Src/usbh_msc_bot.c ****   
 122              		.loc 1 478 0
 123 0002 D0F87433 		ldr	r3, [r0, #884]
 124 0006 DB69     		ldr	r3, [r3, #28]
 125              	.LVL7:
 480:Middlewares/ST/STM32_USB_Host_Library/Class/MSC/Src/usbh_msc_bot.c ****   {
 126              		.loc 1 480 0
 127 0008 1AB1     		cbz	r2, .L15
ARM GAS  /tmp/ccisWkMY.s 			page 14


 128 000a 012A     		cmp	r2, #1
 129 000c 05D0     		beq	.L16
 477:Middlewares/ST/STM32_USB_Host_Library/Class/MSC/Src/usbh_msc_bot.c ****   MSC_HandleTypeDef *MSC_Handle =  (MSC_HandleTypeDef *) phost->pActiveClass->pData;
 130              		.loc 1 477 0
 131 000e 0220     		movs	r0, #2
 132              	.LVL8:
 133 0010 02E0     		b	.L14
 134              	.LVL9:
 135              	.L15:
 484:Middlewares/ST/STM32_USB_Host_Library/Class/MSC/Src/usbh_msc_bot.c ****     
 136              		.loc 1 484 0
 137 0012 D979     		ldrb	r1, [r3, #7]	@ zero_extendqisi2
 138              	.LVL10:
 139 0014 FFF7FEFF 		bl	USBH_ClrFeature
 140              	.LVL11:
 141              	.L14:
 497:Middlewares/ST/STM32_USB_Host_Library/Class/MSC/Src/usbh_msc_bot.c **** 
 142              		.loc 1 497 0
 143 0018 08BD     		pop	{r3, pc}
 144              	.LVL12:
 145              	.L16:
 490:Middlewares/ST/STM32_USB_Host_Library/Class/MSC/Src/usbh_msc_bot.c ****     break;
 146              		.loc 1 490 0
 147 001a 9979     		ldrb	r1, [r3, #6]	@ zero_extendqisi2
 148              	.LVL13:
 149 001c FFF7FEFF 		bl	USBH_ClrFeature
 150              	.LVL14:
 491:Middlewares/ST/STM32_USB_Host_Library/Class/MSC/Src/usbh_msc_bot.c ****     
 151              		.loc 1 491 0
 152 0020 FAE7     		b	.L14
 153              		.cfi_endproc
 154              	.LFE70:
 156              		.section	.text.USBH_MSC_BOT_REQ_Reset,"ax",%progbits
 157              		.align	1
 158              		.global	USBH_MSC_BOT_REQ_Reset
 159              		.syntax unified
 160              		.thumb
 161              		.thumb_func
 162              		.fpu softvfp
 164              	USBH_MSC_BOT_REQ_Reset:
 165              	.LFB66:
 110:Middlewares/ST/STM32_USB_Host_Library/Class/MSC/Src/usbh_msc_bot.c ****   
 166              		.loc 1 110 0
 167              		.cfi_startproc
 168              		@ args = 0, pretend = 0, frame = 0
 169              		@ frame_needed = 0, uses_anonymous_args = 0
 170              	.LVL15:
 171 0000 08B5     		push	{r3, lr}
 172              	.LCFI2:
 173              		.cfi_def_cfa_offset 8
 174              		.cfi_offset 3, -8
 175              		.cfi_offset 14, -4
 112:Middlewares/ST/STM32_USB_Host_Library/Class/MSC/Src/usbh_msc_bot.c ****                               USB_REQ_RECIPIENT_INTERFACE;
 176              		.loc 1 112 0
 177 0002 2122     		movs	r2, #33
 178 0004 0274     		strb	r2, [r0, #16]
 115:Middlewares/ST/STM32_USB_Host_Library/Class/MSC/Src/usbh_msc_bot.c ****   phost->Control.setup.b.wValue.w = 0;
ARM GAS  /tmp/ccisWkMY.s 			page 15


 179              		.loc 1 115 0
 180 0006 FF22     		movs	r2, #255
 181 0008 4274     		strb	r2, [r0, #17]
 116:Middlewares/ST/STM32_USB_Host_Library/Class/MSC/Src/usbh_msc_bot.c ****   phost->Control.setup.b.wIndex.w = 0;
 182              		.loc 1 116 0
 183 000a 0021     		movs	r1, #0
 184 000c 4182     		strh	r1, [r0, #18]	@ movhi
 117:Middlewares/ST/STM32_USB_Host_Library/Class/MSC/Src/usbh_msc_bot.c ****   phost->Control.setup.b.wLength.w = 0;           
 185              		.loc 1 117 0
 186 000e 8182     		strh	r1, [r0, #20]	@ movhi
 118:Middlewares/ST/STM32_USB_Host_Library/Class/MSC/Src/usbh_msc_bot.c ****   
 187              		.loc 1 118 0
 188 0010 C182     		strh	r1, [r0, #22]	@ movhi
 120:Middlewares/ST/STM32_USB_Host_Library/Class/MSC/Src/usbh_msc_bot.c **** }
 189              		.loc 1 120 0
 190 0012 0A46     		mov	r2, r1
 191 0014 FFF7FEFF 		bl	USBH_CtlReq
 192              	.LVL16:
 121:Middlewares/ST/STM32_USB_Host_Library/Class/MSC/Src/usbh_msc_bot.c **** 
 193              		.loc 1 121 0
 194 0018 08BD     		pop	{r3, pc}
 195              		.cfi_endproc
 196              	.LFE66:
 198              		.section	.text.USBH_MSC_BOT_REQ_GetMaxLUN,"ax",%progbits
 199              		.align	1
 200              		.global	USBH_MSC_BOT_REQ_GetMaxLUN
 201              		.syntax unified
 202              		.thumb
 203              		.thumb_func
 204              		.fpu softvfp
 206              	USBH_MSC_BOT_REQ_GetMaxLUN:
 207              	.LFB67:
 131:Middlewares/ST/STM32_USB_Host_Library/Class/MSC/Src/usbh_msc_bot.c ****   phost->Control.setup.b.bmRequestType = USB_D2H | USB_REQ_TYPE_CLASS | \
 208              		.loc 1 131 0
 209              		.cfi_startproc
 210              		@ args = 0, pretend = 0, frame = 0
 211              		@ frame_needed = 0, uses_anonymous_args = 0
 212              	.LVL17:
 213 0000 08B5     		push	{r3, lr}
 214              	.LCFI3:
 215              		.cfi_def_cfa_offset 8
 216              		.cfi_offset 3, -8
 217              		.cfi_offset 14, -4
 132:Middlewares/ST/STM32_USB_Host_Library/Class/MSC/Src/usbh_msc_bot.c ****                               USB_REQ_RECIPIENT_INTERFACE;
 218              		.loc 1 132 0
 219 0002 A122     		movs	r2, #161
 220 0004 0274     		strb	r2, [r0, #16]
 135:Middlewares/ST/STM32_USB_Host_Library/Class/MSC/Src/usbh_msc_bot.c ****   phost->Control.setup.b.wValue.w = 0;
 221              		.loc 1 135 0
 222 0006 FE22     		movs	r2, #254
 223 0008 4274     		strb	r2, [r0, #17]
 136:Middlewares/ST/STM32_USB_Host_Library/Class/MSC/Src/usbh_msc_bot.c ****   phost->Control.setup.b.wIndex.w = 0;
 224              		.loc 1 136 0
 225 000a 0022     		movs	r2, #0
 226 000c 4282     		strh	r2, [r0, #18]	@ movhi
 137:Middlewares/ST/STM32_USB_Host_Library/Class/MSC/Src/usbh_msc_bot.c ****   phost->Control.setup.b.wLength.w = 1;           
 227              		.loc 1 137 0
ARM GAS  /tmp/ccisWkMY.s 			page 16


 228 000e 8282     		strh	r2, [r0, #20]	@ movhi
 138:Middlewares/ST/STM32_USB_Host_Library/Class/MSC/Src/usbh_msc_bot.c ****   
 229              		.loc 1 138 0
 230 0010 0122     		movs	r2, #1
 231 0012 C282     		strh	r2, [r0, #22]	@ movhi
 140:Middlewares/ST/STM32_USB_Host_Library/Class/MSC/Src/usbh_msc_bot.c **** }
 232              		.loc 1 140 0
 233 0014 FFF7FEFF 		bl	USBH_CtlReq
 234              	.LVL18:
 141:Middlewares/ST/STM32_USB_Host_Library/Class/MSC/Src/usbh_msc_bot.c **** 
 235              		.loc 1 141 0
 236 0018 08BD     		pop	{r3, pc}
 237              		.cfi_endproc
 238              	.LFE67:
 240              		.section	.text.USBH_MSC_BOT_Init,"ax",%progbits
 241              		.align	1
 242              		.global	USBH_MSC_BOT_Init
 243              		.syntax unified
 244              		.thumb
 245              		.thumb_func
 246              		.fpu softvfp
 248              	USBH_MSC_BOT_Init:
 249              	.LFB68:
 152:Middlewares/ST/STM32_USB_Host_Library/Class/MSC/Src/usbh_msc_bot.c ****   
 250              		.loc 1 152 0
 251              		.cfi_startproc
 252              		@ args = 0, pretend = 0, frame = 0
 253              		@ frame_needed = 0, uses_anonymous_args = 0
 254              		@ link register save eliminated.
 255              	.LVL19:
 154:Middlewares/ST/STM32_USB_Host_Library/Class/MSC/Src/usbh_msc_bot.c ****   
 256              		.loc 1 154 0
 257 0000 D0F87433 		ldr	r3, [r0, #884]
 258 0004 DB69     		ldr	r3, [r3, #28]
 259              	.LVL20:
 156:Middlewares/ST/STM32_USB_Host_Library/Class/MSC/Src/usbh_msc_bot.c ****   MSC_Handle->hbot.cbw.field.Tag = BOT_CBW_TAG;
 260              		.loc 1 156 0
 261 0006 054A     		ldr	r2, .L25
 262 0008 5A65     		str	r2, [r3, #84]
 157:Middlewares/ST/STM32_USB_Host_Library/Class/MSC/Src/usbh_msc_bot.c ****   MSC_Handle->hbot.state = BOT_SEND_CBW;    
 263              		.loc 1 157 0
 264 000a 054A     		ldr	r2, .L25+4
 265 000c 9A65     		str	r2, [r3, #88]
 158:Middlewares/ST/STM32_USB_Host_Library/Class/MSC/Src/usbh_msc_bot.c ****   MSC_Handle->hbot.cmd_state = BOT_CMD_SEND;   
 266              		.loc 1 158 0
 267 000e 0122     		movs	r2, #1
 268 0010 83F85020 		strb	r2, [r3, #80]
 159:Middlewares/ST/STM32_USB_Host_Library/Class/MSC/Src/usbh_msc_bot.c ****   
 269              		.loc 1 159 0
 270 0014 83F85220 		strb	r2, [r3, #82]
 162:Middlewares/ST/STM32_USB_Host_Library/Class/MSC/Src/usbh_msc_bot.c **** 
 271              		.loc 1 162 0
 272 0018 0020     		movs	r0, #0
 273              	.LVL21:
 274 001a 7047     		bx	lr
 275              	.L26:
 276              		.align	2
ARM GAS  /tmp/ccisWkMY.s 			page 17


 277              	.L25:
 278 001c 55534243 		.word	1128420181
 279 0020 50403020 		.word	540033104
 280              		.cfi_endproc
 281              	.LFE68:
 283              		.section	.text.USBH_MSC_BOT_Process,"ax",%progbits
 284              		.align	1
 285              		.global	USBH_MSC_BOT_Process
 286              		.syntax unified
 287              		.thumb
 288              		.thumb_func
 289              		.fpu softvfp
 291              	USBH_MSC_BOT_Process:
 292              	.LFB69:
 174:Middlewares/ST/STM32_USB_Host_Library/Class/MSC/Src/usbh_msc_bot.c ****   USBH_StatusTypeDef   status = USBH_BUSY;
 293              		.loc 1 174 0
 294              		.cfi_startproc
 295              		@ args = 0, pretend = 0, frame = 0
 296              		@ frame_needed = 0, uses_anonymous_args = 0
 297              	.LVL22:
 298 0000 70B5     		push	{r4, r5, r6, lr}
 299              	.LCFI4:
 300              		.cfi_def_cfa_offset 16
 301              		.cfi_offset 4, -16
 302              		.cfi_offset 5, -12
 303              		.cfi_offset 6, -8
 304              		.cfi_offset 14, -4
 305 0002 82B0     		sub	sp, sp, #8
 306              	.LCFI5:
 307              		.cfi_def_cfa_offset 24
 308 0004 0546     		mov	r5, r0
 309              	.LVL23:
 179:Middlewares/ST/STM32_USB_Host_Library/Class/MSC/Src/usbh_msc_bot.c ****   uint8_t toggle = 0;
 310              		.loc 1 179 0
 311 0006 D0F87433 		ldr	r3, [r0, #884]
 312 000a DC69     		ldr	r4, [r3, #28]
 313              	.LVL24:
 182:Middlewares/ST/STM32_USB_Host_Library/Class/MSC/Src/usbh_msc_bot.c ****   {
 314              		.loc 1 182 0
 315 000c 94F85030 		ldrb	r3, [r4, #80]	@ zero_extendqisi2
 316 0010 013B     		subs	r3, r3, #1
 317 0012 0A2B     		cmp	r3, #10
 318 0014 00F22181 		bhi	.L57
 319 0018 DFE813F0 		tbh	[pc, r3, lsl #1]
 320              	.L30:
 321 001c 0B00     		.2byte	(.L29-.L30)/2
 322 001e 1B00     		.2byte	(.L31-.L30)/2
 323 0020 4500     		.2byte	(.L32-.L30)/2
 324 0022 5000     		.2byte	(.L33-.L30)/2
 325 0024 7C00     		.2byte	(.L34-.L30)/2
 326 0026 8800     		.2byte	(.L35-.L30)/2
 327 0028 BC00     		.2byte	(.L36-.L30)/2
 328 002a C700     		.2byte	(.L37-.L30)/2
 329 002c E100     		.2byte	(.L38-.L30)/2
 330 002e F300     		.2byte	(.L39-.L30)/2
 331 0030 1501     		.2byte	(.L40-.L30)/2
 332              		.p2align 1
ARM GAS  /tmp/ccisWkMY.s 			page 18


 333              	.L29:
 185:Middlewares/ST/STM32_USB_Host_Library/Class/MSC/Src/usbh_msc_bot.c ****     MSC_Handle->hbot.state = BOT_SEND_CBW_WAIT;    
 334              		.loc 1 185 0
 335 0032 84F86110 		strb	r1, [r4, #97]
 186:Middlewares/ST/STM32_USB_Host_Library/Class/MSC/Src/usbh_msc_bot.c ****     USBH_BulkSendData (phost,
 336              		.loc 1 186 0
 337 0036 0223     		movs	r3, #2
 338 0038 84F85030 		strb	r3, [r4, #80]
 187:Middlewares/ST/STM32_USB_Host_Library/Class/MSC/Src/usbh_msc_bot.c ****                        MSC_Handle->hbot.cbw.data, 
 339              		.loc 1 187 0
 340 003c 6379     		ldrb	r3, [r4, #5]	@ zero_extendqisi2
 341 003e 0126     		movs	r6, #1
 342 0040 0096     		str	r6, [sp]
 343 0042 1F22     		movs	r2, #31
 344 0044 04F15401 		add	r1, r4, #84
 345              	.LVL25:
 346 0048 FFF7FEFF 		bl	USBH_BulkSendData
 347              	.LVL26:
 348              	.L28:
 465:Middlewares/ST/STM32_USB_Host_Library/Class/MSC/Src/usbh_msc_bot.c **** 
 349              		.loc 1 465 0
 350 004c 3046     		mov	r0, r6
 351 004e 02B0     		add	sp, sp, #8
 352              	.LCFI6:
 353              		.cfi_remember_state
 354              		.cfi_def_cfa_offset 16
 355              		@ sp needed
 356 0050 70BD     		pop	{r4, r5, r6, pc}
 357              	.LVL27:
 358              	.L31:
 359              	.LCFI7:
 360              		.cfi_restore_state
 197:Middlewares/ST/STM32_USB_Host_Library/Class/MSC/Src/usbh_msc_bot.c ****     
 361              		.loc 1 197 0
 362 0052 6179     		ldrb	r1, [r4, #5]	@ zero_extendqisi2
 363              	.LVL28:
 364 0054 FFF7FEFF 		bl	USBH_LL_GetURBState
 365              	.LVL29:
 199:Middlewares/ST/STM32_USB_Host_Library/Class/MSC/Src/usbh_msc_bot.c ****     { 
 366              		.loc 1 199 0
 367 0058 0128     		cmp	r0, #1
 368 005a 05D0     		beq	.L66
 225:Middlewares/ST/STM32_USB_Host_Library/Class/MSC/Src/usbh_msc_bot.c ****     {
 369              		.loc 1 225 0
 370 005c 0228     		cmp	r0, #2
 371 005e 18D0     		beq	.L67
 233:Middlewares/ST/STM32_USB_Host_Library/Class/MSC/Src/usbh_msc_bot.c ****     {
 372              		.loc 1 233 0
 373 0060 0528     		cmp	r0, #5
 374 0062 1BD0     		beq	.L68
 175:Middlewares/ST/STM32_USB_Host_Library/Class/MSC/Src/usbh_msc_bot.c ****   USBH_StatusTypeDef   error  = USBH_BUSY;  
 375              		.loc 1 175 0
 376 0064 0126     		movs	r6, #1
 377 0066 F1E7     		b	.L28
 378              	.L66:
 201:Middlewares/ST/STM32_USB_Host_Library/Class/MSC/Src/usbh_msc_bot.c ****       {
 379              		.loc 1 201 0
ARM GAS  /tmp/ccisWkMY.s 			page 19


 380 0068 E36D     		ldr	r3, [r4, #92]
 381 006a 6BB1     		cbz	r3, .L42
 204:Middlewares/ST/STM32_USB_Host_Library/Class/MSC/Src/usbh_msc_bot.c ****         {
 382              		.loc 1 204 0
 383 006c 94F96030 		ldrsb	r3, [r4, #96]
 384 0070 002B     		cmp	r3, #0
 385 0072 04DB     		blt	.L69
 212:Middlewares/ST/STM32_USB_Host_Library/Class/MSC/Src/usbh_msc_bot.c ****         } 
 386              		.loc 1 212 0
 387 0074 0523     		movs	r3, #5
 388 0076 84F85030 		strb	r3, [r4, #80]
 175:Middlewares/ST/STM32_USB_Host_Library/Class/MSC/Src/usbh_msc_bot.c ****   USBH_StatusTypeDef   error  = USBH_BUSY;  
 389              		.loc 1 175 0
 390 007a 0126     		movs	r6, #1
 391 007c E6E7     		b	.L28
 392              	.L69:
 207:Middlewares/ST/STM32_USB_Host_Library/Class/MSC/Src/usbh_msc_bot.c ****         }
 393              		.loc 1 207 0
 394 007e 0323     		movs	r3, #3
 395 0080 84F85030 		strb	r3, [r4, #80]
 175:Middlewares/ST/STM32_USB_Host_Library/Class/MSC/Src/usbh_msc_bot.c ****   USBH_StatusTypeDef   error  = USBH_BUSY;  
 396              		.loc 1 175 0
 397 0084 0126     		movs	r6, #1
 398 0086 E1E7     		b	.L28
 399              	.L42:
 218:Middlewares/ST/STM32_USB_Host_Library/Class/MSC/Src/usbh_msc_bot.c ****       }
 400              		.loc 1 218 0
 401 0088 0723     		movs	r3, #7
 402 008a 84F85030 		strb	r3, [r4, #80]
 175:Middlewares/ST/STM32_USB_Host_Library/Class/MSC/Src/usbh_msc_bot.c ****   USBH_StatusTypeDef   error  = USBH_BUSY;  
 403              		.loc 1 175 0
 404 008e 0126     		movs	r6, #1
 405 0090 DCE7     		b	.L28
 406              	.L67:
 228:Middlewares/ST/STM32_USB_Host_Library/Class/MSC/Src/usbh_msc_bot.c **** #if (USBH_USE_OS == 1)
 407              		.loc 1 228 0
 408 0092 0123     		movs	r3, #1
 409 0094 84F85030 		strb	r3, [r4, #80]
 175:Middlewares/ST/STM32_USB_Host_Library/Class/MSC/Src/usbh_msc_bot.c ****   USBH_StatusTypeDef   error  = USBH_BUSY;  
 410              		.loc 1 175 0
 411 0098 1E46     		mov	r6, r3
 412 009a D7E7     		b	.L28
 413              	.L68:
 235:Middlewares/ST/STM32_USB_Host_Library/Class/MSC/Src/usbh_msc_bot.c **** #if (USBH_USE_OS == 1)
 414              		.loc 1 235 0
 415 009c 0A23     		movs	r3, #10
 416 009e 84F85030 		strb	r3, [r4, #80]
 175:Middlewares/ST/STM32_USB_Host_Library/Class/MSC/Src/usbh_msc_bot.c ****   USBH_StatusTypeDef   error  = USBH_BUSY;  
 417              		.loc 1 175 0
 418 00a2 0126     		movs	r6, #1
 419 00a4 D2E7     		b	.L28
 420              	.LVL30:
 421              	.L32:
 244:Middlewares/ST/STM32_USB_Host_Library/Class/MSC/Src/usbh_msc_bot.c ****                           MSC_Handle->hbot.pbuf, 
 422              		.loc 1 244 0
 423 00a6 2379     		ldrb	r3, [r4, #4]	@ zero_extendqisi2
 424 00a8 6289     		ldrh	r2, [r4, #10]
ARM GAS  /tmp/ccisWkMY.s 			page 20


 425 00aa D4F88C10 		ldr	r1, [r4, #140]
 426              	.LVL31:
 427 00ae FFF7FEFF 		bl	USBH_BulkReceiveData
 428              	.LVL32:
 249:Middlewares/ST/STM32_USB_Host_Library/Class/MSC/Src/usbh_msc_bot.c ****     
 429              		.loc 1 249 0
 430 00b2 0423     		movs	r3, #4
 431 00b4 84F85030 		strb	r3, [r4, #80]
 175:Middlewares/ST/STM32_USB_Host_Library/Class/MSC/Src/usbh_msc_bot.c ****   USBH_StatusTypeDef   error  = USBH_BUSY;  
 432              		.loc 1 175 0
 433 00b8 0126     		movs	r6, #1
 251:Middlewares/ST/STM32_USB_Host_Library/Class/MSC/Src/usbh_msc_bot.c ****     
 434              		.loc 1 251 0
 435 00ba C7E7     		b	.L28
 436              	.LVL33:
 437              	.L33:
 255:Middlewares/ST/STM32_USB_Host_Library/Class/MSC/Src/usbh_msc_bot.c ****     
 438              		.loc 1 255 0
 439 00bc 2179     		ldrb	r1, [r4, #4]	@ zero_extendqisi2
 440              	.LVL34:
 441 00be FFF7FEFF 		bl	USBH_LL_GetURBState
 442              	.LVL35:
 257:Middlewares/ST/STM32_USB_Host_Library/Class/MSC/Src/usbh_msc_bot.c ****     {
 443              		.loc 1 257 0
 444 00c2 0128     		cmp	r0, #1
 445 00c4 03D0     		beq	.L70
 289:Middlewares/ST/STM32_USB_Host_Library/Class/MSC/Src/usbh_msc_bot.c ****     {
 446              		.loc 1 289 0
 447 00c6 0528     		cmp	r0, #5
 448 00c8 1FD0     		beq	.L71
 175:Middlewares/ST/STM32_USB_Host_Library/Class/MSC/Src/usbh_msc_bot.c ****   USBH_StatusTypeDef   error  = USBH_BUSY;  
 449              		.loc 1 175 0
 450 00ca 0126     		movs	r6, #1
 451 00cc BEE7     		b	.L28
 452              	.L70:
 260:Middlewares/ST/STM32_USB_Host_Library/Class/MSC/Src/usbh_msc_bot.c ****       {
 453              		.loc 1 260 0
 454 00ce E36D     		ldr	r3, [r4, #92]
 455 00d0 6289     		ldrh	r2, [r4, #10]
 456 00d2 9342     		cmp	r3, r2
 457 00d4 0DD9     		bls	.L46
 262:Middlewares/ST/STM32_USB_Host_Library/Class/MSC/Src/usbh_msc_bot.c ****           MSC_Handle->hbot.cbw.field.DataTransferLength -= MSC_Handle->InEpSize;  
 458              		.loc 1 262 0
 459 00d6 D4F88C10 		ldr	r1, [r4, #140]
 460 00da 1144     		add	r1, r1, r2
 461 00dc C4F88C10 		str	r1, [r4, #140]
 263:Middlewares/ST/STM32_USB_Host_Library/Class/MSC/Src/usbh_msc_bot.c ****       }
 462              		.loc 1 263 0
 463 00e0 9B1A     		subs	r3, r3, r2
 464 00e2 E365     		str	r3, [r4, #92]
 465              	.L47:
 271:Middlewares/ST/STM32_USB_Host_Library/Class/MSC/Src/usbh_msc_bot.c ****       {
 466              		.loc 1 271 0
 467 00e4 E36D     		ldr	r3, [r4, #92]
 468 00e6 3BB9     		cbnz	r3, .L72
 283:Middlewares/ST/STM32_USB_Host_Library/Class/MSC/Src/usbh_msc_bot.c **** #if (USBH_USE_OS == 1)
 469              		.loc 1 283 0
ARM GAS  /tmp/ccisWkMY.s 			page 21


 470 00e8 0723     		movs	r3, #7
 471 00ea 84F85030 		strb	r3, [r4, #80]
 175:Middlewares/ST/STM32_USB_Host_Library/Class/MSC/Src/usbh_msc_bot.c ****   USBH_StatusTypeDef   error  = USBH_BUSY;  
 472              		.loc 1 175 0
 473 00ee 0126     		movs	r6, #1
 474 00f0 ACE7     		b	.L28
 475              	.L46:
 267:Middlewares/ST/STM32_USB_Host_Library/Class/MSC/Src/usbh_msc_bot.c ****       }
 476              		.loc 1 267 0
 477 00f2 0023     		movs	r3, #0
 478 00f4 E365     		str	r3, [r4, #92]
 479 00f6 F5E7     		b	.L47
 480              	.L72:
 274:Middlewares/ST/STM32_USB_Host_Library/Class/MSC/Src/usbh_msc_bot.c ****                               MSC_Handle->hbot.pbuf, 
 481              		.loc 1 274 0
 482 00f8 2379     		ldrb	r3, [r4, #4]	@ zero_extendqisi2
 483 00fa 6289     		ldrh	r2, [r4, #10]
 484 00fc D4F88C10 		ldr	r1, [r4, #140]
 485 0100 2846     		mov	r0, r5
 486              	.LVL36:
 487 0102 FFF7FEFF 		bl	USBH_BulkReceiveData
 488              	.LVL37:
 175:Middlewares/ST/STM32_USB_Host_Library/Class/MSC/Src/usbh_msc_bot.c ****   USBH_StatusTypeDef   error  = USBH_BUSY;  
 489              		.loc 1 175 0
 490 0106 0126     		movs	r6, #1
 491 0108 A0E7     		b	.L28
 492              	.LVL38:
 493              	.L71:
 292:Middlewares/ST/STM32_USB_Host_Library/Class/MSC/Src/usbh_msc_bot.c ****       
 494              		.loc 1 292 0
 495 010a 0923     		movs	r3, #9
 496 010c 84F85030 		strb	r3, [r4, #80]
 175:Middlewares/ST/STM32_USB_Host_Library/Class/MSC/Src/usbh_msc_bot.c ****   USBH_StatusTypeDef   error  = USBH_BUSY;  
 497              		.loc 1 175 0
 498 0110 0126     		movs	r6, #1
 499 0112 9BE7     		b	.L28
 500              	.LVL39:
 501              	.L34:
 309:Middlewares/ST/STM32_USB_Host_Library/Class/MSC/Src/usbh_msc_bot.c ****                        MSC_Handle->hbot.pbuf, 
 502              		.loc 1 309 0
 503 0114 6379     		ldrb	r3, [r4, #5]	@ zero_extendqisi2
 504 0116 2289     		ldrh	r2, [r4, #8]
 505 0118 D4F88C10 		ldr	r1, [r4, #140]
 506              	.LVL40:
 507 011c 0126     		movs	r6, #1
 508 011e 0096     		str	r6, [sp]
 509 0120 FFF7FEFF 		bl	USBH_BulkSendData
 510              	.LVL41:
 316:Middlewares/ST/STM32_USB_Host_Library/Class/MSC/Src/usbh_msc_bot.c ****     break;
 511              		.loc 1 316 0
 512 0124 0623     		movs	r3, #6
 513 0126 84F85030 		strb	r3, [r4, #80]
 317:Middlewares/ST/STM32_USB_Host_Library/Class/MSC/Src/usbh_msc_bot.c ****     
 514              		.loc 1 317 0
 515 012a 8FE7     		b	.L28
 516              	.LVL42:
 517              	.L35:
ARM GAS  /tmp/ccisWkMY.s 			page 22


 320:Middlewares/ST/STM32_USB_Host_Library/Class/MSC/Src/usbh_msc_bot.c ****     
 518              		.loc 1 320 0
 519 012c 6179     		ldrb	r1, [r4, #5]	@ zero_extendqisi2
 520              	.LVL43:
 521 012e FFF7FEFF 		bl	USBH_LL_GetURBState
 522              	.LVL44:
 322:Middlewares/ST/STM32_USB_Host_Library/Class/MSC/Src/usbh_msc_bot.c ****     {
 523              		.loc 1 322 0
 524 0132 0128     		cmp	r0, #1
 525 0134 05D0     		beq	.L73
 354:Middlewares/ST/STM32_USB_Host_Library/Class/MSC/Src/usbh_msc_bot.c ****     {
 526              		.loc 1 354 0
 527 0136 0228     		cmp	r0, #2
 528 0138 22D0     		beq	.L74
 363:Middlewares/ST/STM32_USB_Host_Library/Class/MSC/Src/usbh_msc_bot.c ****     {
 529              		.loc 1 363 0
 530 013a 0528     		cmp	r0, #5
 531 013c 25D0     		beq	.L75
 175:Middlewares/ST/STM32_USB_Host_Library/Class/MSC/Src/usbh_msc_bot.c ****   USBH_StatusTypeDef   error  = USBH_BUSY;  
 532              		.loc 1 175 0
 533 013e 0126     		movs	r6, #1
 534 0140 84E7     		b	.L28
 535              	.L73:
 325:Middlewares/ST/STM32_USB_Host_Library/Class/MSC/Src/usbh_msc_bot.c ****       {
 536              		.loc 1 325 0
 537 0142 E36D     		ldr	r3, [r4, #92]
 538 0144 2289     		ldrh	r2, [r4, #8]
 539 0146 9342     		cmp	r3, r2
 540 0148 0DD9     		bls	.L50
 327:Middlewares/ST/STM32_USB_Host_Library/Class/MSC/Src/usbh_msc_bot.c ****           MSC_Handle->hbot.cbw.field.DataTransferLength -= MSC_Handle->OutEpSize; 
 541              		.loc 1 327 0
 542 014a D4F88C10 		ldr	r1, [r4, #140]
 543 014e 1144     		add	r1, r1, r2
 544 0150 C4F88C10 		str	r1, [r4, #140]
 328:Middlewares/ST/STM32_USB_Host_Library/Class/MSC/Src/usbh_msc_bot.c ****       }
 545              		.loc 1 328 0
 546 0154 9B1A     		subs	r3, r3, r2
 547 0156 E365     		str	r3, [r4, #92]
 548              	.L51:
 336:Middlewares/ST/STM32_USB_Host_Library/Class/MSC/Src/usbh_msc_bot.c ****       {
 549              		.loc 1 336 0
 550 0158 E36D     		ldr	r3, [r4, #92]
 551 015a 3BB9     		cbnz	r3, .L76
 347:Middlewares/ST/STM32_USB_Host_Library/Class/MSC/Src/usbh_msc_bot.c ****       }  
 552              		.loc 1 347 0
 553 015c 0723     		movs	r3, #7
 554 015e 84F85030 		strb	r3, [r4, #80]
 175:Middlewares/ST/STM32_USB_Host_Library/Class/MSC/Src/usbh_msc_bot.c ****   USBH_StatusTypeDef   error  = USBH_BUSY;  
 555              		.loc 1 175 0
 556 0162 0126     		movs	r6, #1
 557 0164 72E7     		b	.L28
 558              	.L50:
 332:Middlewares/ST/STM32_USB_Host_Library/Class/MSC/Src/usbh_msc_bot.c ****       } 
 559              		.loc 1 332 0
 560 0166 0023     		movs	r3, #0
 561 0168 E365     		str	r3, [r4, #92]
 562 016a F5E7     		b	.L51
ARM GAS  /tmp/ccisWkMY.s 			page 23


 563              	.L76:
 338:Middlewares/ST/STM32_USB_Host_Library/Class/MSC/Src/usbh_msc_bot.c ****                            MSC_Handle->hbot.pbuf, 
 564              		.loc 1 338 0
 565 016c 6379     		ldrb	r3, [r4, #5]	@ zero_extendqisi2
 566 016e 2289     		ldrh	r2, [r4, #8]
 567 0170 D4F88C10 		ldr	r1, [r4, #140]
 568 0174 0126     		movs	r6, #1
 569 0176 0096     		str	r6, [sp]
 570 0178 2846     		mov	r0, r5
 571              	.LVL45:
 572 017a FFF7FEFF 		bl	USBH_BulkSendData
 573              	.LVL46:
 574 017e 65E7     		b	.L28
 575              	.LVL47:
 576              	.L74:
 357:Middlewares/ST/STM32_USB_Host_Library/Class/MSC/Src/usbh_msc_bot.c **** #if (USBH_USE_OS == 1)
 577              		.loc 1 357 0
 578 0180 0523     		movs	r3, #5
 579 0182 84F85030 		strb	r3, [r4, #80]
 175:Middlewares/ST/STM32_USB_Host_Library/Class/MSC/Src/usbh_msc_bot.c ****   USBH_StatusTypeDef   error  = USBH_BUSY;  
 580              		.loc 1 175 0
 581 0186 0126     		movs	r6, #1
 582 0188 60E7     		b	.L28
 583              	.L75:
 365:Middlewares/ST/STM32_USB_Host_Library/Class/MSC/Src/usbh_msc_bot.c ****       
 584              		.loc 1 365 0
 585 018a 0A23     		movs	r3, #10
 586 018c 84F85030 		strb	r3, [r4, #80]
 175:Middlewares/ST/STM32_USB_Host_Library/Class/MSC/Src/usbh_msc_bot.c ****   USBH_StatusTypeDef   error  = USBH_BUSY;  
 587              		.loc 1 175 0
 588 0190 0126     		movs	r6, #1
 589 0192 5BE7     		b	.L28
 590              	.LVL48:
 591              	.L36:
 381:Middlewares/ST/STM32_USB_Host_Library/Class/MSC/Src/usbh_msc_bot.c ****                           MSC_Handle->hbot.csw.data, 
 592              		.loc 1 381 0
 593 0194 2379     		ldrb	r3, [r4, #4]	@ zero_extendqisi2
 594 0196 0D22     		movs	r2, #13
 595 0198 04F17801 		add	r1, r4, #120
 596              	.LVL49:
 597 019c FFF7FEFF 		bl	USBH_BulkReceiveData
 598              	.LVL50:
 386:Middlewares/ST/STM32_USB_Host_Library/Class/MSC/Src/usbh_msc_bot.c ****     break;
 599              		.loc 1 386 0
 600 01a0 0823     		movs	r3, #8
 601 01a2 84F85030 		strb	r3, [r4, #80]
 175:Middlewares/ST/STM32_USB_Host_Library/Class/MSC/Src/usbh_msc_bot.c ****   USBH_StatusTypeDef   error  = USBH_BUSY;  
 602              		.loc 1 175 0
 603 01a6 0126     		movs	r6, #1
 387:Middlewares/ST/STM32_USB_Host_Library/Class/MSC/Src/usbh_msc_bot.c ****     
 604              		.loc 1 387 0
 605 01a8 50E7     		b	.L28
 606              	.LVL51:
 607              	.L37:
 391:Middlewares/ST/STM32_USB_Host_Library/Class/MSC/Src/usbh_msc_bot.c ****     
 608              		.loc 1 391 0
 609 01aa 2179     		ldrb	r1, [r4, #4]	@ zero_extendqisi2
ARM GAS  /tmp/ccisWkMY.s 			page 24


 610              	.LVL52:
 611 01ac FFF7FEFF 		bl	USBH_LL_GetURBState
 612              	.LVL53:
 394:Middlewares/ST/STM32_USB_Host_Library/Class/MSC/Src/usbh_msc_bot.c ****     {
 613              		.loc 1 394 0
 614 01b0 0128     		cmp	r0, #1
 615 01b2 03D0     		beq	.L77
 412:Middlewares/ST/STM32_USB_Host_Library/Class/MSC/Src/usbh_msc_bot.c ****     {
 616              		.loc 1 412 0
 617 01b4 0528     		cmp	r0, #5
 618 01b6 0DD0     		beq	.L78
 175:Middlewares/ST/STM32_USB_Host_Library/Class/MSC/Src/usbh_msc_bot.c ****   USBH_StatusTypeDef   error  = USBH_BUSY;  
 619              		.loc 1 175 0
 620 01b8 0126     		movs	r6, #1
 621 01ba 47E7     		b	.L28
 622              	.L77:
 396:Middlewares/ST/STM32_USB_Host_Library/Class/MSC/Src/usbh_msc_bot.c ****       MSC_Handle->hbot.cmd_state = BOT_CMD_SEND;        
 623              		.loc 1 396 0
 624 01bc 0123     		movs	r3, #1
 625 01be 84F85030 		strb	r3, [r4, #80]
 397:Middlewares/ST/STM32_USB_Host_Library/Class/MSC/Src/usbh_msc_bot.c ****       CSW_Status = USBH_MSC_DecodeCSW(phost);
 626              		.loc 1 397 0
 627 01c2 84F85230 		strb	r3, [r4, #82]
 398:Middlewares/ST/STM32_USB_Host_Library/Class/MSC/Src/usbh_msc_bot.c ****       
 628              		.loc 1 398 0
 629 01c6 2846     		mov	r0, r5
 630              	.LVL54:
 631 01c8 FFF7FEFF 		bl	USBH_MSC_DecodeCSW
 632              	.LVL55:
 400:Middlewares/ST/STM32_USB_Host_Library/Class/MSC/Src/usbh_msc_bot.c ****       {
 633              		.loc 1 400 0
 634 01cc 0028     		cmp	r0, #0
 635 01ce 46D1     		bne	.L61
 402:Middlewares/ST/STM32_USB_Host_Library/Class/MSC/Src/usbh_msc_bot.c ****       }
 636              		.loc 1 402 0
 637 01d0 0026     		movs	r6, #0
 638 01d2 3BE7     		b	.L28
 639              	.LVL56:
 640              	.L78:
 414:Middlewares/ST/STM32_USB_Host_Library/Class/MSC/Src/usbh_msc_bot.c **** #if (USBH_USE_OS == 1)
 641              		.loc 1 414 0
 642 01d4 0923     		movs	r3, #9
 643 01d6 84F85030 		strb	r3, [r4, #80]
 175:Middlewares/ST/STM32_USB_Host_Library/Class/MSC/Src/usbh_msc_bot.c ****   USBH_StatusTypeDef   error  = USBH_BUSY;  
 644              		.loc 1 175 0
 645 01da 0126     		movs	r6, #1
 646 01dc 36E7     		b	.L28
 647              	.LVL57:
 648              	.L38:
 422:Middlewares/ST/STM32_USB_Host_Library/Class/MSC/Src/usbh_msc_bot.c ****     
 649              		.loc 1 422 0
 650 01de 0022     		movs	r2, #0
 651 01e0 FFF7FEFF 		bl	USBH_MSC_BOT_Abort
 652              	.LVL58:
 424:Middlewares/ST/STM32_USB_Host_Library/Class/MSC/Src/usbh_msc_bot.c ****     {
 653              		.loc 1 424 0
 654 01e4 18B1     		cbz	r0, .L79
ARM GAS  /tmp/ccisWkMY.s 			page 25


 428:Middlewares/ST/STM32_USB_Host_Library/Class/MSC/Src/usbh_msc_bot.c ****     {
 655              		.loc 1 428 0
 656 01e6 0428     		cmp	r0, #4
 657 01e8 06D0     		beq	.L80
 175:Middlewares/ST/STM32_USB_Host_Library/Class/MSC/Src/usbh_msc_bot.c ****   USBH_StatusTypeDef   error  = USBH_BUSY;  
 658              		.loc 1 175 0
 659 01ea 0126     		movs	r6, #1
 660 01ec 2EE7     		b	.L28
 661              	.L79:
 426:Middlewares/ST/STM32_USB_Host_Library/Class/MSC/Src/usbh_msc_bot.c ****     }
 662              		.loc 1 426 0
 663 01ee 0723     		movs	r3, #7
 664 01f0 84F85030 		strb	r3, [r4, #80]
 175:Middlewares/ST/STM32_USB_Host_Library/Class/MSC/Src/usbh_msc_bot.c ****   USBH_StatusTypeDef   error  = USBH_BUSY;  
 665              		.loc 1 175 0
 666 01f4 0126     		movs	r6, #1
 667 01f6 29E7     		b	.L28
 668              	.L80:
 431:Middlewares/ST/STM32_USB_Host_Library/Class/MSC/Src/usbh_msc_bot.c ****     }
 669              		.loc 1 431 0
 670 01f8 0B23     		movs	r3, #11
 671 01fa 84F85030 		strb	r3, [r4, #80]
 175:Middlewares/ST/STM32_USB_Host_Library/Class/MSC/Src/usbh_msc_bot.c ****   USBH_StatusTypeDef   error  = USBH_BUSY;  
 672              		.loc 1 175 0
 673 01fe 0126     		movs	r6, #1
 674 0200 24E7     		b	.L28
 675              	.LVL59:
 676              	.L39:
 436:Middlewares/ST/STM32_USB_Host_Library/Class/MSC/Src/usbh_msc_bot.c ****     
 677              		.loc 1 436 0
 678 0202 0122     		movs	r2, #1
 679 0204 FFF7FEFF 		bl	USBH_MSC_BOT_Abort
 680              	.LVL60:
 438:Middlewares/ST/STM32_USB_Host_Library/Class/MSC/Src/usbh_msc_bot.c ****     { 
 681              		.loc 1 438 0
 682 0208 18B1     		cbz	r0, .L81
 446:Middlewares/ST/STM32_USB_Host_Library/Class/MSC/Src/usbh_msc_bot.c ****     {
 683              		.loc 1 446 0
 684 020a 0428     		cmp	r0, #4
 685 020c 16D0     		beq	.L82
 175:Middlewares/ST/STM32_USB_Host_Library/Class/MSC/Src/usbh_msc_bot.c ****   USBH_StatusTypeDef   error  = USBH_BUSY;  
 686              		.loc 1 175 0
 687 020e 0126     		movs	r6, #1
 688 0210 1CE7     		b	.L28
 689              	.L81:
 441:Middlewares/ST/STM32_USB_Host_Library/Class/MSC/Src/usbh_msc_bot.c ****       USBH_LL_SetToggle(phost, MSC_Handle->OutPipe, 1- toggle);   
 690              		.loc 1 441 0
 691 0212 6179     		ldrb	r1, [r4, #5]	@ zero_extendqisi2
 692 0214 2846     		mov	r0, r5
 693              	.LVL61:
 694 0216 FFF7FEFF 		bl	USBH_LL_GetToggle
 695              	.LVL62:
 442:Middlewares/ST/STM32_USB_Host_Library/Class/MSC/Src/usbh_msc_bot.c ****       USBH_LL_SetToggle(phost, MSC_Handle->InPipe, 0);  
 696              		.loc 1 442 0
 697 021a C0F10102 		rsb	r2, r0, #1
 698 021e D2B2     		uxtb	r2, r2
 699 0220 6179     		ldrb	r1, [r4, #5]	@ zero_extendqisi2
ARM GAS  /tmp/ccisWkMY.s 			page 26


 700 0222 2846     		mov	r0, r5
 701              	.LVL63:
 702 0224 FFF7FEFF 		bl	USBH_LL_SetToggle
 703              	.LVL64:
 443:Middlewares/ST/STM32_USB_Host_Library/Class/MSC/Src/usbh_msc_bot.c ****       MSC_Handle->hbot.state = BOT_ERROR_IN;        
 704              		.loc 1 443 0
 705 0228 0022     		movs	r2, #0
 706 022a 2179     		ldrb	r1, [r4, #4]	@ zero_extendqisi2
 707 022c 2846     		mov	r0, r5
 708 022e FFF7FEFF 		bl	USBH_LL_SetToggle
 709              	.LVL65:
 444:Middlewares/ST/STM32_USB_Host_Library/Class/MSC/Src/usbh_msc_bot.c ****     }
 710              		.loc 1 444 0
 711 0232 0923     		movs	r3, #9
 712 0234 84F85030 		strb	r3, [r4, #80]
 175:Middlewares/ST/STM32_USB_Host_Library/Class/MSC/Src/usbh_msc_bot.c ****   USBH_StatusTypeDef   error  = USBH_BUSY;  
 713              		.loc 1 175 0
 714 0238 0126     		movs	r6, #1
 715 023a 07E7     		b	.L28
 716              	.LVL66:
 717              	.L82:
 448:Middlewares/ST/STM32_USB_Host_Library/Class/MSC/Src/usbh_msc_bot.c ****     }
 718              		.loc 1 448 0
 719 023c 0B23     		movs	r3, #11
 720 023e 84F85030 		strb	r3, [r4, #80]
 175:Middlewares/ST/STM32_USB_Host_Library/Class/MSC/Src/usbh_msc_bot.c ****   USBH_StatusTypeDef   error  = USBH_BUSY;  
 721              		.loc 1 175 0
 722 0242 0126     		movs	r6, #1
 723 0244 02E7     		b	.L28
 724              	.LVL67:
 725              	.L40:
 454:Middlewares/ST/STM32_USB_Host_Library/Class/MSC/Src/usbh_msc_bot.c ****     if ( status == USBH_OK)
 726              		.loc 1 454 0
 727 0246 FFF7FEFF 		bl	USBH_MSC_BOT_REQ_Reset
 728              	.LVL68:
 455:Middlewares/ST/STM32_USB_Host_Library/Class/MSC/Src/usbh_msc_bot.c ****     {
 729              		.loc 1 455 0
 730 024a 0646     		mov	r6, r0
 731 024c 0028     		cmp	r0, #0
 732 024e 7FF4FDAE 		bne	.L28
 457:Middlewares/ST/STM32_USB_Host_Library/Class/MSC/Src/usbh_msc_bot.c ****     }
 733              		.loc 1 457 0
 734 0252 0122     		movs	r2, #1
 735 0254 84F85020 		strb	r2, [r4, #80]
 736 0258 F8E6     		b	.L28
 737              	.LVL69:
 738              	.L57:
 175:Middlewares/ST/STM32_USB_Host_Library/Class/MSC/Src/usbh_msc_bot.c ****   USBH_StatusTypeDef   error  = USBH_BUSY;  
 739              		.loc 1 175 0
 740 025a 0126     		movs	r6, #1
 741 025c F6E6     		b	.L28
 742              	.LVL70:
 743              	.L61:
 406:Middlewares/ST/STM32_USB_Host_Library/Class/MSC/Src/usbh_msc_bot.c ****       }
 744              		.loc 1 406 0
 745 025e 0226     		movs	r6, #2
 746 0260 F4E6     		b	.L28
ARM GAS  /tmp/ccisWkMY.s 			page 27


 747              		.cfi_endproc
 748              	.LFE69:
 750              		.text
 751              	.Letext0:
 752              		.file 2 "/usr/arm-none-eabi/include/machine/_default_types.h"
 753              		.file 3 "/usr/arm-none-eabi/include/sys/lock.h"
 754              		.file 4 "/usr/arm-none-eabi/include/sys/_types.h"
 755              		.file 5 "/usr/lib/gcc/arm-none-eabi/7.3.1/include/stddef.h"
 756              		.file 6 "/usr/arm-none-eabi/include/sys/reent.h"
 757              		.file 7 "/usr/arm-none-eabi/include/sys/_stdint.h"
 758              		.file 8 "/usr/arm-none-eabi/include/stdlib.h"
 759              		.file 9 "Drivers/CMSIS/Include/core_cm3.h"
 760              		.file 10 "Drivers/CMSIS/Device/ST/STM32F1xx/Include/system_stm32f1xx.h"
 761              		.file 11 "Drivers/STM32F1xx_HAL_Driver/Inc/stm32f1xx_hal.h"
 762              		.file 12 "Middlewares/ST/STM32_USB_Host_Library/Core/Inc/usbh_def.h"
 763              		.file 13 "Middlewares/ST/STM32_USB_Host_Library/Core/Inc/usbh_ctlreq.h"
 764              		.file 14 "Middlewares/ST/STM32_USB_Host_Library/Class/MSC/Inc/usbh_msc_bot.h"
 765              		.file 15 "Middlewares/ST/STM32_USB_Host_Library/Class/MSC/Inc/usbh_msc_scsi.h"
 766              		.file 16 "Middlewares/ST/STM32_USB_Host_Library/Class/MSC/Inc/usbh_msc.h"
 767              		.file 17 "Middlewares/ST/STM32_USB_Host_Library/Core/Inc/usbh_core.h"
 768              		.file 18 "Middlewares/ST/STM32_USB_Host_Library/Core/Inc/usbh_ioreq.h"
ARM GAS  /tmp/ccisWkMY.s 			page 28

