ARM GAS  /tmp/ccskp59e.s 			page 1


   1              		.cpu cortex-m3
   2              		.eabi_attribute 20, 1
   3              		.eabi_attribute 21, 1
   4              		.eabi_attribute 23, 3
   5              		.eabi_attribute 24, 1
   6              		.eabi_attribute 25, 1
   7              		.eabi_attribute 26, 1
   8              		.eabi_attribute 30, 1
   9              		.eabi_attribute 34, 1
  10              		.eabi_attribute 18, 4
  11              		.file	"usbh_ctlreq.c"
  12              		.text
  13              	.Ltext0:
  14              		.cfi_sections	.debug_frame
  15              		.section	.text.USBH_ParseDevDesc,"ax",%progbits
  16              		.align	1
  17              		.arch armv7-m
  18              		.syntax unified
  19              		.thumb
  20              		.thumb_func
  21              		.fpu softvfp
  23              	USBH_ParseDevDesc:
  24              	.LVL0:
  25              	.LFB77:
  26              		.file 1 "Middlewares/ST/STM32_USB_Host_Library/Core/Src/usbh_ctlreq.c"
   1:Middlewares/ST/STM32_USB_Host_Library/Core/Src/usbh_ctlreq.c **** /**
   2:Middlewares/ST/STM32_USB_Host_Library/Core/Src/usbh_ctlreq.c ****   ******************************************************************************
   3:Middlewares/ST/STM32_USB_Host_Library/Core/Src/usbh_ctlreq.c ****   * @file    usbh_ctlreq.c
   4:Middlewares/ST/STM32_USB_Host_Library/Core/Src/usbh_ctlreq.c ****   * @author  MCD Application Team
   5:Middlewares/ST/STM32_USB_Host_Library/Core/Src/usbh_ctlreq.c ****   * @brief   This file implements the control requests for device enumeration
   6:Middlewares/ST/STM32_USB_Host_Library/Core/Src/usbh_ctlreq.c ****   ******************************************************************************
   7:Middlewares/ST/STM32_USB_Host_Library/Core/Src/usbh_ctlreq.c ****   * @attention
   8:Middlewares/ST/STM32_USB_Host_Library/Core/Src/usbh_ctlreq.c ****   *
   9:Middlewares/ST/STM32_USB_Host_Library/Core/Src/usbh_ctlreq.c ****   * <h2><center>&copy; Copyright (c) 2015 STMicroelectronics.
  10:Middlewares/ST/STM32_USB_Host_Library/Core/Src/usbh_ctlreq.c ****   * All rights reserved.</center></h2>
  11:Middlewares/ST/STM32_USB_Host_Library/Core/Src/usbh_ctlreq.c ****   *
  12:Middlewares/ST/STM32_USB_Host_Library/Core/Src/usbh_ctlreq.c ****   * This software component is licensed by ST under Ultimate Liberty license
  13:Middlewares/ST/STM32_USB_Host_Library/Core/Src/usbh_ctlreq.c ****   * SLA0044, the "License"; You may not use this file except in compliance with
  14:Middlewares/ST/STM32_USB_Host_Library/Core/Src/usbh_ctlreq.c ****   * the License. You may obtain a copy of the License at:
  15:Middlewares/ST/STM32_USB_Host_Library/Core/Src/usbh_ctlreq.c ****   *                      www.st.com/SLA0044
  16:Middlewares/ST/STM32_USB_Host_Library/Core/Src/usbh_ctlreq.c ****   *
  17:Middlewares/ST/STM32_USB_Host_Library/Core/Src/usbh_ctlreq.c ****   ******************************************************************************
  18:Middlewares/ST/STM32_USB_Host_Library/Core/Src/usbh_ctlreq.c ****   */
  19:Middlewares/ST/STM32_USB_Host_Library/Core/Src/usbh_ctlreq.c **** 
  20:Middlewares/ST/STM32_USB_Host_Library/Core/Src/usbh_ctlreq.c **** /* Includes ------------------------------------------------------------------*/
  21:Middlewares/ST/STM32_USB_Host_Library/Core/Src/usbh_ctlreq.c **** #include "usbh_ctlreq.h"
  22:Middlewares/ST/STM32_USB_Host_Library/Core/Src/usbh_ctlreq.c **** 
  23:Middlewares/ST/STM32_USB_Host_Library/Core/Src/usbh_ctlreq.c **** /** @addtogroup USBH_LIB
  24:Middlewares/ST/STM32_USB_Host_Library/Core/Src/usbh_ctlreq.c **** * @{
  25:Middlewares/ST/STM32_USB_Host_Library/Core/Src/usbh_ctlreq.c **** */
  26:Middlewares/ST/STM32_USB_Host_Library/Core/Src/usbh_ctlreq.c **** 
  27:Middlewares/ST/STM32_USB_Host_Library/Core/Src/usbh_ctlreq.c **** /** @addtogroup USBH_LIB_CORE
  28:Middlewares/ST/STM32_USB_Host_Library/Core/Src/usbh_ctlreq.c **** * @{
  29:Middlewares/ST/STM32_USB_Host_Library/Core/Src/usbh_ctlreq.c **** */
  30:Middlewares/ST/STM32_USB_Host_Library/Core/Src/usbh_ctlreq.c **** 
  31:Middlewares/ST/STM32_USB_Host_Library/Core/Src/usbh_ctlreq.c **** /** @defgroup USBH_CTLREQ
  32:Middlewares/ST/STM32_USB_Host_Library/Core/Src/usbh_ctlreq.c **** * @brief This file implements the standard requests for device enumeration
ARM GAS  /tmp/ccskp59e.s 			page 2


  33:Middlewares/ST/STM32_USB_Host_Library/Core/Src/usbh_ctlreq.c **** * @{
  34:Middlewares/ST/STM32_USB_Host_Library/Core/Src/usbh_ctlreq.c **** */
  35:Middlewares/ST/STM32_USB_Host_Library/Core/Src/usbh_ctlreq.c **** 
  36:Middlewares/ST/STM32_USB_Host_Library/Core/Src/usbh_ctlreq.c **** 
  37:Middlewares/ST/STM32_USB_Host_Library/Core/Src/usbh_ctlreq.c **** /** @defgroup USBH_CTLREQ_Private_Defines
  38:Middlewares/ST/STM32_USB_Host_Library/Core/Src/usbh_ctlreq.c **** * @{
  39:Middlewares/ST/STM32_USB_Host_Library/Core/Src/usbh_ctlreq.c **** */
  40:Middlewares/ST/STM32_USB_Host_Library/Core/Src/usbh_ctlreq.c **** /**
  41:Middlewares/ST/STM32_USB_Host_Library/Core/Src/usbh_ctlreq.c **** * @}
  42:Middlewares/ST/STM32_USB_Host_Library/Core/Src/usbh_ctlreq.c **** */
  43:Middlewares/ST/STM32_USB_Host_Library/Core/Src/usbh_ctlreq.c **** 
  44:Middlewares/ST/STM32_USB_Host_Library/Core/Src/usbh_ctlreq.c **** 
  45:Middlewares/ST/STM32_USB_Host_Library/Core/Src/usbh_ctlreq.c **** /** @defgroup USBH_CTLREQ_Private_TypesDefinitions
  46:Middlewares/ST/STM32_USB_Host_Library/Core/Src/usbh_ctlreq.c **** * @{
  47:Middlewares/ST/STM32_USB_Host_Library/Core/Src/usbh_ctlreq.c **** */
  48:Middlewares/ST/STM32_USB_Host_Library/Core/Src/usbh_ctlreq.c **** /**
  49:Middlewares/ST/STM32_USB_Host_Library/Core/Src/usbh_ctlreq.c **** * @}
  50:Middlewares/ST/STM32_USB_Host_Library/Core/Src/usbh_ctlreq.c **** */
  51:Middlewares/ST/STM32_USB_Host_Library/Core/Src/usbh_ctlreq.c **** 
  52:Middlewares/ST/STM32_USB_Host_Library/Core/Src/usbh_ctlreq.c **** 
  53:Middlewares/ST/STM32_USB_Host_Library/Core/Src/usbh_ctlreq.c **** 
  54:Middlewares/ST/STM32_USB_Host_Library/Core/Src/usbh_ctlreq.c **** /** @defgroup USBH_CTLREQ_Private_Macros
  55:Middlewares/ST/STM32_USB_Host_Library/Core/Src/usbh_ctlreq.c **** * @{
  56:Middlewares/ST/STM32_USB_Host_Library/Core/Src/usbh_ctlreq.c **** */
  57:Middlewares/ST/STM32_USB_Host_Library/Core/Src/usbh_ctlreq.c **** /**
  58:Middlewares/ST/STM32_USB_Host_Library/Core/Src/usbh_ctlreq.c **** * @}
  59:Middlewares/ST/STM32_USB_Host_Library/Core/Src/usbh_ctlreq.c **** */
  60:Middlewares/ST/STM32_USB_Host_Library/Core/Src/usbh_ctlreq.c **** 
  61:Middlewares/ST/STM32_USB_Host_Library/Core/Src/usbh_ctlreq.c **** 
  62:Middlewares/ST/STM32_USB_Host_Library/Core/Src/usbh_ctlreq.c **** /** @defgroup USBH_CTLREQ_Private_Variables
  63:Middlewares/ST/STM32_USB_Host_Library/Core/Src/usbh_ctlreq.c **** * @{
  64:Middlewares/ST/STM32_USB_Host_Library/Core/Src/usbh_ctlreq.c **** */
  65:Middlewares/ST/STM32_USB_Host_Library/Core/Src/usbh_ctlreq.c **** /**
  66:Middlewares/ST/STM32_USB_Host_Library/Core/Src/usbh_ctlreq.c **** * @}
  67:Middlewares/ST/STM32_USB_Host_Library/Core/Src/usbh_ctlreq.c **** */
  68:Middlewares/ST/STM32_USB_Host_Library/Core/Src/usbh_ctlreq.c **** 
  69:Middlewares/ST/STM32_USB_Host_Library/Core/Src/usbh_ctlreq.c **** /** @defgroup USBH_CTLREQ_Private_FunctionPrototypes
  70:Middlewares/ST/STM32_USB_Host_Library/Core/Src/usbh_ctlreq.c **** * @{
  71:Middlewares/ST/STM32_USB_Host_Library/Core/Src/usbh_ctlreq.c **** */
  72:Middlewares/ST/STM32_USB_Host_Library/Core/Src/usbh_ctlreq.c **** static USBH_StatusTypeDef USBH_HandleControl(USBH_HandleTypeDef *phost);
  73:Middlewares/ST/STM32_USB_Host_Library/Core/Src/usbh_ctlreq.c **** 
  74:Middlewares/ST/STM32_USB_Host_Library/Core/Src/usbh_ctlreq.c **** static void USBH_ParseDevDesc(USBH_DevDescTypeDef *dev_desc,
  75:Middlewares/ST/STM32_USB_Host_Library/Core/Src/usbh_ctlreq.c ****                               uint8_t *buf, uint16_t length);
  76:Middlewares/ST/STM32_USB_Host_Library/Core/Src/usbh_ctlreq.c **** 
  77:Middlewares/ST/STM32_USB_Host_Library/Core/Src/usbh_ctlreq.c **** static void USBH_ParseCfgDesc(USBH_CfgDescTypeDef *cfg_desc,
  78:Middlewares/ST/STM32_USB_Host_Library/Core/Src/usbh_ctlreq.c ****                               uint8_t *buf, uint16_t length);
  79:Middlewares/ST/STM32_USB_Host_Library/Core/Src/usbh_ctlreq.c **** 
  80:Middlewares/ST/STM32_USB_Host_Library/Core/Src/usbh_ctlreq.c **** static void USBH_ParseEPDesc(USBH_EpDescTypeDef  *ep_descriptor, uint8_t *buf);
  81:Middlewares/ST/STM32_USB_Host_Library/Core/Src/usbh_ctlreq.c **** static void USBH_ParseStringDesc(uint8_t *psrc, uint8_t *pdest, uint16_t length);
  82:Middlewares/ST/STM32_USB_Host_Library/Core/Src/usbh_ctlreq.c **** static void USBH_ParseInterfaceDesc(USBH_InterfaceDescTypeDef  *if_descriptor, uint8_t *buf);
  83:Middlewares/ST/STM32_USB_Host_Library/Core/Src/usbh_ctlreq.c **** 
  84:Middlewares/ST/STM32_USB_Host_Library/Core/Src/usbh_ctlreq.c **** 
  85:Middlewares/ST/STM32_USB_Host_Library/Core/Src/usbh_ctlreq.c **** /**
  86:Middlewares/ST/STM32_USB_Host_Library/Core/Src/usbh_ctlreq.c **** * @}
  87:Middlewares/ST/STM32_USB_Host_Library/Core/Src/usbh_ctlreq.c **** */
  88:Middlewares/ST/STM32_USB_Host_Library/Core/Src/usbh_ctlreq.c **** 
  89:Middlewares/ST/STM32_USB_Host_Library/Core/Src/usbh_ctlreq.c **** 
ARM GAS  /tmp/ccskp59e.s 			page 3


  90:Middlewares/ST/STM32_USB_Host_Library/Core/Src/usbh_ctlreq.c **** /** @defgroup USBH_CTLREQ_Private_Functions
  91:Middlewares/ST/STM32_USB_Host_Library/Core/Src/usbh_ctlreq.c **** * @{
  92:Middlewares/ST/STM32_USB_Host_Library/Core/Src/usbh_ctlreq.c **** */
  93:Middlewares/ST/STM32_USB_Host_Library/Core/Src/usbh_ctlreq.c **** 
  94:Middlewares/ST/STM32_USB_Host_Library/Core/Src/usbh_ctlreq.c **** 
  95:Middlewares/ST/STM32_USB_Host_Library/Core/Src/usbh_ctlreq.c **** /**
  96:Middlewares/ST/STM32_USB_Host_Library/Core/Src/usbh_ctlreq.c ****   * @brief  USBH_Get_DevDesc
  97:Middlewares/ST/STM32_USB_Host_Library/Core/Src/usbh_ctlreq.c ****   *         Issue Get Device Descriptor command to the device. Once the response
  98:Middlewares/ST/STM32_USB_Host_Library/Core/Src/usbh_ctlreq.c ****   *         received, it parses the device descriptor and updates the status.
  99:Middlewares/ST/STM32_USB_Host_Library/Core/Src/usbh_ctlreq.c ****   * @param  phost: Host Handle
 100:Middlewares/ST/STM32_USB_Host_Library/Core/Src/usbh_ctlreq.c ****   * @param  length: Length of the descriptor
 101:Middlewares/ST/STM32_USB_Host_Library/Core/Src/usbh_ctlreq.c ****   * @retval USBH Status
 102:Middlewares/ST/STM32_USB_Host_Library/Core/Src/usbh_ctlreq.c ****   */
 103:Middlewares/ST/STM32_USB_Host_Library/Core/Src/usbh_ctlreq.c **** USBH_StatusTypeDef USBH_Get_DevDesc(USBH_HandleTypeDef *phost, uint8_t length)
 104:Middlewares/ST/STM32_USB_Host_Library/Core/Src/usbh_ctlreq.c **** {
 105:Middlewares/ST/STM32_USB_Host_Library/Core/Src/usbh_ctlreq.c ****   USBH_StatusTypeDef status;
 106:Middlewares/ST/STM32_USB_Host_Library/Core/Src/usbh_ctlreq.c **** 
 107:Middlewares/ST/STM32_USB_Host_Library/Core/Src/usbh_ctlreq.c ****   if ((status = USBH_GetDescriptor(phost,
 108:Middlewares/ST/STM32_USB_Host_Library/Core/Src/usbh_ctlreq.c ****                                    USB_REQ_RECIPIENT_DEVICE | USB_REQ_TYPE_STANDARD,
 109:Middlewares/ST/STM32_USB_Host_Library/Core/Src/usbh_ctlreq.c ****                                    USB_DESC_DEVICE, phost->device.Data,
 110:Middlewares/ST/STM32_USB_Host_Library/Core/Src/usbh_ctlreq.c ****                                    (uint16_t)length)) == USBH_OK)
 111:Middlewares/ST/STM32_USB_Host_Library/Core/Src/usbh_ctlreq.c ****   {
 112:Middlewares/ST/STM32_USB_Host_Library/Core/Src/usbh_ctlreq.c ****     /* Commands successfully sent and Response Received */
 113:Middlewares/ST/STM32_USB_Host_Library/Core/Src/usbh_ctlreq.c ****     USBH_ParseDevDesc(&phost->device.DevDesc, phost->device.Data,
 114:Middlewares/ST/STM32_USB_Host_Library/Core/Src/usbh_ctlreq.c ****                       (uint16_t)length);
 115:Middlewares/ST/STM32_USB_Host_Library/Core/Src/usbh_ctlreq.c ****   }
 116:Middlewares/ST/STM32_USB_Host_Library/Core/Src/usbh_ctlreq.c **** 
 117:Middlewares/ST/STM32_USB_Host_Library/Core/Src/usbh_ctlreq.c ****   return status;
 118:Middlewares/ST/STM32_USB_Host_Library/Core/Src/usbh_ctlreq.c **** }
 119:Middlewares/ST/STM32_USB_Host_Library/Core/Src/usbh_ctlreq.c **** 
 120:Middlewares/ST/STM32_USB_Host_Library/Core/Src/usbh_ctlreq.c **** 
 121:Middlewares/ST/STM32_USB_Host_Library/Core/Src/usbh_ctlreq.c **** /**
 122:Middlewares/ST/STM32_USB_Host_Library/Core/Src/usbh_ctlreq.c ****   * @brief  USBH_Get_CfgDesc
 123:Middlewares/ST/STM32_USB_Host_Library/Core/Src/usbh_ctlreq.c ****   *         Issues Configuration Descriptor to the device. Once the response
 124:Middlewares/ST/STM32_USB_Host_Library/Core/Src/usbh_ctlreq.c ****   *         received, it parses the configuration descriptor and updates the
 125:Middlewares/ST/STM32_USB_Host_Library/Core/Src/usbh_ctlreq.c ****   *         status.
 126:Middlewares/ST/STM32_USB_Host_Library/Core/Src/usbh_ctlreq.c ****   * @param  phost: Host Handle
 127:Middlewares/ST/STM32_USB_Host_Library/Core/Src/usbh_ctlreq.c ****   * @param  length: Length of the descriptor
 128:Middlewares/ST/STM32_USB_Host_Library/Core/Src/usbh_ctlreq.c ****   * @retval USBH Status
 129:Middlewares/ST/STM32_USB_Host_Library/Core/Src/usbh_ctlreq.c ****   */
 130:Middlewares/ST/STM32_USB_Host_Library/Core/Src/usbh_ctlreq.c **** USBH_StatusTypeDef USBH_Get_CfgDesc(USBH_HandleTypeDef *phost,
 131:Middlewares/ST/STM32_USB_Host_Library/Core/Src/usbh_ctlreq.c ****                                     uint16_t length)
 132:Middlewares/ST/STM32_USB_Host_Library/Core/Src/usbh_ctlreq.c **** 
 133:Middlewares/ST/STM32_USB_Host_Library/Core/Src/usbh_ctlreq.c **** {
 134:Middlewares/ST/STM32_USB_Host_Library/Core/Src/usbh_ctlreq.c ****   USBH_StatusTypeDef status;
 135:Middlewares/ST/STM32_USB_Host_Library/Core/Src/usbh_ctlreq.c ****   uint8_t *pData;
 136:Middlewares/ST/STM32_USB_Host_Library/Core/Src/usbh_ctlreq.c **** 
 137:Middlewares/ST/STM32_USB_Host_Library/Core/Src/usbh_ctlreq.c **** #if (USBH_KEEP_CFG_DESCRIPTOR == 1U)
 138:Middlewares/ST/STM32_USB_Host_Library/Core/Src/usbh_ctlreq.c ****   pData = phost->device.CfgDesc_Raw;
 139:Middlewares/ST/STM32_USB_Host_Library/Core/Src/usbh_ctlreq.c **** #else
 140:Middlewares/ST/STM32_USB_Host_Library/Core/Src/usbh_ctlreq.c ****   pData = phost->device.Data;
 141:Middlewares/ST/STM32_USB_Host_Library/Core/Src/usbh_ctlreq.c **** #endif
 142:Middlewares/ST/STM32_USB_Host_Library/Core/Src/usbh_ctlreq.c ****   if ((status = USBH_GetDescriptor(phost, (USB_REQ_RECIPIENT_DEVICE | USB_REQ_TYPE_STANDARD),
 143:Middlewares/ST/STM32_USB_Host_Library/Core/Src/usbh_ctlreq.c ****                                    USB_DESC_CONFIGURATION, pData, length)) == USBH_OK)
 144:Middlewares/ST/STM32_USB_Host_Library/Core/Src/usbh_ctlreq.c ****   {
 145:Middlewares/ST/STM32_USB_Host_Library/Core/Src/usbh_ctlreq.c ****     /* Commands successfully sent and Response Received  */
 146:Middlewares/ST/STM32_USB_Host_Library/Core/Src/usbh_ctlreq.c ****     USBH_ParseCfgDesc(&phost->device.CfgDesc, pData, length);
ARM GAS  /tmp/ccskp59e.s 			page 4


 147:Middlewares/ST/STM32_USB_Host_Library/Core/Src/usbh_ctlreq.c ****   }
 148:Middlewares/ST/STM32_USB_Host_Library/Core/Src/usbh_ctlreq.c **** 
 149:Middlewares/ST/STM32_USB_Host_Library/Core/Src/usbh_ctlreq.c ****   return status;
 150:Middlewares/ST/STM32_USB_Host_Library/Core/Src/usbh_ctlreq.c **** }
 151:Middlewares/ST/STM32_USB_Host_Library/Core/Src/usbh_ctlreq.c **** 
 152:Middlewares/ST/STM32_USB_Host_Library/Core/Src/usbh_ctlreq.c **** 
 153:Middlewares/ST/STM32_USB_Host_Library/Core/Src/usbh_ctlreq.c **** /**
 154:Middlewares/ST/STM32_USB_Host_Library/Core/Src/usbh_ctlreq.c ****   * @brief  USBH_Get_StringDesc
 155:Middlewares/ST/STM32_USB_Host_Library/Core/Src/usbh_ctlreq.c ****   *         Issues string Descriptor command to the device. Once the response
 156:Middlewares/ST/STM32_USB_Host_Library/Core/Src/usbh_ctlreq.c ****   *         received, it parses the string descriptor and updates the status.
 157:Middlewares/ST/STM32_USB_Host_Library/Core/Src/usbh_ctlreq.c ****   * @param  phost: Host Handle
 158:Middlewares/ST/STM32_USB_Host_Library/Core/Src/usbh_ctlreq.c ****   * @param  string_index: String index for the descriptor
 159:Middlewares/ST/STM32_USB_Host_Library/Core/Src/usbh_ctlreq.c ****   * @param  buff: Buffer address for the descriptor
 160:Middlewares/ST/STM32_USB_Host_Library/Core/Src/usbh_ctlreq.c ****   * @param  length: Length of the descriptor
 161:Middlewares/ST/STM32_USB_Host_Library/Core/Src/usbh_ctlreq.c ****   * @retval USBH Status
 162:Middlewares/ST/STM32_USB_Host_Library/Core/Src/usbh_ctlreq.c ****   */
 163:Middlewares/ST/STM32_USB_Host_Library/Core/Src/usbh_ctlreq.c **** USBH_StatusTypeDef USBH_Get_StringDesc(USBH_HandleTypeDef *phost,
 164:Middlewares/ST/STM32_USB_Host_Library/Core/Src/usbh_ctlreq.c ****                                        uint8_t string_index, uint8_t *buff,
 165:Middlewares/ST/STM32_USB_Host_Library/Core/Src/usbh_ctlreq.c ****                                        uint16_t length)
 166:Middlewares/ST/STM32_USB_Host_Library/Core/Src/usbh_ctlreq.c **** {
 167:Middlewares/ST/STM32_USB_Host_Library/Core/Src/usbh_ctlreq.c ****   USBH_StatusTypeDef status;
 168:Middlewares/ST/STM32_USB_Host_Library/Core/Src/usbh_ctlreq.c **** 
 169:Middlewares/ST/STM32_USB_Host_Library/Core/Src/usbh_ctlreq.c ****   if ((status = USBH_GetDescriptor(phost,
 170:Middlewares/ST/STM32_USB_Host_Library/Core/Src/usbh_ctlreq.c ****                                    USB_REQ_RECIPIENT_DEVICE | USB_REQ_TYPE_STANDARD,
 171:Middlewares/ST/STM32_USB_Host_Library/Core/Src/usbh_ctlreq.c ****                                    USB_DESC_STRING | string_index,
 172:Middlewares/ST/STM32_USB_Host_Library/Core/Src/usbh_ctlreq.c ****                                    phost->device.Data, length)) == USBH_OK)
 173:Middlewares/ST/STM32_USB_Host_Library/Core/Src/usbh_ctlreq.c ****   {
 174:Middlewares/ST/STM32_USB_Host_Library/Core/Src/usbh_ctlreq.c ****     /* Commands successfully sent and Response Received  */
 175:Middlewares/ST/STM32_USB_Host_Library/Core/Src/usbh_ctlreq.c ****     USBH_ParseStringDesc(phost->device.Data, buff, length);
 176:Middlewares/ST/STM32_USB_Host_Library/Core/Src/usbh_ctlreq.c ****   }
 177:Middlewares/ST/STM32_USB_Host_Library/Core/Src/usbh_ctlreq.c **** 
 178:Middlewares/ST/STM32_USB_Host_Library/Core/Src/usbh_ctlreq.c ****   return status;
 179:Middlewares/ST/STM32_USB_Host_Library/Core/Src/usbh_ctlreq.c **** }
 180:Middlewares/ST/STM32_USB_Host_Library/Core/Src/usbh_ctlreq.c **** 
 181:Middlewares/ST/STM32_USB_Host_Library/Core/Src/usbh_ctlreq.c **** 
 182:Middlewares/ST/STM32_USB_Host_Library/Core/Src/usbh_ctlreq.c **** /**
 183:Middlewares/ST/STM32_USB_Host_Library/Core/Src/usbh_ctlreq.c ****   * @brief  USBH_GetDescriptor
 184:Middlewares/ST/STM32_USB_Host_Library/Core/Src/usbh_ctlreq.c ****   *         Issues Descriptor command to the device. Once the response received,
 185:Middlewares/ST/STM32_USB_Host_Library/Core/Src/usbh_ctlreq.c ****   *         it parses the descriptor and updates the status.
 186:Middlewares/ST/STM32_USB_Host_Library/Core/Src/usbh_ctlreq.c ****   * @param  phost: Host Handle
 187:Middlewares/ST/STM32_USB_Host_Library/Core/Src/usbh_ctlreq.c ****   * @param  req_type: Descriptor type
 188:Middlewares/ST/STM32_USB_Host_Library/Core/Src/usbh_ctlreq.c ****   * @param  value_idx: Value for the GetDescriptr request
 189:Middlewares/ST/STM32_USB_Host_Library/Core/Src/usbh_ctlreq.c ****   * @param  buff: Buffer to store the descriptor
 190:Middlewares/ST/STM32_USB_Host_Library/Core/Src/usbh_ctlreq.c ****   * @param  length: Length of the descriptor
 191:Middlewares/ST/STM32_USB_Host_Library/Core/Src/usbh_ctlreq.c ****   * @retval USBH Status
 192:Middlewares/ST/STM32_USB_Host_Library/Core/Src/usbh_ctlreq.c ****   */
 193:Middlewares/ST/STM32_USB_Host_Library/Core/Src/usbh_ctlreq.c **** USBH_StatusTypeDef USBH_GetDescriptor(USBH_HandleTypeDef *phost,
 194:Middlewares/ST/STM32_USB_Host_Library/Core/Src/usbh_ctlreq.c ****                                       uint8_t  req_type,
 195:Middlewares/ST/STM32_USB_Host_Library/Core/Src/usbh_ctlreq.c ****                                       uint16_t value_idx,
 196:Middlewares/ST/STM32_USB_Host_Library/Core/Src/usbh_ctlreq.c ****                                       uint8_t *buff,
 197:Middlewares/ST/STM32_USB_Host_Library/Core/Src/usbh_ctlreq.c ****                                       uint16_t length)
 198:Middlewares/ST/STM32_USB_Host_Library/Core/Src/usbh_ctlreq.c **** {
 199:Middlewares/ST/STM32_USB_Host_Library/Core/Src/usbh_ctlreq.c ****   if (phost->RequestState == CMD_SEND)
 200:Middlewares/ST/STM32_USB_Host_Library/Core/Src/usbh_ctlreq.c ****   {
 201:Middlewares/ST/STM32_USB_Host_Library/Core/Src/usbh_ctlreq.c ****     phost->Control.setup.b.bmRequestType = USB_D2H | req_type;
 202:Middlewares/ST/STM32_USB_Host_Library/Core/Src/usbh_ctlreq.c ****     phost->Control.setup.b.bRequest = USB_REQ_GET_DESCRIPTOR;
 203:Middlewares/ST/STM32_USB_Host_Library/Core/Src/usbh_ctlreq.c ****     phost->Control.setup.b.wValue.w = value_idx;
ARM GAS  /tmp/ccskp59e.s 			page 5


 204:Middlewares/ST/STM32_USB_Host_Library/Core/Src/usbh_ctlreq.c **** 
 205:Middlewares/ST/STM32_USB_Host_Library/Core/Src/usbh_ctlreq.c ****     if ((value_idx & 0xff00U) == USB_DESC_STRING)
 206:Middlewares/ST/STM32_USB_Host_Library/Core/Src/usbh_ctlreq.c ****     {
 207:Middlewares/ST/STM32_USB_Host_Library/Core/Src/usbh_ctlreq.c ****       phost->Control.setup.b.wIndex.w = 0x0409U;
 208:Middlewares/ST/STM32_USB_Host_Library/Core/Src/usbh_ctlreq.c ****     }
 209:Middlewares/ST/STM32_USB_Host_Library/Core/Src/usbh_ctlreq.c ****     else
 210:Middlewares/ST/STM32_USB_Host_Library/Core/Src/usbh_ctlreq.c ****     {
 211:Middlewares/ST/STM32_USB_Host_Library/Core/Src/usbh_ctlreq.c ****       phost->Control.setup.b.wIndex.w = 0U;
 212:Middlewares/ST/STM32_USB_Host_Library/Core/Src/usbh_ctlreq.c ****     }
 213:Middlewares/ST/STM32_USB_Host_Library/Core/Src/usbh_ctlreq.c ****     phost->Control.setup.b.wLength.w = length;
 214:Middlewares/ST/STM32_USB_Host_Library/Core/Src/usbh_ctlreq.c ****   }
 215:Middlewares/ST/STM32_USB_Host_Library/Core/Src/usbh_ctlreq.c **** 
 216:Middlewares/ST/STM32_USB_Host_Library/Core/Src/usbh_ctlreq.c ****   return USBH_CtlReq(phost, buff, length);
 217:Middlewares/ST/STM32_USB_Host_Library/Core/Src/usbh_ctlreq.c **** }
 218:Middlewares/ST/STM32_USB_Host_Library/Core/Src/usbh_ctlreq.c **** 
 219:Middlewares/ST/STM32_USB_Host_Library/Core/Src/usbh_ctlreq.c **** 
 220:Middlewares/ST/STM32_USB_Host_Library/Core/Src/usbh_ctlreq.c **** /**
 221:Middlewares/ST/STM32_USB_Host_Library/Core/Src/usbh_ctlreq.c ****   * @brief  USBH_SetAddress
 222:Middlewares/ST/STM32_USB_Host_Library/Core/Src/usbh_ctlreq.c ****   *         This command sets the address to the connected device
 223:Middlewares/ST/STM32_USB_Host_Library/Core/Src/usbh_ctlreq.c ****   * @param  phost: Host Handle
 224:Middlewares/ST/STM32_USB_Host_Library/Core/Src/usbh_ctlreq.c ****   * @param  DeviceAddress: Device address to assign
 225:Middlewares/ST/STM32_USB_Host_Library/Core/Src/usbh_ctlreq.c ****   * @retval USBH Status
 226:Middlewares/ST/STM32_USB_Host_Library/Core/Src/usbh_ctlreq.c ****   */
 227:Middlewares/ST/STM32_USB_Host_Library/Core/Src/usbh_ctlreq.c **** USBH_StatusTypeDef USBH_SetAddress(USBH_HandleTypeDef *phost,
 228:Middlewares/ST/STM32_USB_Host_Library/Core/Src/usbh_ctlreq.c ****                                    uint8_t DeviceAddress)
 229:Middlewares/ST/STM32_USB_Host_Library/Core/Src/usbh_ctlreq.c **** {
 230:Middlewares/ST/STM32_USB_Host_Library/Core/Src/usbh_ctlreq.c ****   if (phost->RequestState == CMD_SEND)
 231:Middlewares/ST/STM32_USB_Host_Library/Core/Src/usbh_ctlreq.c ****   {
 232:Middlewares/ST/STM32_USB_Host_Library/Core/Src/usbh_ctlreq.c ****     phost->Control.setup.b.bmRequestType = USB_H2D | USB_REQ_RECIPIENT_DEVICE | \
 233:Middlewares/ST/STM32_USB_Host_Library/Core/Src/usbh_ctlreq.c ****                                            USB_REQ_TYPE_STANDARD;
 234:Middlewares/ST/STM32_USB_Host_Library/Core/Src/usbh_ctlreq.c **** 
 235:Middlewares/ST/STM32_USB_Host_Library/Core/Src/usbh_ctlreq.c ****     phost->Control.setup.b.bRequest = USB_REQ_SET_ADDRESS;
 236:Middlewares/ST/STM32_USB_Host_Library/Core/Src/usbh_ctlreq.c **** 
 237:Middlewares/ST/STM32_USB_Host_Library/Core/Src/usbh_ctlreq.c ****     phost->Control.setup.b.wValue.w = (uint16_t)DeviceAddress;
 238:Middlewares/ST/STM32_USB_Host_Library/Core/Src/usbh_ctlreq.c ****     phost->Control.setup.b.wIndex.w = 0U;
 239:Middlewares/ST/STM32_USB_Host_Library/Core/Src/usbh_ctlreq.c ****     phost->Control.setup.b.wLength.w = 0U;
 240:Middlewares/ST/STM32_USB_Host_Library/Core/Src/usbh_ctlreq.c ****   }
 241:Middlewares/ST/STM32_USB_Host_Library/Core/Src/usbh_ctlreq.c **** 
 242:Middlewares/ST/STM32_USB_Host_Library/Core/Src/usbh_ctlreq.c ****   return USBH_CtlReq(phost, 0U, 0U);
 243:Middlewares/ST/STM32_USB_Host_Library/Core/Src/usbh_ctlreq.c **** }
 244:Middlewares/ST/STM32_USB_Host_Library/Core/Src/usbh_ctlreq.c **** 
 245:Middlewares/ST/STM32_USB_Host_Library/Core/Src/usbh_ctlreq.c **** 
 246:Middlewares/ST/STM32_USB_Host_Library/Core/Src/usbh_ctlreq.c **** /**
 247:Middlewares/ST/STM32_USB_Host_Library/Core/Src/usbh_ctlreq.c ****   * @brief  USBH_SetCfg
 248:Middlewares/ST/STM32_USB_Host_Library/Core/Src/usbh_ctlreq.c ****   *         The command sets the configuration value to the connected device
 249:Middlewares/ST/STM32_USB_Host_Library/Core/Src/usbh_ctlreq.c ****   * @param  phost: Host Handle
 250:Middlewares/ST/STM32_USB_Host_Library/Core/Src/usbh_ctlreq.c ****   * @param  cfg_idx: Configuration value
 251:Middlewares/ST/STM32_USB_Host_Library/Core/Src/usbh_ctlreq.c ****   * @retval USBH Status
 252:Middlewares/ST/STM32_USB_Host_Library/Core/Src/usbh_ctlreq.c ****   */
 253:Middlewares/ST/STM32_USB_Host_Library/Core/Src/usbh_ctlreq.c **** USBH_StatusTypeDef USBH_SetCfg(USBH_HandleTypeDef *phost, uint16_t cfg_idx)
 254:Middlewares/ST/STM32_USB_Host_Library/Core/Src/usbh_ctlreq.c **** {
 255:Middlewares/ST/STM32_USB_Host_Library/Core/Src/usbh_ctlreq.c ****   if (phost->RequestState == CMD_SEND)
 256:Middlewares/ST/STM32_USB_Host_Library/Core/Src/usbh_ctlreq.c ****   {
 257:Middlewares/ST/STM32_USB_Host_Library/Core/Src/usbh_ctlreq.c ****     phost->Control.setup.b.bmRequestType = USB_H2D | USB_REQ_RECIPIENT_DEVICE
 258:Middlewares/ST/STM32_USB_Host_Library/Core/Src/usbh_ctlreq.c ****                                            | USB_REQ_TYPE_STANDARD;
 259:Middlewares/ST/STM32_USB_Host_Library/Core/Src/usbh_ctlreq.c **** 
 260:Middlewares/ST/STM32_USB_Host_Library/Core/Src/usbh_ctlreq.c ****     phost->Control.setup.b.bRequest = USB_REQ_SET_CONFIGURATION;
ARM GAS  /tmp/ccskp59e.s 			page 6


 261:Middlewares/ST/STM32_USB_Host_Library/Core/Src/usbh_ctlreq.c ****     phost->Control.setup.b.wValue.w = cfg_idx;
 262:Middlewares/ST/STM32_USB_Host_Library/Core/Src/usbh_ctlreq.c ****     phost->Control.setup.b.wIndex.w = 0U;
 263:Middlewares/ST/STM32_USB_Host_Library/Core/Src/usbh_ctlreq.c ****     phost->Control.setup.b.wLength.w = 0U;
 264:Middlewares/ST/STM32_USB_Host_Library/Core/Src/usbh_ctlreq.c ****   }
 265:Middlewares/ST/STM32_USB_Host_Library/Core/Src/usbh_ctlreq.c **** 
 266:Middlewares/ST/STM32_USB_Host_Library/Core/Src/usbh_ctlreq.c ****   return USBH_CtlReq(phost, 0U, 0U);
 267:Middlewares/ST/STM32_USB_Host_Library/Core/Src/usbh_ctlreq.c **** }
 268:Middlewares/ST/STM32_USB_Host_Library/Core/Src/usbh_ctlreq.c **** 
 269:Middlewares/ST/STM32_USB_Host_Library/Core/Src/usbh_ctlreq.c **** 
 270:Middlewares/ST/STM32_USB_Host_Library/Core/Src/usbh_ctlreq.c **** /**
 271:Middlewares/ST/STM32_USB_Host_Library/Core/Src/usbh_ctlreq.c ****   * @brief  USBH_SetInterface
 272:Middlewares/ST/STM32_USB_Host_Library/Core/Src/usbh_ctlreq.c ****   *         The command sets the Interface value to the connected device
 273:Middlewares/ST/STM32_USB_Host_Library/Core/Src/usbh_ctlreq.c ****   * @param  phost: Host Handle
 274:Middlewares/ST/STM32_USB_Host_Library/Core/Src/usbh_ctlreq.c ****   * @param  altSetting: Interface value
 275:Middlewares/ST/STM32_USB_Host_Library/Core/Src/usbh_ctlreq.c ****   * @retval USBH Status
 276:Middlewares/ST/STM32_USB_Host_Library/Core/Src/usbh_ctlreq.c ****   */
 277:Middlewares/ST/STM32_USB_Host_Library/Core/Src/usbh_ctlreq.c **** USBH_StatusTypeDef USBH_SetInterface(USBH_HandleTypeDef *phost, uint8_t ep_num,
 278:Middlewares/ST/STM32_USB_Host_Library/Core/Src/usbh_ctlreq.c ****                                      uint8_t altSetting)
 279:Middlewares/ST/STM32_USB_Host_Library/Core/Src/usbh_ctlreq.c **** {
 280:Middlewares/ST/STM32_USB_Host_Library/Core/Src/usbh_ctlreq.c ****   if (phost->RequestState == CMD_SEND)
 281:Middlewares/ST/STM32_USB_Host_Library/Core/Src/usbh_ctlreq.c ****   {
 282:Middlewares/ST/STM32_USB_Host_Library/Core/Src/usbh_ctlreq.c ****     phost->Control.setup.b.bmRequestType = USB_H2D | USB_REQ_RECIPIENT_INTERFACE
 283:Middlewares/ST/STM32_USB_Host_Library/Core/Src/usbh_ctlreq.c ****                                            | USB_REQ_TYPE_STANDARD;
 284:Middlewares/ST/STM32_USB_Host_Library/Core/Src/usbh_ctlreq.c **** 
 285:Middlewares/ST/STM32_USB_Host_Library/Core/Src/usbh_ctlreq.c ****     phost->Control.setup.b.bRequest = USB_REQ_SET_INTERFACE;
 286:Middlewares/ST/STM32_USB_Host_Library/Core/Src/usbh_ctlreq.c ****     phost->Control.setup.b.wValue.w = altSetting;
 287:Middlewares/ST/STM32_USB_Host_Library/Core/Src/usbh_ctlreq.c ****     phost->Control.setup.b.wIndex.w = ep_num;
 288:Middlewares/ST/STM32_USB_Host_Library/Core/Src/usbh_ctlreq.c ****     phost->Control.setup.b.wLength.w = 0U;
 289:Middlewares/ST/STM32_USB_Host_Library/Core/Src/usbh_ctlreq.c ****   }
 290:Middlewares/ST/STM32_USB_Host_Library/Core/Src/usbh_ctlreq.c **** 
 291:Middlewares/ST/STM32_USB_Host_Library/Core/Src/usbh_ctlreq.c ****   return USBH_CtlReq(phost, 0U, 0U);
 292:Middlewares/ST/STM32_USB_Host_Library/Core/Src/usbh_ctlreq.c **** }
 293:Middlewares/ST/STM32_USB_Host_Library/Core/Src/usbh_ctlreq.c **** 
 294:Middlewares/ST/STM32_USB_Host_Library/Core/Src/usbh_ctlreq.c **** 
 295:Middlewares/ST/STM32_USB_Host_Library/Core/Src/usbh_ctlreq.c **** /**
 296:Middlewares/ST/STM32_USB_Host_Library/Core/Src/usbh_ctlreq.c ****   * @brief  USBH_SetFeature
 297:Middlewares/ST/STM32_USB_Host_Library/Core/Src/usbh_ctlreq.c ****   *         The command sets the device features (remote wakeup feature,..)
 298:Middlewares/ST/STM32_USB_Host_Library/Core/Src/usbh_ctlreq.c ****   * @param  pdev: Selected device
 299:Middlewares/ST/STM32_USB_Host_Library/Core/Src/usbh_ctlreq.c ****   * @param  itf_idx
 300:Middlewares/ST/STM32_USB_Host_Library/Core/Src/usbh_ctlreq.c ****   * @retval Status
 301:Middlewares/ST/STM32_USB_Host_Library/Core/Src/usbh_ctlreq.c **** */
 302:Middlewares/ST/STM32_USB_Host_Library/Core/Src/usbh_ctlreq.c **** USBH_StatusTypeDef USBH_SetFeature(USBH_HandleTypeDef *phost, uint8_t wValue)
 303:Middlewares/ST/STM32_USB_Host_Library/Core/Src/usbh_ctlreq.c **** {
 304:Middlewares/ST/STM32_USB_Host_Library/Core/Src/usbh_ctlreq.c ****   if (phost->RequestState == CMD_SEND)
 305:Middlewares/ST/STM32_USB_Host_Library/Core/Src/usbh_ctlreq.c ****   {
 306:Middlewares/ST/STM32_USB_Host_Library/Core/Src/usbh_ctlreq.c ****     phost->Control.setup.b.bmRequestType = USB_H2D | USB_REQ_RECIPIENT_DEVICE
 307:Middlewares/ST/STM32_USB_Host_Library/Core/Src/usbh_ctlreq.c ****                                            | USB_REQ_TYPE_STANDARD;
 308:Middlewares/ST/STM32_USB_Host_Library/Core/Src/usbh_ctlreq.c **** 
 309:Middlewares/ST/STM32_USB_Host_Library/Core/Src/usbh_ctlreq.c ****     phost->Control.setup.b.bRequest = USB_REQ_SET_FEATURE;
 310:Middlewares/ST/STM32_USB_Host_Library/Core/Src/usbh_ctlreq.c ****     phost->Control.setup.b.wValue.w = wValue;
 311:Middlewares/ST/STM32_USB_Host_Library/Core/Src/usbh_ctlreq.c ****     phost->Control.setup.b.wIndex.w = 0U;
 312:Middlewares/ST/STM32_USB_Host_Library/Core/Src/usbh_ctlreq.c ****     phost->Control.setup.b.wLength.w = 0U;
 313:Middlewares/ST/STM32_USB_Host_Library/Core/Src/usbh_ctlreq.c ****   }
 314:Middlewares/ST/STM32_USB_Host_Library/Core/Src/usbh_ctlreq.c **** 
 315:Middlewares/ST/STM32_USB_Host_Library/Core/Src/usbh_ctlreq.c ****   return USBH_CtlReq(phost, 0U, 0U);
 316:Middlewares/ST/STM32_USB_Host_Library/Core/Src/usbh_ctlreq.c **** }
 317:Middlewares/ST/STM32_USB_Host_Library/Core/Src/usbh_ctlreq.c **** 
ARM GAS  /tmp/ccskp59e.s 			page 7


 318:Middlewares/ST/STM32_USB_Host_Library/Core/Src/usbh_ctlreq.c **** 
 319:Middlewares/ST/STM32_USB_Host_Library/Core/Src/usbh_ctlreq.c **** /**
 320:Middlewares/ST/STM32_USB_Host_Library/Core/Src/usbh_ctlreq.c ****   * @brief  USBH_ClrFeature
 321:Middlewares/ST/STM32_USB_Host_Library/Core/Src/usbh_ctlreq.c ****   *         This request is used to clear or disable a specific feature.
 322:Middlewares/ST/STM32_USB_Host_Library/Core/Src/usbh_ctlreq.c ****   * @param  phost: Host Handle
 323:Middlewares/ST/STM32_USB_Host_Library/Core/Src/usbh_ctlreq.c ****   * @param  ep_num: endpoint number
 324:Middlewares/ST/STM32_USB_Host_Library/Core/Src/usbh_ctlreq.c ****   * @param  hc_num: Host channel number
 325:Middlewares/ST/STM32_USB_Host_Library/Core/Src/usbh_ctlreq.c ****   * @retval USBH Status
 326:Middlewares/ST/STM32_USB_Host_Library/Core/Src/usbh_ctlreq.c ****   */
 327:Middlewares/ST/STM32_USB_Host_Library/Core/Src/usbh_ctlreq.c **** USBH_StatusTypeDef USBH_ClrFeature(USBH_HandleTypeDef *phost, uint8_t ep_num)
 328:Middlewares/ST/STM32_USB_Host_Library/Core/Src/usbh_ctlreq.c **** {
 329:Middlewares/ST/STM32_USB_Host_Library/Core/Src/usbh_ctlreq.c ****   if (phost->RequestState == CMD_SEND)
 330:Middlewares/ST/STM32_USB_Host_Library/Core/Src/usbh_ctlreq.c ****   {
 331:Middlewares/ST/STM32_USB_Host_Library/Core/Src/usbh_ctlreq.c ****     phost->Control.setup.b.bmRequestType = USB_H2D | USB_REQ_RECIPIENT_ENDPOINT
 332:Middlewares/ST/STM32_USB_Host_Library/Core/Src/usbh_ctlreq.c ****                                            | USB_REQ_TYPE_STANDARD;
 333:Middlewares/ST/STM32_USB_Host_Library/Core/Src/usbh_ctlreq.c **** 
 334:Middlewares/ST/STM32_USB_Host_Library/Core/Src/usbh_ctlreq.c ****     phost->Control.setup.b.bRequest = USB_REQ_CLEAR_FEATURE;
 335:Middlewares/ST/STM32_USB_Host_Library/Core/Src/usbh_ctlreq.c ****     phost->Control.setup.b.wValue.w = FEATURE_SELECTOR_ENDPOINT;
 336:Middlewares/ST/STM32_USB_Host_Library/Core/Src/usbh_ctlreq.c ****     phost->Control.setup.b.wIndex.w = ep_num;
 337:Middlewares/ST/STM32_USB_Host_Library/Core/Src/usbh_ctlreq.c ****     phost->Control.setup.b.wLength.w = 0U;
 338:Middlewares/ST/STM32_USB_Host_Library/Core/Src/usbh_ctlreq.c ****   }
 339:Middlewares/ST/STM32_USB_Host_Library/Core/Src/usbh_ctlreq.c ****   return USBH_CtlReq(phost, 0U, 0U);
 340:Middlewares/ST/STM32_USB_Host_Library/Core/Src/usbh_ctlreq.c **** }
 341:Middlewares/ST/STM32_USB_Host_Library/Core/Src/usbh_ctlreq.c **** 
 342:Middlewares/ST/STM32_USB_Host_Library/Core/Src/usbh_ctlreq.c **** 
 343:Middlewares/ST/STM32_USB_Host_Library/Core/Src/usbh_ctlreq.c **** /**
 344:Middlewares/ST/STM32_USB_Host_Library/Core/Src/usbh_ctlreq.c ****   * @brief  USBH_ParseDevDesc
 345:Middlewares/ST/STM32_USB_Host_Library/Core/Src/usbh_ctlreq.c ****   *         This function Parses the device descriptor
 346:Middlewares/ST/STM32_USB_Host_Library/Core/Src/usbh_ctlreq.c ****   * @param  dev_desc: device_descriptor destination address
 347:Middlewares/ST/STM32_USB_Host_Library/Core/Src/usbh_ctlreq.c ****   * @param  buf: Buffer where the source descriptor is available
 348:Middlewares/ST/STM32_USB_Host_Library/Core/Src/usbh_ctlreq.c ****   * @param  length: Length of the descriptor
 349:Middlewares/ST/STM32_USB_Host_Library/Core/Src/usbh_ctlreq.c ****   * @retval None
 350:Middlewares/ST/STM32_USB_Host_Library/Core/Src/usbh_ctlreq.c ****   */
 351:Middlewares/ST/STM32_USB_Host_Library/Core/Src/usbh_ctlreq.c **** static void  USBH_ParseDevDesc(USBH_DevDescTypeDef *dev_desc, uint8_t *buf,
 352:Middlewares/ST/STM32_USB_Host_Library/Core/Src/usbh_ctlreq.c ****                                uint16_t length)
 353:Middlewares/ST/STM32_USB_Host_Library/Core/Src/usbh_ctlreq.c **** {
  27              		.loc 1 353 1 view -0
  28              		.cfi_startproc
  29              		@ args = 0, pretend = 0, frame = 0
  30              		@ frame_needed = 0, uses_anonymous_args = 0
  31              		@ link register save eliminated.
  32              		.loc 1 353 1 is_stmt 0 view .LVU1
  33 0000 10B4     		push	{r4}
  34              	.LCFI0:
  35              		.cfi_def_cfa_offset 4
  36              		.cfi_offset 4, -4
 354:Middlewares/ST/STM32_USB_Host_Library/Core/Src/usbh_ctlreq.c ****   dev_desc->bLength            = *(uint8_t *)(buf +  0);
  37              		.loc 1 354 3 is_stmt 1 view .LVU2
  38              		.loc 1 354 34 is_stmt 0 view .LVU3
  39 0002 0B78     		ldrb	r3, [r1]	@ zero_extendqisi2
  40              		.loc 1 354 32 view .LVU4
  41 0004 0370     		strb	r3, [r0]
 355:Middlewares/ST/STM32_USB_Host_Library/Core/Src/usbh_ctlreq.c ****   dev_desc->bDescriptorType    = *(uint8_t *)(buf +  1);
  42              		.loc 1 355 3 is_stmt 1 view .LVU5
  43              		.loc 1 355 32 is_stmt 0 view .LVU6
  44 0006 4B78     		ldrb	r3, [r1, #1]	@ zero_extendqisi2
  45 0008 4370     		strb	r3, [r0, #1]
ARM GAS  /tmp/ccskp59e.s 			page 8


 356:Middlewares/ST/STM32_USB_Host_Library/Core/Src/usbh_ctlreq.c ****   dev_desc->bcdUSB             = LE16(buf +  2);
  46              		.loc 1 356 3 is_stmt 1 view .LVU7
  47              		.loc 1 356 34 is_stmt 0 view .LVU8
  48 000a 8B78     		ldrb	r3, [r1, #2]	@ zero_extendqisi2
  49 000c CC78     		ldrb	r4, [r1, #3]	@ zero_extendqisi2
  50 000e 43EA0423 		orr	r3, r3, r4, lsl #8
  51              		.loc 1 356 32 view .LVU9
  52 0012 4380     		strh	r3, [r0, #2]	@ movhi
 357:Middlewares/ST/STM32_USB_Host_Library/Core/Src/usbh_ctlreq.c ****   dev_desc->bDeviceClass       = *(uint8_t *)(buf +  4);
  53              		.loc 1 357 3 is_stmt 1 view .LVU10
  54              		.loc 1 357 32 is_stmt 0 view .LVU11
  55 0014 0B79     		ldrb	r3, [r1, #4]	@ zero_extendqisi2
  56 0016 0371     		strb	r3, [r0, #4]
 358:Middlewares/ST/STM32_USB_Host_Library/Core/Src/usbh_ctlreq.c ****   dev_desc->bDeviceSubClass    = *(uint8_t *)(buf +  5);
  57              		.loc 1 358 3 is_stmt 1 view .LVU12
  58              		.loc 1 358 32 is_stmt 0 view .LVU13
  59 0018 4B79     		ldrb	r3, [r1, #5]	@ zero_extendqisi2
  60 001a 4371     		strb	r3, [r0, #5]
 359:Middlewares/ST/STM32_USB_Host_Library/Core/Src/usbh_ctlreq.c ****   dev_desc->bDeviceProtocol    = *(uint8_t *)(buf +  6);
  61              		.loc 1 359 3 is_stmt 1 view .LVU14
  62              		.loc 1 359 32 is_stmt 0 view .LVU15
  63 001c 8B79     		ldrb	r3, [r1, #6]	@ zero_extendqisi2
  64 001e 8371     		strb	r3, [r0, #6]
 360:Middlewares/ST/STM32_USB_Host_Library/Core/Src/usbh_ctlreq.c ****   dev_desc->bMaxPacketSize     = *(uint8_t *)(buf +  7);
  65              		.loc 1 360 3 is_stmt 1 view .LVU16
  66              		.loc 1 360 32 is_stmt 0 view .LVU17
  67 0020 CB79     		ldrb	r3, [r1, #7]	@ zero_extendqisi2
  68 0022 C371     		strb	r3, [r0, #7]
 361:Middlewares/ST/STM32_USB_Host_Library/Core/Src/usbh_ctlreq.c **** 
 362:Middlewares/ST/STM32_USB_Host_Library/Core/Src/usbh_ctlreq.c ****   if (length > 8U)
  69              		.loc 1 362 3 is_stmt 1 view .LVU18
  70              		.loc 1 362 6 is_stmt 0 view .LVU19
  71 0024 082A     		cmp	r2, #8
  72 0026 16D9     		bls	.L1
 363:Middlewares/ST/STM32_USB_Host_Library/Core/Src/usbh_ctlreq.c ****   {
 364:Middlewares/ST/STM32_USB_Host_Library/Core/Src/usbh_ctlreq.c ****     /* For 1st time after device connection, Host may issue only 8 bytes for
 365:Middlewares/ST/STM32_USB_Host_Library/Core/Src/usbh_ctlreq.c ****     Device Descriptor Length  */
 366:Middlewares/ST/STM32_USB_Host_Library/Core/Src/usbh_ctlreq.c ****     dev_desc->idVendor           = LE16(buf +  8);
  73              		.loc 1 366 5 is_stmt 1 view .LVU20
  74              		.loc 1 366 36 is_stmt 0 view .LVU21
  75 0028 0B7A     		ldrb	r3, [r1, #8]	@ zero_extendqisi2
  76 002a 4A7A     		ldrb	r2, [r1, #9]	@ zero_extendqisi2
  77              	.LVL1:
  78              		.loc 1 366 36 view .LVU22
  79 002c 43EA0223 		orr	r3, r3, r2, lsl #8
  80              		.loc 1 366 34 view .LVU23
  81 0030 0381     		strh	r3, [r0, #8]	@ movhi
 367:Middlewares/ST/STM32_USB_Host_Library/Core/Src/usbh_ctlreq.c ****     dev_desc->idProduct          = LE16(buf + 10);
  82              		.loc 1 367 5 is_stmt 1 view .LVU24
  83              		.loc 1 367 36 is_stmt 0 view .LVU25
  84 0032 8B7A     		ldrb	r3, [r1, #10]	@ zero_extendqisi2
  85 0034 CA7A     		ldrb	r2, [r1, #11]	@ zero_extendqisi2
  86 0036 43EA0223 		orr	r3, r3, r2, lsl #8
  87              		.loc 1 367 34 view .LVU26
  88 003a 4381     		strh	r3, [r0, #10]	@ movhi
 368:Middlewares/ST/STM32_USB_Host_Library/Core/Src/usbh_ctlreq.c ****     dev_desc->bcdDevice          = LE16(buf + 12);
  89              		.loc 1 368 5 is_stmt 1 view .LVU27
ARM GAS  /tmp/ccskp59e.s 			page 9


  90              		.loc 1 368 36 is_stmt 0 view .LVU28
  91 003c 0B7B     		ldrb	r3, [r1, #12]	@ zero_extendqisi2
  92 003e 4A7B     		ldrb	r2, [r1, #13]	@ zero_extendqisi2
  93 0040 43EA0223 		orr	r3, r3, r2, lsl #8
  94              		.loc 1 368 34 view .LVU29
  95 0044 8381     		strh	r3, [r0, #12]	@ movhi
 369:Middlewares/ST/STM32_USB_Host_Library/Core/Src/usbh_ctlreq.c ****     dev_desc->iManufacturer      = *(uint8_t *)(buf + 14);
  96              		.loc 1 369 5 is_stmt 1 view .LVU30
  97              		.loc 1 369 34 is_stmt 0 view .LVU31
  98 0046 8B7B     		ldrb	r3, [r1, #14]	@ zero_extendqisi2
  99 0048 8373     		strb	r3, [r0, #14]
 370:Middlewares/ST/STM32_USB_Host_Library/Core/Src/usbh_ctlreq.c ****     dev_desc->iProduct           = *(uint8_t *)(buf + 15);
 100              		.loc 1 370 5 is_stmt 1 view .LVU32
 101              		.loc 1 370 34 is_stmt 0 view .LVU33
 102 004a CB7B     		ldrb	r3, [r1, #15]	@ zero_extendqisi2
 103 004c C373     		strb	r3, [r0, #15]
 371:Middlewares/ST/STM32_USB_Host_Library/Core/Src/usbh_ctlreq.c ****     dev_desc->iSerialNumber      = *(uint8_t *)(buf + 16);
 104              		.loc 1 371 5 is_stmt 1 view .LVU34
 105              		.loc 1 371 34 is_stmt 0 view .LVU35
 106 004e 0B7C     		ldrb	r3, [r1, #16]	@ zero_extendqisi2
 107 0050 0374     		strb	r3, [r0, #16]
 372:Middlewares/ST/STM32_USB_Host_Library/Core/Src/usbh_ctlreq.c ****     dev_desc->bNumConfigurations = *(uint8_t *)(buf + 17);
 108              		.loc 1 372 5 is_stmt 1 view .LVU36
 109              		.loc 1 372 34 is_stmt 0 view .LVU37
 110 0052 4B7C     		ldrb	r3, [r1, #17]	@ zero_extendqisi2
 111 0054 4374     		strb	r3, [r0, #17]
 112              	.L1:
 373:Middlewares/ST/STM32_USB_Host_Library/Core/Src/usbh_ctlreq.c ****   }
 374:Middlewares/ST/STM32_USB_Host_Library/Core/Src/usbh_ctlreq.c **** }
 113              		.loc 1 374 1 view .LVU38
 114 0056 10BC     		pop	{r4}
 115              	.LCFI1:
 116              		.cfi_restore 4
 117              		.cfi_def_cfa_offset 0
 118 0058 7047     		bx	lr
 119              		.cfi_endproc
 120              	.LFE77:
 122              		.section	.text.USBH_ParseInterfaceDesc,"ax",%progbits
 123              		.align	1
 124              		.syntax unified
 125              		.thumb
 126              		.thumb_func
 127              		.fpu softvfp
 129              	USBH_ParseInterfaceDesc:
 130              	.LVL2:
 131              	.LFB79:
 375:Middlewares/ST/STM32_USB_Host_Library/Core/Src/usbh_ctlreq.c **** 
 376:Middlewares/ST/STM32_USB_Host_Library/Core/Src/usbh_ctlreq.c **** 
 377:Middlewares/ST/STM32_USB_Host_Library/Core/Src/usbh_ctlreq.c **** /**
 378:Middlewares/ST/STM32_USB_Host_Library/Core/Src/usbh_ctlreq.c ****   * @brief  USBH_ParseCfgDesc
 379:Middlewares/ST/STM32_USB_Host_Library/Core/Src/usbh_ctlreq.c ****   *         This function Parses the configuration descriptor
 380:Middlewares/ST/STM32_USB_Host_Library/Core/Src/usbh_ctlreq.c ****   * @param  cfg_desc: Configuration Descriptor address
 381:Middlewares/ST/STM32_USB_Host_Library/Core/Src/usbh_ctlreq.c ****   * @param  buf: Buffer where the source descriptor is available
 382:Middlewares/ST/STM32_USB_Host_Library/Core/Src/usbh_ctlreq.c ****   * @param  length: Length of the descriptor
 383:Middlewares/ST/STM32_USB_Host_Library/Core/Src/usbh_ctlreq.c ****   * @retval None
 384:Middlewares/ST/STM32_USB_Host_Library/Core/Src/usbh_ctlreq.c ****   */
 385:Middlewares/ST/STM32_USB_Host_Library/Core/Src/usbh_ctlreq.c **** static void USBH_ParseCfgDesc(USBH_CfgDescTypeDef *cfg_desc, uint8_t *buf,
ARM GAS  /tmp/ccskp59e.s 			page 10


 386:Middlewares/ST/STM32_USB_Host_Library/Core/Src/usbh_ctlreq.c ****                               uint16_t length)
 387:Middlewares/ST/STM32_USB_Host_Library/Core/Src/usbh_ctlreq.c **** {
 388:Middlewares/ST/STM32_USB_Host_Library/Core/Src/usbh_ctlreq.c ****   USBH_InterfaceDescTypeDef    *pif ;
 389:Middlewares/ST/STM32_USB_Host_Library/Core/Src/usbh_ctlreq.c ****   USBH_EpDescTypeDef           *pep;
 390:Middlewares/ST/STM32_USB_Host_Library/Core/Src/usbh_ctlreq.c ****   USBH_DescHeader_t            *pdesc = (USBH_DescHeader_t *)(void *)buf;
 391:Middlewares/ST/STM32_USB_Host_Library/Core/Src/usbh_ctlreq.c ****   uint16_t                     ptr;
 392:Middlewares/ST/STM32_USB_Host_Library/Core/Src/usbh_ctlreq.c ****   uint8_t                      if_ix = 0U;
 393:Middlewares/ST/STM32_USB_Host_Library/Core/Src/usbh_ctlreq.c ****   uint8_t                      ep_ix = 0U;
 394:Middlewares/ST/STM32_USB_Host_Library/Core/Src/usbh_ctlreq.c **** 
 395:Middlewares/ST/STM32_USB_Host_Library/Core/Src/usbh_ctlreq.c ****   pdesc   = (USBH_DescHeader_t *)(void *)buf;
 396:Middlewares/ST/STM32_USB_Host_Library/Core/Src/usbh_ctlreq.c **** 
 397:Middlewares/ST/STM32_USB_Host_Library/Core/Src/usbh_ctlreq.c ****   /* Parse configuration descriptor */
 398:Middlewares/ST/STM32_USB_Host_Library/Core/Src/usbh_ctlreq.c ****   cfg_desc->bLength             = *(uint8_t *)(buf + 0);
 399:Middlewares/ST/STM32_USB_Host_Library/Core/Src/usbh_ctlreq.c ****   cfg_desc->bDescriptorType     = *(uint8_t *)(buf + 1);
 400:Middlewares/ST/STM32_USB_Host_Library/Core/Src/usbh_ctlreq.c ****   cfg_desc->wTotalLength        = LE16(buf + 2);
 401:Middlewares/ST/STM32_USB_Host_Library/Core/Src/usbh_ctlreq.c ****   cfg_desc->bNumInterfaces      = *(uint8_t *)(buf + 4);
 402:Middlewares/ST/STM32_USB_Host_Library/Core/Src/usbh_ctlreq.c ****   cfg_desc->bConfigurationValue = *(uint8_t *)(buf + 5);
 403:Middlewares/ST/STM32_USB_Host_Library/Core/Src/usbh_ctlreq.c ****   cfg_desc->iConfiguration      = *(uint8_t *)(buf + 6);
 404:Middlewares/ST/STM32_USB_Host_Library/Core/Src/usbh_ctlreq.c ****   cfg_desc->bmAttributes        = *(uint8_t *)(buf + 7);
 405:Middlewares/ST/STM32_USB_Host_Library/Core/Src/usbh_ctlreq.c ****   cfg_desc->bMaxPower           = *(uint8_t *)(buf + 8);
 406:Middlewares/ST/STM32_USB_Host_Library/Core/Src/usbh_ctlreq.c **** 
 407:Middlewares/ST/STM32_USB_Host_Library/Core/Src/usbh_ctlreq.c ****   if (length > USB_CONFIGURATION_DESC_SIZE)
 408:Middlewares/ST/STM32_USB_Host_Library/Core/Src/usbh_ctlreq.c ****   {
 409:Middlewares/ST/STM32_USB_Host_Library/Core/Src/usbh_ctlreq.c ****     ptr = USB_LEN_CFG_DESC;
 410:Middlewares/ST/STM32_USB_Host_Library/Core/Src/usbh_ctlreq.c ****     pif = (USBH_InterfaceDescTypeDef *)0;
 411:Middlewares/ST/STM32_USB_Host_Library/Core/Src/usbh_ctlreq.c **** 
 412:Middlewares/ST/STM32_USB_Host_Library/Core/Src/usbh_ctlreq.c ****     while ((if_ix < USBH_MAX_NUM_INTERFACES) && (ptr < cfg_desc->wTotalLength))
 413:Middlewares/ST/STM32_USB_Host_Library/Core/Src/usbh_ctlreq.c ****     {
 414:Middlewares/ST/STM32_USB_Host_Library/Core/Src/usbh_ctlreq.c ****       pdesc = USBH_GetNextDesc((uint8_t *)(void *)pdesc, &ptr);
 415:Middlewares/ST/STM32_USB_Host_Library/Core/Src/usbh_ctlreq.c ****       if (pdesc->bDescriptorType   == USB_DESC_TYPE_INTERFACE)
 416:Middlewares/ST/STM32_USB_Host_Library/Core/Src/usbh_ctlreq.c ****       {
 417:Middlewares/ST/STM32_USB_Host_Library/Core/Src/usbh_ctlreq.c ****         pif = &cfg_desc->Itf_Desc[if_ix];
 418:Middlewares/ST/STM32_USB_Host_Library/Core/Src/usbh_ctlreq.c ****         USBH_ParseInterfaceDesc(pif, (uint8_t *)(void *)pdesc);
 419:Middlewares/ST/STM32_USB_Host_Library/Core/Src/usbh_ctlreq.c **** 
 420:Middlewares/ST/STM32_USB_Host_Library/Core/Src/usbh_ctlreq.c ****         ep_ix = 0U;
 421:Middlewares/ST/STM32_USB_Host_Library/Core/Src/usbh_ctlreq.c ****         pep = (USBH_EpDescTypeDef *)0;
 422:Middlewares/ST/STM32_USB_Host_Library/Core/Src/usbh_ctlreq.c ****         while ((ep_ix < pif->bNumEndpoints) && (ptr < cfg_desc->wTotalLength))
 423:Middlewares/ST/STM32_USB_Host_Library/Core/Src/usbh_ctlreq.c ****         {
 424:Middlewares/ST/STM32_USB_Host_Library/Core/Src/usbh_ctlreq.c ****           pdesc = USBH_GetNextDesc((uint8_t *)(void *)pdesc, &ptr);
 425:Middlewares/ST/STM32_USB_Host_Library/Core/Src/usbh_ctlreq.c ****           if (pdesc->bDescriptorType   == USB_DESC_TYPE_ENDPOINT)
 426:Middlewares/ST/STM32_USB_Host_Library/Core/Src/usbh_ctlreq.c ****           {
 427:Middlewares/ST/STM32_USB_Host_Library/Core/Src/usbh_ctlreq.c ****             pep = &cfg_desc->Itf_Desc[if_ix].Ep_Desc[ep_ix];
 428:Middlewares/ST/STM32_USB_Host_Library/Core/Src/usbh_ctlreq.c ****             USBH_ParseEPDesc(pep, (uint8_t *)(void *)pdesc);
 429:Middlewares/ST/STM32_USB_Host_Library/Core/Src/usbh_ctlreq.c ****             ep_ix++;
 430:Middlewares/ST/STM32_USB_Host_Library/Core/Src/usbh_ctlreq.c ****           }
 431:Middlewares/ST/STM32_USB_Host_Library/Core/Src/usbh_ctlreq.c ****         }
 432:Middlewares/ST/STM32_USB_Host_Library/Core/Src/usbh_ctlreq.c ****         if_ix++;
 433:Middlewares/ST/STM32_USB_Host_Library/Core/Src/usbh_ctlreq.c ****       }
 434:Middlewares/ST/STM32_USB_Host_Library/Core/Src/usbh_ctlreq.c ****     }
 435:Middlewares/ST/STM32_USB_Host_Library/Core/Src/usbh_ctlreq.c ****   }
 436:Middlewares/ST/STM32_USB_Host_Library/Core/Src/usbh_ctlreq.c **** }
 437:Middlewares/ST/STM32_USB_Host_Library/Core/Src/usbh_ctlreq.c **** 
 438:Middlewares/ST/STM32_USB_Host_Library/Core/Src/usbh_ctlreq.c **** 
 439:Middlewares/ST/STM32_USB_Host_Library/Core/Src/usbh_ctlreq.c **** /**
 440:Middlewares/ST/STM32_USB_Host_Library/Core/Src/usbh_ctlreq.c ****   * @brief  USBH_ParseInterfaceDesc
 441:Middlewares/ST/STM32_USB_Host_Library/Core/Src/usbh_ctlreq.c ****   *         This function Parses the interface descriptor
 442:Middlewares/ST/STM32_USB_Host_Library/Core/Src/usbh_ctlreq.c ****   * @param  if_descriptor : Interface descriptor destination
ARM GAS  /tmp/ccskp59e.s 			page 11


 443:Middlewares/ST/STM32_USB_Host_Library/Core/Src/usbh_ctlreq.c ****   * @param  buf: Buffer where the descriptor data is available
 444:Middlewares/ST/STM32_USB_Host_Library/Core/Src/usbh_ctlreq.c ****   * @retval None
 445:Middlewares/ST/STM32_USB_Host_Library/Core/Src/usbh_ctlreq.c ****   */
 446:Middlewares/ST/STM32_USB_Host_Library/Core/Src/usbh_ctlreq.c **** static void  USBH_ParseInterfaceDesc(USBH_InterfaceDescTypeDef *if_descriptor,
 447:Middlewares/ST/STM32_USB_Host_Library/Core/Src/usbh_ctlreq.c ****                                      uint8_t *buf)
 448:Middlewares/ST/STM32_USB_Host_Library/Core/Src/usbh_ctlreq.c **** {
 132              		.loc 1 448 1 is_stmt 1 view -0
 133              		.cfi_startproc
 134              		@ args = 0, pretend = 0, frame = 0
 135              		@ frame_needed = 0, uses_anonymous_args = 0
 136              		@ link register save eliminated.
 449:Middlewares/ST/STM32_USB_Host_Library/Core/Src/usbh_ctlreq.c ****   if_descriptor->bLength            = *(uint8_t *)(buf + 0);
 137              		.loc 1 449 3 view .LVU40
 138              		.loc 1 449 39 is_stmt 0 view .LVU41
 139 0000 0B78     		ldrb	r3, [r1]	@ zero_extendqisi2
 140              		.loc 1 449 37 view .LVU42
 141 0002 0370     		strb	r3, [r0]
 450:Middlewares/ST/STM32_USB_Host_Library/Core/Src/usbh_ctlreq.c ****   if_descriptor->bDescriptorType    = *(uint8_t *)(buf + 1);
 142              		.loc 1 450 3 is_stmt 1 view .LVU43
 143              		.loc 1 450 37 is_stmt 0 view .LVU44
 144 0004 4B78     		ldrb	r3, [r1, #1]	@ zero_extendqisi2
 145 0006 4370     		strb	r3, [r0, #1]
 451:Middlewares/ST/STM32_USB_Host_Library/Core/Src/usbh_ctlreq.c ****   if_descriptor->bInterfaceNumber   = *(uint8_t *)(buf + 2);
 146              		.loc 1 451 3 is_stmt 1 view .LVU45
 147              		.loc 1 451 37 is_stmt 0 view .LVU46
 148 0008 8B78     		ldrb	r3, [r1, #2]	@ zero_extendqisi2
 149 000a 8370     		strb	r3, [r0, #2]
 452:Middlewares/ST/STM32_USB_Host_Library/Core/Src/usbh_ctlreq.c ****   if_descriptor->bAlternateSetting  = *(uint8_t *)(buf + 3);
 150              		.loc 1 452 3 is_stmt 1 view .LVU47
 151              		.loc 1 452 37 is_stmt 0 view .LVU48
 152 000c CB78     		ldrb	r3, [r1, #3]	@ zero_extendqisi2
 153 000e C370     		strb	r3, [r0, #3]
 453:Middlewares/ST/STM32_USB_Host_Library/Core/Src/usbh_ctlreq.c ****   if_descriptor->bNumEndpoints      = *(uint8_t *)(buf + 4);
 154              		.loc 1 453 3 is_stmt 1 view .LVU49
 155              		.loc 1 453 37 is_stmt 0 view .LVU50
 156 0010 0B79     		ldrb	r3, [r1, #4]	@ zero_extendqisi2
 157 0012 0371     		strb	r3, [r0, #4]
 454:Middlewares/ST/STM32_USB_Host_Library/Core/Src/usbh_ctlreq.c ****   if_descriptor->bInterfaceClass    = *(uint8_t *)(buf + 5);
 158              		.loc 1 454 3 is_stmt 1 view .LVU51
 159              		.loc 1 454 37 is_stmt 0 view .LVU52
 160 0014 4B79     		ldrb	r3, [r1, #5]	@ zero_extendqisi2
 161 0016 4371     		strb	r3, [r0, #5]
 455:Middlewares/ST/STM32_USB_Host_Library/Core/Src/usbh_ctlreq.c ****   if_descriptor->bInterfaceSubClass = *(uint8_t *)(buf + 6);
 162              		.loc 1 455 3 is_stmt 1 view .LVU53
 163              		.loc 1 455 37 is_stmt 0 view .LVU54
 164 0018 8B79     		ldrb	r3, [r1, #6]	@ zero_extendqisi2
 165 001a 8371     		strb	r3, [r0, #6]
 456:Middlewares/ST/STM32_USB_Host_Library/Core/Src/usbh_ctlreq.c ****   if_descriptor->bInterfaceProtocol = *(uint8_t *)(buf + 7);
 166              		.loc 1 456 3 is_stmt 1 view .LVU55
 167              		.loc 1 456 37 is_stmt 0 view .LVU56
 168 001c CB79     		ldrb	r3, [r1, #7]	@ zero_extendqisi2
 169 001e C371     		strb	r3, [r0, #7]
 457:Middlewares/ST/STM32_USB_Host_Library/Core/Src/usbh_ctlreq.c ****   if_descriptor->iInterface         = *(uint8_t *)(buf + 8);
 170              		.loc 1 457 3 is_stmt 1 view .LVU57
 171              		.loc 1 457 37 is_stmt 0 view .LVU58
 172 0020 0B7A     		ldrb	r3, [r1, #8]	@ zero_extendqisi2
 173 0022 0372     		strb	r3, [r0, #8]
ARM GAS  /tmp/ccskp59e.s 			page 12


 458:Middlewares/ST/STM32_USB_Host_Library/Core/Src/usbh_ctlreq.c **** }
 174              		.loc 1 458 1 view .LVU59
 175 0024 7047     		bx	lr
 176              		.cfi_endproc
 177              	.LFE79:
 179              		.section	.text.USBH_ParseEPDesc,"ax",%progbits
 180              		.align	1
 181              		.syntax unified
 182              		.thumb
 183              		.thumb_func
 184              		.fpu softvfp
 186              	USBH_ParseEPDesc:
 187              	.LVL3:
 188              	.LFB80:
 459:Middlewares/ST/STM32_USB_Host_Library/Core/Src/usbh_ctlreq.c **** 
 460:Middlewares/ST/STM32_USB_Host_Library/Core/Src/usbh_ctlreq.c **** 
 461:Middlewares/ST/STM32_USB_Host_Library/Core/Src/usbh_ctlreq.c **** /**
 462:Middlewares/ST/STM32_USB_Host_Library/Core/Src/usbh_ctlreq.c ****   * @brief  USBH_ParseEPDesc
 463:Middlewares/ST/STM32_USB_Host_Library/Core/Src/usbh_ctlreq.c ****   *         This function Parses the endpoint descriptor
 464:Middlewares/ST/STM32_USB_Host_Library/Core/Src/usbh_ctlreq.c ****   * @param  ep_descriptor: Endpoint descriptor destination address
 465:Middlewares/ST/STM32_USB_Host_Library/Core/Src/usbh_ctlreq.c ****   * @param  buf: Buffer where the parsed descriptor stored
 466:Middlewares/ST/STM32_USB_Host_Library/Core/Src/usbh_ctlreq.c ****   * @retval None
 467:Middlewares/ST/STM32_USB_Host_Library/Core/Src/usbh_ctlreq.c ****   */
 468:Middlewares/ST/STM32_USB_Host_Library/Core/Src/usbh_ctlreq.c **** static void  USBH_ParseEPDesc(USBH_EpDescTypeDef  *ep_descriptor,
 469:Middlewares/ST/STM32_USB_Host_Library/Core/Src/usbh_ctlreq.c ****                               uint8_t *buf)
 470:Middlewares/ST/STM32_USB_Host_Library/Core/Src/usbh_ctlreq.c **** {
 189              		.loc 1 470 1 is_stmt 1 view -0
 190              		.cfi_startproc
 191              		@ args = 0, pretend = 0, frame = 0
 192              		@ frame_needed = 0, uses_anonymous_args = 0
 193              		@ link register save eliminated.
 471:Middlewares/ST/STM32_USB_Host_Library/Core/Src/usbh_ctlreq.c ****   ep_descriptor->bLength          = *(uint8_t *)(buf + 0);
 194              		.loc 1 471 3 view .LVU61
 195              		.loc 1 471 37 is_stmt 0 view .LVU62
 196 0000 0B78     		ldrb	r3, [r1]	@ zero_extendqisi2
 197              		.loc 1 471 35 view .LVU63
 198 0002 0370     		strb	r3, [r0]
 472:Middlewares/ST/STM32_USB_Host_Library/Core/Src/usbh_ctlreq.c ****   ep_descriptor->bDescriptorType  = *(uint8_t *)(buf + 1);
 199              		.loc 1 472 3 is_stmt 1 view .LVU64
 200              		.loc 1 472 35 is_stmt 0 view .LVU65
 201 0004 4B78     		ldrb	r3, [r1, #1]	@ zero_extendqisi2
 202 0006 4370     		strb	r3, [r0, #1]
 473:Middlewares/ST/STM32_USB_Host_Library/Core/Src/usbh_ctlreq.c ****   ep_descriptor->bEndpointAddress = *(uint8_t *)(buf + 2);
 203              		.loc 1 473 3 is_stmt 1 view .LVU66
 204              		.loc 1 473 35 is_stmt 0 view .LVU67
 205 0008 8B78     		ldrb	r3, [r1, #2]	@ zero_extendqisi2
 206 000a 8370     		strb	r3, [r0, #2]
 474:Middlewares/ST/STM32_USB_Host_Library/Core/Src/usbh_ctlreq.c ****   ep_descriptor->bmAttributes     = *(uint8_t *)(buf + 3);
 207              		.loc 1 474 3 is_stmt 1 view .LVU68
 208              		.loc 1 474 35 is_stmt 0 view .LVU69
 209 000c CB78     		ldrb	r3, [r1, #3]	@ zero_extendqisi2
 210 000e C370     		strb	r3, [r0, #3]
 475:Middlewares/ST/STM32_USB_Host_Library/Core/Src/usbh_ctlreq.c ****   ep_descriptor->wMaxPacketSize   = LE16(buf + 4);
 211              		.loc 1 475 3 is_stmt 1 view .LVU70
 212              		.loc 1 475 37 is_stmt 0 view .LVU71
 213 0010 0B79     		ldrb	r3, [r1, #4]	@ zero_extendqisi2
 214 0012 4A79     		ldrb	r2, [r1, #5]	@ zero_extendqisi2
ARM GAS  /tmp/ccskp59e.s 			page 13


 215 0014 43EA0223 		orr	r3, r3, r2, lsl #8
 216              		.loc 1 475 35 view .LVU72
 217 0018 8380     		strh	r3, [r0, #4]	@ movhi
 476:Middlewares/ST/STM32_USB_Host_Library/Core/Src/usbh_ctlreq.c ****   ep_descriptor->bInterval        = *(uint8_t *)(buf + 6);
 218              		.loc 1 476 3 is_stmt 1 view .LVU73
 219              		.loc 1 476 35 is_stmt 0 view .LVU74
 220 001a 8B79     		ldrb	r3, [r1, #6]	@ zero_extendqisi2
 221 001c 8371     		strb	r3, [r0, #6]
 477:Middlewares/ST/STM32_USB_Host_Library/Core/Src/usbh_ctlreq.c **** }
 222              		.loc 1 477 1 view .LVU75
 223 001e 7047     		bx	lr
 224              		.cfi_endproc
 225              	.LFE80:
 227              		.section	.text.USBH_ParseStringDesc,"ax",%progbits
 228              		.align	1
 229              		.syntax unified
 230              		.thumb
 231              		.thumb_func
 232              		.fpu softvfp
 234              	USBH_ParseStringDesc:
 235              	.LVL4:
 236              	.LFB81:
 478:Middlewares/ST/STM32_USB_Host_Library/Core/Src/usbh_ctlreq.c **** 
 479:Middlewares/ST/STM32_USB_Host_Library/Core/Src/usbh_ctlreq.c **** 
 480:Middlewares/ST/STM32_USB_Host_Library/Core/Src/usbh_ctlreq.c **** /**
 481:Middlewares/ST/STM32_USB_Host_Library/Core/Src/usbh_ctlreq.c ****   * @brief  USBH_ParseStringDesc
 482:Middlewares/ST/STM32_USB_Host_Library/Core/Src/usbh_ctlreq.c ****   *         This function Parses the string descriptor
 483:Middlewares/ST/STM32_USB_Host_Library/Core/Src/usbh_ctlreq.c ****   * @param  psrc: Source pointer containing the descriptor data
 484:Middlewares/ST/STM32_USB_Host_Library/Core/Src/usbh_ctlreq.c ****   * @param  pdest: Destination address pointer
 485:Middlewares/ST/STM32_USB_Host_Library/Core/Src/usbh_ctlreq.c ****   * @param  length: Length of the descriptor
 486:Middlewares/ST/STM32_USB_Host_Library/Core/Src/usbh_ctlreq.c ****   * @retval None
 487:Middlewares/ST/STM32_USB_Host_Library/Core/Src/usbh_ctlreq.c ****   */
 488:Middlewares/ST/STM32_USB_Host_Library/Core/Src/usbh_ctlreq.c **** static void USBH_ParseStringDesc(uint8_t *psrc, uint8_t *pdest, uint16_t length)
 489:Middlewares/ST/STM32_USB_Host_Library/Core/Src/usbh_ctlreq.c **** {
 237              		.loc 1 489 1 is_stmt 1 view -0
 238              		.cfi_startproc
 239              		@ args = 0, pretend = 0, frame = 0
 240              		@ frame_needed = 0, uses_anonymous_args = 0
 241              		@ link register save eliminated.
 490:Middlewares/ST/STM32_USB_Host_Library/Core/Src/usbh_ctlreq.c ****   uint16_t strlength;
 242              		.loc 1 490 3 view .LVU77
 491:Middlewares/ST/STM32_USB_Host_Library/Core/Src/usbh_ctlreq.c ****   uint16_t idx;
 243              		.loc 1 491 3 view .LVU78
 492:Middlewares/ST/STM32_USB_Host_Library/Core/Src/usbh_ctlreq.c **** 
 493:Middlewares/ST/STM32_USB_Host_Library/Core/Src/usbh_ctlreq.c ****   /* The UNICODE string descriptor is not NULL-terminated. The string length is
 494:Middlewares/ST/STM32_USB_Host_Library/Core/Src/usbh_ctlreq.c ****   computed by substracting two from the value of the first byte of the descriptor.
 495:Middlewares/ST/STM32_USB_Host_Library/Core/Src/usbh_ctlreq.c ****   */
 496:Middlewares/ST/STM32_USB_Host_Library/Core/Src/usbh_ctlreq.c **** 
 497:Middlewares/ST/STM32_USB_Host_Library/Core/Src/usbh_ctlreq.c ****   /* Check which is lower size, the Size of string or the length of bytes read
 498:Middlewares/ST/STM32_USB_Host_Library/Core/Src/usbh_ctlreq.c ****   from the device */
 499:Middlewares/ST/STM32_USB_Host_Library/Core/Src/usbh_ctlreq.c **** 
 500:Middlewares/ST/STM32_USB_Host_Library/Core/Src/usbh_ctlreq.c ****   if (psrc[1] == USB_DESC_TYPE_STRING)
 244              		.loc 1 500 3 view .LVU79
 245              		.loc 1 500 11 is_stmt 0 view .LVU80
 246 0000 4378     		ldrb	r3, [r0, #1]	@ zero_extendqisi2
 247              		.loc 1 500 6 view .LVU81
 248 0002 032B     		cmp	r3, #3
ARM GAS  /tmp/ccskp59e.s 			page 14


 249 0004 00D0     		beq	.L16
 250 0006 7047     		bx	lr
 251              	.L16:
 501:Middlewares/ST/STM32_USB_Host_Library/Core/Src/usbh_ctlreq.c ****   {
 502:Middlewares/ST/STM32_USB_Host_Library/Core/Src/usbh_ctlreq.c ****     /* Make sure the Descriptor is String Type */
 503:Middlewares/ST/STM32_USB_Host_Library/Core/Src/usbh_ctlreq.c **** 
 504:Middlewares/ST/STM32_USB_Host_Library/Core/Src/usbh_ctlreq.c ****     /* psrc[0] contains Size of Descriptor, subtract 2 to get the length of string */
 505:Middlewares/ST/STM32_USB_Host_Library/Core/Src/usbh_ctlreq.c ****     strlength = ((((uint16_t)psrc[0] - 2U) <= length) ? ((uint16_t)psrc[0] - 2U) : length);
 252              		.loc 1 505 5 is_stmt 1 view .LVU82
 253              		.loc 1 505 34 is_stmt 0 view .LVU83
 254 0008 0378     		ldrb	r3, [r0]	@ zero_extendqisi2
 255              		.loc 1 505 38 view .LVU84
 256 000a 023B     		subs	r3, r3, #2
 257              		.loc 1 505 82 view .LVU85
 258 000c 9A42     		cmp	r2, r3
 259 000e 28BF     		it	cs
 260 0010 1A46     		movcs	r2, r3
 261              	.LVL5:
 262              		.loc 1 505 15 view .LVU86
 263 0012 92B2     		uxth	r2, r2
 264              	.LVL6:
 506:Middlewares/ST/STM32_USB_Host_Library/Core/Src/usbh_ctlreq.c **** 
 507:Middlewares/ST/STM32_USB_Host_Library/Core/Src/usbh_ctlreq.c ****     /* Adjust the offset ignoring the String Len and Descriptor type */
 508:Middlewares/ST/STM32_USB_Host_Library/Core/Src/usbh_ctlreq.c ****     psrc += 2U;
 265              		.loc 1 508 5 is_stmt 1 view .LVU87
 509:Middlewares/ST/STM32_USB_Host_Library/Core/Src/usbh_ctlreq.c **** 
 510:Middlewares/ST/STM32_USB_Host_Library/Core/Src/usbh_ctlreq.c ****     for (idx = 0U; idx < strlength; idx += 2U)
 266              		.loc 1 510 5 view .LVU88
 267              		.loc 1 510 14 is_stmt 0 view .LVU89
 268 0014 0023     		movs	r3, #0
 269              	.LVL7:
 270              		.loc 1 510 20 is_stmt 1 view .LVU90
 271              		.loc 1 510 5 is_stmt 0 view .LVU91
 272 0016 9342     		cmp	r3, r2
 273 0018 0CD2     		bcs	.L17
 489:Middlewares/ST/STM32_USB_Host_Library/Core/Src/usbh_ctlreq.c ****   uint16_t strlength;
 274              		.loc 1 489 1 view .LVU92
 275 001a 10B4     		push	{r4}
 276              	.LCFI2:
 277              		.cfi_def_cfa_offset 4
 278              		.cfi_offset 4, -4
 279              	.L9:
 511:Middlewares/ST/STM32_USB_Host_Library/Core/Src/usbh_ctlreq.c ****     {
 512:Middlewares/ST/STM32_USB_Host_Library/Core/Src/usbh_ctlreq.c ****       /* Copy Only the string and ignore the UNICODE ID, hence add the src */
 513:Middlewares/ST/STM32_USB_Host_Library/Core/Src/usbh_ctlreq.c ****       *pdest =  psrc[idx];
 280              		.loc 1 513 7 is_stmt 1 discriminator 3 view .LVU93
 281              		.loc 1 513 21 is_stmt 0 discriminator 3 view .LVU94
 282 001c C418     		adds	r4, r0, r3
 283 001e A478     		ldrb	r4, [r4, #2]	@ zero_extendqisi2
 284              		.loc 1 513 14 discriminator 3 view .LVU95
 285 0020 01F8014B 		strb	r4, [r1], #1
 286              	.LVL8:
 514:Middlewares/ST/STM32_USB_Host_Library/Core/Src/usbh_ctlreq.c ****       pdest++;
 287              		.loc 1 514 7 is_stmt 1 discriminator 3 view .LVU96
 510:Middlewares/ST/STM32_USB_Host_Library/Core/Src/usbh_ctlreq.c ****     {
 288              		.loc 1 510 37 discriminator 3 view .LVU97
 510:Middlewares/ST/STM32_USB_Host_Library/Core/Src/usbh_ctlreq.c ****     {
ARM GAS  /tmp/ccskp59e.s 			page 15


 289              		.loc 1 510 41 is_stmt 0 discriminator 3 view .LVU98
 290 0024 0233     		adds	r3, r3, #2
 291              	.LVL9:
 510:Middlewares/ST/STM32_USB_Host_Library/Core/Src/usbh_ctlreq.c ****     {
 292              		.loc 1 510 41 discriminator 3 view .LVU99
 293 0026 9BB2     		uxth	r3, r3
 294              	.LVL10:
 510:Middlewares/ST/STM32_USB_Host_Library/Core/Src/usbh_ctlreq.c ****     {
 295              		.loc 1 510 20 is_stmt 1 discriminator 3 view .LVU100
 510:Middlewares/ST/STM32_USB_Host_Library/Core/Src/usbh_ctlreq.c ****     {
 296              		.loc 1 510 5 is_stmt 0 discriminator 3 view .LVU101
 297 0028 9342     		cmp	r3, r2
 298 002a F7D3     		bcc	.L9
 515:Middlewares/ST/STM32_USB_Host_Library/Core/Src/usbh_ctlreq.c ****     }
 516:Middlewares/ST/STM32_USB_Host_Library/Core/Src/usbh_ctlreq.c ****     *pdest = 0U; /* mark end of string */
 299              		.loc 1 516 5 is_stmt 1 view .LVU102
 300              		.loc 1 516 12 is_stmt 0 view .LVU103
 301 002c 0023     		movs	r3, #0
 302              	.LVL11:
 303              		.loc 1 516 12 view .LVU104
 304 002e 0B70     		strb	r3, [r1]
 517:Middlewares/ST/STM32_USB_Host_Library/Core/Src/usbh_ctlreq.c ****   }
 518:Middlewares/ST/STM32_USB_Host_Library/Core/Src/usbh_ctlreq.c **** }
 305              		.loc 1 518 1 view .LVU105
 306 0030 10BC     		pop	{r4}
 307              	.LCFI3:
 308              		.cfi_restore 4
 309              		.cfi_def_cfa_offset 0
 310 0032 7047     		bx	lr
 311              	.LVL12:
 312              	.L17:
 516:Middlewares/ST/STM32_USB_Host_Library/Core/Src/usbh_ctlreq.c ****   }
 313              		.loc 1 516 5 is_stmt 1 view .LVU106
 516:Middlewares/ST/STM32_USB_Host_Library/Core/Src/usbh_ctlreq.c ****   }
 314              		.loc 1 516 12 is_stmt 0 view .LVU107
 315 0034 0023     		movs	r3, #0
 516:Middlewares/ST/STM32_USB_Host_Library/Core/Src/usbh_ctlreq.c ****   }
 316              		.loc 1 516 12 view .LVU108
 317 0036 0B70     		strb	r3, [r1]
 318 0038 7047     		bx	lr
 319              		.cfi_endproc
 320              	.LFE81:
 322              		.section	.text.USBH_HandleControl,"ax",%progbits
 323              		.align	1
 324              		.syntax unified
 325              		.thumb
 326              		.thumb_func
 327              		.fpu softvfp
 329              	USBH_HandleControl:
 330              	.LVL13:
 331              	.LFB84:
 519:Middlewares/ST/STM32_USB_Host_Library/Core/Src/usbh_ctlreq.c **** 
 520:Middlewares/ST/STM32_USB_Host_Library/Core/Src/usbh_ctlreq.c **** 
 521:Middlewares/ST/STM32_USB_Host_Library/Core/Src/usbh_ctlreq.c **** /**
 522:Middlewares/ST/STM32_USB_Host_Library/Core/Src/usbh_ctlreq.c ****   * @brief  USBH_GetNextDesc
 523:Middlewares/ST/STM32_USB_Host_Library/Core/Src/usbh_ctlreq.c ****   *         This function return the next descriptor header
 524:Middlewares/ST/STM32_USB_Host_Library/Core/Src/usbh_ctlreq.c ****   * @param  buf: Buffer where the cfg descriptor is available
ARM GAS  /tmp/ccskp59e.s 			page 16


 525:Middlewares/ST/STM32_USB_Host_Library/Core/Src/usbh_ctlreq.c ****   * @param  ptr: data pointer inside the cfg descriptor
 526:Middlewares/ST/STM32_USB_Host_Library/Core/Src/usbh_ctlreq.c ****   * @retval next header
 527:Middlewares/ST/STM32_USB_Host_Library/Core/Src/usbh_ctlreq.c ****   */
 528:Middlewares/ST/STM32_USB_Host_Library/Core/Src/usbh_ctlreq.c **** USBH_DescHeader_t  *USBH_GetNextDesc(uint8_t   *pbuf, uint16_t  *ptr)
 529:Middlewares/ST/STM32_USB_Host_Library/Core/Src/usbh_ctlreq.c **** {
 530:Middlewares/ST/STM32_USB_Host_Library/Core/Src/usbh_ctlreq.c ****   USBH_DescHeader_t  *pnext;
 531:Middlewares/ST/STM32_USB_Host_Library/Core/Src/usbh_ctlreq.c **** 
 532:Middlewares/ST/STM32_USB_Host_Library/Core/Src/usbh_ctlreq.c ****   *ptr += ((USBH_DescHeader_t *)(void *)pbuf)->bLength;
 533:Middlewares/ST/STM32_USB_Host_Library/Core/Src/usbh_ctlreq.c ****   pnext = (USBH_DescHeader_t *)(void *)((uint8_t *)(void *)pbuf + \
 534:Middlewares/ST/STM32_USB_Host_Library/Core/Src/usbh_ctlreq.c ****                                         ((USBH_DescHeader_t *)(void *)pbuf)->bLength);
 535:Middlewares/ST/STM32_USB_Host_Library/Core/Src/usbh_ctlreq.c **** 
 536:Middlewares/ST/STM32_USB_Host_Library/Core/Src/usbh_ctlreq.c ****   return (pnext);
 537:Middlewares/ST/STM32_USB_Host_Library/Core/Src/usbh_ctlreq.c **** }
 538:Middlewares/ST/STM32_USB_Host_Library/Core/Src/usbh_ctlreq.c **** 
 539:Middlewares/ST/STM32_USB_Host_Library/Core/Src/usbh_ctlreq.c **** 
 540:Middlewares/ST/STM32_USB_Host_Library/Core/Src/usbh_ctlreq.c **** /**
 541:Middlewares/ST/STM32_USB_Host_Library/Core/Src/usbh_ctlreq.c ****   * @brief  USBH_CtlReq
 542:Middlewares/ST/STM32_USB_Host_Library/Core/Src/usbh_ctlreq.c ****   *         USBH_CtlReq sends a control request and provide the status after
 543:Middlewares/ST/STM32_USB_Host_Library/Core/Src/usbh_ctlreq.c ****   *            completion of the request
 544:Middlewares/ST/STM32_USB_Host_Library/Core/Src/usbh_ctlreq.c ****   * @param  phost: Host Handle
 545:Middlewares/ST/STM32_USB_Host_Library/Core/Src/usbh_ctlreq.c ****   * @param  req: Setup Request Structure
 546:Middlewares/ST/STM32_USB_Host_Library/Core/Src/usbh_ctlreq.c ****   * @param  buff: data buffer address to store the response
 547:Middlewares/ST/STM32_USB_Host_Library/Core/Src/usbh_ctlreq.c ****   * @param  length: length of the response
 548:Middlewares/ST/STM32_USB_Host_Library/Core/Src/usbh_ctlreq.c ****   * @retval USBH Status
 549:Middlewares/ST/STM32_USB_Host_Library/Core/Src/usbh_ctlreq.c ****   */
 550:Middlewares/ST/STM32_USB_Host_Library/Core/Src/usbh_ctlreq.c **** USBH_StatusTypeDef USBH_CtlReq(USBH_HandleTypeDef *phost, uint8_t *buff,
 551:Middlewares/ST/STM32_USB_Host_Library/Core/Src/usbh_ctlreq.c ****                                uint16_t length)
 552:Middlewares/ST/STM32_USB_Host_Library/Core/Src/usbh_ctlreq.c **** {
 553:Middlewares/ST/STM32_USB_Host_Library/Core/Src/usbh_ctlreq.c ****   USBH_StatusTypeDef status;
 554:Middlewares/ST/STM32_USB_Host_Library/Core/Src/usbh_ctlreq.c ****   status = USBH_BUSY;
 555:Middlewares/ST/STM32_USB_Host_Library/Core/Src/usbh_ctlreq.c **** 
 556:Middlewares/ST/STM32_USB_Host_Library/Core/Src/usbh_ctlreq.c ****   switch (phost->RequestState)
 557:Middlewares/ST/STM32_USB_Host_Library/Core/Src/usbh_ctlreq.c ****   {
 558:Middlewares/ST/STM32_USB_Host_Library/Core/Src/usbh_ctlreq.c ****     case CMD_SEND:
 559:Middlewares/ST/STM32_USB_Host_Library/Core/Src/usbh_ctlreq.c ****       /* Start a SETUP transfer */
 560:Middlewares/ST/STM32_USB_Host_Library/Core/Src/usbh_ctlreq.c ****       phost->Control.buff = buff;
 561:Middlewares/ST/STM32_USB_Host_Library/Core/Src/usbh_ctlreq.c ****       phost->Control.length = length;
 562:Middlewares/ST/STM32_USB_Host_Library/Core/Src/usbh_ctlreq.c ****       phost->Control.state = CTRL_SETUP;
 563:Middlewares/ST/STM32_USB_Host_Library/Core/Src/usbh_ctlreq.c ****       phost->RequestState = CMD_WAIT;
 564:Middlewares/ST/STM32_USB_Host_Library/Core/Src/usbh_ctlreq.c ****       status = USBH_BUSY;
 565:Middlewares/ST/STM32_USB_Host_Library/Core/Src/usbh_ctlreq.c **** 
 566:Middlewares/ST/STM32_USB_Host_Library/Core/Src/usbh_ctlreq.c **** #if (USBH_USE_OS == 1U)
 567:Middlewares/ST/STM32_USB_Host_Library/Core/Src/usbh_ctlreq.c ****       phost->os_msg = (uint32_t)USBH_CONTROL_EVENT;
 568:Middlewares/ST/STM32_USB_Host_Library/Core/Src/usbh_ctlreq.c **** #if (osCMSIS < 0x20000U)
 569:Middlewares/ST/STM32_USB_Host_Library/Core/Src/usbh_ctlreq.c ****       (void)osMessagePut(phost->os_event, phost->os_msg, 0U);
 570:Middlewares/ST/STM32_USB_Host_Library/Core/Src/usbh_ctlreq.c **** #else
 571:Middlewares/ST/STM32_USB_Host_Library/Core/Src/usbh_ctlreq.c ****       (void)osMessageQueuePut(phost->os_event, &phost->os_msg, 0U, NULL);
 572:Middlewares/ST/STM32_USB_Host_Library/Core/Src/usbh_ctlreq.c **** #endif
 573:Middlewares/ST/STM32_USB_Host_Library/Core/Src/usbh_ctlreq.c **** #endif
 574:Middlewares/ST/STM32_USB_Host_Library/Core/Src/usbh_ctlreq.c ****       break;
 575:Middlewares/ST/STM32_USB_Host_Library/Core/Src/usbh_ctlreq.c **** 
 576:Middlewares/ST/STM32_USB_Host_Library/Core/Src/usbh_ctlreq.c ****     case CMD_WAIT:
 577:Middlewares/ST/STM32_USB_Host_Library/Core/Src/usbh_ctlreq.c ****       status = USBH_HandleControl(phost);
 578:Middlewares/ST/STM32_USB_Host_Library/Core/Src/usbh_ctlreq.c ****       if (status == USBH_OK)
 579:Middlewares/ST/STM32_USB_Host_Library/Core/Src/usbh_ctlreq.c ****       {
 580:Middlewares/ST/STM32_USB_Host_Library/Core/Src/usbh_ctlreq.c ****         /* Commands successfully sent and Response Received  */
 581:Middlewares/ST/STM32_USB_Host_Library/Core/Src/usbh_ctlreq.c ****         phost->RequestState = CMD_SEND;
ARM GAS  /tmp/ccskp59e.s 			page 17


 582:Middlewares/ST/STM32_USB_Host_Library/Core/Src/usbh_ctlreq.c ****         phost->Control.state = CTRL_IDLE;
 583:Middlewares/ST/STM32_USB_Host_Library/Core/Src/usbh_ctlreq.c ****         status = USBH_OK;
 584:Middlewares/ST/STM32_USB_Host_Library/Core/Src/usbh_ctlreq.c ****       }
 585:Middlewares/ST/STM32_USB_Host_Library/Core/Src/usbh_ctlreq.c ****       else if (status == USBH_NOT_SUPPORTED)
 586:Middlewares/ST/STM32_USB_Host_Library/Core/Src/usbh_ctlreq.c ****       {
 587:Middlewares/ST/STM32_USB_Host_Library/Core/Src/usbh_ctlreq.c ****         /* Commands successfully sent and Response Received  */
 588:Middlewares/ST/STM32_USB_Host_Library/Core/Src/usbh_ctlreq.c ****         phost->RequestState = CMD_SEND;
 589:Middlewares/ST/STM32_USB_Host_Library/Core/Src/usbh_ctlreq.c ****         phost->Control.state = CTRL_IDLE;
 590:Middlewares/ST/STM32_USB_Host_Library/Core/Src/usbh_ctlreq.c ****         status = USBH_NOT_SUPPORTED;
 591:Middlewares/ST/STM32_USB_Host_Library/Core/Src/usbh_ctlreq.c ****       }
 592:Middlewares/ST/STM32_USB_Host_Library/Core/Src/usbh_ctlreq.c ****       else
 593:Middlewares/ST/STM32_USB_Host_Library/Core/Src/usbh_ctlreq.c ****       {
 594:Middlewares/ST/STM32_USB_Host_Library/Core/Src/usbh_ctlreq.c ****         if (status == USBH_FAIL)
 595:Middlewares/ST/STM32_USB_Host_Library/Core/Src/usbh_ctlreq.c ****         {
 596:Middlewares/ST/STM32_USB_Host_Library/Core/Src/usbh_ctlreq.c ****           /* Failure Mode */
 597:Middlewares/ST/STM32_USB_Host_Library/Core/Src/usbh_ctlreq.c ****           phost->RequestState = CMD_SEND;
 598:Middlewares/ST/STM32_USB_Host_Library/Core/Src/usbh_ctlreq.c ****           status = USBH_FAIL;
 599:Middlewares/ST/STM32_USB_Host_Library/Core/Src/usbh_ctlreq.c ****         }
 600:Middlewares/ST/STM32_USB_Host_Library/Core/Src/usbh_ctlreq.c ****       }
 601:Middlewares/ST/STM32_USB_Host_Library/Core/Src/usbh_ctlreq.c ****       break;
 602:Middlewares/ST/STM32_USB_Host_Library/Core/Src/usbh_ctlreq.c **** 
 603:Middlewares/ST/STM32_USB_Host_Library/Core/Src/usbh_ctlreq.c ****     default:
 604:Middlewares/ST/STM32_USB_Host_Library/Core/Src/usbh_ctlreq.c ****       break;
 605:Middlewares/ST/STM32_USB_Host_Library/Core/Src/usbh_ctlreq.c ****   }
 606:Middlewares/ST/STM32_USB_Host_Library/Core/Src/usbh_ctlreq.c ****   return status;
 607:Middlewares/ST/STM32_USB_Host_Library/Core/Src/usbh_ctlreq.c **** }
 608:Middlewares/ST/STM32_USB_Host_Library/Core/Src/usbh_ctlreq.c **** 
 609:Middlewares/ST/STM32_USB_Host_Library/Core/Src/usbh_ctlreq.c **** 
 610:Middlewares/ST/STM32_USB_Host_Library/Core/Src/usbh_ctlreq.c **** /**
 611:Middlewares/ST/STM32_USB_Host_Library/Core/Src/usbh_ctlreq.c ****   * @brief  USBH_HandleControl
 612:Middlewares/ST/STM32_USB_Host_Library/Core/Src/usbh_ctlreq.c ****   *         Handles the USB control transfer state machine
 613:Middlewares/ST/STM32_USB_Host_Library/Core/Src/usbh_ctlreq.c ****   * @param  phost: Host Handle
 614:Middlewares/ST/STM32_USB_Host_Library/Core/Src/usbh_ctlreq.c ****   * @retval USBH Status
 615:Middlewares/ST/STM32_USB_Host_Library/Core/Src/usbh_ctlreq.c ****   */
 616:Middlewares/ST/STM32_USB_Host_Library/Core/Src/usbh_ctlreq.c **** static USBH_StatusTypeDef USBH_HandleControl(USBH_HandleTypeDef *phost)
 617:Middlewares/ST/STM32_USB_Host_Library/Core/Src/usbh_ctlreq.c **** {
 332              		.loc 1 617 1 is_stmt 1 view -0
 333              		.cfi_startproc
 334              		@ args = 0, pretend = 0, frame = 0
 335              		@ frame_needed = 0, uses_anonymous_args = 0
 336              		.loc 1 617 1 is_stmt 0 view .LVU110
 337 0000 30B5     		push	{r4, r5, lr}
 338              	.LCFI4:
 339              		.cfi_def_cfa_offset 12
 340              		.cfi_offset 4, -12
 341              		.cfi_offset 5, -8
 342              		.cfi_offset 14, -4
 343 0002 83B0     		sub	sp, sp, #12
 344              	.LCFI5:
 345              		.cfi_def_cfa_offset 24
 346 0004 0446     		mov	r4, r0
 618:Middlewares/ST/STM32_USB_Host_Library/Core/Src/usbh_ctlreq.c ****   uint8_t direction;
 347              		.loc 1 618 3 is_stmt 1 view .LVU111
 619:Middlewares/ST/STM32_USB_Host_Library/Core/Src/usbh_ctlreq.c ****   USBH_StatusTypeDef status = USBH_BUSY;
 348              		.loc 1 619 3 view .LVU112
 349              	.LVL14:
 620:Middlewares/ST/STM32_USB_Host_Library/Core/Src/usbh_ctlreq.c ****   USBH_URBStateTypeDef URB_Status = USBH_URB_IDLE;
ARM GAS  /tmp/ccskp59e.s 			page 18


 350              		.loc 1 620 3 view .LVU113
 621:Middlewares/ST/STM32_USB_Host_Library/Core/Src/usbh_ctlreq.c **** 
 622:Middlewares/ST/STM32_USB_Host_Library/Core/Src/usbh_ctlreq.c ****   switch (phost->Control.state)
 351              		.loc 1 622 3 view .LVU114
 352              		.loc 1 622 25 is_stmt 0 view .LVU115
 353 0006 057E     		ldrb	r5, [r0, #24]	@ zero_extendqisi2
 354 0008 6B1E     		subs	r3, r5, #1
 355 000a 0A2B     		cmp	r3, #10
 356 000c 00F2D680 		bhi	.L46
 357 0010 DFE803F0 		tbb	[pc, r3]
 358              	.L21:
 359 0014 06       		.byte	(.L31-.L21)/2
 360 0015 10       		.byte	(.L30-.L21)/2
 361 0016 35       		.byte	(.L29-.L21)/2
 362 0017 41       		.byte	(.L28-.L21)/2
 363 0018 54       		.byte	(.L27-.L21)/2
 364 0019 61       		.byte	(.L26-.L21)/2
 365 001a 7E       		.byte	(.L25-.L21)/2
 366 001b 8A       		.byte	(.L24-.L21)/2
 367 001c 9D       		.byte	(.L23-.L21)/2
 368 001d AA       		.byte	(.L22-.L21)/2
 369 001e C1       		.byte	(.L20-.L21)/2
 370 001f 00       		.p2align 1
 371              	.L31:
 623:Middlewares/ST/STM32_USB_Host_Library/Core/Src/usbh_ctlreq.c ****   {
 624:Middlewares/ST/STM32_USB_Host_Library/Core/Src/usbh_ctlreq.c ****     case CTRL_SETUP:
 625:Middlewares/ST/STM32_USB_Host_Library/Core/Src/usbh_ctlreq.c ****       /* send a SETUP packet */
 626:Middlewares/ST/STM32_USB_Host_Library/Core/Src/usbh_ctlreq.c ****       USBH_CtlSendSetup(phost, (uint8_t *)(void *)phost->Control.setup.d8,
 372              		.loc 1 626 7 is_stmt 1 view .LVU116
 373 0020 4279     		ldrb	r2, [r0, #5]	@ zero_extendqisi2
 374 0022 00F11001 		add	r1, r0, #16
 375 0026 FFF7FEFF 		bl	USBH_CtlSendSetup
 376              	.LVL15:
 627:Middlewares/ST/STM32_USB_Host_Library/Core/Src/usbh_ctlreq.c ****                         phost->Control.pipe_out);
 628:Middlewares/ST/STM32_USB_Host_Library/Core/Src/usbh_ctlreq.c **** 
 629:Middlewares/ST/STM32_USB_Host_Library/Core/Src/usbh_ctlreq.c ****       phost->Control.state = CTRL_SETUP_WAIT;
 377              		.loc 1 629 7 view .LVU117
 378              		.loc 1 629 28 is_stmt 0 view .LVU118
 379 002a 0223     		movs	r3, #2
 380 002c 2376     		strb	r3, [r4, #24]
 630:Middlewares/ST/STM32_USB_Host_Library/Core/Src/usbh_ctlreq.c ****       break;
 381              		.loc 1 630 7 is_stmt 1 view .LVU119
 382              	.LVL16:
 383              	.L19:
 631:Middlewares/ST/STM32_USB_Host_Library/Core/Src/usbh_ctlreq.c **** 
 632:Middlewares/ST/STM32_USB_Host_Library/Core/Src/usbh_ctlreq.c ****     case CTRL_SETUP_WAIT:
 633:Middlewares/ST/STM32_USB_Host_Library/Core/Src/usbh_ctlreq.c **** 
 634:Middlewares/ST/STM32_USB_Host_Library/Core/Src/usbh_ctlreq.c ****       URB_Status = USBH_LL_GetURBState(phost, phost->Control.pipe_out);
 635:Middlewares/ST/STM32_USB_Host_Library/Core/Src/usbh_ctlreq.c ****       /* case SETUP packet sent successfully */
 636:Middlewares/ST/STM32_USB_Host_Library/Core/Src/usbh_ctlreq.c ****       if (URB_Status == USBH_URB_DONE)
 637:Middlewares/ST/STM32_USB_Host_Library/Core/Src/usbh_ctlreq.c ****       {
 638:Middlewares/ST/STM32_USB_Host_Library/Core/Src/usbh_ctlreq.c ****         direction = (phost->Control.setup.b.bmRequestType & USB_REQ_DIR_MASK);
 639:Middlewares/ST/STM32_USB_Host_Library/Core/Src/usbh_ctlreq.c **** 
 640:Middlewares/ST/STM32_USB_Host_Library/Core/Src/usbh_ctlreq.c ****         /* check if there is a data stage */
 641:Middlewares/ST/STM32_USB_Host_Library/Core/Src/usbh_ctlreq.c ****         if (phost->Control.setup.b.wLength.w != 0U)
 642:Middlewares/ST/STM32_USB_Host_Library/Core/Src/usbh_ctlreq.c ****         {
 643:Middlewares/ST/STM32_USB_Host_Library/Core/Src/usbh_ctlreq.c ****           if (direction == USB_D2H)
ARM GAS  /tmp/ccskp59e.s 			page 19


 644:Middlewares/ST/STM32_USB_Host_Library/Core/Src/usbh_ctlreq.c ****           {
 645:Middlewares/ST/STM32_USB_Host_Library/Core/Src/usbh_ctlreq.c ****             /* Data Direction is IN */
 646:Middlewares/ST/STM32_USB_Host_Library/Core/Src/usbh_ctlreq.c ****             phost->Control.state = CTRL_DATA_IN;
 647:Middlewares/ST/STM32_USB_Host_Library/Core/Src/usbh_ctlreq.c ****           }
 648:Middlewares/ST/STM32_USB_Host_Library/Core/Src/usbh_ctlreq.c ****           else
 649:Middlewares/ST/STM32_USB_Host_Library/Core/Src/usbh_ctlreq.c ****           {
 650:Middlewares/ST/STM32_USB_Host_Library/Core/Src/usbh_ctlreq.c ****             /* Data Direction is OUT */
 651:Middlewares/ST/STM32_USB_Host_Library/Core/Src/usbh_ctlreq.c ****             phost->Control.state = CTRL_DATA_OUT;
 652:Middlewares/ST/STM32_USB_Host_Library/Core/Src/usbh_ctlreq.c ****           }
 653:Middlewares/ST/STM32_USB_Host_Library/Core/Src/usbh_ctlreq.c ****         }
 654:Middlewares/ST/STM32_USB_Host_Library/Core/Src/usbh_ctlreq.c ****         /* No DATA stage */
 655:Middlewares/ST/STM32_USB_Host_Library/Core/Src/usbh_ctlreq.c ****         else
 656:Middlewares/ST/STM32_USB_Host_Library/Core/Src/usbh_ctlreq.c ****         {
 657:Middlewares/ST/STM32_USB_Host_Library/Core/Src/usbh_ctlreq.c ****           /* If there is No Data Transfer Stage */
 658:Middlewares/ST/STM32_USB_Host_Library/Core/Src/usbh_ctlreq.c ****           if (direction == USB_D2H)
 659:Middlewares/ST/STM32_USB_Host_Library/Core/Src/usbh_ctlreq.c ****           {
 660:Middlewares/ST/STM32_USB_Host_Library/Core/Src/usbh_ctlreq.c ****             /* Data Direction is IN */
 661:Middlewares/ST/STM32_USB_Host_Library/Core/Src/usbh_ctlreq.c ****             phost->Control.state = CTRL_STATUS_OUT;
 662:Middlewares/ST/STM32_USB_Host_Library/Core/Src/usbh_ctlreq.c ****           }
 663:Middlewares/ST/STM32_USB_Host_Library/Core/Src/usbh_ctlreq.c ****           else
 664:Middlewares/ST/STM32_USB_Host_Library/Core/Src/usbh_ctlreq.c ****           {
 665:Middlewares/ST/STM32_USB_Host_Library/Core/Src/usbh_ctlreq.c ****             /* Data Direction is OUT */
 666:Middlewares/ST/STM32_USB_Host_Library/Core/Src/usbh_ctlreq.c ****             phost->Control.state = CTRL_STATUS_IN;
 667:Middlewares/ST/STM32_USB_Host_Library/Core/Src/usbh_ctlreq.c ****           }
 668:Middlewares/ST/STM32_USB_Host_Library/Core/Src/usbh_ctlreq.c ****         }
 669:Middlewares/ST/STM32_USB_Host_Library/Core/Src/usbh_ctlreq.c **** 
 670:Middlewares/ST/STM32_USB_Host_Library/Core/Src/usbh_ctlreq.c **** #if (USBH_USE_OS == 1U)
 671:Middlewares/ST/STM32_USB_Host_Library/Core/Src/usbh_ctlreq.c ****         phost->os_msg = (uint32_t)USBH_CONTROL_EVENT;
 672:Middlewares/ST/STM32_USB_Host_Library/Core/Src/usbh_ctlreq.c **** #if (osCMSIS < 0x20000U)
 673:Middlewares/ST/STM32_USB_Host_Library/Core/Src/usbh_ctlreq.c ****         (void)osMessagePut(phost->os_event, phost->os_msg, 0U);
 674:Middlewares/ST/STM32_USB_Host_Library/Core/Src/usbh_ctlreq.c **** #else
 675:Middlewares/ST/STM32_USB_Host_Library/Core/Src/usbh_ctlreq.c ****         (void)osMessageQueuePut(phost->os_event, &phost->os_msg, 0U, NULL);
 676:Middlewares/ST/STM32_USB_Host_Library/Core/Src/usbh_ctlreq.c **** #endif
 677:Middlewares/ST/STM32_USB_Host_Library/Core/Src/usbh_ctlreq.c **** #endif
 678:Middlewares/ST/STM32_USB_Host_Library/Core/Src/usbh_ctlreq.c ****       }
 679:Middlewares/ST/STM32_USB_Host_Library/Core/Src/usbh_ctlreq.c ****       else
 680:Middlewares/ST/STM32_USB_Host_Library/Core/Src/usbh_ctlreq.c ****       {
 681:Middlewares/ST/STM32_USB_Host_Library/Core/Src/usbh_ctlreq.c ****         if ((URB_Status == USBH_URB_ERROR) || (URB_Status == USBH_URB_NOTREADY))
 682:Middlewares/ST/STM32_USB_Host_Library/Core/Src/usbh_ctlreq.c ****         {
 683:Middlewares/ST/STM32_USB_Host_Library/Core/Src/usbh_ctlreq.c ****           phost->Control.state = CTRL_ERROR;
 684:Middlewares/ST/STM32_USB_Host_Library/Core/Src/usbh_ctlreq.c **** 
 685:Middlewares/ST/STM32_USB_Host_Library/Core/Src/usbh_ctlreq.c **** #if (USBH_USE_OS == 1U)
 686:Middlewares/ST/STM32_USB_Host_Library/Core/Src/usbh_ctlreq.c ****           phost->os_msg = (uint32_t)USBH_CONTROL_EVENT;
 687:Middlewares/ST/STM32_USB_Host_Library/Core/Src/usbh_ctlreq.c **** #if (osCMSIS < 0x20000U)
 688:Middlewares/ST/STM32_USB_Host_Library/Core/Src/usbh_ctlreq.c ****           (void)osMessagePut(phost->os_event, phost->os_msg, 0U);
 689:Middlewares/ST/STM32_USB_Host_Library/Core/Src/usbh_ctlreq.c **** #else
 690:Middlewares/ST/STM32_USB_Host_Library/Core/Src/usbh_ctlreq.c ****           (void)osMessageQueuePut(phost->os_event, &phost->os_msg, 0U, NULL);
 691:Middlewares/ST/STM32_USB_Host_Library/Core/Src/usbh_ctlreq.c **** #endif
 692:Middlewares/ST/STM32_USB_Host_Library/Core/Src/usbh_ctlreq.c **** #endif
 693:Middlewares/ST/STM32_USB_Host_Library/Core/Src/usbh_ctlreq.c ****         }
 694:Middlewares/ST/STM32_USB_Host_Library/Core/Src/usbh_ctlreq.c ****       }
 695:Middlewares/ST/STM32_USB_Host_Library/Core/Src/usbh_ctlreq.c ****       break;
 696:Middlewares/ST/STM32_USB_Host_Library/Core/Src/usbh_ctlreq.c **** 
 697:Middlewares/ST/STM32_USB_Host_Library/Core/Src/usbh_ctlreq.c ****     case CTRL_DATA_IN:
 698:Middlewares/ST/STM32_USB_Host_Library/Core/Src/usbh_ctlreq.c ****       /* Issue an IN token */
 699:Middlewares/ST/STM32_USB_Host_Library/Core/Src/usbh_ctlreq.c ****       phost->Control.timer = (uint16_t)phost->Timer;
 700:Middlewares/ST/STM32_USB_Host_Library/Core/Src/usbh_ctlreq.c ****       USBH_CtlReceiveData(phost, phost->Control.buff, phost->Control.length,
ARM GAS  /tmp/ccskp59e.s 			page 20


 701:Middlewares/ST/STM32_USB_Host_Library/Core/Src/usbh_ctlreq.c ****                           phost->Control.pipe_in);
 702:Middlewares/ST/STM32_USB_Host_Library/Core/Src/usbh_ctlreq.c **** 
 703:Middlewares/ST/STM32_USB_Host_Library/Core/Src/usbh_ctlreq.c ****       phost->Control.state = CTRL_DATA_IN_WAIT;
 704:Middlewares/ST/STM32_USB_Host_Library/Core/Src/usbh_ctlreq.c ****       break;
 705:Middlewares/ST/STM32_USB_Host_Library/Core/Src/usbh_ctlreq.c **** 
 706:Middlewares/ST/STM32_USB_Host_Library/Core/Src/usbh_ctlreq.c ****     case CTRL_DATA_IN_WAIT:
 707:Middlewares/ST/STM32_USB_Host_Library/Core/Src/usbh_ctlreq.c **** 
 708:Middlewares/ST/STM32_USB_Host_Library/Core/Src/usbh_ctlreq.c ****       URB_Status = USBH_LL_GetURBState(phost, phost->Control.pipe_in);
 709:Middlewares/ST/STM32_USB_Host_Library/Core/Src/usbh_ctlreq.c **** 
 710:Middlewares/ST/STM32_USB_Host_Library/Core/Src/usbh_ctlreq.c ****       /* check is DATA packet transferred successfully */
 711:Middlewares/ST/STM32_USB_Host_Library/Core/Src/usbh_ctlreq.c ****       if (URB_Status == USBH_URB_DONE)
 712:Middlewares/ST/STM32_USB_Host_Library/Core/Src/usbh_ctlreq.c ****       {
 713:Middlewares/ST/STM32_USB_Host_Library/Core/Src/usbh_ctlreq.c ****         phost->Control.state = CTRL_STATUS_OUT;
 714:Middlewares/ST/STM32_USB_Host_Library/Core/Src/usbh_ctlreq.c **** 
 715:Middlewares/ST/STM32_USB_Host_Library/Core/Src/usbh_ctlreq.c **** #if (USBH_USE_OS == 1U)
 716:Middlewares/ST/STM32_USB_Host_Library/Core/Src/usbh_ctlreq.c ****         phost->os_msg = (uint32_t)USBH_CONTROL_EVENT;
 717:Middlewares/ST/STM32_USB_Host_Library/Core/Src/usbh_ctlreq.c **** #if (osCMSIS < 0x20000U)
 718:Middlewares/ST/STM32_USB_Host_Library/Core/Src/usbh_ctlreq.c ****         (void)osMessagePut(phost->os_event, phost->os_msg, 0U);
 719:Middlewares/ST/STM32_USB_Host_Library/Core/Src/usbh_ctlreq.c **** #else
 720:Middlewares/ST/STM32_USB_Host_Library/Core/Src/usbh_ctlreq.c ****         (void)osMessageQueuePut(phost->os_event, &phost->os_msg, 0U, NULL);
 721:Middlewares/ST/STM32_USB_Host_Library/Core/Src/usbh_ctlreq.c **** #endif
 722:Middlewares/ST/STM32_USB_Host_Library/Core/Src/usbh_ctlreq.c **** #endif
 723:Middlewares/ST/STM32_USB_Host_Library/Core/Src/usbh_ctlreq.c ****       }
 724:Middlewares/ST/STM32_USB_Host_Library/Core/Src/usbh_ctlreq.c **** 
 725:Middlewares/ST/STM32_USB_Host_Library/Core/Src/usbh_ctlreq.c ****       /* manage error cases*/
 726:Middlewares/ST/STM32_USB_Host_Library/Core/Src/usbh_ctlreq.c ****       if (URB_Status == USBH_URB_STALL)
 727:Middlewares/ST/STM32_USB_Host_Library/Core/Src/usbh_ctlreq.c ****       {
 728:Middlewares/ST/STM32_USB_Host_Library/Core/Src/usbh_ctlreq.c ****         /* In stall case, return to previous machine state*/
 729:Middlewares/ST/STM32_USB_Host_Library/Core/Src/usbh_ctlreq.c ****         status = USBH_NOT_SUPPORTED;
 730:Middlewares/ST/STM32_USB_Host_Library/Core/Src/usbh_ctlreq.c **** 
 731:Middlewares/ST/STM32_USB_Host_Library/Core/Src/usbh_ctlreq.c **** #if (USBH_USE_OS == 1U)
 732:Middlewares/ST/STM32_USB_Host_Library/Core/Src/usbh_ctlreq.c ****         phost->os_msg = (uint32_t)USBH_CONTROL_EVENT;
 733:Middlewares/ST/STM32_USB_Host_Library/Core/Src/usbh_ctlreq.c **** #if (osCMSIS < 0x20000U)
 734:Middlewares/ST/STM32_USB_Host_Library/Core/Src/usbh_ctlreq.c ****         (void)osMessagePut(phost->os_event, phost->os_msg, 0U);
 735:Middlewares/ST/STM32_USB_Host_Library/Core/Src/usbh_ctlreq.c **** #else
 736:Middlewares/ST/STM32_USB_Host_Library/Core/Src/usbh_ctlreq.c ****         (void)osMessageQueuePut(phost->os_event, &phost->os_msg, 0U, NULL);
 737:Middlewares/ST/STM32_USB_Host_Library/Core/Src/usbh_ctlreq.c **** #endif
 738:Middlewares/ST/STM32_USB_Host_Library/Core/Src/usbh_ctlreq.c **** #endif
 739:Middlewares/ST/STM32_USB_Host_Library/Core/Src/usbh_ctlreq.c ****       }
 740:Middlewares/ST/STM32_USB_Host_Library/Core/Src/usbh_ctlreq.c ****       else
 741:Middlewares/ST/STM32_USB_Host_Library/Core/Src/usbh_ctlreq.c ****       {
 742:Middlewares/ST/STM32_USB_Host_Library/Core/Src/usbh_ctlreq.c ****         if (URB_Status == USBH_URB_ERROR)
 743:Middlewares/ST/STM32_USB_Host_Library/Core/Src/usbh_ctlreq.c ****         {
 744:Middlewares/ST/STM32_USB_Host_Library/Core/Src/usbh_ctlreq.c ****           /* Device error */
 745:Middlewares/ST/STM32_USB_Host_Library/Core/Src/usbh_ctlreq.c ****           phost->Control.state = CTRL_ERROR;
 746:Middlewares/ST/STM32_USB_Host_Library/Core/Src/usbh_ctlreq.c **** 
 747:Middlewares/ST/STM32_USB_Host_Library/Core/Src/usbh_ctlreq.c **** #if (USBH_USE_OS == 1U)
 748:Middlewares/ST/STM32_USB_Host_Library/Core/Src/usbh_ctlreq.c ****           phost->os_msg = (uint32_t)USBH_CONTROL_EVENT;
 749:Middlewares/ST/STM32_USB_Host_Library/Core/Src/usbh_ctlreq.c **** #if (osCMSIS < 0x20000U)
 750:Middlewares/ST/STM32_USB_Host_Library/Core/Src/usbh_ctlreq.c ****           (void)osMessagePut(phost->os_event, phost->os_msg, 0U);
 751:Middlewares/ST/STM32_USB_Host_Library/Core/Src/usbh_ctlreq.c **** #else
 752:Middlewares/ST/STM32_USB_Host_Library/Core/Src/usbh_ctlreq.c ****           (void)osMessageQueuePut(phost->os_event, &phost->os_msg, 0U, NULL);
 753:Middlewares/ST/STM32_USB_Host_Library/Core/Src/usbh_ctlreq.c **** #endif
 754:Middlewares/ST/STM32_USB_Host_Library/Core/Src/usbh_ctlreq.c **** #endif
 755:Middlewares/ST/STM32_USB_Host_Library/Core/Src/usbh_ctlreq.c ****         }
 756:Middlewares/ST/STM32_USB_Host_Library/Core/Src/usbh_ctlreq.c ****       }
 757:Middlewares/ST/STM32_USB_Host_Library/Core/Src/usbh_ctlreq.c ****       break;
ARM GAS  /tmp/ccskp59e.s 			page 21


 758:Middlewares/ST/STM32_USB_Host_Library/Core/Src/usbh_ctlreq.c **** 
 759:Middlewares/ST/STM32_USB_Host_Library/Core/Src/usbh_ctlreq.c ****     case CTRL_DATA_OUT:
 760:Middlewares/ST/STM32_USB_Host_Library/Core/Src/usbh_ctlreq.c **** 
 761:Middlewares/ST/STM32_USB_Host_Library/Core/Src/usbh_ctlreq.c ****       USBH_CtlSendData(phost, phost->Control.buff, phost->Control.length,
 762:Middlewares/ST/STM32_USB_Host_Library/Core/Src/usbh_ctlreq.c ****                        phost->Control.pipe_out, 1U);
 763:Middlewares/ST/STM32_USB_Host_Library/Core/Src/usbh_ctlreq.c **** 
 764:Middlewares/ST/STM32_USB_Host_Library/Core/Src/usbh_ctlreq.c ****       phost->Control.timer = (uint16_t)phost->Timer;
 765:Middlewares/ST/STM32_USB_Host_Library/Core/Src/usbh_ctlreq.c ****       phost->Control.state = CTRL_DATA_OUT_WAIT;
 766:Middlewares/ST/STM32_USB_Host_Library/Core/Src/usbh_ctlreq.c ****       break;
 767:Middlewares/ST/STM32_USB_Host_Library/Core/Src/usbh_ctlreq.c **** 
 768:Middlewares/ST/STM32_USB_Host_Library/Core/Src/usbh_ctlreq.c ****     case CTRL_DATA_OUT_WAIT:
 769:Middlewares/ST/STM32_USB_Host_Library/Core/Src/usbh_ctlreq.c **** 
 770:Middlewares/ST/STM32_USB_Host_Library/Core/Src/usbh_ctlreq.c ****       URB_Status = USBH_LL_GetURBState(phost, phost->Control.pipe_out);
 771:Middlewares/ST/STM32_USB_Host_Library/Core/Src/usbh_ctlreq.c **** 
 772:Middlewares/ST/STM32_USB_Host_Library/Core/Src/usbh_ctlreq.c ****       if (URB_Status == USBH_URB_DONE)
 773:Middlewares/ST/STM32_USB_Host_Library/Core/Src/usbh_ctlreq.c ****       {
 774:Middlewares/ST/STM32_USB_Host_Library/Core/Src/usbh_ctlreq.c ****         /* If the Setup Pkt is sent successful, then change the state */
 775:Middlewares/ST/STM32_USB_Host_Library/Core/Src/usbh_ctlreq.c ****         phost->Control.state = CTRL_STATUS_IN;
 776:Middlewares/ST/STM32_USB_Host_Library/Core/Src/usbh_ctlreq.c **** 
 777:Middlewares/ST/STM32_USB_Host_Library/Core/Src/usbh_ctlreq.c **** #if (USBH_USE_OS == 1U)
 778:Middlewares/ST/STM32_USB_Host_Library/Core/Src/usbh_ctlreq.c ****         phost->os_msg = (uint32_t)USBH_CONTROL_EVENT;
 779:Middlewares/ST/STM32_USB_Host_Library/Core/Src/usbh_ctlreq.c **** #if (osCMSIS < 0x20000U)
 780:Middlewares/ST/STM32_USB_Host_Library/Core/Src/usbh_ctlreq.c ****         (void)osMessagePut(phost->os_event, phost->os_msg, 0U);
 781:Middlewares/ST/STM32_USB_Host_Library/Core/Src/usbh_ctlreq.c **** #else
 782:Middlewares/ST/STM32_USB_Host_Library/Core/Src/usbh_ctlreq.c ****         (void)osMessageQueuePut(phost->os_event, &phost->os_msg, 0U, NULL);
 783:Middlewares/ST/STM32_USB_Host_Library/Core/Src/usbh_ctlreq.c **** #endif
 784:Middlewares/ST/STM32_USB_Host_Library/Core/Src/usbh_ctlreq.c **** #endif
 785:Middlewares/ST/STM32_USB_Host_Library/Core/Src/usbh_ctlreq.c ****       }
 786:Middlewares/ST/STM32_USB_Host_Library/Core/Src/usbh_ctlreq.c **** 
 787:Middlewares/ST/STM32_USB_Host_Library/Core/Src/usbh_ctlreq.c ****       /* handle error cases */
 788:Middlewares/ST/STM32_USB_Host_Library/Core/Src/usbh_ctlreq.c ****       else if (URB_Status == USBH_URB_STALL)
 789:Middlewares/ST/STM32_USB_Host_Library/Core/Src/usbh_ctlreq.c ****       {
 790:Middlewares/ST/STM32_USB_Host_Library/Core/Src/usbh_ctlreq.c ****         /* In stall case, return to previous machine state*/
 791:Middlewares/ST/STM32_USB_Host_Library/Core/Src/usbh_ctlreq.c ****         phost->Control.state = CTRL_STALLED;
 792:Middlewares/ST/STM32_USB_Host_Library/Core/Src/usbh_ctlreq.c ****         status = USBH_NOT_SUPPORTED;
 793:Middlewares/ST/STM32_USB_Host_Library/Core/Src/usbh_ctlreq.c **** 
 794:Middlewares/ST/STM32_USB_Host_Library/Core/Src/usbh_ctlreq.c **** #if (USBH_USE_OS == 1U)
 795:Middlewares/ST/STM32_USB_Host_Library/Core/Src/usbh_ctlreq.c ****         phost->os_msg = (uint32_t)USBH_CONTROL_EVENT;
 796:Middlewares/ST/STM32_USB_Host_Library/Core/Src/usbh_ctlreq.c **** #if (osCMSIS < 0x20000U)
 797:Middlewares/ST/STM32_USB_Host_Library/Core/Src/usbh_ctlreq.c ****         (void)osMessagePut(phost->os_event, phost->os_msg, 0U);
 798:Middlewares/ST/STM32_USB_Host_Library/Core/Src/usbh_ctlreq.c **** #else
 799:Middlewares/ST/STM32_USB_Host_Library/Core/Src/usbh_ctlreq.c ****         (void)osMessageQueuePut(phost->os_event, &phost->os_msg, 0U, NULL);
 800:Middlewares/ST/STM32_USB_Host_Library/Core/Src/usbh_ctlreq.c **** #endif
 801:Middlewares/ST/STM32_USB_Host_Library/Core/Src/usbh_ctlreq.c **** #endif
 802:Middlewares/ST/STM32_USB_Host_Library/Core/Src/usbh_ctlreq.c ****       }
 803:Middlewares/ST/STM32_USB_Host_Library/Core/Src/usbh_ctlreq.c ****       else if (URB_Status == USBH_URB_NOTREADY)
 804:Middlewares/ST/STM32_USB_Host_Library/Core/Src/usbh_ctlreq.c ****       {
 805:Middlewares/ST/STM32_USB_Host_Library/Core/Src/usbh_ctlreq.c ****         /* Nack received from device */
 806:Middlewares/ST/STM32_USB_Host_Library/Core/Src/usbh_ctlreq.c ****         phost->Control.state = CTRL_DATA_OUT;
 807:Middlewares/ST/STM32_USB_Host_Library/Core/Src/usbh_ctlreq.c **** 
 808:Middlewares/ST/STM32_USB_Host_Library/Core/Src/usbh_ctlreq.c **** #if (USBH_USE_OS == 1U)
 809:Middlewares/ST/STM32_USB_Host_Library/Core/Src/usbh_ctlreq.c ****         phost->os_msg = (uint32_t)USBH_CONTROL_EVENT;
 810:Middlewares/ST/STM32_USB_Host_Library/Core/Src/usbh_ctlreq.c **** #if (osCMSIS < 0x20000U)
 811:Middlewares/ST/STM32_USB_Host_Library/Core/Src/usbh_ctlreq.c ****         (void)osMessagePut(phost->os_event, phost->os_msg, 0U);
 812:Middlewares/ST/STM32_USB_Host_Library/Core/Src/usbh_ctlreq.c **** #else
 813:Middlewares/ST/STM32_USB_Host_Library/Core/Src/usbh_ctlreq.c ****         (void)osMessageQueuePut(phost->os_event, &phost->os_msg, 0U, NULL);
 814:Middlewares/ST/STM32_USB_Host_Library/Core/Src/usbh_ctlreq.c **** #endif
ARM GAS  /tmp/ccskp59e.s 			page 22


 815:Middlewares/ST/STM32_USB_Host_Library/Core/Src/usbh_ctlreq.c **** #endif
 816:Middlewares/ST/STM32_USB_Host_Library/Core/Src/usbh_ctlreq.c ****       }
 817:Middlewares/ST/STM32_USB_Host_Library/Core/Src/usbh_ctlreq.c ****       else
 818:Middlewares/ST/STM32_USB_Host_Library/Core/Src/usbh_ctlreq.c ****       {
 819:Middlewares/ST/STM32_USB_Host_Library/Core/Src/usbh_ctlreq.c ****         if (URB_Status == USBH_URB_ERROR)
 820:Middlewares/ST/STM32_USB_Host_Library/Core/Src/usbh_ctlreq.c ****         {
 821:Middlewares/ST/STM32_USB_Host_Library/Core/Src/usbh_ctlreq.c ****           /* device error */
 822:Middlewares/ST/STM32_USB_Host_Library/Core/Src/usbh_ctlreq.c ****           phost->Control.state = CTRL_ERROR;
 823:Middlewares/ST/STM32_USB_Host_Library/Core/Src/usbh_ctlreq.c ****           status = USBH_FAIL;
 824:Middlewares/ST/STM32_USB_Host_Library/Core/Src/usbh_ctlreq.c **** 
 825:Middlewares/ST/STM32_USB_Host_Library/Core/Src/usbh_ctlreq.c **** #if (USBH_USE_OS == 1U)
 826:Middlewares/ST/STM32_USB_Host_Library/Core/Src/usbh_ctlreq.c ****           phost->os_msg = (uint32_t)USBH_CONTROL_EVENT;
 827:Middlewares/ST/STM32_USB_Host_Library/Core/Src/usbh_ctlreq.c **** #if (osCMSIS < 0x20000U)
 828:Middlewares/ST/STM32_USB_Host_Library/Core/Src/usbh_ctlreq.c ****           (void)osMessagePut(phost->os_event, phost->os_msg, 0U);
 829:Middlewares/ST/STM32_USB_Host_Library/Core/Src/usbh_ctlreq.c **** #else
 830:Middlewares/ST/STM32_USB_Host_Library/Core/Src/usbh_ctlreq.c ****           (void)osMessageQueuePut(phost->os_event, &phost->os_msg, 0U, NULL);
 831:Middlewares/ST/STM32_USB_Host_Library/Core/Src/usbh_ctlreq.c **** #endif
 832:Middlewares/ST/STM32_USB_Host_Library/Core/Src/usbh_ctlreq.c **** #endif
 833:Middlewares/ST/STM32_USB_Host_Library/Core/Src/usbh_ctlreq.c ****         }
 834:Middlewares/ST/STM32_USB_Host_Library/Core/Src/usbh_ctlreq.c ****       }
 835:Middlewares/ST/STM32_USB_Host_Library/Core/Src/usbh_ctlreq.c ****       break;
 836:Middlewares/ST/STM32_USB_Host_Library/Core/Src/usbh_ctlreq.c **** 
 837:Middlewares/ST/STM32_USB_Host_Library/Core/Src/usbh_ctlreq.c ****     case CTRL_STATUS_IN:
 838:Middlewares/ST/STM32_USB_Host_Library/Core/Src/usbh_ctlreq.c ****       /* Send 0 bytes out packet */
 839:Middlewares/ST/STM32_USB_Host_Library/Core/Src/usbh_ctlreq.c ****       USBH_CtlReceiveData(phost, 0U, 0U, phost->Control.pipe_in);
 840:Middlewares/ST/STM32_USB_Host_Library/Core/Src/usbh_ctlreq.c **** 
 841:Middlewares/ST/STM32_USB_Host_Library/Core/Src/usbh_ctlreq.c ****       phost->Control.timer = (uint16_t)phost->Timer;
 842:Middlewares/ST/STM32_USB_Host_Library/Core/Src/usbh_ctlreq.c ****       phost->Control.state = CTRL_STATUS_IN_WAIT;
 843:Middlewares/ST/STM32_USB_Host_Library/Core/Src/usbh_ctlreq.c **** 
 844:Middlewares/ST/STM32_USB_Host_Library/Core/Src/usbh_ctlreq.c ****       break;
 845:Middlewares/ST/STM32_USB_Host_Library/Core/Src/usbh_ctlreq.c **** 
 846:Middlewares/ST/STM32_USB_Host_Library/Core/Src/usbh_ctlreq.c ****     case CTRL_STATUS_IN_WAIT:
 847:Middlewares/ST/STM32_USB_Host_Library/Core/Src/usbh_ctlreq.c **** 
 848:Middlewares/ST/STM32_USB_Host_Library/Core/Src/usbh_ctlreq.c ****       URB_Status = USBH_LL_GetURBState(phost, phost->Control.pipe_in);
 849:Middlewares/ST/STM32_USB_Host_Library/Core/Src/usbh_ctlreq.c **** 
 850:Middlewares/ST/STM32_USB_Host_Library/Core/Src/usbh_ctlreq.c ****       if (URB_Status == USBH_URB_DONE)
 851:Middlewares/ST/STM32_USB_Host_Library/Core/Src/usbh_ctlreq.c ****       {
 852:Middlewares/ST/STM32_USB_Host_Library/Core/Src/usbh_ctlreq.c ****         /* Control transfers completed, Exit the State Machine */
 853:Middlewares/ST/STM32_USB_Host_Library/Core/Src/usbh_ctlreq.c ****         phost->Control.state = CTRL_COMPLETE;
 854:Middlewares/ST/STM32_USB_Host_Library/Core/Src/usbh_ctlreq.c ****         status = USBH_OK;
 855:Middlewares/ST/STM32_USB_Host_Library/Core/Src/usbh_ctlreq.c **** 
 856:Middlewares/ST/STM32_USB_Host_Library/Core/Src/usbh_ctlreq.c **** #if (USBH_USE_OS == 1U)
 857:Middlewares/ST/STM32_USB_Host_Library/Core/Src/usbh_ctlreq.c ****         phost->os_msg = (uint32_t)USBH_CONTROL_EVENT;
 858:Middlewares/ST/STM32_USB_Host_Library/Core/Src/usbh_ctlreq.c **** #if (osCMSIS < 0x20000U)
 859:Middlewares/ST/STM32_USB_Host_Library/Core/Src/usbh_ctlreq.c ****         (void)osMessagePut(phost->os_event, phost->os_msg, 0U);
 860:Middlewares/ST/STM32_USB_Host_Library/Core/Src/usbh_ctlreq.c **** #else
 861:Middlewares/ST/STM32_USB_Host_Library/Core/Src/usbh_ctlreq.c ****         (void)osMessageQueuePut(phost->os_event, &phost->os_msg, 0U, NULL);
 862:Middlewares/ST/STM32_USB_Host_Library/Core/Src/usbh_ctlreq.c **** #endif
 863:Middlewares/ST/STM32_USB_Host_Library/Core/Src/usbh_ctlreq.c **** #endif
 864:Middlewares/ST/STM32_USB_Host_Library/Core/Src/usbh_ctlreq.c ****       }
 865:Middlewares/ST/STM32_USB_Host_Library/Core/Src/usbh_ctlreq.c ****       else if (URB_Status == USBH_URB_ERROR)
 866:Middlewares/ST/STM32_USB_Host_Library/Core/Src/usbh_ctlreq.c ****       {
 867:Middlewares/ST/STM32_USB_Host_Library/Core/Src/usbh_ctlreq.c ****         phost->Control.state = CTRL_ERROR;
 868:Middlewares/ST/STM32_USB_Host_Library/Core/Src/usbh_ctlreq.c **** 
 869:Middlewares/ST/STM32_USB_Host_Library/Core/Src/usbh_ctlreq.c **** #if (USBH_USE_OS == 1U)
 870:Middlewares/ST/STM32_USB_Host_Library/Core/Src/usbh_ctlreq.c ****         phost->os_msg = (uint32_t)USBH_CONTROL_EVENT;
 871:Middlewares/ST/STM32_USB_Host_Library/Core/Src/usbh_ctlreq.c **** #if (osCMSIS < 0x20000U)
ARM GAS  /tmp/ccskp59e.s 			page 23


 872:Middlewares/ST/STM32_USB_Host_Library/Core/Src/usbh_ctlreq.c ****         (void)osMessagePut(phost->os_event, phost->os_msg, 0U);
 873:Middlewares/ST/STM32_USB_Host_Library/Core/Src/usbh_ctlreq.c **** #else
 874:Middlewares/ST/STM32_USB_Host_Library/Core/Src/usbh_ctlreq.c ****         (void)osMessageQueuePut(phost->os_event, &phost->os_msg, 0U, NULL);
 875:Middlewares/ST/STM32_USB_Host_Library/Core/Src/usbh_ctlreq.c **** #endif
 876:Middlewares/ST/STM32_USB_Host_Library/Core/Src/usbh_ctlreq.c **** #endif
 877:Middlewares/ST/STM32_USB_Host_Library/Core/Src/usbh_ctlreq.c ****       }
 878:Middlewares/ST/STM32_USB_Host_Library/Core/Src/usbh_ctlreq.c ****       else
 879:Middlewares/ST/STM32_USB_Host_Library/Core/Src/usbh_ctlreq.c ****       {
 880:Middlewares/ST/STM32_USB_Host_Library/Core/Src/usbh_ctlreq.c ****         if (URB_Status == USBH_URB_STALL)
 881:Middlewares/ST/STM32_USB_Host_Library/Core/Src/usbh_ctlreq.c ****         {
 882:Middlewares/ST/STM32_USB_Host_Library/Core/Src/usbh_ctlreq.c ****           /* Control transfers completed, Exit the State Machine */
 883:Middlewares/ST/STM32_USB_Host_Library/Core/Src/usbh_ctlreq.c ****           status = USBH_NOT_SUPPORTED;
 884:Middlewares/ST/STM32_USB_Host_Library/Core/Src/usbh_ctlreq.c **** 
 885:Middlewares/ST/STM32_USB_Host_Library/Core/Src/usbh_ctlreq.c **** #if (USBH_USE_OS == 1U)
 886:Middlewares/ST/STM32_USB_Host_Library/Core/Src/usbh_ctlreq.c ****           phost->os_msg = (uint32_t)USBH_CONTROL_EVENT;
 887:Middlewares/ST/STM32_USB_Host_Library/Core/Src/usbh_ctlreq.c **** #if (osCMSIS < 0x20000U)
 888:Middlewares/ST/STM32_USB_Host_Library/Core/Src/usbh_ctlreq.c ****           (void)osMessagePut(phost->os_event, phost->os_msg, 0U);
 889:Middlewares/ST/STM32_USB_Host_Library/Core/Src/usbh_ctlreq.c **** #else
 890:Middlewares/ST/STM32_USB_Host_Library/Core/Src/usbh_ctlreq.c ****           (void)osMessageQueuePut(phost->os_event, &phost->os_msg, 0U, NULL);
 891:Middlewares/ST/STM32_USB_Host_Library/Core/Src/usbh_ctlreq.c **** #endif
 892:Middlewares/ST/STM32_USB_Host_Library/Core/Src/usbh_ctlreq.c **** #endif
 893:Middlewares/ST/STM32_USB_Host_Library/Core/Src/usbh_ctlreq.c ****         }
 894:Middlewares/ST/STM32_USB_Host_Library/Core/Src/usbh_ctlreq.c ****       }
 895:Middlewares/ST/STM32_USB_Host_Library/Core/Src/usbh_ctlreq.c ****       break;
 896:Middlewares/ST/STM32_USB_Host_Library/Core/Src/usbh_ctlreq.c **** 
 897:Middlewares/ST/STM32_USB_Host_Library/Core/Src/usbh_ctlreq.c ****     case CTRL_STATUS_OUT:
 898:Middlewares/ST/STM32_USB_Host_Library/Core/Src/usbh_ctlreq.c ****       USBH_CtlSendData(phost, 0U, 0U, phost->Control.pipe_out, 1U);
 899:Middlewares/ST/STM32_USB_Host_Library/Core/Src/usbh_ctlreq.c **** 
 900:Middlewares/ST/STM32_USB_Host_Library/Core/Src/usbh_ctlreq.c ****       phost->Control.timer = (uint16_t)phost->Timer;
 901:Middlewares/ST/STM32_USB_Host_Library/Core/Src/usbh_ctlreq.c ****       phost->Control.state = CTRL_STATUS_OUT_WAIT;
 902:Middlewares/ST/STM32_USB_Host_Library/Core/Src/usbh_ctlreq.c ****       break;
 903:Middlewares/ST/STM32_USB_Host_Library/Core/Src/usbh_ctlreq.c **** 
 904:Middlewares/ST/STM32_USB_Host_Library/Core/Src/usbh_ctlreq.c ****     case CTRL_STATUS_OUT_WAIT:
 905:Middlewares/ST/STM32_USB_Host_Library/Core/Src/usbh_ctlreq.c ****       URB_Status = USBH_LL_GetURBState(phost, phost->Control.pipe_out);
 906:Middlewares/ST/STM32_USB_Host_Library/Core/Src/usbh_ctlreq.c ****       if (URB_Status == USBH_URB_DONE)
 907:Middlewares/ST/STM32_USB_Host_Library/Core/Src/usbh_ctlreq.c ****       {
 908:Middlewares/ST/STM32_USB_Host_Library/Core/Src/usbh_ctlreq.c ****         status = USBH_OK;
 909:Middlewares/ST/STM32_USB_Host_Library/Core/Src/usbh_ctlreq.c ****         phost->Control.state = CTRL_COMPLETE;
 910:Middlewares/ST/STM32_USB_Host_Library/Core/Src/usbh_ctlreq.c **** 
 911:Middlewares/ST/STM32_USB_Host_Library/Core/Src/usbh_ctlreq.c **** #if (USBH_USE_OS == 1U)
 912:Middlewares/ST/STM32_USB_Host_Library/Core/Src/usbh_ctlreq.c ****         phost->os_msg = (uint32_t)USBH_CONTROL_EVENT;
 913:Middlewares/ST/STM32_USB_Host_Library/Core/Src/usbh_ctlreq.c **** #if (osCMSIS < 0x20000U)
 914:Middlewares/ST/STM32_USB_Host_Library/Core/Src/usbh_ctlreq.c ****         (void)osMessagePut(phost->os_event, phost->os_msg, 0U);
 915:Middlewares/ST/STM32_USB_Host_Library/Core/Src/usbh_ctlreq.c **** #else
 916:Middlewares/ST/STM32_USB_Host_Library/Core/Src/usbh_ctlreq.c ****         (void)osMessageQueuePut(phost->os_event, &phost->os_msg, 0U, NULL);
 917:Middlewares/ST/STM32_USB_Host_Library/Core/Src/usbh_ctlreq.c **** #endif
 918:Middlewares/ST/STM32_USB_Host_Library/Core/Src/usbh_ctlreq.c **** #endif
 919:Middlewares/ST/STM32_USB_Host_Library/Core/Src/usbh_ctlreq.c ****       }
 920:Middlewares/ST/STM32_USB_Host_Library/Core/Src/usbh_ctlreq.c ****       else if (URB_Status == USBH_URB_NOTREADY)
 921:Middlewares/ST/STM32_USB_Host_Library/Core/Src/usbh_ctlreq.c ****       {
 922:Middlewares/ST/STM32_USB_Host_Library/Core/Src/usbh_ctlreq.c ****         phost->Control.state = CTRL_STATUS_OUT;
 923:Middlewares/ST/STM32_USB_Host_Library/Core/Src/usbh_ctlreq.c **** 
 924:Middlewares/ST/STM32_USB_Host_Library/Core/Src/usbh_ctlreq.c **** #if (USBH_USE_OS == 1U)
 925:Middlewares/ST/STM32_USB_Host_Library/Core/Src/usbh_ctlreq.c ****         phost->os_msg = (uint32_t)USBH_CONTROL_EVENT;
 926:Middlewares/ST/STM32_USB_Host_Library/Core/Src/usbh_ctlreq.c **** #if (osCMSIS < 0x20000U)
 927:Middlewares/ST/STM32_USB_Host_Library/Core/Src/usbh_ctlreq.c ****         (void)osMessagePut(phost->os_event, phost->os_msg, 0U);
 928:Middlewares/ST/STM32_USB_Host_Library/Core/Src/usbh_ctlreq.c **** #else
ARM GAS  /tmp/ccskp59e.s 			page 24


 929:Middlewares/ST/STM32_USB_Host_Library/Core/Src/usbh_ctlreq.c ****         (void)osMessageQueuePut(phost->os_event, &phost->os_msg, 0U, NULL);
 930:Middlewares/ST/STM32_USB_Host_Library/Core/Src/usbh_ctlreq.c **** #endif
 931:Middlewares/ST/STM32_USB_Host_Library/Core/Src/usbh_ctlreq.c **** #endif
 932:Middlewares/ST/STM32_USB_Host_Library/Core/Src/usbh_ctlreq.c ****       }
 933:Middlewares/ST/STM32_USB_Host_Library/Core/Src/usbh_ctlreq.c ****       else
 934:Middlewares/ST/STM32_USB_Host_Library/Core/Src/usbh_ctlreq.c ****       {
 935:Middlewares/ST/STM32_USB_Host_Library/Core/Src/usbh_ctlreq.c ****         if (URB_Status == USBH_URB_ERROR)
 936:Middlewares/ST/STM32_USB_Host_Library/Core/Src/usbh_ctlreq.c ****         {
 937:Middlewares/ST/STM32_USB_Host_Library/Core/Src/usbh_ctlreq.c ****           phost->Control.state = CTRL_ERROR;
 938:Middlewares/ST/STM32_USB_Host_Library/Core/Src/usbh_ctlreq.c **** 
 939:Middlewares/ST/STM32_USB_Host_Library/Core/Src/usbh_ctlreq.c **** #if (USBH_USE_OS == 1U)
 940:Middlewares/ST/STM32_USB_Host_Library/Core/Src/usbh_ctlreq.c ****           phost->os_msg = (uint32_t)USBH_CONTROL_EVENT;
 941:Middlewares/ST/STM32_USB_Host_Library/Core/Src/usbh_ctlreq.c **** #if (osCMSIS < 0x20000U)
 942:Middlewares/ST/STM32_USB_Host_Library/Core/Src/usbh_ctlreq.c ****           (void)osMessagePut(phost->os_event, phost->os_msg, 0U);
 943:Middlewares/ST/STM32_USB_Host_Library/Core/Src/usbh_ctlreq.c **** #else
 944:Middlewares/ST/STM32_USB_Host_Library/Core/Src/usbh_ctlreq.c ****           (void)osMessageQueuePut(phost->os_event, &phost->os_msg, 0U, NULL);
 945:Middlewares/ST/STM32_USB_Host_Library/Core/Src/usbh_ctlreq.c **** #endif
 946:Middlewares/ST/STM32_USB_Host_Library/Core/Src/usbh_ctlreq.c **** #endif
 947:Middlewares/ST/STM32_USB_Host_Library/Core/Src/usbh_ctlreq.c ****         }
 948:Middlewares/ST/STM32_USB_Host_Library/Core/Src/usbh_ctlreq.c ****       }
 949:Middlewares/ST/STM32_USB_Host_Library/Core/Src/usbh_ctlreq.c ****       break;
 950:Middlewares/ST/STM32_USB_Host_Library/Core/Src/usbh_ctlreq.c **** 
 951:Middlewares/ST/STM32_USB_Host_Library/Core/Src/usbh_ctlreq.c ****     case CTRL_ERROR:
 952:Middlewares/ST/STM32_USB_Host_Library/Core/Src/usbh_ctlreq.c ****       /*
 953:Middlewares/ST/STM32_USB_Host_Library/Core/Src/usbh_ctlreq.c ****       After a halt condition is encountered or an error is detected by the
 954:Middlewares/ST/STM32_USB_Host_Library/Core/Src/usbh_ctlreq.c ****       host, a control endpoint is allowed to recover by accepting the next Setup
 955:Middlewares/ST/STM32_USB_Host_Library/Core/Src/usbh_ctlreq.c ****       PID; i.e., recovery actions via some other pipe are not required for control
 956:Middlewares/ST/STM32_USB_Host_Library/Core/Src/usbh_ctlreq.c ****       endpoints. For the Default Control Pipe, a device reset will ultimately be
 957:Middlewares/ST/STM32_USB_Host_Library/Core/Src/usbh_ctlreq.c ****       required to clear the halt or error condition if the next Setup PID is not
 958:Middlewares/ST/STM32_USB_Host_Library/Core/Src/usbh_ctlreq.c ****       accepted.
 959:Middlewares/ST/STM32_USB_Host_Library/Core/Src/usbh_ctlreq.c ****       */
 960:Middlewares/ST/STM32_USB_Host_Library/Core/Src/usbh_ctlreq.c ****       if (++phost->Control.errorcount <= USBH_MAX_ERROR_COUNT)
 961:Middlewares/ST/STM32_USB_Host_Library/Core/Src/usbh_ctlreq.c ****       {
 962:Middlewares/ST/STM32_USB_Host_Library/Core/Src/usbh_ctlreq.c ****         /* Do the transmission again, starting from SETUP Packet */
 963:Middlewares/ST/STM32_USB_Host_Library/Core/Src/usbh_ctlreq.c ****         phost->Control.state = CTRL_SETUP;
 964:Middlewares/ST/STM32_USB_Host_Library/Core/Src/usbh_ctlreq.c ****         phost->RequestState = CMD_SEND;
 965:Middlewares/ST/STM32_USB_Host_Library/Core/Src/usbh_ctlreq.c ****       }
 966:Middlewares/ST/STM32_USB_Host_Library/Core/Src/usbh_ctlreq.c ****       else
 967:Middlewares/ST/STM32_USB_Host_Library/Core/Src/usbh_ctlreq.c ****       {
 968:Middlewares/ST/STM32_USB_Host_Library/Core/Src/usbh_ctlreq.c ****         phost->pUser(phost, HOST_USER_UNRECOVERED_ERROR);
 969:Middlewares/ST/STM32_USB_Host_Library/Core/Src/usbh_ctlreq.c ****         phost->Control.errorcount = 0U;
 970:Middlewares/ST/STM32_USB_Host_Library/Core/Src/usbh_ctlreq.c ****         USBH_ErrLog("Control error: Device not responding");
 971:Middlewares/ST/STM32_USB_Host_Library/Core/Src/usbh_ctlreq.c ****         phost->gState = HOST_IDLE;
 972:Middlewares/ST/STM32_USB_Host_Library/Core/Src/usbh_ctlreq.c ****         status = USBH_FAIL;
 973:Middlewares/ST/STM32_USB_Host_Library/Core/Src/usbh_ctlreq.c ****       }
 974:Middlewares/ST/STM32_USB_Host_Library/Core/Src/usbh_ctlreq.c ****       break;
 975:Middlewares/ST/STM32_USB_Host_Library/Core/Src/usbh_ctlreq.c **** 
 976:Middlewares/ST/STM32_USB_Host_Library/Core/Src/usbh_ctlreq.c ****     default:
 977:Middlewares/ST/STM32_USB_Host_Library/Core/Src/usbh_ctlreq.c ****       break;
 978:Middlewares/ST/STM32_USB_Host_Library/Core/Src/usbh_ctlreq.c ****   }
 979:Middlewares/ST/STM32_USB_Host_Library/Core/Src/usbh_ctlreq.c **** 
 980:Middlewares/ST/STM32_USB_Host_Library/Core/Src/usbh_ctlreq.c ****   return status;
 384              		.loc 1 980 3 view .LVU120
 981:Middlewares/ST/STM32_USB_Host_Library/Core/Src/usbh_ctlreq.c **** }
 385              		.loc 1 981 1 is_stmt 0 view .LVU121
 386 002e 2846     		mov	r0, r5
 387 0030 03B0     		add	sp, sp, #12
ARM GAS  /tmp/ccskp59e.s 			page 25


 388              	.LCFI6:
 389              		.cfi_remember_state
 390              		.cfi_def_cfa_offset 12
 391              		@ sp needed
 392 0032 30BD     		pop	{r4, r5, pc}
 393              	.LVL17:
 394              	.L30:
 395              	.LCFI7:
 396              		.cfi_restore_state
 634:Middlewares/ST/STM32_USB_Host_Library/Core/Src/usbh_ctlreq.c ****       /* case SETUP packet sent successfully */
 397              		.loc 1 634 7 is_stmt 1 view .LVU122
 634:Middlewares/ST/STM32_USB_Host_Library/Core/Src/usbh_ctlreq.c ****       /* case SETUP packet sent successfully */
 398              		.loc 1 634 20 is_stmt 0 view .LVU123
 399 0034 4179     		ldrb	r1, [r0, #5]	@ zero_extendqisi2
 400 0036 FFF7FEFF 		bl	USBH_LL_GetURBState
 401              	.LVL18:
 634:Middlewares/ST/STM32_USB_Host_Library/Core/Src/usbh_ctlreq.c ****       /* case SETUP packet sent successfully */
 402              		.loc 1 634 20 view .LVU124
 403 003a 0546     		mov	r5, r0
 404              	.LVL19:
 636:Middlewares/ST/STM32_USB_Host_Library/Core/Src/usbh_ctlreq.c ****       {
 405              		.loc 1 636 7 is_stmt 1 view .LVU125
 636:Middlewares/ST/STM32_USB_Host_Library/Core/Src/usbh_ctlreq.c ****       {
 406              		.loc 1 636 10 is_stmt 0 view .LVU126
 407 003c 0128     		cmp	r0, #1
 408 003e 05D0     		beq	.L54
 681:Middlewares/ST/STM32_USB_Host_Library/Core/Src/usbh_ctlreq.c ****         {
 409              		.loc 1 681 9 is_stmt 1 view .LVU127
 681:Middlewares/ST/STM32_USB_Host_Library/Core/Src/usbh_ctlreq.c ****         {
 410              		.loc 1 681 12 is_stmt 0 view .LVU128
 411 0040 0428     		cmp	r0, #4
 412 0042 18D0     		beq	.L36
 681:Middlewares/ST/STM32_USB_Host_Library/Core/Src/usbh_ctlreq.c ****         {
 413              		.loc 1 681 44 discriminator 1 view .LVU129
 414 0044 0228     		cmp	r0, #2
 415 0046 16D0     		beq	.L36
 619:Middlewares/ST/STM32_USB_Host_Library/Core/Src/usbh_ctlreq.c ****   USBH_URBStateTypeDef URB_Status = USBH_URB_IDLE;
 416              		.loc 1 619 22 view .LVU130
 417 0048 0125     		movs	r5, #1
 418 004a F0E7     		b	.L19
 419              	.L54:
 638:Middlewares/ST/STM32_USB_Host_Library/Core/Src/usbh_ctlreq.c **** 
 420              		.loc 1 638 9 is_stmt 1 view .LVU131
 638:Middlewares/ST/STM32_USB_Host_Library/Core/Src/usbh_ctlreq.c **** 
 421              		.loc 1 638 44 is_stmt 0 view .LVU132
 422 004c 237C     		ldrb	r3, [r4, #16]	@ zero_extendqisi2
 423              	.LVL20:
 641:Middlewares/ST/STM32_USB_Host_Library/Core/Src/usbh_ctlreq.c ****         {
 424              		.loc 1 641 9 is_stmt 1 view .LVU133
 641:Middlewares/ST/STM32_USB_Host_Library/Core/Src/usbh_ctlreq.c ****         {
 425              		.loc 1 641 43 is_stmt 0 view .LVU134
 426 004e E28A     		ldrh	r2, [r4, #22]
 641:Middlewares/ST/STM32_USB_Host_Library/Core/Src/usbh_ctlreq.c ****         {
 427              		.loc 1 641 12 view .LVU135
 428 0050 42B1     		cbz	r2, .L33
 643:Middlewares/ST/STM32_USB_Host_Library/Core/Src/usbh_ctlreq.c ****           {
 429              		.loc 1 643 11 is_stmt 1 view .LVU136
ARM GAS  /tmp/ccskp59e.s 			page 26


 643:Middlewares/ST/STM32_USB_Host_Library/Core/Src/usbh_ctlreq.c ****           {
 430              		.loc 1 643 14 is_stmt 0 view .LVU137
 431 0052 13F0800F 		tst	r3, #128
 432 0056 02D1     		bne	.L55
 651:Middlewares/ST/STM32_USB_Host_Library/Core/Src/usbh_ctlreq.c ****           }
 433              		.loc 1 651 13 is_stmt 1 view .LVU138
 651:Middlewares/ST/STM32_USB_Host_Library/Core/Src/usbh_ctlreq.c ****           }
 434              		.loc 1 651 34 is_stmt 0 view .LVU139
 435 0058 0523     		movs	r3, #5
 436              	.LVL21:
 651:Middlewares/ST/STM32_USB_Host_Library/Core/Src/usbh_ctlreq.c ****           }
 437              		.loc 1 651 34 view .LVU140
 438 005a 2376     		strb	r3, [r4, #24]
 439 005c E7E7     		b	.L19
 440              	.LVL22:
 441              	.L55:
 646:Middlewares/ST/STM32_USB_Host_Library/Core/Src/usbh_ctlreq.c ****           }
 442              		.loc 1 646 13 is_stmt 1 view .LVU141
 646:Middlewares/ST/STM32_USB_Host_Library/Core/Src/usbh_ctlreq.c ****           }
 443              		.loc 1 646 34 is_stmt 0 view .LVU142
 444 005e 0323     		movs	r3, #3
 445              	.LVL23:
 646:Middlewares/ST/STM32_USB_Host_Library/Core/Src/usbh_ctlreq.c ****           }
 446              		.loc 1 646 34 view .LVU143
 447 0060 2376     		strb	r3, [r4, #24]
 448 0062 E4E7     		b	.L19
 449              	.LVL24:
 450              	.L33:
 658:Middlewares/ST/STM32_USB_Host_Library/Core/Src/usbh_ctlreq.c ****           {
 451              		.loc 1 658 11 is_stmt 1 view .LVU144
 658:Middlewares/ST/STM32_USB_Host_Library/Core/Src/usbh_ctlreq.c ****           {
 452              		.loc 1 658 14 is_stmt 0 view .LVU145
 453 0064 13F0800F 		tst	r3, #128
 454 0068 02D1     		bne	.L56
 666:Middlewares/ST/STM32_USB_Host_Library/Core/Src/usbh_ctlreq.c ****           }
 455              		.loc 1 666 13 is_stmt 1 view .LVU146
 666:Middlewares/ST/STM32_USB_Host_Library/Core/Src/usbh_ctlreq.c ****           }
 456              		.loc 1 666 34 is_stmt 0 view .LVU147
 457 006a 0723     		movs	r3, #7
 458              	.LVL25:
 666:Middlewares/ST/STM32_USB_Host_Library/Core/Src/usbh_ctlreq.c ****           }
 459              		.loc 1 666 34 view .LVU148
 460 006c 2376     		strb	r3, [r4, #24]
 461 006e DEE7     		b	.L19
 462              	.LVL26:
 463              	.L56:
 661:Middlewares/ST/STM32_USB_Host_Library/Core/Src/usbh_ctlreq.c ****           }
 464              		.loc 1 661 13 is_stmt 1 view .LVU149
 661:Middlewares/ST/STM32_USB_Host_Library/Core/Src/usbh_ctlreq.c ****           }
 465              		.loc 1 661 34 is_stmt 0 view .LVU150
 466 0070 0923     		movs	r3, #9
 467              	.LVL27:
 661:Middlewares/ST/STM32_USB_Host_Library/Core/Src/usbh_ctlreq.c ****           }
 468              		.loc 1 661 34 view .LVU151
 469 0072 2376     		strb	r3, [r4, #24]
 470 0074 DBE7     		b	.L19
 471              	.LVL28:
ARM GAS  /tmp/ccskp59e.s 			page 27


 472              	.L36:
 683:Middlewares/ST/STM32_USB_Host_Library/Core/Src/usbh_ctlreq.c **** 
 473              		.loc 1 683 11 is_stmt 1 view .LVU152
 683:Middlewares/ST/STM32_USB_Host_Library/Core/Src/usbh_ctlreq.c **** 
 474              		.loc 1 683 32 is_stmt 0 view .LVU153
 475 0076 0B23     		movs	r3, #11
 476 0078 2376     		strb	r3, [r4, #24]
 619:Middlewares/ST/STM32_USB_Host_Library/Core/Src/usbh_ctlreq.c ****   USBH_URBStateTypeDef URB_Status = USBH_URB_IDLE;
 477              		.loc 1 619 22 view .LVU154
 478 007a 0125     		movs	r5, #1
 479 007c D7E7     		b	.L19
 480              	.LVL29:
 481              	.L29:
 699:Middlewares/ST/STM32_USB_Host_Library/Core/Src/usbh_ctlreq.c ****       USBH_CtlReceiveData(phost, phost->Control.buff, phost->Control.length,
 482              		.loc 1 699 7 is_stmt 1 view .LVU155
 699:Middlewares/ST/STM32_USB_Host_Library/Core/Src/usbh_ctlreq.c ****       USBH_CtlReceiveData(phost, phost->Control.buff, phost->Control.length,
 483              		.loc 1 699 45 is_stmt 0 view .LVU156
 484 007e D0F8C033 		ldr	r3, [r0, #960]
 699:Middlewares/ST/STM32_USB_Host_Library/Core/Src/usbh_ctlreq.c ****       USBH_CtlReceiveData(phost, phost->Control.buff, phost->Control.length,
 485              		.loc 1 699 28 view .LVU157
 486 0082 C381     		strh	r3, [r0, #14]	@ movhi
 700:Middlewares/ST/STM32_USB_Host_Library/Core/Src/usbh_ctlreq.c ****                           phost->Control.pipe_in);
 487              		.loc 1 700 7 is_stmt 1 view .LVU158
 488 0084 0379     		ldrb	r3, [r0, #4]	@ zero_extendqisi2
 489 0086 8289     		ldrh	r2, [r0, #12]
 490 0088 8168     		ldr	r1, [r0, #8]
 491 008a FFF7FEFF 		bl	USBH_CtlReceiveData
 492              	.LVL30:
 703:Middlewares/ST/STM32_USB_Host_Library/Core/Src/usbh_ctlreq.c ****       break;
 493              		.loc 1 703 7 view .LVU159
 703:Middlewares/ST/STM32_USB_Host_Library/Core/Src/usbh_ctlreq.c ****       break;
 494              		.loc 1 703 28 is_stmt 0 view .LVU160
 495 008e 0423     		movs	r3, #4
 496 0090 2376     		strb	r3, [r4, #24]
 704:Middlewares/ST/STM32_USB_Host_Library/Core/Src/usbh_ctlreq.c **** 
 497              		.loc 1 704 7 is_stmt 1 view .LVU161
 619:Middlewares/ST/STM32_USB_Host_Library/Core/Src/usbh_ctlreq.c ****   USBH_URBStateTypeDef URB_Status = USBH_URB_IDLE;
 498              		.loc 1 619 22 is_stmt 0 view .LVU162
 499 0092 0125     		movs	r5, #1
 704:Middlewares/ST/STM32_USB_Host_Library/Core/Src/usbh_ctlreq.c **** 
 500              		.loc 1 704 7 view .LVU163
 501 0094 CBE7     		b	.L19
 502              	.LVL31:
 503              	.L28:
 708:Middlewares/ST/STM32_USB_Host_Library/Core/Src/usbh_ctlreq.c **** 
 504              		.loc 1 708 7 is_stmt 1 view .LVU164
 708:Middlewares/ST/STM32_USB_Host_Library/Core/Src/usbh_ctlreq.c **** 
 505              		.loc 1 708 20 is_stmt 0 view .LVU165
 506 0096 0179     		ldrb	r1, [r0, #4]	@ zero_extendqisi2
 507 0098 FFF7FEFF 		bl	USBH_LL_GetURBState
 508              	.LVL32:
 711:Middlewares/ST/STM32_USB_Host_Library/Core/Src/usbh_ctlreq.c ****       {
 509              		.loc 1 711 7 is_stmt 1 view .LVU166
 711:Middlewares/ST/STM32_USB_Host_Library/Core/Src/usbh_ctlreq.c ****       {
 510              		.loc 1 711 10 is_stmt 0 view .LVU167
 511 009c 0128     		cmp	r0, #1
 512 009e 06D0     		beq	.L57
ARM GAS  /tmp/ccskp59e.s 			page 28


 513              	.L37:
 726:Middlewares/ST/STM32_USB_Host_Library/Core/Src/usbh_ctlreq.c ****       {
 514              		.loc 1 726 7 is_stmt 1 view .LVU168
 726:Middlewares/ST/STM32_USB_Host_Library/Core/Src/usbh_ctlreq.c ****       {
 515              		.loc 1 726 10 is_stmt 0 view .LVU169
 516 00a0 0528     		cmp	r0, #5
 517 00a2 00F08D80 		beq	.L48
 742:Middlewares/ST/STM32_USB_Host_Library/Core/Src/usbh_ctlreq.c ****         {
 518              		.loc 1 742 9 is_stmt 1 view .LVU170
 742:Middlewares/ST/STM32_USB_Host_Library/Core/Src/usbh_ctlreq.c ****         {
 519              		.loc 1 742 12 is_stmt 0 view .LVU171
 520 00a6 0428     		cmp	r0, #4
 521 00a8 04D0     		beq	.L58
 619:Middlewares/ST/STM32_USB_Host_Library/Core/Src/usbh_ctlreq.c ****   USBH_URBStateTypeDef URB_Status = USBH_URB_IDLE;
 522              		.loc 1 619 22 view .LVU172
 523 00aa 0125     		movs	r5, #1
 524 00ac BFE7     		b	.L19
 525              	.L57:
 713:Middlewares/ST/STM32_USB_Host_Library/Core/Src/usbh_ctlreq.c **** 
 526              		.loc 1 713 9 is_stmt 1 view .LVU173
 713:Middlewares/ST/STM32_USB_Host_Library/Core/Src/usbh_ctlreq.c **** 
 527              		.loc 1 713 30 is_stmt 0 view .LVU174
 528 00ae 0923     		movs	r3, #9
 529 00b0 2376     		strb	r3, [r4, #24]
 530 00b2 F5E7     		b	.L37
 531              	.L58:
 745:Middlewares/ST/STM32_USB_Host_Library/Core/Src/usbh_ctlreq.c **** 
 532              		.loc 1 745 11 is_stmt 1 view .LVU175
 745:Middlewares/ST/STM32_USB_Host_Library/Core/Src/usbh_ctlreq.c **** 
 533              		.loc 1 745 32 is_stmt 0 view .LVU176
 534 00b4 0B23     		movs	r3, #11
 535 00b6 2376     		strb	r3, [r4, #24]
 619:Middlewares/ST/STM32_USB_Host_Library/Core/Src/usbh_ctlreq.c ****   USBH_URBStateTypeDef URB_Status = USBH_URB_IDLE;
 536              		.loc 1 619 22 view .LVU177
 537 00b8 0125     		movs	r5, #1
 538 00ba B8E7     		b	.L19
 539              	.LVL33:
 540              	.L27:
 761:Middlewares/ST/STM32_USB_Host_Library/Core/Src/usbh_ctlreq.c ****                        phost->Control.pipe_out, 1U);
 541              		.loc 1 761 7 is_stmt 1 view .LVU178
 542 00bc 0125     		movs	r5, #1
 543 00be 0095     		str	r5, [sp]
 544 00c0 4379     		ldrb	r3, [r0, #5]	@ zero_extendqisi2
 545 00c2 8289     		ldrh	r2, [r0, #12]
 546 00c4 8168     		ldr	r1, [r0, #8]
 547 00c6 FFF7FEFF 		bl	USBH_CtlSendData
 548              	.LVL34:
 764:Middlewares/ST/STM32_USB_Host_Library/Core/Src/usbh_ctlreq.c ****       phost->Control.state = CTRL_DATA_OUT_WAIT;
 549              		.loc 1 764 7 view .LVU179
 764:Middlewares/ST/STM32_USB_Host_Library/Core/Src/usbh_ctlreq.c ****       phost->Control.state = CTRL_DATA_OUT_WAIT;
 550              		.loc 1 764 45 is_stmt 0 view .LVU180
 551 00ca D4F8C033 		ldr	r3, [r4, #960]
 764:Middlewares/ST/STM32_USB_Host_Library/Core/Src/usbh_ctlreq.c ****       phost->Control.state = CTRL_DATA_OUT_WAIT;
 552              		.loc 1 764 28 view .LVU181
 553 00ce E381     		strh	r3, [r4, #14]	@ movhi
 765:Middlewares/ST/STM32_USB_Host_Library/Core/Src/usbh_ctlreq.c ****       break;
 554              		.loc 1 765 7 is_stmt 1 view .LVU182
ARM GAS  /tmp/ccskp59e.s 			page 29


 765:Middlewares/ST/STM32_USB_Host_Library/Core/Src/usbh_ctlreq.c ****       break;
 555              		.loc 1 765 28 is_stmt 0 view .LVU183
 556 00d0 0623     		movs	r3, #6
 557 00d2 2376     		strb	r3, [r4, #24]
 766:Middlewares/ST/STM32_USB_Host_Library/Core/Src/usbh_ctlreq.c **** 
 558              		.loc 1 766 7 is_stmt 1 view .LVU184
 559 00d4 ABE7     		b	.L19
 560              	.LVL35:
 561              	.L26:
 770:Middlewares/ST/STM32_USB_Host_Library/Core/Src/usbh_ctlreq.c **** 
 562              		.loc 1 770 7 view .LVU185
 770:Middlewares/ST/STM32_USB_Host_Library/Core/Src/usbh_ctlreq.c **** 
 563              		.loc 1 770 20 is_stmt 0 view .LVU186
 564 00d6 4179     		ldrb	r1, [r0, #5]	@ zero_extendqisi2
 565 00d8 FFF7FEFF 		bl	USBH_LL_GetURBState
 566              	.LVL36:
 770:Middlewares/ST/STM32_USB_Host_Library/Core/Src/usbh_ctlreq.c **** 
 567              		.loc 1 770 20 view .LVU187
 568 00dc 0546     		mov	r5, r0
 569              	.LVL37:
 772:Middlewares/ST/STM32_USB_Host_Library/Core/Src/usbh_ctlreq.c ****       {
 570              		.loc 1 772 7 is_stmt 1 view .LVU188
 772:Middlewares/ST/STM32_USB_Host_Library/Core/Src/usbh_ctlreq.c ****       {
 571              		.loc 1 772 10 is_stmt 0 view .LVU189
 572 00de 0128     		cmp	r0, #1
 573 00e0 07D0     		beq	.L59
 788:Middlewares/ST/STM32_USB_Host_Library/Core/Src/usbh_ctlreq.c ****       {
 574              		.loc 1 788 12 is_stmt 1 view .LVU190
 788:Middlewares/ST/STM32_USB_Host_Library/Core/Src/usbh_ctlreq.c ****       {
 575              		.loc 1 788 15 is_stmt 0 view .LVU191
 576 00e2 0528     		cmp	r0, #5
 577 00e4 08D0     		beq	.L60
 803:Middlewares/ST/STM32_USB_Host_Library/Core/Src/usbh_ctlreq.c ****       {
 578              		.loc 1 803 12 is_stmt 1 view .LVU192
 803:Middlewares/ST/STM32_USB_Host_Library/Core/Src/usbh_ctlreq.c ****       {
 579              		.loc 1 803 15 is_stmt 0 view .LVU193
 580 00e6 0228     		cmp	r0, #2
 581 00e8 0AD0     		beq	.L61
 819:Middlewares/ST/STM32_USB_Host_Library/Core/Src/usbh_ctlreq.c ****         {
 582              		.loc 1 819 9 is_stmt 1 view .LVU194
 819:Middlewares/ST/STM32_USB_Host_Library/Core/Src/usbh_ctlreq.c ****         {
 583              		.loc 1 819 12 is_stmt 0 view .LVU195
 584 00ea 0428     		cmp	r0, #4
 585 00ec 0CD0     		beq	.L62
 619:Middlewares/ST/STM32_USB_Host_Library/Core/Src/usbh_ctlreq.c ****   USBH_URBStateTypeDef URB_Status = USBH_URB_IDLE;
 586              		.loc 1 619 22 view .LVU196
 587 00ee 0125     		movs	r5, #1
 588 00f0 9DE7     		b	.L19
 589              	.L59:
 775:Middlewares/ST/STM32_USB_Host_Library/Core/Src/usbh_ctlreq.c **** 
 590              		.loc 1 775 9 is_stmt 1 view .LVU197
 775:Middlewares/ST/STM32_USB_Host_Library/Core/Src/usbh_ctlreq.c **** 
 591              		.loc 1 775 30 is_stmt 0 view .LVU198
 592 00f2 0723     		movs	r3, #7
 593 00f4 2376     		strb	r3, [r4, #24]
 594 00f6 9AE7     		b	.L19
 595              	.L60:
ARM GAS  /tmp/ccskp59e.s 			page 30


 791:Middlewares/ST/STM32_USB_Host_Library/Core/Src/usbh_ctlreq.c ****         status = USBH_NOT_SUPPORTED;
 596              		.loc 1 791 9 is_stmt 1 view .LVU199
 791:Middlewares/ST/STM32_USB_Host_Library/Core/Src/usbh_ctlreq.c ****         status = USBH_NOT_SUPPORTED;
 597              		.loc 1 791 30 is_stmt 0 view .LVU200
 598 00f8 0C23     		movs	r3, #12
 599 00fa 2376     		strb	r3, [r4, #24]
 792:Middlewares/ST/STM32_USB_Host_Library/Core/Src/usbh_ctlreq.c **** 
 600              		.loc 1 792 9 is_stmt 1 view .LVU201
 601              	.LVL38:
 792:Middlewares/ST/STM32_USB_Host_Library/Core/Src/usbh_ctlreq.c **** 
 602              		.loc 1 792 16 is_stmt 0 view .LVU202
 603 00fc 0325     		movs	r5, #3
 604 00fe 96E7     		b	.L19
 605              	.LVL39:
 606              	.L61:
 806:Middlewares/ST/STM32_USB_Host_Library/Core/Src/usbh_ctlreq.c **** 
 607              		.loc 1 806 9 is_stmt 1 view .LVU203
 806:Middlewares/ST/STM32_USB_Host_Library/Core/Src/usbh_ctlreq.c **** 
 608              		.loc 1 806 30 is_stmt 0 view .LVU204
 609 0100 0523     		movs	r3, #5
 610 0102 2376     		strb	r3, [r4, #24]
 619:Middlewares/ST/STM32_USB_Host_Library/Core/Src/usbh_ctlreq.c ****   USBH_URBStateTypeDef URB_Status = USBH_URB_IDLE;
 611              		.loc 1 619 22 view .LVU205
 612 0104 0125     		movs	r5, #1
 613 0106 92E7     		b	.L19
 614              	.L62:
 822:Middlewares/ST/STM32_USB_Host_Library/Core/Src/usbh_ctlreq.c ****           status = USBH_FAIL;
 615              		.loc 1 822 11 is_stmt 1 view .LVU206
 822:Middlewares/ST/STM32_USB_Host_Library/Core/Src/usbh_ctlreq.c ****           status = USBH_FAIL;
 616              		.loc 1 822 32 is_stmt 0 view .LVU207
 617 0108 0B23     		movs	r3, #11
 618 010a 2376     		strb	r3, [r4, #24]
 823:Middlewares/ST/STM32_USB_Host_Library/Core/Src/usbh_ctlreq.c **** 
 619              		.loc 1 823 11 is_stmt 1 view .LVU208
 620              	.LVL40:
 823:Middlewares/ST/STM32_USB_Host_Library/Core/Src/usbh_ctlreq.c **** 
 621              		.loc 1 823 18 is_stmt 0 view .LVU209
 622 010c 0225     		movs	r5, #2
 623 010e 8EE7     		b	.L19
 624              	.LVL41:
 625              	.L25:
 839:Middlewares/ST/STM32_USB_Host_Library/Core/Src/usbh_ctlreq.c **** 
 626              		.loc 1 839 7 is_stmt 1 view .LVU210
 627 0110 0379     		ldrb	r3, [r0, #4]	@ zero_extendqisi2
 628 0112 0022     		movs	r2, #0
 629 0114 1146     		mov	r1, r2
 630 0116 FFF7FEFF 		bl	USBH_CtlReceiveData
 631              	.LVL42:
 841:Middlewares/ST/STM32_USB_Host_Library/Core/Src/usbh_ctlreq.c ****       phost->Control.state = CTRL_STATUS_IN_WAIT;
 632              		.loc 1 841 7 view .LVU211
 841:Middlewares/ST/STM32_USB_Host_Library/Core/Src/usbh_ctlreq.c ****       phost->Control.state = CTRL_STATUS_IN_WAIT;
 633              		.loc 1 841 45 is_stmt 0 view .LVU212
 634 011a D4F8C033 		ldr	r3, [r4, #960]
 841:Middlewares/ST/STM32_USB_Host_Library/Core/Src/usbh_ctlreq.c ****       phost->Control.state = CTRL_STATUS_IN_WAIT;
 635              		.loc 1 841 28 view .LVU213
 636 011e E381     		strh	r3, [r4, #14]	@ movhi
 842:Middlewares/ST/STM32_USB_Host_Library/Core/Src/usbh_ctlreq.c **** 
ARM GAS  /tmp/ccskp59e.s 			page 31


 637              		.loc 1 842 7 is_stmt 1 view .LVU214
 842:Middlewares/ST/STM32_USB_Host_Library/Core/Src/usbh_ctlreq.c **** 
 638              		.loc 1 842 28 is_stmt 0 view .LVU215
 639 0120 0823     		movs	r3, #8
 640 0122 2376     		strb	r3, [r4, #24]
 844:Middlewares/ST/STM32_USB_Host_Library/Core/Src/usbh_ctlreq.c **** 
 641              		.loc 1 844 7 is_stmt 1 view .LVU216
 619:Middlewares/ST/STM32_USB_Host_Library/Core/Src/usbh_ctlreq.c ****   USBH_URBStateTypeDef URB_Status = USBH_URB_IDLE;
 642              		.loc 1 619 22 is_stmt 0 view .LVU217
 643 0124 0125     		movs	r5, #1
 844:Middlewares/ST/STM32_USB_Host_Library/Core/Src/usbh_ctlreq.c **** 
 644              		.loc 1 844 7 view .LVU218
 645 0126 82E7     		b	.L19
 646              	.LVL43:
 647              	.L24:
 848:Middlewares/ST/STM32_USB_Host_Library/Core/Src/usbh_ctlreq.c **** 
 648              		.loc 1 848 7 is_stmt 1 view .LVU219
 848:Middlewares/ST/STM32_USB_Host_Library/Core/Src/usbh_ctlreq.c **** 
 649              		.loc 1 848 20 is_stmt 0 view .LVU220
 650 0128 0179     		ldrb	r1, [r0, #4]	@ zero_extendqisi2
 651 012a FFF7FEFF 		bl	USBH_LL_GetURBState
 652              	.LVL44:
 850:Middlewares/ST/STM32_USB_Host_Library/Core/Src/usbh_ctlreq.c ****       {
 653              		.loc 1 850 7 is_stmt 1 view .LVU221
 850:Middlewares/ST/STM32_USB_Host_Library/Core/Src/usbh_ctlreq.c ****       {
 654              		.loc 1 850 10 is_stmt 0 view .LVU222
 655 012e 0128     		cmp	r0, #1
 656 0130 05D0     		beq	.L63
 865:Middlewares/ST/STM32_USB_Host_Library/Core/Src/usbh_ctlreq.c ****       {
 657              		.loc 1 865 12 is_stmt 1 view .LVU223
 865:Middlewares/ST/STM32_USB_Host_Library/Core/Src/usbh_ctlreq.c ****       {
 658              		.loc 1 865 15 is_stmt 0 view .LVU224
 659 0132 0428     		cmp	r0, #4
 660 0134 07D0     		beq	.L64
 880:Middlewares/ST/STM32_USB_Host_Library/Core/Src/usbh_ctlreq.c ****         {
 661              		.loc 1 880 9 is_stmt 1 view .LVU225
 880:Middlewares/ST/STM32_USB_Host_Library/Core/Src/usbh_ctlreq.c ****         {
 662              		.loc 1 880 12 is_stmt 0 view .LVU226
 663 0136 0528     		cmp	r0, #5
 664 0138 44D0     		beq	.L51
 619:Middlewares/ST/STM32_USB_Host_Library/Core/Src/usbh_ctlreq.c ****   USBH_URBStateTypeDef URB_Status = USBH_URB_IDLE;
 665              		.loc 1 619 22 view .LVU227
 666 013a 0125     		movs	r5, #1
 667 013c 77E7     		b	.L19
 668              	.L63:
 853:Middlewares/ST/STM32_USB_Host_Library/Core/Src/usbh_ctlreq.c ****         status = USBH_OK;
 669              		.loc 1 853 9 is_stmt 1 view .LVU228
 853:Middlewares/ST/STM32_USB_Host_Library/Core/Src/usbh_ctlreq.c ****         status = USBH_OK;
 670              		.loc 1 853 30 is_stmt 0 view .LVU229
 671 013e 0D23     		movs	r3, #13
 672 0140 2376     		strb	r3, [r4, #24]
 854:Middlewares/ST/STM32_USB_Host_Library/Core/Src/usbh_ctlreq.c **** 
 673              		.loc 1 854 9 is_stmt 1 view .LVU230
 674              	.LVL45:
 854:Middlewares/ST/STM32_USB_Host_Library/Core/Src/usbh_ctlreq.c **** 
 675              		.loc 1 854 16 is_stmt 0 view .LVU231
 676 0142 0025     		movs	r5, #0
ARM GAS  /tmp/ccskp59e.s 			page 32


 677 0144 73E7     		b	.L19
 678              	.LVL46:
 679              	.L64:
 867:Middlewares/ST/STM32_USB_Host_Library/Core/Src/usbh_ctlreq.c **** 
 680              		.loc 1 867 9 is_stmt 1 view .LVU232
 867:Middlewares/ST/STM32_USB_Host_Library/Core/Src/usbh_ctlreq.c **** 
 681              		.loc 1 867 30 is_stmt 0 view .LVU233
 682 0146 0B23     		movs	r3, #11
 683 0148 2376     		strb	r3, [r4, #24]
 619:Middlewares/ST/STM32_USB_Host_Library/Core/Src/usbh_ctlreq.c ****   USBH_URBStateTypeDef URB_Status = USBH_URB_IDLE;
 684              		.loc 1 619 22 view .LVU234
 685 014a 0125     		movs	r5, #1
 686 014c 6FE7     		b	.L19
 687              	.LVL47:
 688              	.L23:
 898:Middlewares/ST/STM32_USB_Host_Library/Core/Src/usbh_ctlreq.c **** 
 689              		.loc 1 898 7 is_stmt 1 view .LVU235
 690 014e 0125     		movs	r5, #1
 691 0150 0095     		str	r5, [sp]
 692 0152 4379     		ldrb	r3, [r0, #5]	@ zero_extendqisi2
 693 0154 0022     		movs	r2, #0
 694 0156 1146     		mov	r1, r2
 695 0158 FFF7FEFF 		bl	USBH_CtlSendData
 696              	.LVL48:
 900:Middlewares/ST/STM32_USB_Host_Library/Core/Src/usbh_ctlreq.c ****       phost->Control.state = CTRL_STATUS_OUT_WAIT;
 697              		.loc 1 900 7 view .LVU236
 900:Middlewares/ST/STM32_USB_Host_Library/Core/Src/usbh_ctlreq.c ****       phost->Control.state = CTRL_STATUS_OUT_WAIT;
 698              		.loc 1 900 45 is_stmt 0 view .LVU237
 699 015c D4F8C033 		ldr	r3, [r4, #960]
 900:Middlewares/ST/STM32_USB_Host_Library/Core/Src/usbh_ctlreq.c ****       phost->Control.state = CTRL_STATUS_OUT_WAIT;
 700              		.loc 1 900 28 view .LVU238
 701 0160 E381     		strh	r3, [r4, #14]	@ movhi
 901:Middlewares/ST/STM32_USB_Host_Library/Core/Src/usbh_ctlreq.c ****       break;
 702              		.loc 1 901 7 is_stmt 1 view .LVU239
 901:Middlewares/ST/STM32_USB_Host_Library/Core/Src/usbh_ctlreq.c ****       break;
 703              		.loc 1 901 28 is_stmt 0 view .LVU240
 704 0162 0A23     		movs	r3, #10
 705 0164 2376     		strb	r3, [r4, #24]
 902:Middlewares/ST/STM32_USB_Host_Library/Core/Src/usbh_ctlreq.c **** 
 706              		.loc 1 902 7 is_stmt 1 view .LVU241
 707 0166 62E7     		b	.L19
 708              	.LVL49:
 709              	.L22:
 905:Middlewares/ST/STM32_USB_Host_Library/Core/Src/usbh_ctlreq.c ****       if (URB_Status == USBH_URB_DONE)
 710              		.loc 1 905 7 view .LVU242
 905:Middlewares/ST/STM32_USB_Host_Library/Core/Src/usbh_ctlreq.c ****       if (URB_Status == USBH_URB_DONE)
 711              		.loc 1 905 20 is_stmt 0 view .LVU243
 712 0168 4179     		ldrb	r1, [r0, #5]	@ zero_extendqisi2
 713 016a FFF7FEFF 		bl	USBH_LL_GetURBState
 714              	.LVL50:
 906:Middlewares/ST/STM32_USB_Host_Library/Core/Src/usbh_ctlreq.c ****       {
 715              		.loc 1 906 7 is_stmt 1 view .LVU244
 906:Middlewares/ST/STM32_USB_Host_Library/Core/Src/usbh_ctlreq.c ****       {
 716              		.loc 1 906 10 is_stmt 0 view .LVU245
 717 016e 0128     		cmp	r0, #1
 718 0170 05D0     		beq	.L65
 920:Middlewares/ST/STM32_USB_Host_Library/Core/Src/usbh_ctlreq.c ****       {
ARM GAS  /tmp/ccskp59e.s 			page 33


 719              		.loc 1 920 12 is_stmt 1 view .LVU246
 920:Middlewares/ST/STM32_USB_Host_Library/Core/Src/usbh_ctlreq.c ****       {
 720              		.loc 1 920 15 is_stmt 0 view .LVU247
 721 0172 0228     		cmp	r0, #2
 722 0174 07D0     		beq	.L66
 935:Middlewares/ST/STM32_USB_Host_Library/Core/Src/usbh_ctlreq.c ****         {
 723              		.loc 1 935 9 is_stmt 1 view .LVU248
 935:Middlewares/ST/STM32_USB_Host_Library/Core/Src/usbh_ctlreq.c ****         {
 724              		.loc 1 935 12 is_stmt 0 view .LVU249
 725 0176 0428     		cmp	r0, #4
 726 0178 09D0     		beq	.L67
 619:Middlewares/ST/STM32_USB_Host_Library/Core/Src/usbh_ctlreq.c ****   USBH_URBStateTypeDef URB_Status = USBH_URB_IDLE;
 727              		.loc 1 619 22 view .LVU250
 728 017a 0125     		movs	r5, #1
 729 017c 57E7     		b	.L19
 730              	.L65:
 908:Middlewares/ST/STM32_USB_Host_Library/Core/Src/usbh_ctlreq.c ****         phost->Control.state = CTRL_COMPLETE;
 731              		.loc 1 908 9 is_stmt 1 view .LVU251
 732              	.LVL51:
 909:Middlewares/ST/STM32_USB_Host_Library/Core/Src/usbh_ctlreq.c **** 
 733              		.loc 1 909 9 view .LVU252
 909:Middlewares/ST/STM32_USB_Host_Library/Core/Src/usbh_ctlreq.c **** 
 734              		.loc 1 909 30 is_stmt 0 view .LVU253
 735 017e 0D23     		movs	r3, #13
 736 0180 2376     		strb	r3, [r4, #24]
 908:Middlewares/ST/STM32_USB_Host_Library/Core/Src/usbh_ctlreq.c ****         phost->Control.state = CTRL_COMPLETE;
 737              		.loc 1 908 16 view .LVU254
 738 0182 0025     		movs	r5, #0
 739 0184 53E7     		b	.L19
 740              	.LVL52:
 741              	.L66:
 922:Middlewares/ST/STM32_USB_Host_Library/Core/Src/usbh_ctlreq.c **** 
 742              		.loc 1 922 9 is_stmt 1 view .LVU255
 922:Middlewares/ST/STM32_USB_Host_Library/Core/Src/usbh_ctlreq.c **** 
 743              		.loc 1 922 30 is_stmt 0 view .LVU256
 744 0186 0923     		movs	r3, #9
 745 0188 2376     		strb	r3, [r4, #24]
 619:Middlewares/ST/STM32_USB_Host_Library/Core/Src/usbh_ctlreq.c ****   USBH_URBStateTypeDef URB_Status = USBH_URB_IDLE;
 746              		.loc 1 619 22 view .LVU257
 747 018a 0125     		movs	r5, #1
 748 018c 4FE7     		b	.L19
 749              	.L67:
 937:Middlewares/ST/STM32_USB_Host_Library/Core/Src/usbh_ctlreq.c **** 
 750              		.loc 1 937 11 is_stmt 1 view .LVU258
 937:Middlewares/ST/STM32_USB_Host_Library/Core/Src/usbh_ctlreq.c **** 
 751              		.loc 1 937 32 is_stmt 0 view .LVU259
 752 018e 0B23     		movs	r3, #11
 753 0190 2376     		strb	r3, [r4, #24]
 619:Middlewares/ST/STM32_USB_Host_Library/Core/Src/usbh_ctlreq.c ****   USBH_URBStateTypeDef URB_Status = USBH_URB_IDLE;
 754              		.loc 1 619 22 view .LVU260
 755 0192 0125     		movs	r5, #1
 756 0194 4BE7     		b	.L19
 757              	.LVL53:
 758              	.L20:
 960:Middlewares/ST/STM32_USB_Host_Library/Core/Src/usbh_ctlreq.c ****       {
 759              		.loc 1 960 7 is_stmt 1 view .LVU261
 960:Middlewares/ST/STM32_USB_Host_Library/Core/Src/usbh_ctlreq.c ****       {
ARM GAS  /tmp/ccskp59e.s 			page 34


 760              		.loc 1 960 27 is_stmt 0 view .LVU262
 761 0196 437E     		ldrb	r3, [r0, #25]	@ zero_extendqisi2
 960:Middlewares/ST/STM32_USB_Host_Library/Core/Src/usbh_ctlreq.c ****       {
 762              		.loc 1 960 11 view .LVU263
 763 0198 0133     		adds	r3, r3, #1
 764 019a DBB2     		uxtb	r3, r3
 960:Middlewares/ST/STM32_USB_Host_Library/Core/Src/usbh_ctlreq.c ****       {
 765              		.loc 1 960 10 view .LVU264
 766 019c 4376     		strb	r3, [r0, #25]
 767 019e 022B     		cmp	r3, #2
 768 01a0 03D8     		bhi	.L45
 963:Middlewares/ST/STM32_USB_Host_Library/Core/Src/usbh_ctlreq.c ****         phost->RequestState = CMD_SEND;
 769              		.loc 1 963 9 is_stmt 1 view .LVU265
 963:Middlewares/ST/STM32_USB_Host_Library/Core/Src/usbh_ctlreq.c ****         phost->RequestState = CMD_SEND;
 770              		.loc 1 963 30 is_stmt 0 view .LVU266
 771 01a2 0125     		movs	r5, #1
 772 01a4 0576     		strb	r5, [r0, #24]
 964:Middlewares/ST/STM32_USB_Host_Library/Core/Src/usbh_ctlreq.c ****       }
 773              		.loc 1 964 9 is_stmt 1 view .LVU267
 964:Middlewares/ST/STM32_USB_Host_Library/Core/Src/usbh_ctlreq.c ****       }
 774              		.loc 1 964 29 is_stmt 0 view .LVU268
 775 01a6 8570     		strb	r5, [r0, #2]
 776 01a8 41E7     		b	.L19
 777              	.L45:
 968:Middlewares/ST/STM32_USB_Host_Library/Core/Src/usbh_ctlreq.c ****         phost->Control.errorcount = 0U;
 778              		.loc 1 968 9 is_stmt 1 view .LVU269
 968:Middlewares/ST/STM32_USB_Host_Library/Core/Src/usbh_ctlreq.c ****         phost->Control.errorcount = 0U;
 779              		.loc 1 968 14 is_stmt 0 view .LVU270
 780 01aa D0F8CC33 		ldr	r3, [r0, #972]
 968:Middlewares/ST/STM32_USB_Host_Library/Core/Src/usbh_ctlreq.c ****         phost->Control.errorcount = 0U;
 781              		.loc 1 968 9 view .LVU271
 782 01ae 0621     		movs	r1, #6
 783 01b0 9847     		blx	r3
 784              	.LVL54:
 969:Middlewares/ST/STM32_USB_Host_Library/Core/Src/usbh_ctlreq.c ****         USBH_ErrLog("Control error: Device not responding");
 785              		.loc 1 969 9 is_stmt 1 view .LVU272
 969:Middlewares/ST/STM32_USB_Host_Library/Core/Src/usbh_ctlreq.c ****         USBH_ErrLog("Control error: Device not responding");
 786              		.loc 1 969 35 is_stmt 0 view .LVU273
 787 01b2 0023     		movs	r3, #0
 788 01b4 6376     		strb	r3, [r4, #25]
 970:Middlewares/ST/STM32_USB_Host_Library/Core/Src/usbh_ctlreq.c ****         phost->gState = HOST_IDLE;
 789              		.loc 1 970 9 is_stmt 1 view .LVU274
 970:Middlewares/ST/STM32_USB_Host_Library/Core/Src/usbh_ctlreq.c ****         phost->gState = HOST_IDLE;
 790              		.loc 1 970 9 view .LVU275
 970:Middlewares/ST/STM32_USB_Host_Library/Core/Src/usbh_ctlreq.c ****         phost->gState = HOST_IDLE;
 791              		.loc 1 970 9 view .LVU276
 971:Middlewares/ST/STM32_USB_Host_Library/Core/Src/usbh_ctlreq.c ****         status = USBH_FAIL;
 792              		.loc 1 971 9 view .LVU277
 971:Middlewares/ST/STM32_USB_Host_Library/Core/Src/usbh_ctlreq.c ****         status = USBH_FAIL;
 793              		.loc 1 971 23 is_stmt 0 view .LVU278
 794 01b6 2370     		strb	r3, [r4]
 972:Middlewares/ST/STM32_USB_Host_Library/Core/Src/usbh_ctlreq.c ****       }
 795              		.loc 1 972 9 is_stmt 1 view .LVU279
 796              	.LVL55:
 972:Middlewares/ST/STM32_USB_Host_Library/Core/Src/usbh_ctlreq.c ****       }
 797              		.loc 1 972 16 is_stmt 0 view .LVU280
 798 01b8 0225     		movs	r5, #2
ARM GAS  /tmp/ccskp59e.s 			page 35


 799 01ba 38E7     		b	.L19
 800              	.LVL56:
 801              	.L46:
 622:Middlewares/ST/STM32_USB_Host_Library/Core/Src/usbh_ctlreq.c ****   {
 802              		.loc 1 622 25 view .LVU281
 803 01bc 0125     		movs	r5, #1
 804 01be 36E7     		b	.L19
 805              	.LVL57:
 806              	.L48:
 729:Middlewares/ST/STM32_USB_Host_Library/Core/Src/usbh_ctlreq.c **** 
 807              		.loc 1 729 16 view .LVU282
 808 01c0 0325     		movs	r5, #3
 809 01c2 34E7     		b	.L19
 810              	.L51:
 883:Middlewares/ST/STM32_USB_Host_Library/Core/Src/usbh_ctlreq.c **** 
 811              		.loc 1 883 18 view .LVU283
 812 01c4 0325     		movs	r5, #3
 813 01c6 32E7     		b	.L19
 814              		.cfi_endproc
 815              	.LFE84:
 817              		.section	.text.USBH_GetNextDesc,"ax",%progbits
 818              		.align	1
 819              		.global	USBH_GetNextDesc
 820              		.syntax unified
 821              		.thumb
 822              		.thumb_func
 823              		.fpu softvfp
 825              	USBH_GetNextDesc:
 826              	.LVL58:
 827              	.LFB82:
 529:Middlewares/ST/STM32_USB_Host_Library/Core/Src/usbh_ctlreq.c ****   USBH_DescHeader_t  *pnext;
 828              		.loc 1 529 1 is_stmt 1 view -0
 829              		.cfi_startproc
 830              		@ args = 0, pretend = 0, frame = 0
 831              		@ frame_needed = 0, uses_anonymous_args = 0
 832              		@ link register save eliminated.
 530:Middlewares/ST/STM32_USB_Host_Library/Core/Src/usbh_ctlreq.c **** 
 833              		.loc 1 530 3 view .LVU285
 532:Middlewares/ST/STM32_USB_Host_Library/Core/Src/usbh_ctlreq.c ****   pnext = (USBH_DescHeader_t *)(void *)((uint8_t *)(void *)pbuf + \
 834              		.loc 1 532 3 view .LVU286
 532:Middlewares/ST/STM32_USB_Host_Library/Core/Src/usbh_ctlreq.c ****   pnext = (USBH_DescHeader_t *)(void *)((uint8_t *)(void *)pbuf + \
 835              		.loc 1 532 46 is_stmt 0 view .LVU287
 836 0000 0378     		ldrb	r3, [r0]	@ zero_extendqisi2
 532:Middlewares/ST/STM32_USB_Host_Library/Core/Src/usbh_ctlreq.c ****   pnext = (USBH_DescHeader_t *)(void *)((uint8_t *)(void *)pbuf + \
 837              		.loc 1 532 8 view .LVU288
 838 0002 0A88     		ldrh	r2, [r1]
 839 0004 1344     		add	r3, r3, r2
 840 0006 0B80     		strh	r3, [r1]	@ movhi
 533:Middlewares/ST/STM32_USB_Host_Library/Core/Src/usbh_ctlreq.c ****                                         ((USBH_DescHeader_t *)(void *)pbuf)->bLength);
 841              		.loc 1 533 3 is_stmt 1 view .LVU289
 534:Middlewares/ST/STM32_USB_Host_Library/Core/Src/usbh_ctlreq.c **** 
 842              		.loc 1 534 76 is_stmt 0 view .LVU290
 843 0008 0378     		ldrb	r3, [r0]	@ zero_extendqisi2
 844              	.LVL59:
 536:Middlewares/ST/STM32_USB_Host_Library/Core/Src/usbh_ctlreq.c **** }
 845              		.loc 1 536 3 is_stmt 1 view .LVU291
 537:Middlewares/ST/STM32_USB_Host_Library/Core/Src/usbh_ctlreq.c **** 
ARM GAS  /tmp/ccskp59e.s 			page 36


 846              		.loc 1 537 1 is_stmt 0 view .LVU292
 847 000a 1844     		add	r0, r0, r3
 848              	.LVL60:
 537:Middlewares/ST/STM32_USB_Host_Library/Core/Src/usbh_ctlreq.c **** 
 849              		.loc 1 537 1 view .LVU293
 850 000c 7047     		bx	lr
 851              		.cfi_endproc
 852              	.LFE82:
 854              		.section	.text.USBH_ParseCfgDesc,"ax",%progbits
 855              		.align	1
 856              		.syntax unified
 857              		.thumb
 858              		.thumb_func
 859              		.fpu softvfp
 861              	USBH_ParseCfgDesc:
 862              	.LVL61:
 863              	.LFB78:
 387:Middlewares/ST/STM32_USB_Host_Library/Core/Src/usbh_ctlreq.c ****   USBH_InterfaceDescTypeDef    *pif ;
 864              		.loc 1 387 1 is_stmt 1 view -0
 865              		.cfi_startproc
 866              		@ args = 0, pretend = 0, frame = 8
 867              		@ frame_needed = 0, uses_anonymous_args = 0
 387:Middlewares/ST/STM32_USB_Host_Library/Core/Src/usbh_ctlreq.c ****   USBH_InterfaceDescTypeDef    *pif ;
 868              		.loc 1 387 1 is_stmt 0 view .LVU295
 869 0000 2DE9F041 		push	{r4, r5, r6, r7, r8, lr}
 870              	.LCFI8:
 871              		.cfi_def_cfa_offset 24
 872              		.cfi_offset 4, -24
 873              		.cfi_offset 5, -20
 874              		.cfi_offset 6, -16
 875              		.cfi_offset 7, -12
 876              		.cfi_offset 8, -8
 877              		.cfi_offset 14, -4
 878 0004 82B0     		sub	sp, sp, #8
 879              	.LCFI9:
 880              		.cfi_def_cfa_offset 32
 881 0006 0C46     		mov	r4, r1
 388:Middlewares/ST/STM32_USB_Host_Library/Core/Src/usbh_ctlreq.c ****   USBH_EpDescTypeDef           *pep;
 882              		.loc 1 388 3 is_stmt 1 view .LVU296
 389:Middlewares/ST/STM32_USB_Host_Library/Core/Src/usbh_ctlreq.c ****   USBH_DescHeader_t            *pdesc = (USBH_DescHeader_t *)(void *)buf;
 883              		.loc 1 389 3 view .LVU297
 390:Middlewares/ST/STM32_USB_Host_Library/Core/Src/usbh_ctlreq.c ****   uint16_t                     ptr;
 884              		.loc 1 390 3 view .LVU298
 885              	.LVL62:
 391:Middlewares/ST/STM32_USB_Host_Library/Core/Src/usbh_ctlreq.c ****   uint8_t                      if_ix = 0U;
 886              		.loc 1 391 3 view .LVU299
 392:Middlewares/ST/STM32_USB_Host_Library/Core/Src/usbh_ctlreq.c ****   uint8_t                      ep_ix = 0U;
 887              		.loc 1 392 3 view .LVU300
 393:Middlewares/ST/STM32_USB_Host_Library/Core/Src/usbh_ctlreq.c **** 
 888              		.loc 1 393 3 view .LVU301
 395:Middlewares/ST/STM32_USB_Host_Library/Core/Src/usbh_ctlreq.c **** 
 889              		.loc 1 395 3 view .LVU302
 398:Middlewares/ST/STM32_USB_Host_Library/Core/Src/usbh_ctlreq.c ****   cfg_desc->bDescriptorType     = *(uint8_t *)(buf + 1);
 890              		.loc 1 398 3 view .LVU303
 398:Middlewares/ST/STM32_USB_Host_Library/Core/Src/usbh_ctlreq.c ****   cfg_desc->bDescriptorType     = *(uint8_t *)(buf + 1);
 891              		.loc 1 398 35 is_stmt 0 view .LVU304
 892 0008 0B78     		ldrb	r3, [r1]	@ zero_extendqisi2
ARM GAS  /tmp/ccskp59e.s 			page 37


 398:Middlewares/ST/STM32_USB_Host_Library/Core/Src/usbh_ctlreq.c ****   cfg_desc->bDescriptorType     = *(uint8_t *)(buf + 1);
 893              		.loc 1 398 33 view .LVU305
 894 000a 0370     		strb	r3, [r0]
 399:Middlewares/ST/STM32_USB_Host_Library/Core/Src/usbh_ctlreq.c ****   cfg_desc->wTotalLength        = LE16(buf + 2);
 895              		.loc 1 399 3 is_stmt 1 view .LVU306
 399:Middlewares/ST/STM32_USB_Host_Library/Core/Src/usbh_ctlreq.c ****   cfg_desc->wTotalLength        = LE16(buf + 2);
 896              		.loc 1 399 33 is_stmt 0 view .LVU307
 897 000c 4B78     		ldrb	r3, [r1, #1]	@ zero_extendqisi2
 898 000e 4370     		strb	r3, [r0, #1]
 400:Middlewares/ST/STM32_USB_Host_Library/Core/Src/usbh_ctlreq.c ****   cfg_desc->bNumInterfaces      = *(uint8_t *)(buf + 4);
 899              		.loc 1 400 3 is_stmt 1 view .LVU308
 400:Middlewares/ST/STM32_USB_Host_Library/Core/Src/usbh_ctlreq.c ****   cfg_desc->bNumInterfaces      = *(uint8_t *)(buf + 4);
 900              		.loc 1 400 35 is_stmt 0 view .LVU309
 901 0010 8B78     		ldrb	r3, [r1, #2]	@ zero_extendqisi2
 902 0012 C978     		ldrb	r1, [r1, #3]	@ zero_extendqisi2
 903              	.LVL63:
 400:Middlewares/ST/STM32_USB_Host_Library/Core/Src/usbh_ctlreq.c ****   cfg_desc->bNumInterfaces      = *(uint8_t *)(buf + 4);
 904              		.loc 1 400 35 view .LVU310
 905 0014 43EA0123 		orr	r3, r3, r1, lsl #8
 400:Middlewares/ST/STM32_USB_Host_Library/Core/Src/usbh_ctlreq.c ****   cfg_desc->bNumInterfaces      = *(uint8_t *)(buf + 4);
 906              		.loc 1 400 33 view .LVU311
 907 0018 4380     		strh	r3, [r0, #2]	@ movhi
 401:Middlewares/ST/STM32_USB_Host_Library/Core/Src/usbh_ctlreq.c ****   cfg_desc->bConfigurationValue = *(uint8_t *)(buf + 5);
 908              		.loc 1 401 3 is_stmt 1 view .LVU312
 401:Middlewares/ST/STM32_USB_Host_Library/Core/Src/usbh_ctlreq.c ****   cfg_desc->bConfigurationValue = *(uint8_t *)(buf + 5);
 909              		.loc 1 401 33 is_stmt 0 view .LVU313
 910 001a 2379     		ldrb	r3, [r4, #4]	@ zero_extendqisi2
 911 001c 0371     		strb	r3, [r0, #4]
 402:Middlewares/ST/STM32_USB_Host_Library/Core/Src/usbh_ctlreq.c ****   cfg_desc->iConfiguration      = *(uint8_t *)(buf + 6);
 912              		.loc 1 402 3 is_stmt 1 view .LVU314
 402:Middlewares/ST/STM32_USB_Host_Library/Core/Src/usbh_ctlreq.c ****   cfg_desc->iConfiguration      = *(uint8_t *)(buf + 6);
 913              		.loc 1 402 33 is_stmt 0 view .LVU315
 914 001e 6379     		ldrb	r3, [r4, #5]	@ zero_extendqisi2
 915 0020 4371     		strb	r3, [r0, #5]
 403:Middlewares/ST/STM32_USB_Host_Library/Core/Src/usbh_ctlreq.c ****   cfg_desc->bmAttributes        = *(uint8_t *)(buf + 7);
 916              		.loc 1 403 3 is_stmt 1 view .LVU316
 403:Middlewares/ST/STM32_USB_Host_Library/Core/Src/usbh_ctlreq.c ****   cfg_desc->bmAttributes        = *(uint8_t *)(buf + 7);
 917              		.loc 1 403 33 is_stmt 0 view .LVU317
 918 0022 A379     		ldrb	r3, [r4, #6]	@ zero_extendqisi2
 919 0024 8371     		strb	r3, [r0, #6]
 404:Middlewares/ST/STM32_USB_Host_Library/Core/Src/usbh_ctlreq.c ****   cfg_desc->bMaxPower           = *(uint8_t *)(buf + 8);
 920              		.loc 1 404 3 is_stmt 1 view .LVU318
 404:Middlewares/ST/STM32_USB_Host_Library/Core/Src/usbh_ctlreq.c ****   cfg_desc->bMaxPower           = *(uint8_t *)(buf + 8);
 921              		.loc 1 404 33 is_stmt 0 view .LVU319
 922 0026 E379     		ldrb	r3, [r4, #7]	@ zero_extendqisi2
 923 0028 C371     		strb	r3, [r0, #7]
 405:Middlewares/ST/STM32_USB_Host_Library/Core/Src/usbh_ctlreq.c **** 
 924              		.loc 1 405 3 is_stmt 1 view .LVU320
 405:Middlewares/ST/STM32_USB_Host_Library/Core/Src/usbh_ctlreq.c **** 
 925              		.loc 1 405 33 is_stmt 0 view .LVU321
 926 002a 237A     		ldrb	r3, [r4, #8]	@ zero_extendqisi2
 927 002c 0372     		strb	r3, [r0, #8]
 407:Middlewares/ST/STM32_USB_Host_Library/Core/Src/usbh_ctlreq.c ****   {
 928              		.loc 1 407 3 is_stmt 1 view .LVU322
 407:Middlewares/ST/STM32_USB_Host_Library/Core/Src/usbh_ctlreq.c ****   {
 929              		.loc 1 407 6 is_stmt 0 view .LVU323
 930 002e 092A     		cmp	r2, #9
ARM GAS  /tmp/ccskp59e.s 			page 38


 931 0030 44D9     		bls	.L69
 932 0032 0546     		mov	r5, r0
 409:Middlewares/ST/STM32_USB_Host_Library/Core/Src/usbh_ctlreq.c ****     pif = (USBH_InterfaceDescTypeDef *)0;
 933              		.loc 1 409 5 is_stmt 1 view .LVU324
 409:Middlewares/ST/STM32_USB_Host_Library/Core/Src/usbh_ctlreq.c ****     pif = (USBH_InterfaceDescTypeDef *)0;
 934              		.loc 1 409 9 is_stmt 0 view .LVU325
 935 0034 0923     		movs	r3, #9
 936 0036 ADF80630 		strh	r3, [sp, #6]	@ movhi
 410:Middlewares/ST/STM32_USB_Host_Library/Core/Src/usbh_ctlreq.c **** 
 937              		.loc 1 410 5 is_stmt 1 view .LVU326
 938              	.LVL64:
 412:Middlewares/ST/STM32_USB_Host_Library/Core/Src/usbh_ctlreq.c ****     {
 939              		.loc 1 412 5 view .LVU327
 392:Middlewares/ST/STM32_USB_Host_Library/Core/Src/usbh_ctlreq.c ****   uint8_t                      ep_ix = 0U;
 940              		.loc 1 392 32 is_stmt 0 view .LVU328
 941 003a 0026     		movs	r6, #0
 942              	.LVL65:
 943              	.L72:
 412:Middlewares/ST/STM32_USB_Host_Library/Core/Src/usbh_ctlreq.c ****     {
 944              		.loc 1 412 11 is_stmt 1 view .LVU329
 945 003c 012E     		cmp	r6, #1
 946 003e 3DD8     		bhi	.L69
 412:Middlewares/ST/STM32_USB_Host_Library/Core/Src/usbh_ctlreq.c ****     {
 947              		.loc 1 412 64 is_stmt 0 discriminator 1 view .LVU330
 948 0040 6A88     		ldrh	r2, [r5, #2]
 412:Middlewares/ST/STM32_USB_Host_Library/Core/Src/usbh_ctlreq.c ****     {
 949              		.loc 1 412 54 discriminator 1 view .LVU331
 950 0042 BDF80630 		ldrh	r3, [sp, #6]
 412:Middlewares/ST/STM32_USB_Host_Library/Core/Src/usbh_ctlreq.c ****     {
 951              		.loc 1 412 46 discriminator 1 view .LVU332
 952 0046 9A42     		cmp	r2, r3
 953 0048 38D9     		bls	.L69
 414:Middlewares/ST/STM32_USB_Host_Library/Core/Src/usbh_ctlreq.c ****       if (pdesc->bDescriptorType   == USB_DESC_TYPE_INTERFACE)
 954              		.loc 1 414 7 is_stmt 1 view .LVU333
 414:Middlewares/ST/STM32_USB_Host_Library/Core/Src/usbh_ctlreq.c ****       if (pdesc->bDescriptorType   == USB_DESC_TYPE_INTERFACE)
 955              		.loc 1 414 15 is_stmt 0 view .LVU334
 956 004a 0DF10601 		add	r1, sp, #6
 957 004e 2046     		mov	r0, r4
 958 0050 FFF7FEFF 		bl	USBH_GetNextDesc
 959              	.LVL66:
 960 0054 0446     		mov	r4, r0
 961              	.LVL67:
 415:Middlewares/ST/STM32_USB_Host_Library/Core/Src/usbh_ctlreq.c ****       {
 962              		.loc 1 415 7 is_stmt 1 view .LVU335
 415:Middlewares/ST/STM32_USB_Host_Library/Core/Src/usbh_ctlreq.c ****       {
 963              		.loc 1 415 16 is_stmt 0 view .LVU336
 964 0056 4378     		ldrb	r3, [r0, #1]	@ zero_extendqisi2
 415:Middlewares/ST/STM32_USB_Host_Library/Core/Src/usbh_ctlreq.c ****       {
 965              		.loc 1 415 10 view .LVU337
 966 0058 042B     		cmp	r3, #4
 967 005a EFD1     		bne	.L72
 417:Middlewares/ST/STM32_USB_Host_Library/Core/Src/usbh_ctlreq.c ****         USBH_ParseInterfaceDesc(pif, (uint8_t *)(void *)pdesc);
 968              		.loc 1 417 9 is_stmt 1 view .LVU338
 417:Middlewares/ST/STM32_USB_Host_Library/Core/Src/usbh_ctlreq.c ****         USBH_ParseInterfaceDesc(pif, (uint8_t *)(void *)pdesc);
 969              		.loc 1 417 34 is_stmt 0 view .LVU339
 970 005c B046     		mov	r8, r6
 417:Middlewares/ST/STM32_USB_Host_Library/Core/Src/usbh_ctlreq.c ****         USBH_ParseInterfaceDesc(pif, (uint8_t *)(void *)pdesc);
ARM GAS  /tmp/ccskp59e.s 			page 39


 971              		.loc 1 417 13 view .LVU340
 972 005e 1A20     		movs	r0, #26
 973              	.LVL68:
 417:Middlewares/ST/STM32_USB_Host_Library/Core/Src/usbh_ctlreq.c ****         USBH_ParseInterfaceDesc(pif, (uint8_t *)(void *)pdesc);
 974              		.loc 1 417 13 view .LVU341
 975 0060 00FB06F0 		mul	r0, r0, r6
 976 0064 0830     		adds	r0, r0, #8
 977 0066 2844     		add	r0, r0, r5
 978              	.LVL69:
 418:Middlewares/ST/STM32_USB_Host_Library/Core/Src/usbh_ctlreq.c **** 
 979              		.loc 1 418 9 is_stmt 1 view .LVU342
 980 0068 2146     		mov	r1, r4
 981 006a 0230     		adds	r0, r0, #2
 982              	.LVL70:
 418:Middlewares/ST/STM32_USB_Host_Library/Core/Src/usbh_ctlreq.c **** 
 983              		.loc 1 418 9 is_stmt 0 view .LVU343
 984 006c FFF7FEFF 		bl	USBH_ParseInterfaceDesc
 985              	.LVL71:
 420:Middlewares/ST/STM32_USB_Host_Library/Core/Src/usbh_ctlreq.c ****         pep = (USBH_EpDescTypeDef *)0;
 986              		.loc 1 420 9 is_stmt 1 view .LVU344
 421:Middlewares/ST/STM32_USB_Host_Library/Core/Src/usbh_ctlreq.c ****         while ((ep_ix < pif->bNumEndpoints) && (ptr < cfg_desc->wTotalLength))
 987              		.loc 1 421 9 view .LVU345
 422:Middlewares/ST/STM32_USB_Host_Library/Core/Src/usbh_ctlreq.c ****         {
 988              		.loc 1 422 9 view .LVU346
 420:Middlewares/ST/STM32_USB_Host_Library/Core/Src/usbh_ctlreq.c ****         pep = (USBH_EpDescTypeDef *)0;
 989              		.loc 1 420 15 is_stmt 0 view .LVU347
 990 0070 0027     		movs	r7, #0
 991              	.LVL72:
 992              	.L73:
 422:Middlewares/ST/STM32_USB_Host_Library/Core/Src/usbh_ctlreq.c ****         {
 993              		.loc 1 422 15 is_stmt 1 view .LVU348
 422:Middlewares/ST/STM32_USB_Host_Library/Core/Src/usbh_ctlreq.c ****         {
 994              		.loc 1 422 28 is_stmt 0 view .LVU349
 995 0072 1A23     		movs	r3, #26
 996              	.LVL73:
 422:Middlewares/ST/STM32_USB_Host_Library/Core/Src/usbh_ctlreq.c ****         {
 997              		.loc 1 422 28 view .LVU350
 998 0074 03FB0853 		mla	r3, r3, r8, r5
 999              	.LVL74:
 422:Middlewares/ST/STM32_USB_Host_Library/Core/Src/usbh_ctlreq.c ****         {
 1000              		.loc 1 422 28 view .LVU351
 1001 0078 9B7B     		ldrb	r3, [r3, #14]	@ zero_extendqisi2
 422:Middlewares/ST/STM32_USB_Host_Library/Core/Src/usbh_ctlreq.c ****         {
 1002              		.loc 1 422 15 view .LVU352
 1003 007a BB42     		cmp	r3, r7
 1004 007c 1BD9     		bls	.L75
 422:Middlewares/ST/STM32_USB_Host_Library/Core/Src/usbh_ctlreq.c ****         {
 1005              		.loc 1 422 63 discriminator 1 view .LVU353
 1006 007e 6A88     		ldrh	r2, [r5, #2]
 422:Middlewares/ST/STM32_USB_Host_Library/Core/Src/usbh_ctlreq.c ****         {
 1007              		.loc 1 422 53 discriminator 1 view .LVU354
 1008 0080 BDF80630 		ldrh	r3, [sp, #6]
 422:Middlewares/ST/STM32_USB_Host_Library/Core/Src/usbh_ctlreq.c ****         {
 1009              		.loc 1 422 45 discriminator 1 view .LVU355
 1010 0084 9A42     		cmp	r2, r3
 1011 0086 16D9     		bls	.L75
 424:Middlewares/ST/STM32_USB_Host_Library/Core/Src/usbh_ctlreq.c ****           if (pdesc->bDescriptorType   == USB_DESC_TYPE_ENDPOINT)
ARM GAS  /tmp/ccskp59e.s 			page 40


 1012              		.loc 1 424 11 is_stmt 1 view .LVU356
 424:Middlewares/ST/STM32_USB_Host_Library/Core/Src/usbh_ctlreq.c ****           if (pdesc->bDescriptorType   == USB_DESC_TYPE_ENDPOINT)
 1013              		.loc 1 424 19 is_stmt 0 view .LVU357
 1014 0088 0DF10601 		add	r1, sp, #6
 1015 008c 2046     		mov	r0, r4
 1016 008e FFF7FEFF 		bl	USBH_GetNextDesc
 1017              	.LVL75:
 1018 0092 0446     		mov	r4, r0
 1019              	.LVL76:
 425:Middlewares/ST/STM32_USB_Host_Library/Core/Src/usbh_ctlreq.c ****           {
 1020              		.loc 1 425 11 is_stmt 1 view .LVU358
 425:Middlewares/ST/STM32_USB_Host_Library/Core/Src/usbh_ctlreq.c ****           {
 1021              		.loc 1 425 20 is_stmt 0 view .LVU359
 1022 0094 4378     		ldrb	r3, [r0, #1]	@ zero_extendqisi2
 425:Middlewares/ST/STM32_USB_Host_Library/Core/Src/usbh_ctlreq.c ****           {
 1023              		.loc 1 425 14 view .LVU360
 1024 0096 052B     		cmp	r3, #5
 1025 0098 EBD1     		bne	.L73
 427:Middlewares/ST/STM32_USB_Host_Library/Core/Src/usbh_ctlreq.c ****             USBH_ParseEPDesc(pep, (uint8_t *)(void *)pdesc);
 1026              		.loc 1 427 13 is_stmt 1 view .LVU361
 427:Middlewares/ST/STM32_USB_Host_Library/Core/Src/usbh_ctlreq.c ****             USBH_ParseEPDesc(pep, (uint8_t *)(void *)pdesc);
 1027              		.loc 1 427 17 is_stmt 0 view .LVU362
 1028 009a 0137     		adds	r7, r7, #1
 1029              	.LVL77:
 427:Middlewares/ST/STM32_USB_Host_Library/Core/Src/usbh_ctlreq.c ****             USBH_ParseEPDesc(pep, (uint8_t *)(void *)pdesc);
 1030              		.loc 1 427 17 view .LVU363
 1031 009c 1A20     		movs	r0, #26
 1032              	.LVL78:
 427:Middlewares/ST/STM32_USB_Host_Library/Core/Src/usbh_ctlreq.c ****             USBH_ParseEPDesc(pep, (uint8_t *)(void *)pdesc);
 1033              		.loc 1 427 17 view .LVU364
 1034 009e 00FB08F0 		mul	r0, r0, r8
 1035              	.LVL79:
 427:Middlewares/ST/STM32_USB_Host_Library/Core/Src/usbh_ctlreq.c ****             USBH_ParseEPDesc(pep, (uint8_t *)(void *)pdesc);
 1036              		.loc 1 427 17 view .LVU365
 1037 00a2 00EBC700 		add	r0, r0, r7, lsl #3
 1038 00a6 0830     		adds	r0, r0, #8
 1039 00a8 2844     		add	r0, r0, r5
 1040              	.LVL80:
 428:Middlewares/ST/STM32_USB_Host_Library/Core/Src/usbh_ctlreq.c ****             ep_ix++;
 1041              		.loc 1 428 13 is_stmt 1 view .LVU366
 1042 00aa 2146     		mov	r1, r4
 1043 00ac 0430     		adds	r0, r0, #4
 1044              	.LVL81:
 428:Middlewares/ST/STM32_USB_Host_Library/Core/Src/usbh_ctlreq.c ****             ep_ix++;
 1045              		.loc 1 428 13 is_stmt 0 view .LVU367
 1046 00ae FFF7FEFF 		bl	USBH_ParseEPDesc
 1047              	.LVL82:
 429:Middlewares/ST/STM32_USB_Host_Library/Core/Src/usbh_ctlreq.c ****           }
 1048              		.loc 1 429 13 is_stmt 1 view .LVU368
 429:Middlewares/ST/STM32_USB_Host_Library/Core/Src/usbh_ctlreq.c ****           }
 1049              		.loc 1 429 18 is_stmt 0 view .LVU369
 1050 00b2 FFB2     		uxtb	r7, r7
 1051              	.LVL83:
 429:Middlewares/ST/STM32_USB_Host_Library/Core/Src/usbh_ctlreq.c ****           }
 1052              		.loc 1 429 18 view .LVU370
 1053 00b4 DDE7     		b	.L73
 1054              	.L75:
ARM GAS  /tmp/ccskp59e.s 			page 41


 432:Middlewares/ST/STM32_USB_Host_Library/Core/Src/usbh_ctlreq.c ****       }
 1055              		.loc 1 432 9 is_stmt 1 view .LVU371
 432:Middlewares/ST/STM32_USB_Host_Library/Core/Src/usbh_ctlreq.c ****       }
 1056              		.loc 1 432 14 is_stmt 0 view .LVU372
 1057 00b6 0136     		adds	r6, r6, #1
 1058              	.LVL84:
 432:Middlewares/ST/STM32_USB_Host_Library/Core/Src/usbh_ctlreq.c ****       }
 1059              		.loc 1 432 14 view .LVU373
 1060 00b8 F6B2     		uxtb	r6, r6
 1061              	.LVL85:
 432:Middlewares/ST/STM32_USB_Host_Library/Core/Src/usbh_ctlreq.c ****       }
 1062              		.loc 1 432 14 view .LVU374
 1063 00ba BFE7     		b	.L72
 1064              	.LVL86:
 1065              	.L69:
 436:Middlewares/ST/STM32_USB_Host_Library/Core/Src/usbh_ctlreq.c **** 
 1066              		.loc 1 436 1 view .LVU375
 1067 00bc 02B0     		add	sp, sp, #8
 1068              	.LCFI10:
 1069              		.cfi_def_cfa_offset 24
 1070              		@ sp needed
 1071 00be BDE8F081 		pop	{r4, r5, r6, r7, r8, pc}
 436:Middlewares/ST/STM32_USB_Host_Library/Core/Src/usbh_ctlreq.c **** 
 1072              		.loc 1 436 1 view .LVU376
 1073              		.cfi_endproc
 1074              	.LFE78:
 1076              		.section	.text.USBH_CtlReq,"ax",%progbits
 1077              		.align	1
 1078              		.global	USBH_CtlReq
 1079              		.syntax unified
 1080              		.thumb
 1081              		.thumb_func
 1082              		.fpu softvfp
 1084              	USBH_CtlReq:
 1085              	.LVL87:
 1086              	.LFB83:
 552:Middlewares/ST/STM32_USB_Host_Library/Core/Src/usbh_ctlreq.c ****   USBH_StatusTypeDef status;
 1087              		.loc 1 552 1 is_stmt 1 view -0
 1088              		.cfi_startproc
 1089              		@ args = 0, pretend = 0, frame = 0
 1090              		@ frame_needed = 0, uses_anonymous_args = 0
 552:Middlewares/ST/STM32_USB_Host_Library/Core/Src/usbh_ctlreq.c ****   USBH_StatusTypeDef status;
 1091              		.loc 1 552 1 is_stmt 0 view .LVU378
 1092 0000 10B5     		push	{r4, lr}
 1093              	.LCFI11:
 1094              		.cfi_def_cfa_offset 8
 1095              		.cfi_offset 4, -8
 1096              		.cfi_offset 14, -4
 1097 0002 0446     		mov	r4, r0
 553:Middlewares/ST/STM32_USB_Host_Library/Core/Src/usbh_ctlreq.c ****   status = USBH_BUSY;
 1098              		.loc 1 553 3 is_stmt 1 view .LVU379
 554:Middlewares/ST/STM32_USB_Host_Library/Core/Src/usbh_ctlreq.c **** 
 1099              		.loc 1 554 3 view .LVU380
 1100              	.LVL88:
 556:Middlewares/ST/STM32_USB_Host_Library/Core/Src/usbh_ctlreq.c ****   {
 1101              		.loc 1 556 3 view .LVU381
 556:Middlewares/ST/STM32_USB_Host_Library/Core/Src/usbh_ctlreq.c ****   {
ARM GAS  /tmp/ccskp59e.s 			page 42


 1102              		.loc 1 556 16 is_stmt 0 view .LVU382
 1103 0004 8078     		ldrb	r0, [r0, #2]	@ zero_extendqisi2
 1104              	.LVL89:
 556:Middlewares/ST/STM32_USB_Host_Library/Core/Src/usbh_ctlreq.c ****   {
 1105              		.loc 1 556 3 view .LVU383
 1106 0006 0128     		cmp	r0, #1
 1107 0008 03D0     		beq	.L80
 1108 000a 0228     		cmp	r0, #2
 1109 000c 08D0     		beq	.L81
 1110 000e 0120     		movs	r0, #1
 1111              	.LVL90:
 1112              	.L82:
 606:Middlewares/ST/STM32_USB_Host_Library/Core/Src/usbh_ctlreq.c **** }
 1113              		.loc 1 606 3 is_stmt 1 view .LVU384
 607:Middlewares/ST/STM32_USB_Host_Library/Core/Src/usbh_ctlreq.c **** 
 1114              		.loc 1 607 1 is_stmt 0 view .LVU385
 1115 0010 10BD     		pop	{r4, pc}
 1116              	.LVL91:
 1117              	.L80:
 560:Middlewares/ST/STM32_USB_Host_Library/Core/Src/usbh_ctlreq.c ****       phost->Control.length = length;
 1118              		.loc 1 560 7 is_stmt 1 view .LVU386
 560:Middlewares/ST/STM32_USB_Host_Library/Core/Src/usbh_ctlreq.c ****       phost->Control.length = length;
 1119              		.loc 1 560 27 is_stmt 0 view .LVU387
 1120 0012 A160     		str	r1, [r4, #8]
 561:Middlewares/ST/STM32_USB_Host_Library/Core/Src/usbh_ctlreq.c ****       phost->Control.state = CTRL_SETUP;
 1121              		.loc 1 561 7 is_stmt 1 view .LVU388
 561:Middlewares/ST/STM32_USB_Host_Library/Core/Src/usbh_ctlreq.c ****       phost->Control.state = CTRL_SETUP;
 1122              		.loc 1 561 29 is_stmt 0 view .LVU389
 1123 0014 A281     		strh	r2, [r4, #12]	@ movhi
 562:Middlewares/ST/STM32_USB_Host_Library/Core/Src/usbh_ctlreq.c ****       phost->RequestState = CMD_WAIT;
 1124              		.loc 1 562 7 is_stmt 1 view .LVU390
 562:Middlewares/ST/STM32_USB_Host_Library/Core/Src/usbh_ctlreq.c ****       phost->RequestState = CMD_WAIT;
 1125              		.loc 1 562 28 is_stmt 0 view .LVU391
 1126 0016 0123     		movs	r3, #1
 1127 0018 2376     		strb	r3, [r4, #24]
 563:Middlewares/ST/STM32_USB_Host_Library/Core/Src/usbh_ctlreq.c ****       status = USBH_BUSY;
 1128              		.loc 1 563 7 is_stmt 1 view .LVU392
 563:Middlewares/ST/STM32_USB_Host_Library/Core/Src/usbh_ctlreq.c ****       status = USBH_BUSY;
 1129              		.loc 1 563 27 is_stmt 0 view .LVU393
 1130 001a 0223     		movs	r3, #2
 1131 001c A370     		strb	r3, [r4, #2]
 564:Middlewares/ST/STM32_USB_Host_Library/Core/Src/usbh_ctlreq.c **** 
 1132              		.loc 1 564 7 is_stmt 1 view .LVU394
 574:Middlewares/ST/STM32_USB_Host_Library/Core/Src/usbh_ctlreq.c **** 
 1133              		.loc 1 574 7 view .LVU395
 1134 001e F7E7     		b	.L82
 1135              	.L81:
 577:Middlewares/ST/STM32_USB_Host_Library/Core/Src/usbh_ctlreq.c ****       if (status == USBH_OK)
 1136              		.loc 1 577 7 view .LVU396
 577:Middlewares/ST/STM32_USB_Host_Library/Core/Src/usbh_ctlreq.c ****       if (status == USBH_OK)
 1137              		.loc 1 577 16 is_stmt 0 view .LVU397
 1138 0020 2046     		mov	r0, r4
 1139 0022 FFF7FEFF 		bl	USBH_HandleControl
 1140              	.LVL92:
 578:Middlewares/ST/STM32_USB_Host_Library/Core/Src/usbh_ctlreq.c ****       {
 1141              		.loc 1 578 7 is_stmt 1 view .LVU398
 578:Middlewares/ST/STM32_USB_Host_Library/Core/Src/usbh_ctlreq.c ****       {
ARM GAS  /tmp/ccskp59e.s 			page 43


 1142              		.loc 1 578 10 is_stmt 0 view .LVU399
 1143 0026 20B9     		cbnz	r0, .L83
 581:Middlewares/ST/STM32_USB_Host_Library/Core/Src/usbh_ctlreq.c ****         phost->Control.state = CTRL_IDLE;
 1144              		.loc 1 581 9 is_stmt 1 view .LVU400
 581:Middlewares/ST/STM32_USB_Host_Library/Core/Src/usbh_ctlreq.c ****         phost->Control.state = CTRL_IDLE;
 1145              		.loc 1 581 29 is_stmt 0 view .LVU401
 1146 0028 0123     		movs	r3, #1
 1147 002a A370     		strb	r3, [r4, #2]
 582:Middlewares/ST/STM32_USB_Host_Library/Core/Src/usbh_ctlreq.c ****         status = USBH_OK;
 1148              		.loc 1 582 9 is_stmt 1 view .LVU402
 582:Middlewares/ST/STM32_USB_Host_Library/Core/Src/usbh_ctlreq.c ****         status = USBH_OK;
 1149              		.loc 1 582 30 is_stmt 0 view .LVU403
 1150 002c 0023     		movs	r3, #0
 1151 002e 2376     		strb	r3, [r4, #24]
 583:Middlewares/ST/STM32_USB_Host_Library/Core/Src/usbh_ctlreq.c ****       }
 1152              		.loc 1 583 9 is_stmt 1 view .LVU404
 1153              	.LVL93:
 583:Middlewares/ST/STM32_USB_Host_Library/Core/Src/usbh_ctlreq.c ****       }
 1154              		.loc 1 583 9 is_stmt 0 view .LVU405
 1155 0030 EEE7     		b	.L82
 1156              	.LVL94:
 1157              	.L83:
 585:Middlewares/ST/STM32_USB_Host_Library/Core/Src/usbh_ctlreq.c ****       {
 1158              		.loc 1 585 12 is_stmt 1 view .LVU406
 585:Middlewares/ST/STM32_USB_Host_Library/Core/Src/usbh_ctlreq.c ****       {
 1159              		.loc 1 585 15 is_stmt 0 view .LVU407
 1160 0032 0328     		cmp	r0, #3
 1161 0034 04D0     		beq	.L86
 594:Middlewares/ST/STM32_USB_Host_Library/Core/Src/usbh_ctlreq.c ****         {
 1162              		.loc 1 594 9 is_stmt 1 view .LVU408
 594:Middlewares/ST/STM32_USB_Host_Library/Core/Src/usbh_ctlreq.c ****         {
 1163              		.loc 1 594 12 is_stmt 0 view .LVU409
 1164 0036 0228     		cmp	r0, #2
 1165 0038 EAD1     		bne	.L82
 597:Middlewares/ST/STM32_USB_Host_Library/Core/Src/usbh_ctlreq.c ****           status = USBH_FAIL;
 1166              		.loc 1 597 11 is_stmt 1 view .LVU410
 597:Middlewares/ST/STM32_USB_Host_Library/Core/Src/usbh_ctlreq.c ****           status = USBH_FAIL;
 1167              		.loc 1 597 31 is_stmt 0 view .LVU411
 1168 003a 0123     		movs	r3, #1
 1169 003c A370     		strb	r3, [r4, #2]
 598:Middlewares/ST/STM32_USB_Host_Library/Core/Src/usbh_ctlreq.c ****         }
 1170              		.loc 1 598 11 is_stmt 1 view .LVU412
 1171              	.LVL95:
 598:Middlewares/ST/STM32_USB_Host_Library/Core/Src/usbh_ctlreq.c ****         }
 1172              		.loc 1 598 11 is_stmt 0 view .LVU413
 1173 003e E7E7     		b	.L82
 1174              	.LVL96:
 1175              	.L86:
 588:Middlewares/ST/STM32_USB_Host_Library/Core/Src/usbh_ctlreq.c ****         phost->Control.state = CTRL_IDLE;
 1176              		.loc 1 588 9 is_stmt 1 view .LVU414
 588:Middlewares/ST/STM32_USB_Host_Library/Core/Src/usbh_ctlreq.c ****         phost->Control.state = CTRL_IDLE;
 1177              		.loc 1 588 29 is_stmt 0 view .LVU415
 1178 0040 0123     		movs	r3, #1
 1179 0042 A370     		strb	r3, [r4, #2]
 589:Middlewares/ST/STM32_USB_Host_Library/Core/Src/usbh_ctlreq.c ****         status = USBH_NOT_SUPPORTED;
 1180              		.loc 1 589 9 is_stmt 1 view .LVU416
 589:Middlewares/ST/STM32_USB_Host_Library/Core/Src/usbh_ctlreq.c ****         status = USBH_NOT_SUPPORTED;
ARM GAS  /tmp/ccskp59e.s 			page 44


 1181              		.loc 1 589 30 is_stmt 0 view .LVU417
 1182 0044 0023     		movs	r3, #0
 1183 0046 2376     		strb	r3, [r4, #24]
 590:Middlewares/ST/STM32_USB_Host_Library/Core/Src/usbh_ctlreq.c ****       }
 1184              		.loc 1 590 9 is_stmt 1 view .LVU418
 1185              	.LVL97:
 590:Middlewares/ST/STM32_USB_Host_Library/Core/Src/usbh_ctlreq.c ****       }
 1186              		.loc 1 590 9 is_stmt 0 view .LVU419
 1187 0048 E2E7     		b	.L82
 1188              		.cfi_endproc
 1189              	.LFE83:
 1191              		.section	.text.USBH_GetDescriptor,"ax",%progbits
 1192              		.align	1
 1193              		.global	USBH_GetDescriptor
 1194              		.syntax unified
 1195              		.thumb
 1196              		.thumb_func
 1197              		.fpu softvfp
 1199              	USBH_GetDescriptor:
 1200              	.LVL98:
 1201              	.LFB71:
 198:Middlewares/ST/STM32_USB_Host_Library/Core/Src/usbh_ctlreq.c ****   if (phost->RequestState == CMD_SEND)
 1202              		.loc 1 198 1 is_stmt 1 view -0
 1203              		.cfi_startproc
 1204              		@ args = 4, pretend = 0, frame = 0
 1205              		@ frame_needed = 0, uses_anonymous_args = 0
 198:Middlewares/ST/STM32_USB_Host_Library/Core/Src/usbh_ctlreq.c ****   if (phost->RequestState == CMD_SEND)
 1206              		.loc 1 198 1 is_stmt 0 view .LVU421
 1207 0000 38B5     		push	{r3, r4, r5, lr}
 1208              	.LCFI12:
 1209              		.cfi_def_cfa_offset 16
 1210              		.cfi_offset 3, -16
 1211              		.cfi_offset 4, -12
 1212              		.cfi_offset 5, -8
 1213              		.cfi_offset 14, -4
 1214 0002 0D46     		mov	r5, r1
 1215 0004 1446     		mov	r4, r2
 1216 0006 1946     		mov	r1, r3
 1217              	.LVL99:
 198:Middlewares/ST/STM32_USB_Host_Library/Core/Src/usbh_ctlreq.c ****   if (phost->RequestState == CMD_SEND)
 1218              		.loc 1 198 1 view .LVU422
 1219 0008 BDF81020 		ldrh	r2, [sp, #16]
 1220              	.LVL100:
 199:Middlewares/ST/STM32_USB_Host_Library/Core/Src/usbh_ctlreq.c ****   {
 1221              		.loc 1 199 3 is_stmt 1 view .LVU423
 199:Middlewares/ST/STM32_USB_Host_Library/Core/Src/usbh_ctlreq.c ****   {
 1222              		.loc 1 199 12 is_stmt 0 view .LVU424
 1223 000c 8378     		ldrb	r3, [r0, #2]	@ zero_extendqisi2
 1224              	.LVL101:
 199:Middlewares/ST/STM32_USB_Host_Library/Core/Src/usbh_ctlreq.c ****   {
 1225              		.loc 1 199 6 view .LVU425
 1226 000e 012B     		cmp	r3, #1
 1227 0010 02D0     		beq	.L92
 1228              	.L88:
 216:Middlewares/ST/STM32_USB_Host_Library/Core/Src/usbh_ctlreq.c **** }
 1229              		.loc 1 216 3 is_stmt 1 view .LVU426
 216:Middlewares/ST/STM32_USB_Host_Library/Core/Src/usbh_ctlreq.c **** }
ARM GAS  /tmp/ccskp59e.s 			page 45


 1230              		.loc 1 216 10 is_stmt 0 view .LVU427
 1231 0012 FFF7FEFF 		bl	USBH_CtlReq
 1232              	.LVL102:
 217:Middlewares/ST/STM32_USB_Host_Library/Core/Src/usbh_ctlreq.c **** 
 1233              		.loc 1 217 1 view .LVU428
 1234 0016 38BD     		pop	{r3, r4, r5, pc}
 1235              	.LVL103:
 1236              	.L92:
 201:Middlewares/ST/STM32_USB_Host_Library/Core/Src/usbh_ctlreq.c ****     phost->Control.setup.b.bRequest = USB_REQ_GET_DESCRIPTOR;
 1237              		.loc 1 201 5 is_stmt 1 view .LVU429
 201:Middlewares/ST/STM32_USB_Host_Library/Core/Src/usbh_ctlreq.c ****     phost->Control.setup.b.bRequest = USB_REQ_GET_DESCRIPTOR;
 1238              		.loc 1 201 42 is_stmt 0 view .LVU430
 1239 0018 65F07F05 		orn	r5, r5, #127
 1240 001c 0574     		strb	r5, [r0, #16]
 202:Middlewares/ST/STM32_USB_Host_Library/Core/Src/usbh_ctlreq.c ****     phost->Control.setup.b.wValue.w = value_idx;
 1241              		.loc 1 202 5 is_stmt 1 view .LVU431
 202:Middlewares/ST/STM32_USB_Host_Library/Core/Src/usbh_ctlreq.c ****     phost->Control.setup.b.wValue.w = value_idx;
 1242              		.loc 1 202 37 is_stmt 0 view .LVU432
 1243 001e 0623     		movs	r3, #6
 1244 0020 4374     		strb	r3, [r0, #17]
 203:Middlewares/ST/STM32_USB_Host_Library/Core/Src/usbh_ctlreq.c **** 
 1245              		.loc 1 203 5 is_stmt 1 view .LVU433
 203:Middlewares/ST/STM32_USB_Host_Library/Core/Src/usbh_ctlreq.c **** 
 1246              		.loc 1 203 37 is_stmt 0 view .LVU434
 1247 0022 4482     		strh	r4, [r0, #18]	@ movhi
 205:Middlewares/ST/STM32_USB_Host_Library/Core/Src/usbh_ctlreq.c ****     {
 1248              		.loc 1 205 5 is_stmt 1 view .LVU435
 205:Middlewares/ST/STM32_USB_Host_Library/Core/Src/usbh_ctlreq.c ****     {
 1249              		.loc 1 205 8 is_stmt 0 view .LVU436
 1250 0024 04F47F44 		and	r4, r4, #65280
 1251 0028 B4F5407F 		cmp	r4, #768
 1252 002c 03D0     		beq	.L93
 211:Middlewares/ST/STM32_USB_Host_Library/Core/Src/usbh_ctlreq.c ****     }
 1253              		.loc 1 211 7 is_stmt 1 view .LVU437
 211:Middlewares/ST/STM32_USB_Host_Library/Core/Src/usbh_ctlreq.c ****     }
 1254              		.loc 1 211 39 is_stmt 0 view .LVU438
 1255 002e 0023     		movs	r3, #0
 1256 0030 8382     		strh	r3, [r0, #20]	@ movhi
 1257              	.L90:
 213:Middlewares/ST/STM32_USB_Host_Library/Core/Src/usbh_ctlreq.c ****   }
 1258              		.loc 1 213 5 is_stmt 1 view .LVU439
 213:Middlewares/ST/STM32_USB_Host_Library/Core/Src/usbh_ctlreq.c ****   }
 1259              		.loc 1 213 38 is_stmt 0 view .LVU440
 1260 0032 C282     		strh	r2, [r0, #22]	@ movhi
 1261 0034 EDE7     		b	.L88
 1262              	.L93:
 207:Middlewares/ST/STM32_USB_Host_Library/Core/Src/usbh_ctlreq.c ****     }
 1263              		.loc 1 207 7 is_stmt 1 view .LVU441
 207:Middlewares/ST/STM32_USB_Host_Library/Core/Src/usbh_ctlreq.c ****     }
 1264              		.loc 1 207 39 is_stmt 0 view .LVU442
 1265 0036 40F20943 		movw	r3, #1033
 1266 003a 8382     		strh	r3, [r0, #20]	@ movhi
 1267 003c F9E7     		b	.L90
 1268              		.cfi_endproc
 1269              	.LFE71:
 1271              		.section	.text.USBH_Get_DevDesc,"ax",%progbits
 1272              		.align	1
ARM GAS  /tmp/ccskp59e.s 			page 46


 1273              		.global	USBH_Get_DevDesc
 1274              		.syntax unified
 1275              		.thumb
 1276              		.thumb_func
 1277              		.fpu softvfp
 1279              	USBH_Get_DevDesc:
 1280              	.LVL104:
 1281              	.LFB68:
 104:Middlewares/ST/STM32_USB_Host_Library/Core/Src/usbh_ctlreq.c ****   USBH_StatusTypeDef status;
 1282              		.loc 1 104 1 is_stmt 1 view -0
 1283              		.cfi_startproc
 1284              		@ args = 0, pretend = 0, frame = 0
 1285              		@ frame_needed = 0, uses_anonymous_args = 0
 104:Middlewares/ST/STM32_USB_Host_Library/Core/Src/usbh_ctlreq.c ****   USBH_StatusTypeDef status;
 1286              		.loc 1 104 1 is_stmt 0 view .LVU444
 1287 0000 F0B5     		push	{r4, r5, r6, r7, lr}
 1288              	.LCFI13:
 1289              		.cfi_def_cfa_offset 20
 1290              		.cfi_offset 4, -20
 1291              		.cfi_offset 5, -16
 1292              		.cfi_offset 6, -12
 1293              		.cfi_offset 7, -8
 1294              		.cfi_offset 14, -4
 1295 0002 83B0     		sub	sp, sp, #12
 1296              	.LCFI14:
 1297              		.cfi_def_cfa_offset 32
 1298 0004 0446     		mov	r4, r0
 105:Middlewares/ST/STM32_USB_Host_Library/Core/Src/usbh_ctlreq.c **** 
 1299              		.loc 1 105 3 is_stmt 1 view .LVU445
 107:Middlewares/ST/STM32_USB_Host_Library/Core/Src/usbh_ctlreq.c ****                                    USB_REQ_RECIPIENT_DEVICE | USB_REQ_TYPE_STANDARD,
 1300              		.loc 1 107 3 view .LVU446
 109:Middlewares/ST/STM32_USB_Host_Library/Core/Src/usbh_ctlreq.c ****                                    (uint16_t)length)) == USBH_OK)
 1301              		.loc 1 109 66 is_stmt 0 view .LVU447
 1302 0006 00F58E76 		add	r6, r0, #284
 107:Middlewares/ST/STM32_USB_Host_Library/Core/Src/usbh_ctlreq.c ****                                    USB_REQ_RECIPIENT_DEVICE | USB_REQ_TYPE_STANDARD,
 1303              		.loc 1 107 17 view .LVU448
 1304 000a 0D46     		mov	r5, r1
 1305 000c 0091     		str	r1, [sp]
 1306 000e 3346     		mov	r3, r6
 1307 0010 4FF48072 		mov	r2, #256
 1308 0014 0021     		movs	r1, #0
 1309              	.LVL105:
 107:Middlewares/ST/STM32_USB_Host_Library/Core/Src/usbh_ctlreq.c ****                                    USB_REQ_RECIPIENT_DEVICE | USB_REQ_TYPE_STANDARD,
 1310              		.loc 1 107 17 view .LVU449
 1311 0016 FFF7FEFF 		bl	USBH_GetDescriptor
 1312              	.LVL106:
 107:Middlewares/ST/STM32_USB_Host_Library/Core/Src/usbh_ctlreq.c ****                                    USB_REQ_RECIPIENT_DEVICE | USB_REQ_TYPE_STANDARD,
 1313              		.loc 1 107 6 view .LVU450
 1314 001a 0746     		mov	r7, r0
 1315 001c 10B1     		cbz	r0, .L97
 1316              	.LVL107:
 1317              	.L95:
 117:Middlewares/ST/STM32_USB_Host_Library/Core/Src/usbh_ctlreq.c **** }
 1318              		.loc 1 117 3 is_stmt 1 view .LVU451
 118:Middlewares/ST/STM32_USB_Host_Library/Core/Src/usbh_ctlreq.c **** 
 1319              		.loc 1 118 1 is_stmt 0 view .LVU452
 1320 001e 3846     		mov	r0, r7
ARM GAS  /tmp/ccskp59e.s 			page 47


 1321 0020 03B0     		add	sp, sp, #12
 1322              	.LCFI15:
 1323              		.cfi_remember_state
 1324              		.cfi_def_cfa_offset 20
 1325              		@ sp needed
 1326 0022 F0BD     		pop	{r4, r5, r6, r7, pc}
 1327              	.LVL108:
 1328              	.L97:
 1329              	.LCFI16:
 1330              		.cfi_restore_state
 113:Middlewares/ST/STM32_USB_Host_Library/Core/Src/usbh_ctlreq.c ****                       (uint16_t)length);
 1331              		.loc 1 113 5 is_stmt 1 view .LVU453
 1332 0024 2A46     		mov	r2, r5
 1333 0026 3146     		mov	r1, r6
 1334 0028 04F54970 		add	r0, r4, #804
 1335              	.LVL109:
 113:Middlewares/ST/STM32_USB_Host_Library/Core/Src/usbh_ctlreq.c ****                       (uint16_t)length);
 1336              		.loc 1 113 5 is_stmt 0 view .LVU454
 1337 002c FFF7FEFF 		bl	USBH_ParseDevDesc
 1338              	.LVL110:
 1339 0030 F5E7     		b	.L95
 1340              		.cfi_endproc
 1341              	.LFE68:
 1343              		.section	.text.USBH_Get_CfgDesc,"ax",%progbits
 1344              		.align	1
 1345              		.global	USBH_Get_CfgDesc
 1346              		.syntax unified
 1347              		.thumb
 1348              		.thumb_func
 1349              		.fpu softvfp
 1351              	USBH_Get_CfgDesc:
 1352              	.LVL111:
 1353              	.LFB69:
 133:Middlewares/ST/STM32_USB_Host_Library/Core/Src/usbh_ctlreq.c ****   USBH_StatusTypeDef status;
 1354              		.loc 1 133 1 is_stmt 1 view -0
 1355              		.cfi_startproc
 1356              		@ args = 0, pretend = 0, frame = 0
 1357              		@ frame_needed = 0, uses_anonymous_args = 0
 133:Middlewares/ST/STM32_USB_Host_Library/Core/Src/usbh_ctlreq.c ****   USBH_StatusTypeDef status;
 1358              		.loc 1 133 1 is_stmt 0 view .LVU456
 1359 0000 F0B5     		push	{r4, r5, r6, r7, lr}
 1360              	.LCFI17:
 1361              		.cfi_def_cfa_offset 20
 1362              		.cfi_offset 4, -20
 1363              		.cfi_offset 5, -16
 1364              		.cfi_offset 6, -12
 1365              		.cfi_offset 7, -8
 1366              		.cfi_offset 14, -4
 1367 0002 83B0     		sub	sp, sp, #12
 1368              	.LCFI18:
 1369              		.cfi_def_cfa_offset 32
 1370 0004 0446     		mov	r4, r0
 1371 0006 0D46     		mov	r5, r1
 134:Middlewares/ST/STM32_USB_Host_Library/Core/Src/usbh_ctlreq.c ****   uint8_t *pData;
 1372              		.loc 1 134 3 is_stmt 1 view .LVU457
 135:Middlewares/ST/STM32_USB_Host_Library/Core/Src/usbh_ctlreq.c **** 
 1373              		.loc 1 135 3 view .LVU458
ARM GAS  /tmp/ccskp59e.s 			page 48


 138:Middlewares/ST/STM32_USB_Host_Library/Core/Src/usbh_ctlreq.c **** #else
 1374              		.loc 1 138 3 view .LVU459
 138:Middlewares/ST/STM32_USB_Host_Library/Core/Src/usbh_ctlreq.c **** #else
 1375              		.loc 1 138 9 is_stmt 0 view .LVU460
 1376 0008 00F11C06 		add	r6, r0, #28
 1377              	.LVL112:
 142:Middlewares/ST/STM32_USB_Host_Library/Core/Src/usbh_ctlreq.c ****                                    USB_DESC_CONFIGURATION, pData, length)) == USBH_OK)
 1378              		.loc 1 142 3 is_stmt 1 view .LVU461
 142:Middlewares/ST/STM32_USB_Host_Library/Core/Src/usbh_ctlreq.c ****                                    USB_DESC_CONFIGURATION, pData, length)) == USBH_OK)
 1379              		.loc 1 142 17 is_stmt 0 view .LVU462
 1380 000c 0091     		str	r1, [sp]
 1381 000e 3346     		mov	r3, r6
 1382 0010 4FF40072 		mov	r2, #512
 1383 0014 0021     		movs	r1, #0
 1384              	.LVL113:
 142:Middlewares/ST/STM32_USB_Host_Library/Core/Src/usbh_ctlreq.c ****                                    USB_DESC_CONFIGURATION, pData, length)) == USBH_OK)
 1385              		.loc 1 142 17 view .LVU463
 1386 0016 FFF7FEFF 		bl	USBH_GetDescriptor
 1387              	.LVL114:
 142:Middlewares/ST/STM32_USB_Host_Library/Core/Src/usbh_ctlreq.c ****                                    USB_DESC_CONFIGURATION, pData, length)) == USBH_OK)
 1388              		.loc 1 142 6 view .LVU464
 1389 001a 0746     		mov	r7, r0
 1390 001c 10B1     		cbz	r0, .L101
 1391              	.LVL115:
 1392              	.L99:
 149:Middlewares/ST/STM32_USB_Host_Library/Core/Src/usbh_ctlreq.c **** }
 1393              		.loc 1 149 3 is_stmt 1 view .LVU465
 150:Middlewares/ST/STM32_USB_Host_Library/Core/Src/usbh_ctlreq.c **** 
 1394              		.loc 1 150 1 is_stmt 0 view .LVU466
 1395 001e 3846     		mov	r0, r7
 1396 0020 03B0     		add	sp, sp, #12
 1397              	.LCFI19:
 1398              		.cfi_remember_state
 1399              		.cfi_def_cfa_offset 20
 1400              		@ sp needed
 1401 0022 F0BD     		pop	{r4, r5, r6, r7, pc}
 1402              	.LVL116:
 1403              	.L101:
 1404              	.LCFI20:
 1405              		.cfi_restore_state
 146:Middlewares/ST/STM32_USB_Host_Library/Core/Src/usbh_ctlreq.c ****   }
 1406              		.loc 1 146 5 is_stmt 1 view .LVU467
 1407 0024 2A46     		mov	r2, r5
 1408 0026 3146     		mov	r1, r6
 1409 0028 04F23630 		addw	r0, r4, #822
 1410              	.LVL117:
 146:Middlewares/ST/STM32_USB_Host_Library/Core/Src/usbh_ctlreq.c ****   }
 1411              		.loc 1 146 5 is_stmt 0 view .LVU468
 1412 002c FFF7FEFF 		bl	USBH_ParseCfgDesc
 1413              	.LVL118:
 1414 0030 F5E7     		b	.L99
 1415              		.cfi_endproc
 1416              	.LFE69:
 1418              		.section	.text.USBH_Get_StringDesc,"ax",%progbits
 1419              		.align	1
 1420              		.global	USBH_Get_StringDesc
 1421              		.syntax unified
ARM GAS  /tmp/ccskp59e.s 			page 49


 1422              		.thumb
 1423              		.thumb_func
 1424              		.fpu softvfp
 1426              	USBH_Get_StringDesc:
 1427              	.LVL119:
 1428              	.LFB70:
 166:Middlewares/ST/STM32_USB_Host_Library/Core/Src/usbh_ctlreq.c ****   USBH_StatusTypeDef status;
 1429              		.loc 1 166 1 is_stmt 1 view -0
 1430              		.cfi_startproc
 1431              		@ args = 0, pretend = 0, frame = 0
 1432              		@ frame_needed = 0, uses_anonymous_args = 0
 166:Middlewares/ST/STM32_USB_Host_Library/Core/Src/usbh_ctlreq.c ****   USBH_StatusTypeDef status;
 1433              		.loc 1 166 1 is_stmt 0 view .LVU470
 1434 0000 F0B5     		push	{r4, r5, r6, r7, lr}
 1435              	.LCFI21:
 1436              		.cfi_def_cfa_offset 20
 1437              		.cfi_offset 4, -20
 1438              		.cfi_offset 5, -16
 1439              		.cfi_offset 6, -12
 1440              		.cfi_offset 7, -8
 1441              		.cfi_offset 14, -4
 1442 0002 83B0     		sub	sp, sp, #12
 1443              	.LCFI22:
 1444              		.cfi_def_cfa_offset 32
 1445 0004 1646     		mov	r6, r2
 1446 0006 1D46     		mov	r5, r3
 167:Middlewares/ST/STM32_USB_Host_Library/Core/Src/usbh_ctlreq.c **** 
 1447              		.loc 1 167 3 is_stmt 1 view .LVU471
 169:Middlewares/ST/STM32_USB_Host_Library/Core/Src/usbh_ctlreq.c ****                                    USB_REQ_RECIPIENT_DEVICE | USB_REQ_TYPE_STANDARD,
 1448              		.loc 1 169 3 view .LVU472
 172:Middlewares/ST/STM32_USB_Host_Library/Core/Src/usbh_ctlreq.c ****   {
 1449              		.loc 1 172 49 is_stmt 0 view .LVU473
 1450 0008 00F58E74 		add	r4, r0, #284
 169:Middlewares/ST/STM32_USB_Host_Library/Core/Src/usbh_ctlreq.c ****                                    USB_REQ_RECIPIENT_DEVICE | USB_REQ_TYPE_STANDARD,
 1451              		.loc 1 169 17 view .LVU474
 1452 000c 0093     		str	r3, [sp]
 1453 000e 2346     		mov	r3, r4
 1454              	.LVL120:
 169:Middlewares/ST/STM32_USB_Host_Library/Core/Src/usbh_ctlreq.c ****                                    USB_REQ_RECIPIENT_DEVICE | USB_REQ_TYPE_STANDARD,
 1455              		.loc 1 169 17 view .LVU475
 1456 0010 41F44072 		orr	r2, r1, #768
 1457              	.LVL121:
 169:Middlewares/ST/STM32_USB_Host_Library/Core/Src/usbh_ctlreq.c ****                                    USB_REQ_RECIPIENT_DEVICE | USB_REQ_TYPE_STANDARD,
 1458              		.loc 1 169 17 view .LVU476
 1459 0014 0021     		movs	r1, #0
 1460              	.LVL122:
 169:Middlewares/ST/STM32_USB_Host_Library/Core/Src/usbh_ctlreq.c ****                                    USB_REQ_RECIPIENT_DEVICE | USB_REQ_TYPE_STANDARD,
 1461              		.loc 1 169 17 view .LVU477
 1462 0016 FFF7FEFF 		bl	USBH_GetDescriptor
 1463              	.LVL123:
 169:Middlewares/ST/STM32_USB_Host_Library/Core/Src/usbh_ctlreq.c ****                                    USB_REQ_RECIPIENT_DEVICE | USB_REQ_TYPE_STANDARD,
 1464              		.loc 1 169 6 view .LVU478
 1465 001a 0746     		mov	r7, r0
 1466 001c 10B1     		cbz	r0, .L105
 1467              	.LVL124:
 1468              	.L103:
 178:Middlewares/ST/STM32_USB_Host_Library/Core/Src/usbh_ctlreq.c **** }
ARM GAS  /tmp/ccskp59e.s 			page 50


 1469              		.loc 1 178 3 is_stmt 1 view .LVU479
 179:Middlewares/ST/STM32_USB_Host_Library/Core/Src/usbh_ctlreq.c **** 
 1470              		.loc 1 179 1 is_stmt 0 view .LVU480
 1471 001e 3846     		mov	r0, r7
 1472 0020 03B0     		add	sp, sp, #12
 1473              	.LCFI23:
 1474              		.cfi_remember_state
 1475              		.cfi_def_cfa_offset 20
 1476              		@ sp needed
 1477 0022 F0BD     		pop	{r4, r5, r6, r7, pc}
 1478              	.LVL125:
 1479              	.L105:
 1480              	.LCFI24:
 1481              		.cfi_restore_state
 175:Middlewares/ST/STM32_USB_Host_Library/Core/Src/usbh_ctlreq.c ****   }
 1482              		.loc 1 175 5 is_stmt 1 view .LVU481
 1483 0024 2A46     		mov	r2, r5
 1484 0026 3146     		mov	r1, r6
 1485 0028 2046     		mov	r0, r4
 1486              	.LVL126:
 175:Middlewares/ST/STM32_USB_Host_Library/Core/Src/usbh_ctlreq.c ****   }
 1487              		.loc 1 175 5 is_stmt 0 view .LVU482
 1488 002a FFF7FEFF 		bl	USBH_ParseStringDesc
 1489              	.LVL127:
 1490 002e F6E7     		b	.L103
 1491              		.cfi_endproc
 1492              	.LFE70:
 1494              		.section	.text.USBH_SetAddress,"ax",%progbits
 1495              		.align	1
 1496              		.global	USBH_SetAddress
 1497              		.syntax unified
 1498              		.thumb
 1499              		.thumb_func
 1500              		.fpu softvfp
 1502              	USBH_SetAddress:
 1503              	.LVL128:
 1504              	.LFB72:
 229:Middlewares/ST/STM32_USB_Host_Library/Core/Src/usbh_ctlreq.c ****   if (phost->RequestState == CMD_SEND)
 1505              		.loc 1 229 1 is_stmt 1 view -0
 1506              		.cfi_startproc
 1507              		@ args = 0, pretend = 0, frame = 0
 1508              		@ frame_needed = 0, uses_anonymous_args = 0
 229:Middlewares/ST/STM32_USB_Host_Library/Core/Src/usbh_ctlreq.c ****   if (phost->RequestState == CMD_SEND)
 1509              		.loc 1 229 1 is_stmt 0 view .LVU484
 1510 0000 08B5     		push	{r3, lr}
 1511              	.LCFI25:
 1512              		.cfi_def_cfa_offset 8
 1513              		.cfi_offset 3, -8
 1514              		.cfi_offset 14, -4
 230:Middlewares/ST/STM32_USB_Host_Library/Core/Src/usbh_ctlreq.c ****   {
 1515              		.loc 1 230 3 is_stmt 1 view .LVU485
 230:Middlewares/ST/STM32_USB_Host_Library/Core/Src/usbh_ctlreq.c ****   {
 1516              		.loc 1 230 12 is_stmt 0 view .LVU486
 1517 0002 8378     		ldrb	r3, [r0, #2]	@ zero_extendqisi2
 230:Middlewares/ST/STM32_USB_Host_Library/Core/Src/usbh_ctlreq.c ****   {
 1518              		.loc 1 230 6 view .LVU487
 1519 0004 012B     		cmp	r3, #1
ARM GAS  /tmp/ccskp59e.s 			page 51


 1520 0006 04D0     		beq	.L109
 1521              	.L107:
 242:Middlewares/ST/STM32_USB_Host_Library/Core/Src/usbh_ctlreq.c **** }
 1522              		.loc 1 242 3 is_stmt 1 view .LVU488
 242:Middlewares/ST/STM32_USB_Host_Library/Core/Src/usbh_ctlreq.c **** }
 1523              		.loc 1 242 10 is_stmt 0 view .LVU489
 1524 0008 0022     		movs	r2, #0
 1525 000a 1146     		mov	r1, r2
 1526              	.LVL129:
 242:Middlewares/ST/STM32_USB_Host_Library/Core/Src/usbh_ctlreq.c **** }
 1527              		.loc 1 242 10 view .LVU490
 1528 000c FFF7FEFF 		bl	USBH_CtlReq
 1529              	.LVL130:
 243:Middlewares/ST/STM32_USB_Host_Library/Core/Src/usbh_ctlreq.c **** 
 1530              		.loc 1 243 1 view .LVU491
 1531 0010 08BD     		pop	{r3, pc}
 1532              	.LVL131:
 1533              	.L109:
 232:Middlewares/ST/STM32_USB_Host_Library/Core/Src/usbh_ctlreq.c ****                                            USB_REQ_TYPE_STANDARD;
 1534              		.loc 1 232 5 is_stmt 1 view .LVU492
 232:Middlewares/ST/STM32_USB_Host_Library/Core/Src/usbh_ctlreq.c ****                                            USB_REQ_TYPE_STANDARD;
 1535              		.loc 1 232 42 is_stmt 0 view .LVU493
 1536 0012 0023     		movs	r3, #0
 1537 0014 0374     		strb	r3, [r0, #16]
 235:Middlewares/ST/STM32_USB_Host_Library/Core/Src/usbh_ctlreq.c **** 
 1538              		.loc 1 235 5 is_stmt 1 view .LVU494
 235:Middlewares/ST/STM32_USB_Host_Library/Core/Src/usbh_ctlreq.c **** 
 1539              		.loc 1 235 37 is_stmt 0 view .LVU495
 1540 0016 0522     		movs	r2, #5
 1541 0018 4274     		strb	r2, [r0, #17]
 237:Middlewares/ST/STM32_USB_Host_Library/Core/Src/usbh_ctlreq.c ****     phost->Control.setup.b.wIndex.w = 0U;
 1542              		.loc 1 237 5 is_stmt 1 view .LVU496
 237:Middlewares/ST/STM32_USB_Host_Library/Core/Src/usbh_ctlreq.c ****     phost->Control.setup.b.wIndex.w = 0U;
 1543              		.loc 1 237 37 is_stmt 0 view .LVU497
 1544 001a 4182     		strh	r1, [r0, #18]	@ movhi
 238:Middlewares/ST/STM32_USB_Host_Library/Core/Src/usbh_ctlreq.c ****     phost->Control.setup.b.wLength.w = 0U;
 1545              		.loc 1 238 5 is_stmt 1 view .LVU498
 238:Middlewares/ST/STM32_USB_Host_Library/Core/Src/usbh_ctlreq.c ****     phost->Control.setup.b.wLength.w = 0U;
 1546              		.loc 1 238 37 is_stmt 0 view .LVU499
 1547 001c 8382     		strh	r3, [r0, #20]	@ movhi
 239:Middlewares/ST/STM32_USB_Host_Library/Core/Src/usbh_ctlreq.c ****   }
 1548              		.loc 1 239 5 is_stmt 1 view .LVU500
 239:Middlewares/ST/STM32_USB_Host_Library/Core/Src/usbh_ctlreq.c ****   }
 1549              		.loc 1 239 38 is_stmt 0 view .LVU501
 1550 001e C382     		strh	r3, [r0, #22]	@ movhi
 1551 0020 F2E7     		b	.L107
 1552              		.cfi_endproc
 1553              	.LFE72:
 1555              		.section	.text.USBH_SetCfg,"ax",%progbits
 1556              		.align	1
 1557              		.global	USBH_SetCfg
 1558              		.syntax unified
 1559              		.thumb
 1560              		.thumb_func
 1561              		.fpu softvfp
 1563              	USBH_SetCfg:
 1564              	.LVL132:
ARM GAS  /tmp/ccskp59e.s 			page 52


 1565              	.LFB73:
 254:Middlewares/ST/STM32_USB_Host_Library/Core/Src/usbh_ctlreq.c ****   if (phost->RequestState == CMD_SEND)
 1566              		.loc 1 254 1 is_stmt 1 view -0
 1567              		.cfi_startproc
 1568              		@ args = 0, pretend = 0, frame = 0
 1569              		@ frame_needed = 0, uses_anonymous_args = 0
 254:Middlewares/ST/STM32_USB_Host_Library/Core/Src/usbh_ctlreq.c ****   if (phost->RequestState == CMD_SEND)
 1570              		.loc 1 254 1 is_stmt 0 view .LVU503
 1571 0000 08B5     		push	{r3, lr}
 1572              	.LCFI26:
 1573              		.cfi_def_cfa_offset 8
 1574              		.cfi_offset 3, -8
 1575              		.cfi_offset 14, -4
 255:Middlewares/ST/STM32_USB_Host_Library/Core/Src/usbh_ctlreq.c ****   {
 1576              		.loc 1 255 3 is_stmt 1 view .LVU504
 255:Middlewares/ST/STM32_USB_Host_Library/Core/Src/usbh_ctlreq.c ****   {
 1577              		.loc 1 255 12 is_stmt 0 view .LVU505
 1578 0002 8378     		ldrb	r3, [r0, #2]	@ zero_extendqisi2
 255:Middlewares/ST/STM32_USB_Host_Library/Core/Src/usbh_ctlreq.c ****   {
 1579              		.loc 1 255 6 view .LVU506
 1580 0004 012B     		cmp	r3, #1
 1581 0006 04D0     		beq	.L113
 1582              	.L111:
 266:Middlewares/ST/STM32_USB_Host_Library/Core/Src/usbh_ctlreq.c **** }
 1583              		.loc 1 266 3 is_stmt 1 view .LVU507
 266:Middlewares/ST/STM32_USB_Host_Library/Core/Src/usbh_ctlreq.c **** }
 1584              		.loc 1 266 10 is_stmt 0 view .LVU508
 1585 0008 0022     		movs	r2, #0
 1586 000a 1146     		mov	r1, r2
 1587              	.LVL133:
 266:Middlewares/ST/STM32_USB_Host_Library/Core/Src/usbh_ctlreq.c **** }
 1588              		.loc 1 266 10 view .LVU509
 1589 000c FFF7FEFF 		bl	USBH_CtlReq
 1590              	.LVL134:
 267:Middlewares/ST/STM32_USB_Host_Library/Core/Src/usbh_ctlreq.c **** 
 1591              		.loc 1 267 1 view .LVU510
 1592 0010 08BD     		pop	{r3, pc}
 1593              	.LVL135:
 1594              	.L113:
 257:Middlewares/ST/STM32_USB_Host_Library/Core/Src/usbh_ctlreq.c ****                                            | USB_REQ_TYPE_STANDARD;
 1595              		.loc 1 257 5 is_stmt 1 view .LVU511
 257:Middlewares/ST/STM32_USB_Host_Library/Core/Src/usbh_ctlreq.c ****                                            | USB_REQ_TYPE_STANDARD;
 1596              		.loc 1 257 42 is_stmt 0 view .LVU512
 1597 0012 0023     		movs	r3, #0
 1598 0014 0374     		strb	r3, [r0, #16]
 260:Middlewares/ST/STM32_USB_Host_Library/Core/Src/usbh_ctlreq.c ****     phost->Control.setup.b.wValue.w = cfg_idx;
 1599              		.loc 1 260 5 is_stmt 1 view .LVU513
 260:Middlewares/ST/STM32_USB_Host_Library/Core/Src/usbh_ctlreq.c ****     phost->Control.setup.b.wValue.w = cfg_idx;
 1600              		.loc 1 260 37 is_stmt 0 view .LVU514
 1601 0016 0922     		movs	r2, #9
 1602 0018 4274     		strb	r2, [r0, #17]
 261:Middlewares/ST/STM32_USB_Host_Library/Core/Src/usbh_ctlreq.c ****     phost->Control.setup.b.wIndex.w = 0U;
 1603              		.loc 1 261 5 is_stmt 1 view .LVU515
 261:Middlewares/ST/STM32_USB_Host_Library/Core/Src/usbh_ctlreq.c ****     phost->Control.setup.b.wIndex.w = 0U;
 1604              		.loc 1 261 37 is_stmt 0 view .LVU516
 1605 001a 4182     		strh	r1, [r0, #18]	@ movhi
 262:Middlewares/ST/STM32_USB_Host_Library/Core/Src/usbh_ctlreq.c ****     phost->Control.setup.b.wLength.w = 0U;
ARM GAS  /tmp/ccskp59e.s 			page 53


 1606              		.loc 1 262 5 is_stmt 1 view .LVU517
 262:Middlewares/ST/STM32_USB_Host_Library/Core/Src/usbh_ctlreq.c ****     phost->Control.setup.b.wLength.w = 0U;
 1607              		.loc 1 262 37 is_stmt 0 view .LVU518
 1608 001c 8382     		strh	r3, [r0, #20]	@ movhi
 263:Middlewares/ST/STM32_USB_Host_Library/Core/Src/usbh_ctlreq.c ****   }
 1609              		.loc 1 263 5 is_stmt 1 view .LVU519
 263:Middlewares/ST/STM32_USB_Host_Library/Core/Src/usbh_ctlreq.c ****   }
 1610              		.loc 1 263 38 is_stmt 0 view .LVU520
 1611 001e C382     		strh	r3, [r0, #22]	@ movhi
 1612 0020 F2E7     		b	.L111
 1613              		.cfi_endproc
 1614              	.LFE73:
 1616              		.section	.text.USBH_SetInterface,"ax",%progbits
 1617              		.align	1
 1618              		.global	USBH_SetInterface
 1619              		.syntax unified
 1620              		.thumb
 1621              		.thumb_func
 1622              		.fpu softvfp
 1624              	USBH_SetInterface:
 1625              	.LVL136:
 1626              	.LFB74:
 279:Middlewares/ST/STM32_USB_Host_Library/Core/Src/usbh_ctlreq.c ****   if (phost->RequestState == CMD_SEND)
 1627              		.loc 1 279 1 is_stmt 1 view -0
 1628              		.cfi_startproc
 1629              		@ args = 0, pretend = 0, frame = 0
 1630              		@ frame_needed = 0, uses_anonymous_args = 0
 279:Middlewares/ST/STM32_USB_Host_Library/Core/Src/usbh_ctlreq.c ****   if (phost->RequestState == CMD_SEND)
 1631              		.loc 1 279 1 is_stmt 0 view .LVU522
 1632 0000 08B5     		push	{r3, lr}
 1633              	.LCFI27:
 1634              		.cfi_def_cfa_offset 8
 1635              		.cfi_offset 3, -8
 1636              		.cfi_offset 14, -4
 280:Middlewares/ST/STM32_USB_Host_Library/Core/Src/usbh_ctlreq.c ****   {
 1637              		.loc 1 280 3 is_stmt 1 view .LVU523
 280:Middlewares/ST/STM32_USB_Host_Library/Core/Src/usbh_ctlreq.c ****   {
 1638              		.loc 1 280 12 is_stmt 0 view .LVU524
 1639 0002 8378     		ldrb	r3, [r0, #2]	@ zero_extendqisi2
 280:Middlewares/ST/STM32_USB_Host_Library/Core/Src/usbh_ctlreq.c ****   {
 1640              		.loc 1 280 6 view .LVU525
 1641 0004 012B     		cmp	r3, #1
 1642 0006 04D0     		beq	.L117
 1643              	.L115:
 291:Middlewares/ST/STM32_USB_Host_Library/Core/Src/usbh_ctlreq.c **** }
 1644              		.loc 1 291 3 is_stmt 1 view .LVU526
 291:Middlewares/ST/STM32_USB_Host_Library/Core/Src/usbh_ctlreq.c **** }
 1645              		.loc 1 291 10 is_stmt 0 view .LVU527
 1646 0008 0022     		movs	r2, #0
 1647              	.LVL137:
 291:Middlewares/ST/STM32_USB_Host_Library/Core/Src/usbh_ctlreq.c **** }
 1648              		.loc 1 291 10 view .LVU528
 1649 000a 1146     		mov	r1, r2
 1650              	.LVL138:
 291:Middlewares/ST/STM32_USB_Host_Library/Core/Src/usbh_ctlreq.c **** }
 1651              		.loc 1 291 10 view .LVU529
 1652 000c FFF7FEFF 		bl	USBH_CtlReq
ARM GAS  /tmp/ccskp59e.s 			page 54


 1653              	.LVL139:
 292:Middlewares/ST/STM32_USB_Host_Library/Core/Src/usbh_ctlreq.c **** 
 1654              		.loc 1 292 1 view .LVU530
 1655 0010 08BD     		pop	{r3, pc}
 1656              	.LVL140:
 1657              	.L117:
 282:Middlewares/ST/STM32_USB_Host_Library/Core/Src/usbh_ctlreq.c ****                                            | USB_REQ_TYPE_STANDARD;
 1658              		.loc 1 282 5 is_stmt 1 view .LVU531
 282:Middlewares/ST/STM32_USB_Host_Library/Core/Src/usbh_ctlreq.c ****                                            | USB_REQ_TYPE_STANDARD;
 1659              		.loc 1 282 42 is_stmt 0 view .LVU532
 1660 0012 0374     		strb	r3, [r0, #16]
 285:Middlewares/ST/STM32_USB_Host_Library/Core/Src/usbh_ctlreq.c ****     phost->Control.setup.b.wValue.w = altSetting;
 1661              		.loc 1 285 5 is_stmt 1 view .LVU533
 285:Middlewares/ST/STM32_USB_Host_Library/Core/Src/usbh_ctlreq.c ****     phost->Control.setup.b.wValue.w = altSetting;
 1662              		.loc 1 285 37 is_stmt 0 view .LVU534
 1663 0014 0B23     		movs	r3, #11
 1664 0016 4374     		strb	r3, [r0, #17]
 286:Middlewares/ST/STM32_USB_Host_Library/Core/Src/usbh_ctlreq.c ****     phost->Control.setup.b.wIndex.w = ep_num;
 1665              		.loc 1 286 5 is_stmt 1 view .LVU535
 286:Middlewares/ST/STM32_USB_Host_Library/Core/Src/usbh_ctlreq.c ****     phost->Control.setup.b.wIndex.w = ep_num;
 1666              		.loc 1 286 37 is_stmt 0 view .LVU536
 1667 0018 4282     		strh	r2, [r0, #18]	@ movhi
 287:Middlewares/ST/STM32_USB_Host_Library/Core/Src/usbh_ctlreq.c ****     phost->Control.setup.b.wLength.w = 0U;
 1668              		.loc 1 287 5 is_stmt 1 view .LVU537
 287:Middlewares/ST/STM32_USB_Host_Library/Core/Src/usbh_ctlreq.c ****     phost->Control.setup.b.wLength.w = 0U;
 1669              		.loc 1 287 37 is_stmt 0 view .LVU538
 1670 001a 8182     		strh	r1, [r0, #20]	@ movhi
 288:Middlewares/ST/STM32_USB_Host_Library/Core/Src/usbh_ctlreq.c ****   }
 1671              		.loc 1 288 5 is_stmt 1 view .LVU539
 288:Middlewares/ST/STM32_USB_Host_Library/Core/Src/usbh_ctlreq.c ****   }
 1672              		.loc 1 288 38 is_stmt 0 view .LVU540
 1673 001c 0023     		movs	r3, #0
 1674 001e C382     		strh	r3, [r0, #22]	@ movhi
 1675 0020 F2E7     		b	.L115
 1676              		.cfi_endproc
 1677              	.LFE74:
 1679              		.section	.text.USBH_SetFeature,"ax",%progbits
 1680              		.align	1
 1681              		.global	USBH_SetFeature
 1682              		.syntax unified
 1683              		.thumb
 1684              		.thumb_func
 1685              		.fpu softvfp
 1687              	USBH_SetFeature:
 1688              	.LVL141:
 1689              	.LFB75:
 303:Middlewares/ST/STM32_USB_Host_Library/Core/Src/usbh_ctlreq.c ****   if (phost->RequestState == CMD_SEND)
 1690              		.loc 1 303 1 is_stmt 1 view -0
 1691              		.cfi_startproc
 1692              		@ args = 0, pretend = 0, frame = 0
 1693              		@ frame_needed = 0, uses_anonymous_args = 0
 303:Middlewares/ST/STM32_USB_Host_Library/Core/Src/usbh_ctlreq.c ****   if (phost->RequestState == CMD_SEND)
 1694              		.loc 1 303 1 is_stmt 0 view .LVU542
 1695 0000 08B5     		push	{r3, lr}
 1696              	.LCFI28:
 1697              		.cfi_def_cfa_offset 8
 1698              		.cfi_offset 3, -8
ARM GAS  /tmp/ccskp59e.s 			page 55


 1699              		.cfi_offset 14, -4
 304:Middlewares/ST/STM32_USB_Host_Library/Core/Src/usbh_ctlreq.c ****   {
 1700              		.loc 1 304 3 is_stmt 1 view .LVU543
 304:Middlewares/ST/STM32_USB_Host_Library/Core/Src/usbh_ctlreq.c ****   {
 1701              		.loc 1 304 12 is_stmt 0 view .LVU544
 1702 0002 8378     		ldrb	r3, [r0, #2]	@ zero_extendqisi2
 304:Middlewares/ST/STM32_USB_Host_Library/Core/Src/usbh_ctlreq.c ****   {
 1703              		.loc 1 304 6 view .LVU545
 1704 0004 012B     		cmp	r3, #1
 1705 0006 04D0     		beq	.L121
 1706              	.L119:
 315:Middlewares/ST/STM32_USB_Host_Library/Core/Src/usbh_ctlreq.c **** }
 1707              		.loc 1 315 3 is_stmt 1 view .LVU546
 315:Middlewares/ST/STM32_USB_Host_Library/Core/Src/usbh_ctlreq.c **** }
 1708              		.loc 1 315 10 is_stmt 0 view .LVU547
 1709 0008 0022     		movs	r2, #0
 1710 000a 1146     		mov	r1, r2
 1711              	.LVL142:
 315:Middlewares/ST/STM32_USB_Host_Library/Core/Src/usbh_ctlreq.c **** }
 1712              		.loc 1 315 10 view .LVU548
 1713 000c FFF7FEFF 		bl	USBH_CtlReq
 1714              	.LVL143:
 316:Middlewares/ST/STM32_USB_Host_Library/Core/Src/usbh_ctlreq.c **** 
 1715              		.loc 1 316 1 view .LVU549
 1716 0010 08BD     		pop	{r3, pc}
 1717              	.LVL144:
 1718              	.L121:
 306:Middlewares/ST/STM32_USB_Host_Library/Core/Src/usbh_ctlreq.c ****                                            | USB_REQ_TYPE_STANDARD;
 1719              		.loc 1 306 5 is_stmt 1 view .LVU550
 306:Middlewares/ST/STM32_USB_Host_Library/Core/Src/usbh_ctlreq.c ****                                            | USB_REQ_TYPE_STANDARD;
 1720              		.loc 1 306 42 is_stmt 0 view .LVU551
 1721 0012 0023     		movs	r3, #0
 1722 0014 0374     		strb	r3, [r0, #16]
 309:Middlewares/ST/STM32_USB_Host_Library/Core/Src/usbh_ctlreq.c ****     phost->Control.setup.b.wValue.w = wValue;
 1723              		.loc 1 309 5 is_stmt 1 view .LVU552
 309:Middlewares/ST/STM32_USB_Host_Library/Core/Src/usbh_ctlreq.c ****     phost->Control.setup.b.wValue.w = wValue;
 1724              		.loc 1 309 37 is_stmt 0 view .LVU553
 1725 0016 0322     		movs	r2, #3
 1726 0018 4274     		strb	r2, [r0, #17]
 310:Middlewares/ST/STM32_USB_Host_Library/Core/Src/usbh_ctlreq.c ****     phost->Control.setup.b.wIndex.w = 0U;
 1727              		.loc 1 310 5 is_stmt 1 view .LVU554
 310:Middlewares/ST/STM32_USB_Host_Library/Core/Src/usbh_ctlreq.c ****     phost->Control.setup.b.wIndex.w = 0U;
 1728              		.loc 1 310 37 is_stmt 0 view .LVU555
 1729 001a 4182     		strh	r1, [r0, #18]	@ movhi
 311:Middlewares/ST/STM32_USB_Host_Library/Core/Src/usbh_ctlreq.c ****     phost->Control.setup.b.wLength.w = 0U;
 1730              		.loc 1 311 5 is_stmt 1 view .LVU556
 311:Middlewares/ST/STM32_USB_Host_Library/Core/Src/usbh_ctlreq.c ****     phost->Control.setup.b.wLength.w = 0U;
 1731              		.loc 1 311 37 is_stmt 0 view .LVU557
 1732 001c 8382     		strh	r3, [r0, #20]	@ movhi
 312:Middlewares/ST/STM32_USB_Host_Library/Core/Src/usbh_ctlreq.c ****   }
 1733              		.loc 1 312 5 is_stmt 1 view .LVU558
 312:Middlewares/ST/STM32_USB_Host_Library/Core/Src/usbh_ctlreq.c ****   }
 1734              		.loc 1 312 38 is_stmt 0 view .LVU559
 1735 001e C382     		strh	r3, [r0, #22]	@ movhi
 1736 0020 F2E7     		b	.L119
 1737              		.cfi_endproc
 1738              	.LFE75:
ARM GAS  /tmp/ccskp59e.s 			page 56


 1740              		.section	.text.USBH_ClrFeature,"ax",%progbits
 1741              		.align	1
 1742              		.global	USBH_ClrFeature
 1743              		.syntax unified
 1744              		.thumb
 1745              		.thumb_func
 1746              		.fpu softvfp
 1748              	USBH_ClrFeature:
 1749              	.LVL145:
 1750              	.LFB76:
 328:Middlewares/ST/STM32_USB_Host_Library/Core/Src/usbh_ctlreq.c ****   if (phost->RequestState == CMD_SEND)
 1751              		.loc 1 328 1 is_stmt 1 view -0
 1752              		.cfi_startproc
 1753              		@ args = 0, pretend = 0, frame = 0
 1754              		@ frame_needed = 0, uses_anonymous_args = 0
 328:Middlewares/ST/STM32_USB_Host_Library/Core/Src/usbh_ctlreq.c ****   if (phost->RequestState == CMD_SEND)
 1755              		.loc 1 328 1 is_stmt 0 view .LVU561
 1756 0000 08B5     		push	{r3, lr}
 1757              	.LCFI29:
 1758              		.cfi_def_cfa_offset 8
 1759              		.cfi_offset 3, -8
 1760              		.cfi_offset 14, -4
 329:Middlewares/ST/STM32_USB_Host_Library/Core/Src/usbh_ctlreq.c ****   {
 1761              		.loc 1 329 3 is_stmt 1 view .LVU562
 329:Middlewares/ST/STM32_USB_Host_Library/Core/Src/usbh_ctlreq.c ****   {
 1762              		.loc 1 329 12 is_stmt 0 view .LVU563
 1763 0002 8378     		ldrb	r3, [r0, #2]	@ zero_extendqisi2
 329:Middlewares/ST/STM32_USB_Host_Library/Core/Src/usbh_ctlreq.c ****   {
 1764              		.loc 1 329 6 view .LVU564
 1765 0004 012B     		cmp	r3, #1
 1766 0006 04D0     		beq	.L125
 1767              	.L123:
 339:Middlewares/ST/STM32_USB_Host_Library/Core/Src/usbh_ctlreq.c **** }
 1768              		.loc 1 339 3 is_stmt 1 view .LVU565
 339:Middlewares/ST/STM32_USB_Host_Library/Core/Src/usbh_ctlreq.c **** }
 1769              		.loc 1 339 10 is_stmt 0 view .LVU566
 1770 0008 0022     		movs	r2, #0
 1771 000a 1146     		mov	r1, r2
 1772              	.LVL146:
 339:Middlewares/ST/STM32_USB_Host_Library/Core/Src/usbh_ctlreq.c **** }
 1773              		.loc 1 339 10 view .LVU567
 1774 000c FFF7FEFF 		bl	USBH_CtlReq
 1775              	.LVL147:
 340:Middlewares/ST/STM32_USB_Host_Library/Core/Src/usbh_ctlreq.c **** 
 1776              		.loc 1 340 1 view .LVU568
 1777 0010 08BD     		pop	{r3, pc}
 1778              	.LVL148:
 1779              	.L125:
 331:Middlewares/ST/STM32_USB_Host_Library/Core/Src/usbh_ctlreq.c ****                                            | USB_REQ_TYPE_STANDARD;
 1780              		.loc 1 331 5 is_stmt 1 view .LVU569
 331:Middlewares/ST/STM32_USB_Host_Library/Core/Src/usbh_ctlreq.c ****                                            | USB_REQ_TYPE_STANDARD;
 1781              		.loc 1 331 42 is_stmt 0 view .LVU570
 1782 0012 0223     		movs	r3, #2
 1783 0014 0374     		strb	r3, [r0, #16]
 334:Middlewares/ST/STM32_USB_Host_Library/Core/Src/usbh_ctlreq.c ****     phost->Control.setup.b.wValue.w = FEATURE_SELECTOR_ENDPOINT;
 1784              		.loc 1 334 5 is_stmt 1 view .LVU571
 334:Middlewares/ST/STM32_USB_Host_Library/Core/Src/usbh_ctlreq.c ****     phost->Control.setup.b.wValue.w = FEATURE_SELECTOR_ENDPOINT;
ARM GAS  /tmp/ccskp59e.s 			page 57


 1785              		.loc 1 334 37 is_stmt 0 view .LVU572
 1786 0016 0123     		movs	r3, #1
 1787 0018 4374     		strb	r3, [r0, #17]
 335:Middlewares/ST/STM32_USB_Host_Library/Core/Src/usbh_ctlreq.c ****     phost->Control.setup.b.wIndex.w = ep_num;
 1788              		.loc 1 335 5 is_stmt 1 view .LVU573
 335:Middlewares/ST/STM32_USB_Host_Library/Core/Src/usbh_ctlreq.c ****     phost->Control.setup.b.wIndex.w = ep_num;
 1789              		.loc 1 335 37 is_stmt 0 view .LVU574
 1790 001a 0023     		movs	r3, #0
 1791 001c 4382     		strh	r3, [r0, #18]	@ movhi
 336:Middlewares/ST/STM32_USB_Host_Library/Core/Src/usbh_ctlreq.c ****     phost->Control.setup.b.wLength.w = 0U;
 1792              		.loc 1 336 5 is_stmt 1 view .LVU575
 336:Middlewares/ST/STM32_USB_Host_Library/Core/Src/usbh_ctlreq.c ****     phost->Control.setup.b.wLength.w = 0U;
 1793              		.loc 1 336 37 is_stmt 0 view .LVU576
 1794 001e 8182     		strh	r1, [r0, #20]	@ movhi
 337:Middlewares/ST/STM32_USB_Host_Library/Core/Src/usbh_ctlreq.c ****   }
 1795              		.loc 1 337 5 is_stmt 1 view .LVU577
 337:Middlewares/ST/STM32_USB_Host_Library/Core/Src/usbh_ctlreq.c ****   }
 1796              		.loc 1 337 38 is_stmt 0 view .LVU578
 1797 0020 C382     		strh	r3, [r0, #22]	@ movhi
 1798 0022 F1E7     		b	.L123
 1799              		.cfi_endproc
 1800              	.LFE76:
 1802              		.text
 1803              	.Letext0:
 1804              		.file 2 "/usr/include/newlib/machine/_default_types.h"
 1805              		.file 3 "/usr/lib/gcc/arm-none-eabi/9.2.1/include/stddef.h"
 1806              		.file 4 "/usr/include/newlib/sys/_types.h"
 1807              		.file 5 "/usr/include/newlib/sys/reent.h"
 1808              		.file 6 "/usr/include/newlib/sys/lock.h"
 1809              		.file 7 "/usr/include/newlib/sys/_stdint.h"
 1810              		.file 8 "/usr/include/newlib/stdlib.h"
 1811              		.file 9 "Drivers/CMSIS/Include/core_cm3.h"
 1812              		.file 10 "Drivers/CMSIS/Device/ST/STM32F1xx/Include/system_stm32f1xx.h"
 1813              		.file 11 "Drivers/STM32F1xx_HAL_Driver/Inc/stm32f1xx_hal.h"
 1814              		.file 12 "Middlewares/ST/STM32_USB_Host_Library/Core/Inc/usbh_def.h"
 1815              		.file 13 "Middlewares/ST/STM32_USB_Host_Library/Core/Inc/usbh_ctlreq.h"
 1816              		.file 14 "Middlewares/ST/STM32_USB_Host_Library/Core/Inc/usbh_ioreq.h"
 1817              		.file 15 "Middlewares/ST/STM32_USB_Host_Library/Core/Inc/usbh_core.h"
ARM GAS  /tmp/ccskp59e.s 			page 58

