ARM GAS  /tmp/ccapg7WV.s 			page 1


   1              		.cpu cortex-m3
   2              		.eabi_attribute 20, 1
   3              		.eabi_attribute 21, 1
   4              		.eabi_attribute 23, 3
   5              		.eabi_attribute 24, 1
   6              		.eabi_attribute 25, 1
   7              		.eabi_attribute 26, 1
   8              		.eabi_attribute 30, 1
   9              		.eabi_attribute 34, 1
  10              		.eabi_attribute 18, 4
  11              		.file	"VirtualPrinters_Gcode.c"
  12              		.text
  13              	.Ltext0:
  14              		.cfi_sections	.debug_frame
  15              		.section	.text.sign,"ax",%progbits
  16              		.align	1
  17              		.arch armv7-m
  18              		.syntax unified
  19              		.thumb
  20              		.thumb_func
  21              		.fpu softvfp
  23              	sign:
  24              	.LVL0:
  25              	.LFB5:
  26              		.file 1 "Src/Gcode/VirtualPrinters_Gcode.c"
   1:Src/Gcode/VirtualPrinters_Gcode.c **** #include "VirtualPrinters_Gcode.h"
   2:Src/Gcode/VirtualPrinters_Gcode.c **** 
   3:Src/Gcode/VirtualPrinters_Gcode.c **** #include "Motors/Driver_Motors.h"
   4:Src/Gcode/VirtualPrinters_Gcode.c **** 
   5:Src/Gcode/VirtualPrinters_Gcode.c **** #include "math.h"
   6:Src/Gcode/VirtualPrinters_Gcode.c **** 
   7:Src/Gcode/VirtualPrinters_Gcode.c **** const float evaluationPeriod_Gcode = 0.001;
   8:Src/Gcode/VirtualPrinters_Gcode.c **** 
   9:Src/Gcode/VirtualPrinters_Gcode.c **** 
  10:Src/Gcode/VirtualPrinters_Gcode.c **** static struct
  11:Src/Gcode/VirtualPrinters_Gcode.c **** {
  12:Src/Gcode/VirtualPrinters_Gcode.c ****     command_Gcode command;
  13:Src/Gcode/VirtualPrinters_Gcode.c ****     _Bool xDone;    long xDirection;
  14:Src/Gcode/VirtualPrinters_Gcode.c ****     _Bool yDone;    long yDirection;
  15:Src/Gcode/VirtualPrinters_Gcode.c ****     _Bool zDone;    long zDirection;
  16:Src/Gcode/VirtualPrinters_Gcode.c ****     _Bool eDone;    long eDirection;
  17:Src/Gcode/VirtualPrinters_Gcode.c **** } currentCommand;
  18:Src/Gcode/VirtualPrinters_Gcode.c **** 
  19:Src/Gcode/VirtualPrinters_Gcode.c **** static struct
  20:Src/Gcode/VirtualPrinters_Gcode.c **** {
  21:Src/Gcode/VirtualPrinters_Gcode.c ****     long X;
  22:Src/Gcode/VirtualPrinters_Gcode.c ****     long Y;
  23:Src/Gcode/VirtualPrinters_Gcode.c ****     long Z;
  24:Src/Gcode/VirtualPrinters_Gcode.c ****     long E;
  25:Src/Gcode/VirtualPrinters_Gcode.c **** } discretePrinter;
  26:Src/Gcode/VirtualPrinters_Gcode.c **** 
  27:Src/Gcode/VirtualPrinters_Gcode.c **** static struct
  28:Src/Gcode/VirtualPrinters_Gcode.c **** {
  29:Src/Gcode/VirtualPrinters_Gcode.c ****     float X;    float vX;
  30:Src/Gcode/VirtualPrinters_Gcode.c ****     float Y;    float vY;
  31:Src/Gcode/VirtualPrinters_Gcode.c ****     float Z;    float vZ;
  32:Src/Gcode/VirtualPrinters_Gcode.c ****     float E;    float vE;
ARM GAS  /tmp/ccapg7WV.s 			page 2


  33:Src/Gcode/VirtualPrinters_Gcode.c **** } continiuosPrinter;
  34:Src/Gcode/VirtualPrinters_Gcode.c **** 
  35:Src/Gcode/VirtualPrinters_Gcode.c **** void virtualPrintersCreate_Gcode(void)
  36:Src/Gcode/VirtualPrinters_Gcode.c **** {
  37:Src/Gcode/VirtualPrinters_Gcode.c ****     discretePrinter.X = 0;          discretePrinter.Y = 0;          discretePrinter.Z = 0;         
  38:Src/Gcode/VirtualPrinters_Gcode.c ****     continiuosPrinter.X = 0;        continiuosPrinter.Y = 0;        continiuosPrinter.Z = 0;       
  39:Src/Gcode/VirtualPrinters_Gcode.c ****     continiuosPrinter.vX = 0;       continiuosPrinter.vY = 0;       continiuosPrinter.vZ = 0;      
  40:Src/Gcode/VirtualPrinters_Gcode.c ****     currentCommand.xDone = true;    currentCommand.yDone = true;    currentCommand.zDone = true;   
  41:Src/Gcode/VirtualPrinters_Gcode.c **** }
  42:Src/Gcode/VirtualPrinters_Gcode.c **** 
  43:Src/Gcode/VirtualPrinters_Gcode.c **** long getCurrentX_Gcode(void) {return discretePrinter.X;}
  44:Src/Gcode/VirtualPrinters_Gcode.c **** long getCurrentY_Gcode(void) {return discretePrinter.Y;}
  45:Src/Gcode/VirtualPrinters_Gcode.c **** long getCurrentZ_Gcode(void) {return discretePrinter.Z;}
  46:Src/Gcode/VirtualPrinters_Gcode.c **** long getCurrentE_Gcode(void) {return discretePrinter.E;}
  47:Src/Gcode/VirtualPrinters_Gcode.c **** 
  48:Src/Gcode/VirtualPrinters_Gcode.c **** static long sign(long dLn)
  49:Src/Gcode/VirtualPrinters_Gcode.c **** {
  27              		.loc 1 49 1 view -0
  28              		.cfi_startproc
  29              		@ args = 0, pretend = 0, frame = 0
  30              		@ frame_needed = 0, uses_anonymous_args = 0
  31              		@ link register save eliminated.
  50:Src/Gcode/VirtualPrinters_Gcode.c ****     if (dLn > 0) return 1;
  32              		.loc 1 50 5 view .LVU1
  33              		.loc 1 50 8 is_stmt 0 view .LVU2
  34 0000 0028     		cmp	r0, #0
  35              		.loc 1 50 8 view .LVU3
  36 0002 02DC     		bgt	.L3
  51:Src/Gcode/VirtualPrinters_Gcode.c ****     if (dLn < 0) return -1;
  37              		.loc 1 51 5 is_stmt 1 view .LVU4
  38              		.loc 1 51 8 is_stmt 0 view .LVU5
  39 0004 03DB     		blt	.L4
  52:Src/Gcode/VirtualPrinters_Gcode.c ****     return 0;
  40              		.loc 1 52 12 view .LVU6
  41 0006 0020     		movs	r0, #0
  42              	.LVL1:
  43              		.loc 1 52 12 view .LVU7
  44 0008 7047     		bx	lr
  45              	.LVL2:
  46              	.L3:
  50:Src/Gcode/VirtualPrinters_Gcode.c ****     if (dLn > 0) return 1;
  47              		.loc 1 50 25 view .LVU8
  48 000a 0120     		movs	r0, #1
  49              	.LVL3:
  50:Src/Gcode/VirtualPrinters_Gcode.c ****     if (dLn > 0) return 1;
  50              		.loc 1 50 25 view .LVU9
  51 000c 7047     		bx	lr
  52              	.LVL4:
  53              	.L4:
  51:Src/Gcode/VirtualPrinters_Gcode.c ****     if (dLn < 0) return -1;
  54              		.loc 1 51 25 view .LVU10
  55 000e 4FF0FF30 		mov	r0, #-1
  56              	.LVL5:
  53:Src/Gcode/VirtualPrinters_Gcode.c **** }
  57              		.loc 1 53 1 view .LVU11
  58 0012 7047     		bx	lr
  59              		.cfi_endproc
ARM GAS  /tmp/ccapg7WV.s 			page 3


  60              	.LFE5:
  62              		.section	.text.makeStepX_Gcode,"ax",%progbits
  63              		.align	1
  64              		.syntax unified
  65              		.thumb
  66              		.thumb_func
  67              		.fpu softvfp
  69              	makeStepX_Gcode:
  70              	.LFB8:
  54:Src/Gcode/VirtualPrinters_Gcode.c **** 
  55:Src/Gcode/VirtualPrinters_Gcode.c **** void sendCommandToPrinter_Gcode(command_Gcode command)
  56:Src/Gcode/VirtualPrinters_Gcode.c **** {
  57:Src/Gcode/VirtualPrinters_Gcode.c ****     virtualPrintersCreate_Gcode();
  58:Src/Gcode/VirtualPrinters_Gcode.c ****     currentCommand.command = command;
  59:Src/Gcode/VirtualPrinters_Gcode.c ****     continiuosPrinter.vX = command.FnX; currentCommand.xDirection = sign(command.dXn);  if (command
  60:Src/Gcode/VirtualPrinters_Gcode.c ****     continiuosPrinter.vY = command.FnY; currentCommand.yDirection = sign(command.dYn);  if (command
  61:Src/Gcode/VirtualPrinters_Gcode.c ****     continiuosPrinter.vZ = command.FnZ; currentCommand.zDirection = sign(command.dZn);  if (command
  62:Src/Gcode/VirtualPrinters_Gcode.c ****     continiuosPrinter.vE = command.FnE; currentCommand.eDirection = sign(command.dEn);  if (command
  63:Src/Gcode/VirtualPrinters_Gcode.c **** }
  64:Src/Gcode/VirtualPrinters_Gcode.c **** 
  65:Src/Gcode/VirtualPrinters_Gcode.c **** _Bool moveComleted(void)
  66:Src/Gcode/VirtualPrinters_Gcode.c **** {
  67:Src/Gcode/VirtualPrinters_Gcode.c ****     return currentCommand.xDone && currentCommand.yDone && currentCommand.zDone && currentCommand.e
  68:Src/Gcode/VirtualPrinters_Gcode.c **** }
  69:Src/Gcode/VirtualPrinters_Gcode.c **** static void makeStepX_Gcode(void)
  70:Src/Gcode/VirtualPrinters_Gcode.c **** {
  71              		.loc 1 70 1 is_stmt 1 view -0
  72              		.cfi_startproc
  73              		@ args = 0, pretend = 0, frame = 0
  74              		@ frame_needed = 0, uses_anonymous_args = 0
  75 0000 08B5     		push	{r3, lr}
  76              	.LCFI0:
  77              		.cfi_def_cfa_offset 8
  78              		.cfi_offset 3, -8
  79              		.cfi_offset 14, -4
  71:Src/Gcode/VirtualPrinters_Gcode.c ****     discretePrinter.X += currentCommand.xDirection;
  80              		.loc 1 71 5 view .LVU13
  81              		.loc 1 71 40 is_stmt 0 view .LVU14
  82 0002 044B     		ldr	r3, .L7
  83 0004 186C     		ldr	r0, [r3, #64]
  84              		.loc 1 71 23 view .LVU15
  85 0006 044A     		ldr	r2, .L7+4
  86 0008 1368     		ldr	r3, [r2]
  87 000a 0344     		add	r3, r3, r0
  88 000c 1360     		str	r3, [r2]
  72:Src/Gcode/VirtualPrinters_Gcode.c ****     doStepX_Motors(currentCommand.xDirection);
  89              		.loc 1 72 5 is_stmt 1 view .LVU16
  90 000e FFF7FEFF 		bl	doStepX_Motors
  91              	.LVL6:
  73:Src/Gcode/VirtualPrinters_Gcode.c **** }
  92              		.loc 1 73 1 is_stmt 0 view .LVU17
  93 0012 08BD     		pop	{r3, pc}
  94              	.L8:
  95              		.align	2
  96              	.L7:
  97 0014 00000000 		.word	.LANCHOR0
  98 0018 00000000 		.word	.LANCHOR1
ARM GAS  /tmp/ccapg7WV.s 			page 4


  99              		.cfi_endproc
 100              	.LFE8:
 102              		.section	.text.makeStepY_Gcode,"ax",%progbits
 103              		.align	1
 104              		.syntax unified
 105              		.thumb
 106              		.thumb_func
 107              		.fpu softvfp
 109              	makeStepY_Gcode:
 110              	.LFB9:
  74:Src/Gcode/VirtualPrinters_Gcode.c **** static void makeStepY_Gcode(void)
  75:Src/Gcode/VirtualPrinters_Gcode.c **** {
 111              		.loc 1 75 1 is_stmt 1 view -0
 112              		.cfi_startproc
 113              		@ args = 0, pretend = 0, frame = 0
 114              		@ frame_needed = 0, uses_anonymous_args = 0
 115 0000 08B5     		push	{r3, lr}
 116              	.LCFI1:
 117              		.cfi_def_cfa_offset 8
 118              		.cfi_offset 3, -8
 119              		.cfi_offset 14, -4
  76:Src/Gcode/VirtualPrinters_Gcode.c ****     discretePrinter.Y += currentCommand.yDirection;
 120              		.loc 1 76 5 view .LVU19
 121              		.loc 1 76 40 is_stmt 0 view .LVU20
 122 0002 044B     		ldr	r3, .L11
 123 0004 986C     		ldr	r0, [r3, #72]
 124              		.loc 1 76 23 view .LVU21
 125 0006 044A     		ldr	r2, .L11+4
 126 0008 5368     		ldr	r3, [r2, #4]
 127 000a 0344     		add	r3, r3, r0
 128 000c 5360     		str	r3, [r2, #4]
  77:Src/Gcode/VirtualPrinters_Gcode.c ****     doStepY_Motors(currentCommand.yDirection);
 129              		.loc 1 77 5 is_stmt 1 view .LVU22
 130 000e FFF7FEFF 		bl	doStepY_Motors
 131              	.LVL7:
  78:Src/Gcode/VirtualPrinters_Gcode.c **** }
 132              		.loc 1 78 1 is_stmt 0 view .LVU23
 133 0012 08BD     		pop	{r3, pc}
 134              	.L12:
 135              		.align	2
 136              	.L11:
 137 0014 00000000 		.word	.LANCHOR0
 138 0018 00000000 		.word	.LANCHOR1
 139              		.cfi_endproc
 140              	.LFE9:
 142              		.section	.text.makeStepZ_Gcode,"ax",%progbits
 143              		.align	1
 144              		.syntax unified
 145              		.thumb
 146              		.thumb_func
 147              		.fpu softvfp
 149              	makeStepZ_Gcode:
 150              	.LFB10:
  79:Src/Gcode/VirtualPrinters_Gcode.c **** static void makeStepZ_Gcode(void)
  80:Src/Gcode/VirtualPrinters_Gcode.c **** {
 151              		.loc 1 80 1 is_stmt 1 view -0
 152              		.cfi_startproc
ARM GAS  /tmp/ccapg7WV.s 			page 5


 153              		@ args = 0, pretend = 0, frame = 0
 154              		@ frame_needed = 0, uses_anonymous_args = 0
 155 0000 08B5     		push	{r3, lr}
 156              	.LCFI2:
 157              		.cfi_def_cfa_offset 8
 158              		.cfi_offset 3, -8
 159              		.cfi_offset 14, -4
  81:Src/Gcode/VirtualPrinters_Gcode.c ****     discretePrinter.Z += currentCommand.zDirection;
 160              		.loc 1 81 5 view .LVU25
 161              		.loc 1 81 40 is_stmt 0 view .LVU26
 162 0002 044B     		ldr	r3, .L15
 163 0004 186D     		ldr	r0, [r3, #80]
 164              		.loc 1 81 23 view .LVU27
 165 0006 044A     		ldr	r2, .L15+4
 166 0008 9368     		ldr	r3, [r2, #8]
 167 000a 0344     		add	r3, r3, r0
 168 000c 9360     		str	r3, [r2, #8]
  82:Src/Gcode/VirtualPrinters_Gcode.c ****     doStepZ_Motors(currentCommand.zDirection);
 169              		.loc 1 82 5 is_stmt 1 view .LVU28
 170 000e FFF7FEFF 		bl	doStepZ_Motors
 171              	.LVL8:
  83:Src/Gcode/VirtualPrinters_Gcode.c **** }
 172              		.loc 1 83 1 is_stmt 0 view .LVU29
 173 0012 08BD     		pop	{r3, pc}
 174              	.L16:
 175              		.align	2
 176              	.L15:
 177 0014 00000000 		.word	.LANCHOR0
 178 0018 00000000 		.word	.LANCHOR1
 179              		.cfi_endproc
 180              	.LFE10:
 182              		.section	.text.makeStepE_Gcode,"ax",%progbits
 183              		.align	1
 184              		.syntax unified
 185              		.thumb
 186              		.thumb_func
 187              		.fpu softvfp
 189              	makeStepE_Gcode:
 190              	.LFB11:
  84:Src/Gcode/VirtualPrinters_Gcode.c **** static void makeStepE_Gcode(void)
  85:Src/Gcode/VirtualPrinters_Gcode.c **** {
 191              		.loc 1 85 1 is_stmt 1 view -0
 192              		.cfi_startproc
 193              		@ args = 0, pretend = 0, frame = 0
 194              		@ frame_needed = 0, uses_anonymous_args = 0
 195 0000 08B5     		push	{r3, lr}
 196              	.LCFI3:
 197              		.cfi_def_cfa_offset 8
 198              		.cfi_offset 3, -8
 199              		.cfi_offset 14, -4
  86:Src/Gcode/VirtualPrinters_Gcode.c ****     discretePrinter.E += currentCommand.eDirection;
 200              		.loc 1 86 5 view .LVU31
 201              		.loc 1 86 40 is_stmt 0 view .LVU32
 202 0002 044B     		ldr	r3, .L19
 203 0004 986D     		ldr	r0, [r3, #88]
 204              		.loc 1 86 23 view .LVU33
 205 0006 044A     		ldr	r2, .L19+4
ARM GAS  /tmp/ccapg7WV.s 			page 6


 206 0008 D368     		ldr	r3, [r2, #12]
 207 000a 0344     		add	r3, r3, r0
 208 000c D360     		str	r3, [r2, #12]
  87:Src/Gcode/VirtualPrinters_Gcode.c ****     doStepE_Motors(currentCommand.eDirection);
 209              		.loc 1 87 5 is_stmt 1 view .LVU34
 210 000e FFF7FEFF 		bl	doStepE_Motors
 211              	.LVL9:
  88:Src/Gcode/VirtualPrinters_Gcode.c **** }
 212              		.loc 1 88 1 is_stmt 0 view .LVU35
 213 0012 08BD     		pop	{r3, pc}
 214              	.L20:
 215              		.align	2
 216              	.L19:
 217 0014 00000000 		.word	.LANCHOR0
 218 0018 00000000 		.word	.LANCHOR1
 219              		.cfi_endproc
 220              	.LFE11:
 222              		.section	.text.virtualPrintersCreate_Gcode,"ax",%progbits
 223              		.align	1
 224              		.global	virtualPrintersCreate_Gcode
 225              		.syntax unified
 226              		.thumb
 227              		.thumb_func
 228              		.fpu softvfp
 230              	virtualPrintersCreate_Gcode:
 231              	.LFB0:
  36:Src/Gcode/VirtualPrinters_Gcode.c ****     discretePrinter.X = 0;          discretePrinter.Y = 0;          discretePrinter.Z = 0;         
 232              		.loc 1 36 1 is_stmt 1 view -0
 233              		.cfi_startproc
 234              		@ args = 0, pretend = 0, frame = 0
 235              		@ frame_needed = 0, uses_anonymous_args = 0
 236              		@ link register save eliminated.
  37:Src/Gcode/VirtualPrinters_Gcode.c ****     continiuosPrinter.X = 0;        continiuosPrinter.Y = 0;        continiuosPrinter.Z = 0;       
 237              		.loc 1 37 5 view .LVU37
  37:Src/Gcode/VirtualPrinters_Gcode.c ****     continiuosPrinter.X = 0;        continiuosPrinter.Y = 0;        continiuosPrinter.Z = 0;       
 238              		.loc 1 37 23 is_stmt 0 view .LVU38
 239 0000 0D4B     		ldr	r3, .L22
 240 0002 0022     		movs	r2, #0
 241 0004 1A60     		str	r2, [r3]
  37:Src/Gcode/VirtualPrinters_Gcode.c ****     continiuosPrinter.X = 0;        continiuosPrinter.Y = 0;        continiuosPrinter.Z = 0;       
 242              		.loc 1 37 37 is_stmt 1 view .LVU39
  37:Src/Gcode/VirtualPrinters_Gcode.c ****     continiuosPrinter.X = 0;        continiuosPrinter.Y = 0;        continiuosPrinter.Z = 0;       
 243              		.loc 1 37 55 is_stmt 0 view .LVU40
 244 0006 5A60     		str	r2, [r3, #4]
  37:Src/Gcode/VirtualPrinters_Gcode.c ****     continiuosPrinter.X = 0;        continiuosPrinter.Y = 0;        continiuosPrinter.Z = 0;       
 245              		.loc 1 37 69 is_stmt 1 view .LVU41
  37:Src/Gcode/VirtualPrinters_Gcode.c ****     continiuosPrinter.X = 0;        continiuosPrinter.Y = 0;        continiuosPrinter.Z = 0;       
 246              		.loc 1 37 87 is_stmt 0 view .LVU42
 247 0008 9A60     		str	r2, [r3, #8]
  37:Src/Gcode/VirtualPrinters_Gcode.c ****     continiuosPrinter.X = 0;        continiuosPrinter.Y = 0;        continiuosPrinter.Z = 0;       
 248              		.loc 1 37 101 is_stmt 1 view .LVU43
  37:Src/Gcode/VirtualPrinters_Gcode.c ****     continiuosPrinter.X = 0;        continiuosPrinter.Y = 0;        continiuosPrinter.Z = 0;       
 249              		.loc 1 37 119 is_stmt 0 view .LVU44
 250 000a DA60     		str	r2, [r3, #12]
  38:Src/Gcode/VirtualPrinters_Gcode.c ****     continiuosPrinter.vX = 0;       continiuosPrinter.vY = 0;       continiuosPrinter.vZ = 0;      
 251              		.loc 1 38 5 is_stmt 1 view .LVU45
  38:Src/Gcode/VirtualPrinters_Gcode.c ****     continiuosPrinter.vX = 0;       continiuosPrinter.vY = 0;       continiuosPrinter.vZ = 0;      
ARM GAS  /tmp/ccapg7WV.s 			page 7


 252              		.loc 1 38 25 is_stmt 0 view .LVU46
 253 000c 0B4B     		ldr	r3, .L22+4
 254 000e 0022     		movs	r2, #0
 255 0010 1A60     		str	r2, [r3]	@ float
  38:Src/Gcode/VirtualPrinters_Gcode.c ****     continiuosPrinter.vX = 0;       continiuosPrinter.vY = 0;       continiuosPrinter.vZ = 0;      
 256              		.loc 1 38 37 is_stmt 1 view .LVU47
  38:Src/Gcode/VirtualPrinters_Gcode.c ****     continiuosPrinter.vX = 0;       continiuosPrinter.vY = 0;       continiuosPrinter.vZ = 0;      
 257              		.loc 1 38 57 is_stmt 0 view .LVU48
 258 0012 9A60     		str	r2, [r3, #8]	@ float
  38:Src/Gcode/VirtualPrinters_Gcode.c ****     continiuosPrinter.vX = 0;       continiuosPrinter.vY = 0;       continiuosPrinter.vZ = 0;      
 259              		.loc 1 38 69 is_stmt 1 view .LVU49
  38:Src/Gcode/VirtualPrinters_Gcode.c ****     continiuosPrinter.vX = 0;       continiuosPrinter.vY = 0;       continiuosPrinter.vZ = 0;      
 260              		.loc 1 38 89 is_stmt 0 view .LVU50
 261 0014 1A61     		str	r2, [r3, #16]	@ float
  38:Src/Gcode/VirtualPrinters_Gcode.c ****     continiuosPrinter.vX = 0;       continiuosPrinter.vY = 0;       continiuosPrinter.vZ = 0;      
 262              		.loc 1 38 101 is_stmt 1 view .LVU51
  38:Src/Gcode/VirtualPrinters_Gcode.c ****     continiuosPrinter.vX = 0;       continiuosPrinter.vY = 0;       continiuosPrinter.vZ = 0;      
 263              		.loc 1 38 121 is_stmt 0 view .LVU52
 264 0016 9A61     		str	r2, [r3, #24]	@ float
  39:Src/Gcode/VirtualPrinters_Gcode.c ****     currentCommand.xDone = true;    currentCommand.yDone = true;    currentCommand.zDone = true;   
 265              		.loc 1 39 5 is_stmt 1 view .LVU53
  39:Src/Gcode/VirtualPrinters_Gcode.c ****     currentCommand.xDone = true;    currentCommand.yDone = true;    currentCommand.zDone = true;   
 266              		.loc 1 39 26 is_stmt 0 view .LVU54
 267 0018 5A60     		str	r2, [r3, #4]	@ float
  39:Src/Gcode/VirtualPrinters_Gcode.c ****     currentCommand.xDone = true;    currentCommand.yDone = true;    currentCommand.zDone = true;   
 268              		.loc 1 39 37 is_stmt 1 view .LVU55
  39:Src/Gcode/VirtualPrinters_Gcode.c ****     currentCommand.xDone = true;    currentCommand.yDone = true;    currentCommand.zDone = true;   
 269              		.loc 1 39 58 is_stmt 0 view .LVU56
 270 001a DA60     		str	r2, [r3, #12]	@ float
  39:Src/Gcode/VirtualPrinters_Gcode.c ****     currentCommand.xDone = true;    currentCommand.yDone = true;    currentCommand.zDone = true;   
 271              		.loc 1 39 69 is_stmt 1 view .LVU57
  39:Src/Gcode/VirtualPrinters_Gcode.c ****     currentCommand.xDone = true;    currentCommand.yDone = true;    currentCommand.zDone = true;   
 272              		.loc 1 39 90 is_stmt 0 view .LVU58
 273 001c 5A61     		str	r2, [r3, #20]	@ float
  39:Src/Gcode/VirtualPrinters_Gcode.c ****     currentCommand.xDone = true;    currentCommand.yDone = true;    currentCommand.zDone = true;   
 274              		.loc 1 39 101 is_stmt 1 view .LVU59
  39:Src/Gcode/VirtualPrinters_Gcode.c ****     currentCommand.xDone = true;    currentCommand.yDone = true;    currentCommand.zDone = true;   
 275              		.loc 1 39 122 is_stmt 0 view .LVU60
 276 001e DA61     		str	r2, [r3, #28]	@ float
  40:Src/Gcode/VirtualPrinters_Gcode.c **** }
 277              		.loc 1 40 5 is_stmt 1 view .LVU61
  40:Src/Gcode/VirtualPrinters_Gcode.c **** }
 278              		.loc 1 40 26 is_stmt 0 view .LVU62
 279 0020 074B     		ldr	r3, .L22+8
 280 0022 0122     		movs	r2, #1
 281 0024 83F83C20 		strb	r2, [r3, #60]
  40:Src/Gcode/VirtualPrinters_Gcode.c **** }
 282              		.loc 1 40 37 is_stmt 1 view .LVU63
  40:Src/Gcode/VirtualPrinters_Gcode.c **** }
 283              		.loc 1 40 58 is_stmt 0 view .LVU64
 284 0028 83F84420 		strb	r2, [r3, #68]
  40:Src/Gcode/VirtualPrinters_Gcode.c **** }
 285              		.loc 1 40 69 is_stmt 1 view .LVU65
  40:Src/Gcode/VirtualPrinters_Gcode.c **** }
 286              		.loc 1 40 90 is_stmt 0 view .LVU66
 287 002c 83F84C20 		strb	r2, [r3, #76]
  40:Src/Gcode/VirtualPrinters_Gcode.c **** }
ARM GAS  /tmp/ccapg7WV.s 			page 8


 288              		.loc 1 40 101 is_stmt 1 view .LVU67
  40:Src/Gcode/VirtualPrinters_Gcode.c **** }
 289              		.loc 1 40 122 is_stmt 0 view .LVU68
 290 0030 83F85420 		strb	r2, [r3, #84]
  41:Src/Gcode/VirtualPrinters_Gcode.c **** 
 291              		.loc 1 41 1 view .LVU69
 292 0034 7047     		bx	lr
 293              	.L23:
 294 0036 00BF     		.align	2
 295              	.L22:
 296 0038 00000000 		.word	.LANCHOR1
 297 003c 00000000 		.word	.LANCHOR2
 298 0040 00000000 		.word	.LANCHOR0
 299              		.cfi_endproc
 300              	.LFE0:
 302              		.section	.text.getCurrentX_Gcode,"ax",%progbits
 303              		.align	1
 304              		.global	getCurrentX_Gcode
 305              		.syntax unified
 306              		.thumb
 307              		.thumb_func
 308              		.fpu softvfp
 310              	getCurrentX_Gcode:
 311              	.LFB1:
  43:Src/Gcode/VirtualPrinters_Gcode.c **** long getCurrentY_Gcode(void) {return discretePrinter.Y;}
 312              		.loc 1 43 30 is_stmt 1 view -0
 313              		.cfi_startproc
 314              		@ args = 0, pretend = 0, frame = 0
 315              		@ frame_needed = 0, uses_anonymous_args = 0
 316              		@ link register save eliminated.
  43:Src/Gcode/VirtualPrinters_Gcode.c **** long getCurrentY_Gcode(void) {return discretePrinter.Y;}
 317              		.loc 1 43 31 view .LVU71
  43:Src/Gcode/VirtualPrinters_Gcode.c **** long getCurrentY_Gcode(void) {return discretePrinter.Y;}
 318              		.loc 1 43 1 is_stmt 0 view .LVU72
 319 0000 014B     		ldr	r3, .L25
 320 0002 1868     		ldr	r0, [r3]
 321 0004 7047     		bx	lr
 322              	.L26:
 323 0006 00BF     		.align	2
 324              	.L25:
 325 0008 00000000 		.word	.LANCHOR1
 326              		.cfi_endproc
 327              	.LFE1:
 329              		.section	.text.getCurrentY_Gcode,"ax",%progbits
 330              		.align	1
 331              		.global	getCurrentY_Gcode
 332              		.syntax unified
 333              		.thumb
 334              		.thumb_func
 335              		.fpu softvfp
 337              	getCurrentY_Gcode:
 338              	.LFB2:
  44:Src/Gcode/VirtualPrinters_Gcode.c **** long getCurrentZ_Gcode(void) {return discretePrinter.Z;}
 339              		.loc 1 44 30 is_stmt 1 view -0
 340              		.cfi_startproc
 341              		@ args = 0, pretend = 0, frame = 0
 342              		@ frame_needed = 0, uses_anonymous_args = 0
ARM GAS  /tmp/ccapg7WV.s 			page 9


 343              		@ link register save eliminated.
  44:Src/Gcode/VirtualPrinters_Gcode.c **** long getCurrentZ_Gcode(void) {return discretePrinter.Z;}
 344              		.loc 1 44 31 view .LVU74
  44:Src/Gcode/VirtualPrinters_Gcode.c **** long getCurrentZ_Gcode(void) {return discretePrinter.Z;}
 345              		.loc 1 44 1 is_stmt 0 view .LVU75
 346 0000 014B     		ldr	r3, .L28
 347 0002 5868     		ldr	r0, [r3, #4]
 348 0004 7047     		bx	lr
 349              	.L29:
 350 0006 00BF     		.align	2
 351              	.L28:
 352 0008 00000000 		.word	.LANCHOR1
 353              		.cfi_endproc
 354              	.LFE2:
 356              		.section	.text.getCurrentZ_Gcode,"ax",%progbits
 357              		.align	1
 358              		.global	getCurrentZ_Gcode
 359              		.syntax unified
 360              		.thumb
 361              		.thumb_func
 362              		.fpu softvfp
 364              	getCurrentZ_Gcode:
 365              	.LFB3:
  45:Src/Gcode/VirtualPrinters_Gcode.c **** long getCurrentE_Gcode(void) {return discretePrinter.E;}
 366              		.loc 1 45 30 is_stmt 1 view -0
 367              		.cfi_startproc
 368              		@ args = 0, pretend = 0, frame = 0
 369              		@ frame_needed = 0, uses_anonymous_args = 0
 370              		@ link register save eliminated.
  45:Src/Gcode/VirtualPrinters_Gcode.c **** long getCurrentE_Gcode(void) {return discretePrinter.E;}
 371              		.loc 1 45 31 view .LVU77
  45:Src/Gcode/VirtualPrinters_Gcode.c **** long getCurrentE_Gcode(void) {return discretePrinter.E;}
 372              		.loc 1 45 1 is_stmt 0 view .LVU78
 373 0000 014B     		ldr	r3, .L31
 374 0002 9868     		ldr	r0, [r3, #8]
 375 0004 7047     		bx	lr
 376              	.L32:
 377 0006 00BF     		.align	2
 378              	.L31:
 379 0008 00000000 		.word	.LANCHOR1
 380              		.cfi_endproc
 381              	.LFE3:
 383              		.section	.text.getCurrentE_Gcode,"ax",%progbits
 384              		.align	1
 385              		.global	getCurrentE_Gcode
 386              		.syntax unified
 387              		.thumb
 388              		.thumb_func
 389              		.fpu softvfp
 391              	getCurrentE_Gcode:
 392              	.LFB4:
  46:Src/Gcode/VirtualPrinters_Gcode.c **** 
 393              		.loc 1 46 30 is_stmt 1 view -0
 394              		.cfi_startproc
 395              		@ args = 0, pretend = 0, frame = 0
 396              		@ frame_needed = 0, uses_anonymous_args = 0
 397              		@ link register save eliminated.
ARM GAS  /tmp/ccapg7WV.s 			page 10


  46:Src/Gcode/VirtualPrinters_Gcode.c **** 
 398              		.loc 1 46 31 view .LVU80
  46:Src/Gcode/VirtualPrinters_Gcode.c **** 
 399              		.loc 1 46 1 is_stmt 0 view .LVU81
 400 0000 014B     		ldr	r3, .L34
 401 0002 D868     		ldr	r0, [r3, #12]
 402 0004 7047     		bx	lr
 403              	.L35:
 404 0006 00BF     		.align	2
 405              	.L34:
 406 0008 00000000 		.word	.LANCHOR1
 407              		.cfi_endproc
 408              	.LFE4:
 410              		.section	.text.sendCommandToPrinter_Gcode,"ax",%progbits
 411              		.align	1
 412              		.global	sendCommandToPrinter_Gcode
 413              		.syntax unified
 414              		.thumb
 415              		.thumb_func
 416              		.fpu softvfp
 418              	sendCommandToPrinter_Gcode:
 419              	.LFB6:
  56:Src/Gcode/VirtualPrinters_Gcode.c ****     virtualPrintersCreate_Gcode();
 420              		.loc 1 56 1 is_stmt 1 view -0
 421              		.cfi_startproc
 422              		@ args = 60, pretend = 16, frame = 0
 423              		@ frame_needed = 0, uses_anonymous_args = 0
 424 0000 84B0     		sub	sp, sp, #16
 425              	.LCFI4:
 426              		.cfi_def_cfa_offset 16
 427 0002 70B5     		push	{r4, r5, r6, lr}
 428              	.LCFI5:
 429              		.cfi_def_cfa_offset 32
 430              		.cfi_offset 4, -32
 431              		.cfi_offset 5, -28
 432              		.cfi_offset 6, -24
 433              		.cfi_offset 14, -20
 434 0004 04AC     		add	r4, sp, #16
 435 0006 84E80F00 		stm	r4, {r0, r1, r2, r3}
  57:Src/Gcode/VirtualPrinters_Gcode.c ****     currentCommand.command = command;
 436              		.loc 1 57 5 view .LVU83
 437 000a FFF7FEFF 		bl	virtualPrintersCreate_Gcode
 438              	.LVL10:
  58:Src/Gcode/VirtualPrinters_Gcode.c ****     continiuosPrinter.vX = command.FnX; currentCommand.xDirection = sign(command.dXn);  if (command
 439              		.loc 1 58 5 view .LVU84
  58:Src/Gcode/VirtualPrinters_Gcode.c ****     continiuosPrinter.vX = command.FnX; currentCommand.xDirection = sign(command.dXn);  if (command
 440              		.loc 1 58 28 is_stmt 0 view .LVU85
 441 000e 224E     		ldr	r6, .L42
 442 0010 3446     		mov	r4, r6
 443 0012 04AD     		add	r5, sp, #16
 444 0014 0FCD     		ldmia	r5!, {r0, r1, r2, r3}
 445 0016 0FC4     		stmia	r4!, {r0, r1, r2, r3}
 446 0018 0FCD     		ldmia	r5!, {r0, r1, r2, r3}
 447 001a 0FC4     		stmia	r4!, {r0, r1, r2, r3}
 448 001c 0FCD     		ldmia	r5!, {r0, r1, r2, r3}
 449 001e 0FC4     		stmia	r4!, {r0, r1, r2, r3}
 450 0020 95E80700 		ldm	r5, {r0, r1, r2}
ARM GAS  /tmp/ccapg7WV.s 			page 11


 451 0024 84E80700 		stm	r4, {r0, r1, r2}
  59:Src/Gcode/VirtualPrinters_Gcode.c ****     continiuosPrinter.vY = command.FnY; currentCommand.yDirection = sign(command.dYn);  if (command
 452              		.loc 1 59 5 is_stmt 1 view .LVU86
  59:Src/Gcode/VirtualPrinters_Gcode.c ****     continiuosPrinter.vY = command.FnY; currentCommand.yDirection = sign(command.dYn);  if (command
 453              		.loc 1 59 26 is_stmt 0 view .LVU87
 454 0028 099A     		ldr	r2, [sp, #36]	@ float
 455 002a 1C4B     		ldr	r3, .L42+4
 456 002c 5A60     		str	r2, [r3, #4]	@ float
  59:Src/Gcode/VirtualPrinters_Gcode.c ****     continiuosPrinter.vY = command.FnY; currentCommand.yDirection = sign(command.dYn);  if (command
 457              		.loc 1 59 41 is_stmt 1 view .LVU88
  59:Src/Gcode/VirtualPrinters_Gcode.c ****     continiuosPrinter.vY = command.FnY; currentCommand.yDirection = sign(command.dYn);  if (command
 458              		.loc 1 59 69 is_stmt 0 view .LVU89
 459 002e 059C     		ldr	r4, [sp, #20]
 460 0030 2046     		mov	r0, r4
 461 0032 FFF7FEFF 		bl	sign
 462              	.LVL11:
  59:Src/Gcode/VirtualPrinters_Gcode.c ****     continiuosPrinter.vY = command.FnY; currentCommand.yDirection = sign(command.dYn);  if (command
 463              		.loc 1 59 67 view .LVU90
 464 0036 3064     		str	r0, [r6, #64]
  59:Src/Gcode/VirtualPrinters_Gcode.c ****     continiuosPrinter.vY = command.FnY; currentCommand.yDirection = sign(command.dYn);  if (command
 465              		.loc 1 59 89 is_stmt 1 view .LVU91
  59:Src/Gcode/VirtualPrinters_Gcode.c ****     continiuosPrinter.vY = command.FnY; currentCommand.yDirection = sign(command.dYn);  if (command
 466              		.loc 1 59 92 is_stmt 0 view .LVU92
 467 0038 14B1     		cbz	r4, .L37
  59:Src/Gcode/VirtualPrinters_Gcode.c ****     continiuosPrinter.vY = command.FnY; currentCommand.yDirection = sign(command.dYn);  if (command
 468              		.loc 1 59 111 is_stmt 1 discriminator 1 view .LVU93
  59:Src/Gcode/VirtualPrinters_Gcode.c ****     continiuosPrinter.vY = command.FnY; currentCommand.yDirection = sign(command.dYn);  if (command
 469              		.loc 1 59 132 is_stmt 0 discriminator 1 view .LVU94
 470 003a 0022     		movs	r2, #0
 471 003c 86F83C20 		strb	r2, [r6, #60]
 472              	.L37:
  60:Src/Gcode/VirtualPrinters_Gcode.c ****     continiuosPrinter.vZ = command.FnZ; currentCommand.zDirection = sign(command.dZn);  if (command
 473              		.loc 1 60 5 is_stmt 1 view .LVU95
  60:Src/Gcode/VirtualPrinters_Gcode.c ****     continiuosPrinter.vZ = command.FnZ; currentCommand.zDirection = sign(command.dZn);  if (command
 474              		.loc 1 60 26 is_stmt 0 view .LVU96
 475 0040 0A9A     		ldr	r2, [sp, #40]	@ float
 476 0042 164B     		ldr	r3, .L42+4
 477 0044 DA60     		str	r2, [r3, #12]	@ float
  60:Src/Gcode/VirtualPrinters_Gcode.c ****     continiuosPrinter.vZ = command.FnZ; currentCommand.zDirection = sign(command.dZn);  if (command
 478              		.loc 1 60 41 is_stmt 1 view .LVU97
  60:Src/Gcode/VirtualPrinters_Gcode.c ****     continiuosPrinter.vZ = command.FnZ; currentCommand.zDirection = sign(command.dZn);  if (command
 479              		.loc 1 60 69 is_stmt 0 view .LVU98
 480 0046 069C     		ldr	r4, [sp, #24]
 481 0048 2046     		mov	r0, r4
 482 004a FFF7FEFF 		bl	sign
 483              	.LVL12:
  60:Src/Gcode/VirtualPrinters_Gcode.c ****     continiuosPrinter.vZ = command.FnZ; currentCommand.zDirection = sign(command.dZn);  if (command
 484              		.loc 1 60 67 view .LVU99
 485 004e 124B     		ldr	r3, .L42
 486 0050 9864     		str	r0, [r3, #72]
  60:Src/Gcode/VirtualPrinters_Gcode.c ****     continiuosPrinter.vZ = command.FnZ; currentCommand.zDirection = sign(command.dZn);  if (command
 487              		.loc 1 60 89 is_stmt 1 view .LVU100
  60:Src/Gcode/VirtualPrinters_Gcode.c ****     continiuosPrinter.vZ = command.FnZ; currentCommand.zDirection = sign(command.dZn);  if (command
 488              		.loc 1 60 92 is_stmt 0 view .LVU101
 489 0052 14B1     		cbz	r4, .L38
  60:Src/Gcode/VirtualPrinters_Gcode.c ****     continiuosPrinter.vZ = command.FnZ; currentCommand.zDirection = sign(command.dZn);  if (command
 490              		.loc 1 60 111 is_stmt 1 discriminator 1 view .LVU102
ARM GAS  /tmp/ccapg7WV.s 			page 12


  60:Src/Gcode/VirtualPrinters_Gcode.c ****     continiuosPrinter.vZ = command.FnZ; currentCommand.zDirection = sign(command.dZn);  if (command
 491              		.loc 1 60 132 is_stmt 0 discriminator 1 view .LVU103
 492 0054 0022     		movs	r2, #0
 493 0056 83F84420 		strb	r2, [r3, #68]
 494              	.L38:
  61:Src/Gcode/VirtualPrinters_Gcode.c ****     continiuosPrinter.vE = command.FnE; currentCommand.eDirection = sign(command.dEn);  if (command
 495              		.loc 1 61 5 is_stmt 1 view .LVU104
  61:Src/Gcode/VirtualPrinters_Gcode.c ****     continiuosPrinter.vE = command.FnE; currentCommand.eDirection = sign(command.dEn);  if (command
 496              		.loc 1 61 26 is_stmt 0 view .LVU105
 497 005a 0B9A     		ldr	r2, [sp, #44]	@ float
 498 005c 0F4B     		ldr	r3, .L42+4
 499 005e 5A61     		str	r2, [r3, #20]	@ float
  61:Src/Gcode/VirtualPrinters_Gcode.c ****     continiuosPrinter.vE = command.FnE; currentCommand.eDirection = sign(command.dEn);  if (command
 500              		.loc 1 61 41 is_stmt 1 view .LVU106
  61:Src/Gcode/VirtualPrinters_Gcode.c ****     continiuosPrinter.vE = command.FnE; currentCommand.eDirection = sign(command.dEn);  if (command
 501              		.loc 1 61 69 is_stmt 0 view .LVU107
 502 0060 079C     		ldr	r4, [sp, #28]
 503 0062 2046     		mov	r0, r4
 504 0064 FFF7FEFF 		bl	sign
 505              	.LVL13:
  61:Src/Gcode/VirtualPrinters_Gcode.c ****     continiuosPrinter.vE = command.FnE; currentCommand.eDirection = sign(command.dEn);  if (command
 506              		.loc 1 61 67 view .LVU108
 507 0068 0B4B     		ldr	r3, .L42
 508 006a 1865     		str	r0, [r3, #80]
  61:Src/Gcode/VirtualPrinters_Gcode.c ****     continiuosPrinter.vE = command.FnE; currentCommand.eDirection = sign(command.dEn);  if (command
 509              		.loc 1 61 89 is_stmt 1 view .LVU109
  61:Src/Gcode/VirtualPrinters_Gcode.c ****     continiuosPrinter.vE = command.FnE; currentCommand.eDirection = sign(command.dEn);  if (command
 510              		.loc 1 61 92 is_stmt 0 view .LVU110
 511 006c 14B1     		cbz	r4, .L39
  61:Src/Gcode/VirtualPrinters_Gcode.c ****     continiuosPrinter.vE = command.FnE; currentCommand.eDirection = sign(command.dEn);  if (command
 512              		.loc 1 61 111 is_stmt 1 discriminator 1 view .LVU111
  61:Src/Gcode/VirtualPrinters_Gcode.c ****     continiuosPrinter.vE = command.FnE; currentCommand.eDirection = sign(command.dEn);  if (command
 513              		.loc 1 61 132 is_stmt 0 discriminator 1 view .LVU112
 514 006e 0022     		movs	r2, #0
 515 0070 83F84C20 		strb	r2, [r3, #76]
 516              	.L39:
  62:Src/Gcode/VirtualPrinters_Gcode.c **** }
 517              		.loc 1 62 5 is_stmt 1 view .LVU113
  62:Src/Gcode/VirtualPrinters_Gcode.c **** }
 518              		.loc 1 62 26 is_stmt 0 view .LVU114
 519 0074 0C9A     		ldr	r2, [sp, #48]	@ float
 520 0076 094B     		ldr	r3, .L42+4
 521 0078 DA61     		str	r2, [r3, #28]	@ float
  62:Src/Gcode/VirtualPrinters_Gcode.c **** }
 522              		.loc 1 62 41 is_stmt 1 view .LVU115
  62:Src/Gcode/VirtualPrinters_Gcode.c **** }
 523              		.loc 1 62 69 is_stmt 0 view .LVU116
 524 007a 089C     		ldr	r4, [sp, #32]
 525 007c 2046     		mov	r0, r4
 526 007e FFF7FEFF 		bl	sign
 527              	.LVL14:
  62:Src/Gcode/VirtualPrinters_Gcode.c **** }
 528              		.loc 1 62 67 view .LVU117
 529 0082 054B     		ldr	r3, .L42
 530 0084 9865     		str	r0, [r3, #88]
  62:Src/Gcode/VirtualPrinters_Gcode.c **** }
 531              		.loc 1 62 89 is_stmt 1 view .LVU118
ARM GAS  /tmp/ccapg7WV.s 			page 13


  62:Src/Gcode/VirtualPrinters_Gcode.c **** }
 532              		.loc 1 62 92 is_stmt 0 view .LVU119
 533 0086 14B1     		cbz	r4, .L36
  62:Src/Gcode/VirtualPrinters_Gcode.c **** }
 534              		.loc 1 62 111 is_stmt 1 discriminator 1 view .LVU120
  62:Src/Gcode/VirtualPrinters_Gcode.c **** }
 535              		.loc 1 62 132 is_stmt 0 discriminator 1 view .LVU121
 536 0088 0022     		movs	r2, #0
 537 008a 83F85420 		strb	r2, [r3, #84]
 538              	.L36:
  63:Src/Gcode/VirtualPrinters_Gcode.c **** 
 539              		.loc 1 63 1 view .LVU122
 540 008e BDE87040 		pop	{r4, r5, r6, lr}
 541              	.LCFI6:
 542              		.cfi_restore 14
 543              		.cfi_restore 6
 544              		.cfi_restore 5
 545              		.cfi_restore 4
 546              		.cfi_def_cfa_offset 16
 547 0092 04B0     		add	sp, sp, #16
 548              	.LCFI7:
 549              		.cfi_def_cfa_offset 0
 550 0094 7047     		bx	lr
 551              	.L43:
 552 0096 00BF     		.align	2
 553              	.L42:
 554 0098 00000000 		.word	.LANCHOR0
 555 009c 00000000 		.word	.LANCHOR2
 556              		.cfi_endproc
 557              	.LFE6:
 559              		.section	.text.moveComleted,"ax",%progbits
 560              		.align	1
 561              		.global	moveComleted
 562              		.syntax unified
 563              		.thumb
 564              		.thumb_func
 565              		.fpu softvfp
 567              	moveComleted:
 568              	.LFB7:
  66:Src/Gcode/VirtualPrinters_Gcode.c ****     return currentCommand.xDone && currentCommand.yDone && currentCommand.zDone && currentCommand.e
 569              		.loc 1 66 1 is_stmt 1 view -0
 570              		.cfi_startproc
 571              		@ args = 0, pretend = 0, frame = 0
 572              		@ frame_needed = 0, uses_anonymous_args = 0
 573              		@ link register save eliminated.
  67:Src/Gcode/VirtualPrinters_Gcode.c **** }
 574              		.loc 1 67 5 view .LVU124
  67:Src/Gcode/VirtualPrinters_Gcode.c **** }
 575              		.loc 1 67 26 is_stmt 0 view .LVU125
 576 0000 0C4B     		ldr	r3, .L50
 577 0002 93F83C30 		ldrb	r3, [r3, #60]	@ zero_extendqisi2
  67:Src/Gcode/VirtualPrinters_Gcode.c **** }
 578              		.loc 1 67 81 view .LVU126
 579 0006 6BB1     		cbz	r3, .L46
  67:Src/Gcode/VirtualPrinters_Gcode.c **** }
 580              		.loc 1 67 50 discriminator 1 view .LVU127
 581 0008 0A4B     		ldr	r3, .L50
ARM GAS  /tmp/ccapg7WV.s 			page 14


 582 000a 93F84430 		ldrb	r3, [r3, #68]	@ zero_extendqisi2
  67:Src/Gcode/VirtualPrinters_Gcode.c **** }
 583              		.loc 1 67 33 discriminator 1 view .LVU128
 584 000e 5BB1     		cbz	r3, .L47
  67:Src/Gcode/VirtualPrinters_Gcode.c **** }
 585              		.loc 1 67 74 discriminator 3 view .LVU129
 586 0010 084B     		ldr	r3, .L50
 587 0012 93F84C30 		ldrb	r3, [r3, #76]	@ zero_extendqisi2
  67:Src/Gcode/VirtualPrinters_Gcode.c **** }
 588              		.loc 1 67 57 discriminator 3 view .LVU130
 589 0016 4BB1     		cbz	r3, .L48
  67:Src/Gcode/VirtualPrinters_Gcode.c **** }
 590              		.loc 1 67 98 discriminator 5 view .LVU131
 591 0018 064B     		ldr	r3, .L50
 592 001a 93F85430 		ldrb	r3, [r3, #84]	@ zero_extendqisi2
  67:Src/Gcode/VirtualPrinters_Gcode.c **** }
 593              		.loc 1 67 81 discriminator 5 view .LVU132
 594 001e 3BB9     		cbnz	r3, .L49
  67:Src/Gcode/VirtualPrinters_Gcode.c **** }
 595              		.loc 1 67 81 view .LVU133
 596 0020 0020     		movs	r0, #0
 597 0022 7047     		bx	lr
 598              	.L46:
 599 0024 0020     		movs	r0, #0
 600 0026 7047     		bx	lr
 601              	.L47:
 602 0028 0020     		movs	r0, #0
 603 002a 7047     		bx	lr
 604              	.L48:
 605 002c 0020     		movs	r0, #0
 606 002e 7047     		bx	lr
 607              	.L49:
 608 0030 0120     		movs	r0, #1
  68:Src/Gcode/VirtualPrinters_Gcode.c **** static void makeStepX_Gcode(void)
 609              		.loc 1 68 1 view .LVU134
 610 0032 7047     		bx	lr
 611              	.L51:
 612              		.align	2
 613              	.L50:
 614 0034 00000000 		.word	.LANCHOR0
 615              		.cfi_endproc
 616              	.LFE7:
 618              		.global	__aeabi_fmul
 619              		.global	__aeabi_fadd
 620              		.global	__aeabi_i2f
 621              		.global	__aeabi_fsub
 622              		.section	.text.evaluatePrinter_Gcode,"ax",%progbits
 623              		.align	1
 624              		.global	evaluatePrinter_Gcode
 625              		.syntax unified
 626              		.thumb
 627              		.thumb_func
 628              		.fpu softvfp
 630              	evaluatePrinter_Gcode:
 631              	.LFB12:
  89:Src/Gcode/VirtualPrinters_Gcode.c **** 
  90:Src/Gcode/VirtualPrinters_Gcode.c **** _Bool evaluatePrinter_Gcode(void)
ARM GAS  /tmp/ccapg7WV.s 			page 15


  91:Src/Gcode/VirtualPrinters_Gcode.c **** {
 632              		.loc 1 91 1 is_stmt 1 view -0
 633              		.cfi_startproc
 634              		@ args = 0, pretend = 0, frame = 0
 635              		@ frame_needed = 0, uses_anonymous_args = 0
 636 0000 70B5     		push	{r4, r5, r6, lr}
 637              	.LCFI8:
 638              		.cfi_def_cfa_offset 16
 639              		.cfi_offset 4, -16
 640              		.cfi_offset 5, -12
 641              		.cfi_offset 6, -8
 642              		.cfi_offset 14, -4
  92:Src/Gcode/VirtualPrinters_Gcode.c ****     if (moveComleted())
 643              		.loc 1 92 5 view .LVU136
 644              		.loc 1 92 9 is_stmt 0 view .LVU137
 645 0002 FFF7FEFF 		bl	moveComleted
 646              	.LVL15:
 647              		.loc 1 92 8 view .LVU138
 648 0006 0446     		mov	r4, r0
 649 0008 98B9     		cbnz	r0, .L53
  93:Src/Gcode/VirtualPrinters_Gcode.c ****         return true;
  94:Src/Gcode/VirtualPrinters_Gcode.c ****     if (!currentCommand.xDone)
 650              		.loc 1 94 5 is_stmt 1 view .LVU139
 651              		.loc 1 94 24 is_stmt 0 view .LVU140
 652 000a 624B     		ldr	r3, .L72
 653 000c 93F83C30 		ldrb	r3, [r3, #60]	@ zero_extendqisi2
 654              		.loc 1 94 8 view .LVU141
 655 0010 8BB1     		cbz	r3, .L63
 656              	.L54:
  95:Src/Gcode/VirtualPrinters_Gcode.c ****     {
  96:Src/Gcode/VirtualPrinters_Gcode.c ****         continiuosPrinter.vX += currentCommand.command.AnX*evaluationPeriod_Gcode;
  97:Src/Gcode/VirtualPrinters_Gcode.c ****         continiuosPrinter.X  += continiuosPrinter.vX*evaluationPeriod_Gcode;
  98:Src/Gcode/VirtualPrinters_Gcode.c ****         if (lroundf(continiuosPrinter.X - (float)discretePrinter.X) != 0) makeStepX_Gcode();
  99:Src/Gcode/VirtualPrinters_Gcode.c ****         if (discretePrinter.X == currentCommand.command.dXn) currentCommand.xDone = true;
 100:Src/Gcode/VirtualPrinters_Gcode.c ****     }
 101:Src/Gcode/VirtualPrinters_Gcode.c ****     if (!currentCommand.yDone)
 657              		.loc 1 101 5 is_stmt 1 view .LVU142
 658              		.loc 1 101 24 is_stmt 0 view .LVU143
 659 0012 604B     		ldr	r3, .L72
 660 0014 93F84430 		ldrb	r3, [r3, #68]	@ zero_extendqisi2
 661              		.loc 1 101 8 view .LVU144
 662 0018 002B     		cmp	r3, #0
 663 001a 37D0     		beq	.L64
 664              	.L56:
 102:Src/Gcode/VirtualPrinters_Gcode.c ****     {
 103:Src/Gcode/VirtualPrinters_Gcode.c ****         continiuosPrinter.vY += currentCommand.command.AnY*evaluationPeriod_Gcode;
 104:Src/Gcode/VirtualPrinters_Gcode.c ****         continiuosPrinter.Y  += continiuosPrinter.vY*evaluationPeriod_Gcode;
 105:Src/Gcode/VirtualPrinters_Gcode.c ****         if (lroundf(continiuosPrinter.Y - (float)discretePrinter.Y) != 0) makeStepY_Gcode();
 106:Src/Gcode/VirtualPrinters_Gcode.c ****         if (discretePrinter.Y == currentCommand.command.dYn) currentCommand.yDone = true;
 107:Src/Gcode/VirtualPrinters_Gcode.c ****     }
 108:Src/Gcode/VirtualPrinters_Gcode.c ****     if (!currentCommand.zDone)
 665              		.loc 1 108 5 is_stmt 1 view .LVU145
 666              		.loc 1 108 24 is_stmt 0 view .LVU146
 667 001c 5D4B     		ldr	r3, .L72
 668 001e 93F84C30 		ldrb	r3, [r3, #76]	@ zero_extendqisi2
 669              		.loc 1 108 8 view .LVU147
 670 0022 002B     		cmp	r3, #0
ARM GAS  /tmp/ccapg7WV.s 			page 16


 671 0024 5DD0     		beq	.L65
 672              	.L58:
 109:Src/Gcode/VirtualPrinters_Gcode.c ****     {
 110:Src/Gcode/VirtualPrinters_Gcode.c ****         continiuosPrinter.vZ += currentCommand.command.AnZ*evaluationPeriod_Gcode;
 111:Src/Gcode/VirtualPrinters_Gcode.c ****         continiuosPrinter.Z  += continiuosPrinter.vZ*evaluationPeriod_Gcode;
 112:Src/Gcode/VirtualPrinters_Gcode.c ****         if (lroundf(continiuosPrinter.Z - (float)discretePrinter.Z) != 0) makeStepZ_Gcode();
 113:Src/Gcode/VirtualPrinters_Gcode.c ****         if (discretePrinter.Z == currentCommand.command.dZn) currentCommand.zDone = true;
 114:Src/Gcode/VirtualPrinters_Gcode.c ****     }
 115:Src/Gcode/VirtualPrinters_Gcode.c ****     if (!currentCommand.eDone)
 673              		.loc 1 115 5 is_stmt 1 view .LVU148
 674              		.loc 1 115 24 is_stmt 0 view .LVU149
 675 0026 5B4B     		ldr	r3, .L72
 676 0028 93F85450 		ldrb	r5, [r3, #84]	@ zero_extendqisi2
 677              		.loc 1 115 8 view .LVU150
 678 002c 002D     		cmp	r5, #0
 679 002e 00F08480 		beq	.L66
 680              	.L53:
 116:Src/Gcode/VirtualPrinters_Gcode.c ****     {
 117:Src/Gcode/VirtualPrinters_Gcode.c ****         continiuosPrinter.vE += currentCommand.command.AnE*evaluationPeriod_Gcode;
 118:Src/Gcode/VirtualPrinters_Gcode.c ****         continiuosPrinter.E  += continiuosPrinter.vE*evaluationPeriod_Gcode;
 119:Src/Gcode/VirtualPrinters_Gcode.c ****         if (lroundf(continiuosPrinter.E - (float)discretePrinter.E) != 0) makeStepE_Gcode();
 120:Src/Gcode/VirtualPrinters_Gcode.c ****         if (discretePrinter.E == currentCommand.command.dEn) currentCommand.eDone = true;
 121:Src/Gcode/VirtualPrinters_Gcode.c ****     }
 122:Src/Gcode/VirtualPrinters_Gcode.c ****     return false;
 123:Src/Gcode/VirtualPrinters_Gcode.c **** }
 681              		.loc 1 123 1 view .LVU151
 682 0032 2046     		mov	r0, r4
 683 0034 70BD     		pop	{r4, r5, r6, pc}
 684              	.L63:
  96:Src/Gcode/VirtualPrinters_Gcode.c ****         continiuosPrinter.X  += continiuosPrinter.vX*evaluationPeriod_Gcode;
 685              		.loc 1 96 9 is_stmt 1 view .LVU152
  96:Src/Gcode/VirtualPrinters_Gcode.c ****         continiuosPrinter.X  += continiuosPrinter.vX*evaluationPeriod_Gcode;
 686              		.loc 1 96 59 is_stmt 0 view .LVU153
 687 0036 5849     		ldr	r1, .L72+4
 688 0038 564B     		ldr	r3, .L72
 689 003a 586A     		ldr	r0, [r3, #36]	@ float
 690 003c FFF7FEFF 		bl	__aeabi_fmul
 691              	.LVL16:
  96:Src/Gcode/VirtualPrinters_Gcode.c ****         continiuosPrinter.X  += continiuosPrinter.vX*evaluationPeriod_Gcode;
 692              		.loc 1 96 30 view .LVU154
 693 0040 564E     		ldr	r6, .L72+8
 694 0042 7168     		ldr	r1, [r6, #4]	@ float
 695 0044 FFF7FEFF 		bl	__aeabi_fadd
 696              	.LVL17:
 697 0048 7060     		str	r0, [r6, #4]	@ float
  97:Src/Gcode/VirtualPrinters_Gcode.c ****         if (lroundf(continiuosPrinter.X - (float)discretePrinter.X) != 0) makeStepX_Gcode();
 698              		.loc 1 97 9 is_stmt 1 view .LVU155
  97:Src/Gcode/VirtualPrinters_Gcode.c ****         if (lroundf(continiuosPrinter.X - (float)discretePrinter.X) != 0) makeStepX_Gcode();
 699              		.loc 1 97 53 is_stmt 0 view .LVU156
 700 004a 5349     		ldr	r1, .L72+4
 701 004c FFF7FEFF 		bl	__aeabi_fmul
 702              	.LVL18:
  97:Src/Gcode/VirtualPrinters_Gcode.c ****         if (lroundf(continiuosPrinter.X - (float)discretePrinter.X) != 0) makeStepX_Gcode();
 703              		.loc 1 97 30 view .LVU157
 704 0050 3168     		ldr	r1, [r6]	@ float
 705 0052 FFF7FEFF 		bl	__aeabi_fadd
 706              	.LVL19:
ARM GAS  /tmp/ccapg7WV.s 			page 17


 707 0056 0546     		mov	r5, r0
 708 0058 3060     		str	r0, [r6]	@ float
  98:Src/Gcode/VirtualPrinters_Gcode.c ****         if (discretePrinter.X == currentCommand.command.dXn) currentCommand.xDone = true;
 709              		.loc 1 98 9 is_stmt 1 view .LVU158
  98:Src/Gcode/VirtualPrinters_Gcode.c ****         if (discretePrinter.X == currentCommand.command.dXn) currentCommand.xDone = true;
 710              		.loc 1 98 43 is_stmt 0 view .LVU159
 711 005a 514B     		ldr	r3, .L72+12
 712 005c 1868     		ldr	r0, [r3]
 713 005e FFF7FEFF 		bl	__aeabi_i2f
 714              	.LVL20:
 715 0062 0146     		mov	r1, r0
  98:Src/Gcode/VirtualPrinters_Gcode.c ****         if (discretePrinter.X == currentCommand.command.dXn) currentCommand.xDone = true;
 716              		.loc 1 98 13 view .LVU160
 717 0064 2846     		mov	r0, r5
 718 0066 FFF7FEFF 		bl	__aeabi_fsub
 719              	.LVL21:
 720 006a FFF7FEFF 		bl	lroundf
 721              	.LVL22:
  98:Src/Gcode/VirtualPrinters_Gcode.c ****         if (discretePrinter.X == currentCommand.command.dXn) currentCommand.xDone = true;
 722              		.loc 1 98 12 view .LVU161
 723 006e 50B9     		cbnz	r0, .L67
 724              	.L55:
  99:Src/Gcode/VirtualPrinters_Gcode.c ****     }
 725              		.loc 1 99 9 is_stmt 1 view .LVU162
  99:Src/Gcode/VirtualPrinters_Gcode.c ****     }
 726              		.loc 1 99 28 is_stmt 0 view .LVU163
 727 0070 4B4B     		ldr	r3, .L72+12
 728 0072 1A68     		ldr	r2, [r3]
  99:Src/Gcode/VirtualPrinters_Gcode.c ****     }
 729              		.loc 1 99 56 view .LVU164
 730 0074 474B     		ldr	r3, .L72
 731 0076 5B68     		ldr	r3, [r3, #4]
  99:Src/Gcode/VirtualPrinters_Gcode.c ****     }
 732              		.loc 1 99 12 view .LVU165
 733 0078 9A42     		cmp	r2, r3
 734 007a CAD1     		bne	.L54
  99:Src/Gcode/VirtualPrinters_Gcode.c ****     }
 735              		.loc 1 99 62 is_stmt 1 discriminator 1 view .LVU166
  99:Src/Gcode/VirtualPrinters_Gcode.c ****     }
 736              		.loc 1 99 83 is_stmt 0 discriminator 1 view .LVU167
 737 007c 454B     		ldr	r3, .L72
 738 007e 0122     		movs	r2, #1
 739 0080 83F83C20 		strb	r2, [r3, #60]
 740 0084 C5E7     		b	.L54
 741              	.L67:
  98:Src/Gcode/VirtualPrinters_Gcode.c ****         if (discretePrinter.X == currentCommand.command.dXn) currentCommand.xDone = true;
 742              		.loc 1 98 75 is_stmt 1 discriminator 1 view .LVU168
 743 0086 FFF7FEFF 		bl	makeStepX_Gcode
 744              	.LVL23:
 745 008a F1E7     		b	.L55
 746              	.L64:
 103:Src/Gcode/VirtualPrinters_Gcode.c ****         continiuosPrinter.Y  += continiuosPrinter.vY*evaluationPeriod_Gcode;
 747              		.loc 1 103 9 view .LVU169
 103:Src/Gcode/VirtualPrinters_Gcode.c ****         continiuosPrinter.Y  += continiuosPrinter.vY*evaluationPeriod_Gcode;
 748              		.loc 1 103 59 is_stmt 0 view .LVU170
 749 008c 4249     		ldr	r1, .L72+4
 750 008e 414B     		ldr	r3, .L72
ARM GAS  /tmp/ccapg7WV.s 			page 18


 751 0090 986A     		ldr	r0, [r3, #40]	@ float
 752 0092 FFF7FEFF 		bl	__aeabi_fmul
 753              	.LVL24:
 103:Src/Gcode/VirtualPrinters_Gcode.c ****         continiuosPrinter.Y  += continiuosPrinter.vY*evaluationPeriod_Gcode;
 754              		.loc 1 103 30 view .LVU171
 755 0096 414E     		ldr	r6, .L72+8
 756 0098 F168     		ldr	r1, [r6, #12]	@ float
 757 009a FFF7FEFF 		bl	__aeabi_fadd
 758              	.LVL25:
 759 009e F060     		str	r0, [r6, #12]	@ float
 104:Src/Gcode/VirtualPrinters_Gcode.c ****         if (lroundf(continiuosPrinter.Y - (float)discretePrinter.Y) != 0) makeStepY_Gcode();
 760              		.loc 1 104 9 is_stmt 1 view .LVU172
 104:Src/Gcode/VirtualPrinters_Gcode.c ****         if (lroundf(continiuosPrinter.Y - (float)discretePrinter.Y) != 0) makeStepY_Gcode();
 761              		.loc 1 104 53 is_stmt 0 view .LVU173
 762 00a0 3D49     		ldr	r1, .L72+4
 763 00a2 FFF7FEFF 		bl	__aeabi_fmul
 764              	.LVL26:
 104:Src/Gcode/VirtualPrinters_Gcode.c ****         if (lroundf(continiuosPrinter.Y - (float)discretePrinter.Y) != 0) makeStepY_Gcode();
 765              		.loc 1 104 30 view .LVU174
 766 00a6 B168     		ldr	r1, [r6, #8]	@ float
 767 00a8 FFF7FEFF 		bl	__aeabi_fadd
 768              	.LVL27:
 769 00ac 0546     		mov	r5, r0
 770 00ae B060     		str	r0, [r6, #8]	@ float
 105:Src/Gcode/VirtualPrinters_Gcode.c ****         if (discretePrinter.Y == currentCommand.command.dYn) currentCommand.yDone = true;
 771              		.loc 1 105 9 is_stmt 1 view .LVU175
 105:Src/Gcode/VirtualPrinters_Gcode.c ****         if (discretePrinter.Y == currentCommand.command.dYn) currentCommand.yDone = true;
 772              		.loc 1 105 43 is_stmt 0 view .LVU176
 773 00b0 3B4B     		ldr	r3, .L72+12
 774 00b2 5868     		ldr	r0, [r3, #4]
 775 00b4 FFF7FEFF 		bl	__aeabi_i2f
 776              	.LVL28:
 777 00b8 0146     		mov	r1, r0
 105:Src/Gcode/VirtualPrinters_Gcode.c ****         if (discretePrinter.Y == currentCommand.command.dYn) currentCommand.yDone = true;
 778              		.loc 1 105 13 view .LVU177
 779 00ba 2846     		mov	r0, r5
 780 00bc FFF7FEFF 		bl	__aeabi_fsub
 781              	.LVL29:
 782 00c0 FFF7FEFF 		bl	lroundf
 783              	.LVL30:
 105:Src/Gcode/VirtualPrinters_Gcode.c ****         if (discretePrinter.Y == currentCommand.command.dYn) currentCommand.yDone = true;
 784              		.loc 1 105 12 view .LVU178
 785 00c4 50B9     		cbnz	r0, .L68
 786              	.L57:
 106:Src/Gcode/VirtualPrinters_Gcode.c ****     }
 787              		.loc 1 106 9 is_stmt 1 view .LVU179
 106:Src/Gcode/VirtualPrinters_Gcode.c ****     }
 788              		.loc 1 106 28 is_stmt 0 view .LVU180
 789 00c6 364B     		ldr	r3, .L72+12
 790 00c8 5A68     		ldr	r2, [r3, #4]
 106:Src/Gcode/VirtualPrinters_Gcode.c ****     }
 791              		.loc 1 106 56 view .LVU181
 792 00ca 324B     		ldr	r3, .L72
 793 00cc 9B68     		ldr	r3, [r3, #8]
 106:Src/Gcode/VirtualPrinters_Gcode.c ****     }
 794              		.loc 1 106 12 view .LVU182
 795 00ce 9A42     		cmp	r2, r3
ARM GAS  /tmp/ccapg7WV.s 			page 19


 796 00d0 A4D1     		bne	.L56
 106:Src/Gcode/VirtualPrinters_Gcode.c ****     }
 797              		.loc 1 106 62 is_stmt 1 discriminator 1 view .LVU183
 106:Src/Gcode/VirtualPrinters_Gcode.c ****     }
 798              		.loc 1 106 83 is_stmt 0 discriminator 1 view .LVU184
 799 00d2 304B     		ldr	r3, .L72
 800 00d4 0122     		movs	r2, #1
 801 00d6 83F84420 		strb	r2, [r3, #68]
 802 00da 9FE7     		b	.L56
 803              	.L68:
 105:Src/Gcode/VirtualPrinters_Gcode.c ****         if (discretePrinter.Y == currentCommand.command.dYn) currentCommand.yDone = true;
 804              		.loc 1 105 75 is_stmt 1 discriminator 1 view .LVU185
 805 00dc FFF7FEFF 		bl	makeStepY_Gcode
 806              	.LVL31:
 807 00e0 F1E7     		b	.L57
 808              	.L65:
 110:Src/Gcode/VirtualPrinters_Gcode.c ****         continiuosPrinter.Z  += continiuosPrinter.vZ*evaluationPeriod_Gcode;
 809              		.loc 1 110 9 view .LVU186
 110:Src/Gcode/VirtualPrinters_Gcode.c ****         continiuosPrinter.Z  += continiuosPrinter.vZ*evaluationPeriod_Gcode;
 810              		.loc 1 110 59 is_stmt 0 view .LVU187
 811 00e2 2D49     		ldr	r1, .L72+4
 812 00e4 2B4B     		ldr	r3, .L72
 813 00e6 D86A     		ldr	r0, [r3, #44]	@ float
 814 00e8 FFF7FEFF 		bl	__aeabi_fmul
 815              	.LVL32:
 110:Src/Gcode/VirtualPrinters_Gcode.c ****         continiuosPrinter.Z  += continiuosPrinter.vZ*evaluationPeriod_Gcode;
 816              		.loc 1 110 30 view .LVU188
 817 00ec 2B4E     		ldr	r6, .L72+8
 818 00ee 7169     		ldr	r1, [r6, #20]	@ float
 819 00f0 FFF7FEFF 		bl	__aeabi_fadd
 820              	.LVL33:
 821 00f4 7061     		str	r0, [r6, #20]	@ float
 111:Src/Gcode/VirtualPrinters_Gcode.c ****         if (lroundf(continiuosPrinter.Z - (float)discretePrinter.Z) != 0) makeStepZ_Gcode();
 822              		.loc 1 111 9 is_stmt 1 view .LVU189
 111:Src/Gcode/VirtualPrinters_Gcode.c ****         if (lroundf(continiuosPrinter.Z - (float)discretePrinter.Z) != 0) makeStepZ_Gcode();
 823              		.loc 1 111 53 is_stmt 0 view .LVU190
 824 00f6 2849     		ldr	r1, .L72+4
 825 00f8 FFF7FEFF 		bl	__aeabi_fmul
 826              	.LVL34:
 111:Src/Gcode/VirtualPrinters_Gcode.c ****         if (lroundf(continiuosPrinter.Z - (float)discretePrinter.Z) != 0) makeStepZ_Gcode();
 827              		.loc 1 111 30 view .LVU191
 828 00fc 3169     		ldr	r1, [r6, #16]	@ float
 829 00fe FFF7FEFF 		bl	__aeabi_fadd
 830              	.LVL35:
 831 0102 0546     		mov	r5, r0
 832 0104 3061     		str	r0, [r6, #16]	@ float
 112:Src/Gcode/VirtualPrinters_Gcode.c ****         if (discretePrinter.Z == currentCommand.command.dZn) currentCommand.zDone = true;
 833              		.loc 1 112 9 is_stmt 1 view .LVU192
 112:Src/Gcode/VirtualPrinters_Gcode.c ****         if (discretePrinter.Z == currentCommand.command.dZn) currentCommand.zDone = true;
 834              		.loc 1 112 43 is_stmt 0 view .LVU193
 835 0106 264B     		ldr	r3, .L72+12
 836 0108 9868     		ldr	r0, [r3, #8]
 837 010a FFF7FEFF 		bl	__aeabi_i2f
 838              	.LVL36:
 839 010e 0146     		mov	r1, r0
 112:Src/Gcode/VirtualPrinters_Gcode.c ****         if (discretePrinter.Z == currentCommand.command.dZn) currentCommand.zDone = true;
 840              		.loc 1 112 13 view .LVU194
ARM GAS  /tmp/ccapg7WV.s 			page 20


 841 0110 2846     		mov	r0, r5
 842 0112 FFF7FEFF 		bl	__aeabi_fsub
 843              	.LVL37:
 844 0116 FFF7FEFF 		bl	lroundf
 845              	.LVL38:
 112:Src/Gcode/VirtualPrinters_Gcode.c ****         if (discretePrinter.Z == currentCommand.command.dZn) currentCommand.zDone = true;
 846              		.loc 1 112 12 view .LVU195
 847 011a 58B9     		cbnz	r0, .L69
 848              	.L59:
 113:Src/Gcode/VirtualPrinters_Gcode.c ****     }
 849              		.loc 1 113 9 is_stmt 1 view .LVU196
 113:Src/Gcode/VirtualPrinters_Gcode.c ****     }
 850              		.loc 1 113 28 is_stmt 0 view .LVU197
 851 011c 204B     		ldr	r3, .L72+12
 852 011e 9A68     		ldr	r2, [r3, #8]
 113:Src/Gcode/VirtualPrinters_Gcode.c ****     }
 853              		.loc 1 113 56 view .LVU198
 854 0120 1C4B     		ldr	r3, .L72
 855 0122 DB68     		ldr	r3, [r3, #12]
 113:Src/Gcode/VirtualPrinters_Gcode.c ****     }
 856              		.loc 1 113 12 view .LVU199
 857 0124 9A42     		cmp	r2, r3
 858 0126 7FF47EAF 		bne	.L58
 113:Src/Gcode/VirtualPrinters_Gcode.c ****     }
 859              		.loc 1 113 62 is_stmt 1 discriminator 1 view .LVU200
 113:Src/Gcode/VirtualPrinters_Gcode.c ****     }
 860              		.loc 1 113 83 is_stmt 0 discriminator 1 view .LVU201
 861 012a 1A4B     		ldr	r3, .L72
 862 012c 0122     		movs	r2, #1
 863 012e 83F84C20 		strb	r2, [r3, #76]
 864 0132 78E7     		b	.L58
 865              	.L69:
 112:Src/Gcode/VirtualPrinters_Gcode.c ****         if (discretePrinter.Z == currentCommand.command.dZn) currentCommand.zDone = true;
 866              		.loc 1 112 75 is_stmt 1 discriminator 1 view .LVU202
 867 0134 FFF7FEFF 		bl	makeStepZ_Gcode
 868              	.LVL39:
 869 0138 F0E7     		b	.L59
 870              	.L66:
 117:Src/Gcode/VirtualPrinters_Gcode.c ****         continiuosPrinter.E  += continiuosPrinter.vE*evaluationPeriod_Gcode;
 871              		.loc 1 117 9 view .LVU203
 117:Src/Gcode/VirtualPrinters_Gcode.c ****         continiuosPrinter.E  += continiuosPrinter.vE*evaluationPeriod_Gcode;
 872              		.loc 1 117 59 is_stmt 0 view .LVU204
 873 013a 1749     		ldr	r1, .L72+4
 874 013c 186B     		ldr	r0, [r3, #48]	@ float
 875 013e FFF7FEFF 		bl	__aeabi_fmul
 876              	.LVL40:
 117:Src/Gcode/VirtualPrinters_Gcode.c ****         continiuosPrinter.E  += continiuosPrinter.vE*evaluationPeriod_Gcode;
 877              		.loc 1 117 30 view .LVU205
 878 0142 164E     		ldr	r6, .L72+8
 879 0144 F169     		ldr	r1, [r6, #28]	@ float
 880 0146 FFF7FEFF 		bl	__aeabi_fadd
 881              	.LVL41:
 882 014a F061     		str	r0, [r6, #28]	@ float
 118:Src/Gcode/VirtualPrinters_Gcode.c ****         if (lroundf(continiuosPrinter.E - (float)discretePrinter.E) != 0) makeStepE_Gcode();
 883              		.loc 1 118 9 is_stmt 1 view .LVU206
 118:Src/Gcode/VirtualPrinters_Gcode.c ****         if (lroundf(continiuosPrinter.E - (float)discretePrinter.E) != 0) makeStepE_Gcode();
 884              		.loc 1 118 53 is_stmt 0 view .LVU207
ARM GAS  /tmp/ccapg7WV.s 			page 21


 885 014c 1249     		ldr	r1, .L72+4
 886 014e FFF7FEFF 		bl	__aeabi_fmul
 887              	.LVL42:
 118:Src/Gcode/VirtualPrinters_Gcode.c ****         if (lroundf(continiuosPrinter.E - (float)discretePrinter.E) != 0) makeStepE_Gcode();
 888              		.loc 1 118 30 view .LVU208
 889 0152 B169     		ldr	r1, [r6, #24]	@ float
 890 0154 FFF7FEFF 		bl	__aeabi_fadd
 891              	.LVL43:
 892 0158 0446     		mov	r4, r0
 893 015a B061     		str	r0, [r6, #24]	@ float
 119:Src/Gcode/VirtualPrinters_Gcode.c ****         if (discretePrinter.E == currentCommand.command.dEn) currentCommand.eDone = true;
 894              		.loc 1 119 9 is_stmt 1 view .LVU209
 119:Src/Gcode/VirtualPrinters_Gcode.c ****         if (discretePrinter.E == currentCommand.command.dEn) currentCommand.eDone = true;
 895              		.loc 1 119 43 is_stmt 0 view .LVU210
 896 015c 104B     		ldr	r3, .L72+12
 897 015e D868     		ldr	r0, [r3, #12]
 898 0160 FFF7FEFF 		bl	__aeabi_i2f
 899              	.LVL44:
 900 0164 0146     		mov	r1, r0
 119:Src/Gcode/VirtualPrinters_Gcode.c ****         if (discretePrinter.E == currentCommand.command.dEn) currentCommand.eDone = true;
 901              		.loc 1 119 13 view .LVU211
 902 0166 2046     		mov	r0, r4
 903 0168 FFF7FEFF 		bl	__aeabi_fsub
 904              	.LVL45:
 905 016c FFF7FEFF 		bl	lroundf
 906              	.LVL46:
 119:Src/Gcode/VirtualPrinters_Gcode.c ****         if (discretePrinter.E == currentCommand.command.dEn) currentCommand.eDone = true;
 907              		.loc 1 119 12 view .LVU212
 908 0170 38B9     		cbnz	r0, .L70
 909              	.L60:
 120:Src/Gcode/VirtualPrinters_Gcode.c ****     }
 910              		.loc 1 120 9 is_stmt 1 view .LVU213
 120:Src/Gcode/VirtualPrinters_Gcode.c ****     }
 911              		.loc 1 120 28 is_stmt 0 view .LVU214
 912 0172 0B4B     		ldr	r3, .L72+12
 913 0174 DA68     		ldr	r2, [r3, #12]
 120:Src/Gcode/VirtualPrinters_Gcode.c ****     }
 914              		.loc 1 120 56 view .LVU215
 915 0176 074B     		ldr	r3, .L72
 916 0178 1B69     		ldr	r3, [r3, #16]
 120:Src/Gcode/VirtualPrinters_Gcode.c ****     }
 917              		.loc 1 120 12 view .LVU216
 918 017a 9A42     		cmp	r2, r3
 919 017c 04D0     		beq	.L71
 122:Src/Gcode/VirtualPrinters_Gcode.c **** }
 920              		.loc 1 122 12 view .LVU217
 921 017e 2C46     		mov	r4, r5
 922 0180 57E7     		b	.L53
 923              	.L70:
 119:Src/Gcode/VirtualPrinters_Gcode.c ****         if (discretePrinter.E == currentCommand.command.dEn) currentCommand.eDone = true;
 924              		.loc 1 119 75 is_stmt 1 discriminator 1 view .LVU218
 925 0182 FFF7FEFF 		bl	makeStepE_Gcode
 926              	.LVL47:
 927 0186 F4E7     		b	.L60
 928              	.L71:
 120:Src/Gcode/VirtualPrinters_Gcode.c ****     }
 929              		.loc 1 120 62 discriminator 1 view .LVU219
ARM GAS  /tmp/ccapg7WV.s 			page 22


 120:Src/Gcode/VirtualPrinters_Gcode.c ****     }
 930              		.loc 1 120 83 is_stmt 0 discriminator 1 view .LVU220
 931 0188 024B     		ldr	r3, .L72
 932 018a 0122     		movs	r2, #1
 933 018c 83F85420 		strb	r2, [r3, #84]
 122:Src/Gcode/VirtualPrinters_Gcode.c **** }
 934              		.loc 1 122 12 discriminator 1 view .LVU221
 935 0190 2C46     		mov	r4, r5
 936 0192 4EE7     		b	.L53
 937              	.L73:
 938              		.align	2
 939              	.L72:
 940 0194 00000000 		.word	.LANCHOR0
 941 0198 6F12833A 		.word	981668463
 942 019c 00000000 		.word	.LANCHOR2
 943 01a0 00000000 		.word	.LANCHOR1
 944              		.cfi_endproc
 945              	.LFE12:
 947              		.global	evaluationPeriod_Gcode
 948              		.section	.bss.continiuosPrinter,"aw",%nobits
 949              		.align	2
 950              		.set	.LANCHOR2,. + 0
 953              	continiuosPrinter:
 954 0000 00000000 		.space	32
 954      00000000 
 954      00000000 
 954      00000000 
 954      00000000 
 955              		.section	.bss.currentCommand,"aw",%nobits
 956              		.align	2
 957              		.set	.LANCHOR0,. + 0
 960              	currentCommand:
 961 0000 00000000 		.space	92
 961      00000000 
 961      00000000 
 961      00000000 
 961      00000000 
 962              		.section	.bss.discretePrinter,"aw",%nobits
 963              		.align	2
 964              		.set	.LANCHOR1,. + 0
 967              	discretePrinter:
 968 0000 00000000 		.space	16
 968      00000000 
 968      00000000 
 968      00000000 
 969              		.section	.rodata.evaluationPeriod_Gcode,"a"
 970              		.align	2
 973              	evaluationPeriod_Gcode:
 974 0000 6F12833A 		.word	981668463
 975              		.text
 976              	.Letext0:
 977              		.file 2 "Inc/Gcode/Descritization_Gcode.h"
 978              		.file 3 "Inc/Gcode/GcodeConverter_Gcode.h"
 979              		.file 4 "Inc/Gcode/Buffer_Gcode.h"
 980              		.file 5 "Inc/Gcode/VirtualPrinters_Gcode.h"
 981              		.file 6 "/usr/lib/gcc/arm-none-eabi/9.2.1/include/stddef.h"
 982              		.file 7 "/usr/include/newlib/sys/_types.h"
ARM GAS  /tmp/ccapg7WV.s 			page 23


 983              		.file 8 "/usr/include/newlib/sys/reent.h"
 984              		.file 9 "/usr/include/newlib/sys/lock.h"
 985              		.file 10 "/usr/include/newlib/math.h"
 986              		.file 11 "Inc/Motors/Driver_Motors.h"
ARM GAS  /tmp/ccapg7WV.s 			page 24

