ARM GAS  /tmp/ccIr8f8d.s 			page 1


   1              		.cpu cortex-m3
   2              		.eabi_attribute 20, 1
   3              		.eabi_attribute 21, 1
   4              		.eabi_attribute 23, 3
   5              		.eabi_attribute 24, 1
   6              		.eabi_attribute 25, 1
   7              		.eabi_attribute 26, 1
   8              		.eabi_attribute 30, 1
   9              		.eabi_attribute 34, 1
  10              		.eabi_attribute 18, 4
  11              		.file	"VirtualPrinters_Gcode.c"
  12              		.text
  13              	.Ltext0:
  14              		.cfi_sections	.debug_frame
  15              		.section	.text.sign,"ax",%progbits
  16              		.align	1
  17              		.syntax unified
  18              		.thumb
  19              		.thumb_func
  20              		.fpu softvfp
  22              	sign:
  23              	.LFB5:
  24              		.file 1 "Src/Gcode/VirtualPrinters_Gcode.c"
   1:Src/Gcode/VirtualPrinters_Gcode.c **** #include "VirtualPrinters_Gcode.h"
   2:Src/Gcode/VirtualPrinters_Gcode.c **** 
   3:Src/Gcode/VirtualPrinters_Gcode.c **** #include "Motors/Driver_Motors.h"
   4:Src/Gcode/VirtualPrinters_Gcode.c **** 
   5:Src/Gcode/VirtualPrinters_Gcode.c **** #include "math.h"
   6:Src/Gcode/VirtualPrinters_Gcode.c **** 
   7:Src/Gcode/VirtualPrinters_Gcode.c **** const float evaluationPeriod_Gcode = 0.001;
   8:Src/Gcode/VirtualPrinters_Gcode.c **** 
   9:Src/Gcode/VirtualPrinters_Gcode.c **** 
  10:Src/Gcode/VirtualPrinters_Gcode.c **** static struct
  11:Src/Gcode/VirtualPrinters_Gcode.c **** {
  12:Src/Gcode/VirtualPrinters_Gcode.c ****     command_Gcode command;
  13:Src/Gcode/VirtualPrinters_Gcode.c ****     _Bool xDone;    long xDirection;
  14:Src/Gcode/VirtualPrinters_Gcode.c ****     _Bool yDone;    long yDirection;
  15:Src/Gcode/VirtualPrinters_Gcode.c ****     _Bool zDone;    long zDirection;
  16:Src/Gcode/VirtualPrinters_Gcode.c ****     _Bool eDone;    long eDirection;
  17:Src/Gcode/VirtualPrinters_Gcode.c **** } currentCommand;
  18:Src/Gcode/VirtualPrinters_Gcode.c **** 
  19:Src/Gcode/VirtualPrinters_Gcode.c **** static struct
  20:Src/Gcode/VirtualPrinters_Gcode.c **** {
  21:Src/Gcode/VirtualPrinters_Gcode.c ****     long X;
  22:Src/Gcode/VirtualPrinters_Gcode.c ****     long Y;
  23:Src/Gcode/VirtualPrinters_Gcode.c ****     long Z;
  24:Src/Gcode/VirtualPrinters_Gcode.c ****     long E;
  25:Src/Gcode/VirtualPrinters_Gcode.c **** } discretePrinter;
  26:Src/Gcode/VirtualPrinters_Gcode.c **** 
  27:Src/Gcode/VirtualPrinters_Gcode.c **** static struct
  28:Src/Gcode/VirtualPrinters_Gcode.c **** {
  29:Src/Gcode/VirtualPrinters_Gcode.c ****     float X;    float vX;
  30:Src/Gcode/VirtualPrinters_Gcode.c ****     float Y;    float vY;
  31:Src/Gcode/VirtualPrinters_Gcode.c ****     float Z;    float vZ;
  32:Src/Gcode/VirtualPrinters_Gcode.c ****     float E;    float vE;
  33:Src/Gcode/VirtualPrinters_Gcode.c **** } continiuosPrinter;
  34:Src/Gcode/VirtualPrinters_Gcode.c **** 
ARM GAS  /tmp/ccIr8f8d.s 			page 2


  35:Src/Gcode/VirtualPrinters_Gcode.c **** void virtualPrintersCreate_Gcode(void)
  36:Src/Gcode/VirtualPrinters_Gcode.c **** {
  37:Src/Gcode/VirtualPrinters_Gcode.c ****     discretePrinter.X = 0;          discretePrinter.Y = 0;          discretePrinter.Z = 0;         
  38:Src/Gcode/VirtualPrinters_Gcode.c ****     continiuosPrinter.X = 0;        continiuosPrinter.Y = 0;        continiuosPrinter.Z = 0;       
  39:Src/Gcode/VirtualPrinters_Gcode.c ****     continiuosPrinter.vX = 0;       continiuosPrinter.vY = 0;       continiuosPrinter.vZ = 0;      
  40:Src/Gcode/VirtualPrinters_Gcode.c ****     currentCommand.xDone = true;    currentCommand.yDone = true;    currentCommand.zDone = true;   
  41:Src/Gcode/VirtualPrinters_Gcode.c **** }
  42:Src/Gcode/VirtualPrinters_Gcode.c **** 
  43:Src/Gcode/VirtualPrinters_Gcode.c **** long getCurrentX_Gcode(void) {return discretePrinter.X;}
  44:Src/Gcode/VirtualPrinters_Gcode.c **** long getCurrentY_Gcode(void) {return discretePrinter.Y;}
  45:Src/Gcode/VirtualPrinters_Gcode.c **** long getCurrentZ_Gcode(void) {return discretePrinter.Z;}
  46:Src/Gcode/VirtualPrinters_Gcode.c **** long getCurrentE_Gcode(void) {return discretePrinter.E;}
  47:Src/Gcode/VirtualPrinters_Gcode.c **** 
  48:Src/Gcode/VirtualPrinters_Gcode.c **** static long sign(long dLn)
  49:Src/Gcode/VirtualPrinters_Gcode.c **** {
  25              		.loc 1 49 0
  26              		.cfi_startproc
  27              		@ args = 0, pretend = 0, frame = 0
  28              		@ frame_needed = 0, uses_anonymous_args = 0
  29              		@ link register save eliminated.
  30              	.LVL0:
  50:Src/Gcode/VirtualPrinters_Gcode.c ****     if (dLn > 0) return 1;
  31              		.loc 1 50 0
  32 0000 0028     		cmp	r0, #0
  33 0002 01DD     		ble	.L5
  34 0004 0120     		movs	r0, #1
  35              	.LVL1:
  36 0006 7047     		bx	lr
  37              	.LVL2:
  38              	.L5:
  51:Src/Gcode/VirtualPrinters_Gcode.c ****     if (dLn < 0) return -1;
  39              		.loc 1 51 0
  40 0008 01DB     		blt	.L6
  52:Src/Gcode/VirtualPrinters_Gcode.c ****     return 0;
  41              		.loc 1 52 0
  42 000a 0020     		movs	r0, #0
  43              	.LVL3:
  53:Src/Gcode/VirtualPrinters_Gcode.c **** }
  44              		.loc 1 53 0
  45 000c 7047     		bx	lr
  46              	.LVL4:
  47              	.L6:
  51:Src/Gcode/VirtualPrinters_Gcode.c ****     if (dLn < 0) return -1;
  48              		.loc 1 51 0
  49 000e 4FF0FF30 		mov	r0, #-1
  50              	.LVL5:
  51 0012 7047     		bx	lr
  52              		.cfi_endproc
  53              	.LFE5:
  55              		.section	.text.makeStepX_Gcode,"ax",%progbits
  56              		.align	1
  57              		.syntax unified
  58              		.thumb
  59              		.thumb_func
  60              		.fpu softvfp
  62              	makeStepX_Gcode:
  63              	.LFB8:
ARM GAS  /tmp/ccIr8f8d.s 			page 3


  54:Src/Gcode/VirtualPrinters_Gcode.c **** 
  55:Src/Gcode/VirtualPrinters_Gcode.c **** void sendCommandToPrinter_Gcode(command_Gcode command)
  56:Src/Gcode/VirtualPrinters_Gcode.c **** {
  57:Src/Gcode/VirtualPrinters_Gcode.c ****     virtualPrintersCreate_Gcode();
  58:Src/Gcode/VirtualPrinters_Gcode.c ****     currentCommand.command = command;
  59:Src/Gcode/VirtualPrinters_Gcode.c ****     continiuosPrinter.vX = command.FnX; currentCommand.xDirection = sign(command.dXn);  if (command
  60:Src/Gcode/VirtualPrinters_Gcode.c ****     continiuosPrinter.vY = command.FnY; currentCommand.yDirection = sign(command.dYn);  if (command
  61:Src/Gcode/VirtualPrinters_Gcode.c ****     continiuosPrinter.vZ = command.FnZ; currentCommand.zDirection = sign(command.dZn);  if (command
  62:Src/Gcode/VirtualPrinters_Gcode.c ****     continiuosPrinter.vE = command.FnE; currentCommand.eDirection = sign(command.dEn);  if (command
  63:Src/Gcode/VirtualPrinters_Gcode.c **** }
  64:Src/Gcode/VirtualPrinters_Gcode.c **** 
  65:Src/Gcode/VirtualPrinters_Gcode.c **** _Bool moveComleted(void)
  66:Src/Gcode/VirtualPrinters_Gcode.c **** {
  67:Src/Gcode/VirtualPrinters_Gcode.c ****     return currentCommand.xDone && currentCommand.yDone && currentCommand.zDone && currentCommand.e
  68:Src/Gcode/VirtualPrinters_Gcode.c **** }
  69:Src/Gcode/VirtualPrinters_Gcode.c **** static void makeStepX_Gcode(void)
  70:Src/Gcode/VirtualPrinters_Gcode.c **** {
  64              		.loc 1 70 0
  65              		.cfi_startproc
  66              		@ args = 0, pretend = 0, frame = 0
  67              		@ frame_needed = 0, uses_anonymous_args = 0
  68 0000 08B5     		push	{r3, lr}
  69              	.LCFI0:
  70              		.cfi_def_cfa_offset 8
  71              		.cfi_offset 3, -8
  72              		.cfi_offset 14, -4
  71:Src/Gcode/VirtualPrinters_Gcode.c ****     discretePrinter.X += currentCommand.xDirection;
  73              		.loc 1 71 0
  74 0002 044B     		ldr	r3, .L9
  75 0004 186C     		ldr	r0, [r3, #64]
  76 0006 044A     		ldr	r2, .L9+4
  77 0008 1368     		ldr	r3, [r2]
  78 000a 0344     		add	r3, r3, r0
  79 000c 1360     		str	r3, [r2]
  72:Src/Gcode/VirtualPrinters_Gcode.c ****     doStepX_Motors(currentCommand.xDirection);
  80              		.loc 1 72 0
  81 000e FFF7FEFF 		bl	doStepX_Motors
  82              	.LVL6:
  73:Src/Gcode/VirtualPrinters_Gcode.c **** }
  83              		.loc 1 73 0
  84 0012 08BD     		pop	{r3, pc}
  85              	.L10:
  86              		.align	2
  87              	.L9:
  88 0014 00000000 		.word	.LANCHOR0
  89 0018 00000000 		.word	.LANCHOR1
  90              		.cfi_endproc
  91              	.LFE8:
  93              		.section	.text.makeStepY_Gcode,"ax",%progbits
  94              		.align	1
  95              		.syntax unified
  96              		.thumb
  97              		.thumb_func
  98              		.fpu softvfp
 100              	makeStepY_Gcode:
 101              	.LFB9:
  74:Src/Gcode/VirtualPrinters_Gcode.c **** static void makeStepY_Gcode(void)
ARM GAS  /tmp/ccIr8f8d.s 			page 4


  75:Src/Gcode/VirtualPrinters_Gcode.c **** {
 102              		.loc 1 75 0
 103              		.cfi_startproc
 104              		@ args = 0, pretend = 0, frame = 0
 105              		@ frame_needed = 0, uses_anonymous_args = 0
 106 0000 08B5     		push	{r3, lr}
 107              	.LCFI1:
 108              		.cfi_def_cfa_offset 8
 109              		.cfi_offset 3, -8
 110              		.cfi_offset 14, -4
  76:Src/Gcode/VirtualPrinters_Gcode.c ****     discretePrinter.Y += currentCommand.yDirection;
 111              		.loc 1 76 0
 112 0002 044B     		ldr	r3, .L13
 113 0004 986C     		ldr	r0, [r3, #72]
 114 0006 044A     		ldr	r2, .L13+4
 115 0008 5368     		ldr	r3, [r2, #4]
 116 000a 0344     		add	r3, r3, r0
 117 000c 5360     		str	r3, [r2, #4]
  77:Src/Gcode/VirtualPrinters_Gcode.c ****     doStepY_Motors(currentCommand.yDirection);
 118              		.loc 1 77 0
 119 000e FFF7FEFF 		bl	doStepY_Motors
 120              	.LVL7:
  78:Src/Gcode/VirtualPrinters_Gcode.c **** }
 121              		.loc 1 78 0
 122 0012 08BD     		pop	{r3, pc}
 123              	.L14:
 124              		.align	2
 125              	.L13:
 126 0014 00000000 		.word	.LANCHOR0
 127 0018 00000000 		.word	.LANCHOR1
 128              		.cfi_endproc
 129              	.LFE9:
 131              		.section	.text.makeStepZ_Gcode,"ax",%progbits
 132              		.align	1
 133              		.syntax unified
 134              		.thumb
 135              		.thumb_func
 136              		.fpu softvfp
 138              	makeStepZ_Gcode:
 139              	.LFB10:
  79:Src/Gcode/VirtualPrinters_Gcode.c **** static void makeStepZ_Gcode(void)
  80:Src/Gcode/VirtualPrinters_Gcode.c **** {
 140              		.loc 1 80 0
 141              		.cfi_startproc
 142              		@ args = 0, pretend = 0, frame = 0
 143              		@ frame_needed = 0, uses_anonymous_args = 0
 144 0000 08B5     		push	{r3, lr}
 145              	.LCFI2:
 146              		.cfi_def_cfa_offset 8
 147              		.cfi_offset 3, -8
 148              		.cfi_offset 14, -4
  81:Src/Gcode/VirtualPrinters_Gcode.c ****     discretePrinter.Z += currentCommand.zDirection;
 149              		.loc 1 81 0
 150 0002 044B     		ldr	r3, .L17
 151 0004 186D     		ldr	r0, [r3, #80]
 152 0006 044A     		ldr	r2, .L17+4
 153 0008 9368     		ldr	r3, [r2, #8]
ARM GAS  /tmp/ccIr8f8d.s 			page 5


 154 000a 0344     		add	r3, r3, r0
 155 000c 9360     		str	r3, [r2, #8]
  82:Src/Gcode/VirtualPrinters_Gcode.c ****     doStepZ_Motors(currentCommand.zDirection);
 156              		.loc 1 82 0
 157 000e FFF7FEFF 		bl	doStepZ_Motors
 158              	.LVL8:
  83:Src/Gcode/VirtualPrinters_Gcode.c **** }
 159              		.loc 1 83 0
 160 0012 08BD     		pop	{r3, pc}
 161              	.L18:
 162              		.align	2
 163              	.L17:
 164 0014 00000000 		.word	.LANCHOR0
 165 0018 00000000 		.word	.LANCHOR1
 166              		.cfi_endproc
 167              	.LFE10:
 169              		.section	.text.makeStepE_Gcode,"ax",%progbits
 170              		.align	1
 171              		.syntax unified
 172              		.thumb
 173              		.thumb_func
 174              		.fpu softvfp
 176              	makeStepE_Gcode:
 177              	.LFB11:
  84:Src/Gcode/VirtualPrinters_Gcode.c **** static void makeStepE_Gcode(void)
  85:Src/Gcode/VirtualPrinters_Gcode.c **** {
 178              		.loc 1 85 0
 179              		.cfi_startproc
 180              		@ args = 0, pretend = 0, frame = 0
 181              		@ frame_needed = 0, uses_anonymous_args = 0
 182 0000 08B5     		push	{r3, lr}
 183              	.LCFI3:
 184              		.cfi_def_cfa_offset 8
 185              		.cfi_offset 3, -8
 186              		.cfi_offset 14, -4
  86:Src/Gcode/VirtualPrinters_Gcode.c ****     discretePrinter.E += currentCommand.eDirection;
 187              		.loc 1 86 0
 188 0002 044B     		ldr	r3, .L21
 189 0004 986D     		ldr	r0, [r3, #88]
 190 0006 044A     		ldr	r2, .L21+4
 191 0008 D368     		ldr	r3, [r2, #12]
 192 000a 0344     		add	r3, r3, r0
 193 000c D360     		str	r3, [r2, #12]
  87:Src/Gcode/VirtualPrinters_Gcode.c ****     doStepE_Motors(currentCommand.eDirection);
 194              		.loc 1 87 0
 195 000e FFF7FEFF 		bl	doStepE_Motors
 196              	.LVL9:
  88:Src/Gcode/VirtualPrinters_Gcode.c **** }
 197              		.loc 1 88 0
 198 0012 08BD     		pop	{r3, pc}
 199              	.L22:
 200              		.align	2
 201              	.L21:
 202 0014 00000000 		.word	.LANCHOR0
 203 0018 00000000 		.word	.LANCHOR1
 204              		.cfi_endproc
 205              	.LFE11:
ARM GAS  /tmp/ccIr8f8d.s 			page 6


 207              		.section	.text.virtualPrintersCreate_Gcode,"ax",%progbits
 208              		.align	1
 209              		.global	virtualPrintersCreate_Gcode
 210              		.syntax unified
 211              		.thumb
 212              		.thumb_func
 213              		.fpu softvfp
 215              	virtualPrintersCreate_Gcode:
 216              	.LFB0:
  36:Src/Gcode/VirtualPrinters_Gcode.c ****     discretePrinter.X = 0;          discretePrinter.Y = 0;          discretePrinter.Z = 0;         
 217              		.loc 1 36 0
 218              		.cfi_startproc
 219              		@ args = 0, pretend = 0, frame = 0
 220              		@ frame_needed = 0, uses_anonymous_args = 0
 221              		@ link register save eliminated.
  37:Src/Gcode/VirtualPrinters_Gcode.c ****     continiuosPrinter.X = 0;        continiuosPrinter.Y = 0;        continiuosPrinter.Z = 0;       
 222              		.loc 1 37 0
 223 0000 0D4B     		ldr	r3, .L24
 224 0002 0022     		movs	r2, #0
 225 0004 1A60     		str	r2, [r3]
 226 0006 5A60     		str	r2, [r3, #4]
 227 0008 9A60     		str	r2, [r3, #8]
 228 000a DA60     		str	r2, [r3, #12]
  38:Src/Gcode/VirtualPrinters_Gcode.c ****     continiuosPrinter.vX = 0;       continiuosPrinter.vY = 0;       continiuosPrinter.vZ = 0;      
 229              		.loc 1 38 0
 230 000c 0B4B     		ldr	r3, .L24+4
 231 000e 0022     		movs	r2, #0
 232 0010 1A60     		str	r2, [r3]	@ float
 233 0012 9A60     		str	r2, [r3, #8]	@ float
 234 0014 1A61     		str	r2, [r3, #16]	@ float
 235 0016 9A61     		str	r2, [r3, #24]	@ float
  39:Src/Gcode/VirtualPrinters_Gcode.c ****     currentCommand.xDone = true;    currentCommand.yDone = true;    currentCommand.zDone = true;   
 236              		.loc 1 39 0
 237 0018 5A60     		str	r2, [r3, #4]	@ float
 238 001a DA60     		str	r2, [r3, #12]	@ float
 239 001c 5A61     		str	r2, [r3, #20]	@ float
 240 001e DA61     		str	r2, [r3, #28]	@ float
  40:Src/Gcode/VirtualPrinters_Gcode.c **** }
 241              		.loc 1 40 0
 242 0020 074B     		ldr	r3, .L24+8
 243 0022 0122     		movs	r2, #1
 244 0024 83F83C20 		strb	r2, [r3, #60]
 245 0028 83F84420 		strb	r2, [r3, #68]
 246 002c 83F84C20 		strb	r2, [r3, #76]
 247 0030 83F85420 		strb	r2, [r3, #84]
  41:Src/Gcode/VirtualPrinters_Gcode.c **** 
 248              		.loc 1 41 0
 249 0034 7047     		bx	lr
 250              	.L25:
 251 0036 00BF     		.align	2
 252              	.L24:
 253 0038 00000000 		.word	.LANCHOR1
 254 003c 00000000 		.word	.LANCHOR2
 255 0040 00000000 		.word	.LANCHOR0
 256              		.cfi_endproc
 257              	.LFE0:
 259              		.section	.text.getCurrentX_Gcode,"ax",%progbits
ARM GAS  /tmp/ccIr8f8d.s 			page 7


 260              		.align	1
 261              		.global	getCurrentX_Gcode
 262              		.syntax unified
 263              		.thumb
 264              		.thumb_func
 265              		.fpu softvfp
 267              	getCurrentX_Gcode:
 268              	.LFB1:
  43:Src/Gcode/VirtualPrinters_Gcode.c **** long getCurrentY_Gcode(void) {return discretePrinter.Y;}
 269              		.loc 1 43 0
 270              		.cfi_startproc
 271              		@ args = 0, pretend = 0, frame = 0
 272              		@ frame_needed = 0, uses_anonymous_args = 0
 273              		@ link register save eliminated.
  43:Src/Gcode/VirtualPrinters_Gcode.c **** long getCurrentY_Gcode(void) {return discretePrinter.Y;}
 274              		.loc 1 43 0
 275 0000 014B     		ldr	r3, .L27
 276 0002 1868     		ldr	r0, [r3]
 277 0004 7047     		bx	lr
 278              	.L28:
 279 0006 00BF     		.align	2
 280              	.L27:
 281 0008 00000000 		.word	.LANCHOR1
 282              		.cfi_endproc
 283              	.LFE1:
 285              		.section	.text.getCurrentY_Gcode,"ax",%progbits
 286              		.align	1
 287              		.global	getCurrentY_Gcode
 288              		.syntax unified
 289              		.thumb
 290              		.thumb_func
 291              		.fpu softvfp
 293              	getCurrentY_Gcode:
 294              	.LFB2:
  44:Src/Gcode/VirtualPrinters_Gcode.c **** long getCurrentZ_Gcode(void) {return discretePrinter.Z;}
 295              		.loc 1 44 0
 296              		.cfi_startproc
 297              		@ args = 0, pretend = 0, frame = 0
 298              		@ frame_needed = 0, uses_anonymous_args = 0
 299              		@ link register save eliminated.
  44:Src/Gcode/VirtualPrinters_Gcode.c **** long getCurrentZ_Gcode(void) {return discretePrinter.Z;}
 300              		.loc 1 44 0
 301 0000 014B     		ldr	r3, .L30
 302 0002 5868     		ldr	r0, [r3, #4]
 303 0004 7047     		bx	lr
 304              	.L31:
 305 0006 00BF     		.align	2
 306              	.L30:
 307 0008 00000000 		.word	.LANCHOR1
 308              		.cfi_endproc
 309              	.LFE2:
 311              		.section	.text.getCurrentZ_Gcode,"ax",%progbits
 312              		.align	1
 313              		.global	getCurrentZ_Gcode
 314              		.syntax unified
 315              		.thumb
 316              		.thumb_func
ARM GAS  /tmp/ccIr8f8d.s 			page 8


 317              		.fpu softvfp
 319              	getCurrentZ_Gcode:
 320              	.LFB3:
  45:Src/Gcode/VirtualPrinters_Gcode.c **** long getCurrentE_Gcode(void) {return discretePrinter.E;}
 321              		.loc 1 45 0
 322              		.cfi_startproc
 323              		@ args = 0, pretend = 0, frame = 0
 324              		@ frame_needed = 0, uses_anonymous_args = 0
 325              		@ link register save eliminated.
  45:Src/Gcode/VirtualPrinters_Gcode.c **** long getCurrentE_Gcode(void) {return discretePrinter.E;}
 326              		.loc 1 45 0
 327 0000 014B     		ldr	r3, .L33
 328 0002 9868     		ldr	r0, [r3, #8]
 329 0004 7047     		bx	lr
 330              	.L34:
 331 0006 00BF     		.align	2
 332              	.L33:
 333 0008 00000000 		.word	.LANCHOR1
 334              		.cfi_endproc
 335              	.LFE3:
 337              		.section	.text.getCurrentE_Gcode,"ax",%progbits
 338              		.align	1
 339              		.global	getCurrentE_Gcode
 340              		.syntax unified
 341              		.thumb
 342              		.thumb_func
 343              		.fpu softvfp
 345              	getCurrentE_Gcode:
 346              	.LFB4:
  46:Src/Gcode/VirtualPrinters_Gcode.c **** 
 347              		.loc 1 46 0
 348              		.cfi_startproc
 349              		@ args = 0, pretend = 0, frame = 0
 350              		@ frame_needed = 0, uses_anonymous_args = 0
 351              		@ link register save eliminated.
  46:Src/Gcode/VirtualPrinters_Gcode.c **** 
 352              		.loc 1 46 0
 353 0000 014B     		ldr	r3, .L36
 354 0002 D868     		ldr	r0, [r3, #12]
 355 0004 7047     		bx	lr
 356              	.L37:
 357 0006 00BF     		.align	2
 358              	.L36:
 359 0008 00000000 		.word	.LANCHOR1
 360              		.cfi_endproc
 361              	.LFE4:
 363              		.section	.text.sendCommandToPrinter_Gcode,"ax",%progbits
 364              		.align	1
 365              		.global	sendCommandToPrinter_Gcode
 366              		.syntax unified
 367              		.thumb
 368              		.thumb_func
 369              		.fpu softvfp
 371              	sendCommandToPrinter_Gcode:
 372              	.LFB6:
  56:Src/Gcode/VirtualPrinters_Gcode.c ****     virtualPrintersCreate_Gcode();
 373              		.loc 1 56 0
ARM GAS  /tmp/ccIr8f8d.s 			page 9


 374              		.cfi_startproc
 375              		@ args = 60, pretend = 16, frame = 0
 376              		@ frame_needed = 0, uses_anonymous_args = 0
 377 0000 84B0     		sub	sp, sp, #16
 378              	.LCFI4:
 379              		.cfi_def_cfa_offset 16
 380 0002 70B5     		push	{r4, r5, r6, lr}
 381              	.LCFI5:
 382              		.cfi_def_cfa_offset 32
 383              		.cfi_offset 4, -32
 384              		.cfi_offset 5, -28
 385              		.cfi_offset 6, -24
 386              		.cfi_offset 14, -20
 387 0004 04AC     		add	r4, sp, #16
 388 0006 84E80F00 		stm	r4, {r0, r1, r2, r3}
  57:Src/Gcode/VirtualPrinters_Gcode.c ****     currentCommand.command = command;
 389              		.loc 1 57 0
 390 000a FFF7FEFF 		bl	virtualPrintersCreate_Gcode
 391              	.LVL10:
  58:Src/Gcode/VirtualPrinters_Gcode.c ****     continiuosPrinter.vX = command.FnX; currentCommand.xDirection = sign(command.dXn);  if (command
 392              		.loc 1 58 0
 393 000e 224E     		ldr	r6, .L44
 394 0010 3446     		mov	r4, r6
 395 0012 04AD     		add	r5, sp, #16
 396 0014 0FCD     		ldmia	r5!, {r0, r1, r2, r3}
 397 0016 0FC4     		stmia	r4!, {r0, r1, r2, r3}
 398 0018 0FCD     		ldmia	r5!, {r0, r1, r2, r3}
 399 001a 0FC4     		stmia	r4!, {r0, r1, r2, r3}
 400 001c 0FCD     		ldmia	r5!, {r0, r1, r2, r3}
 401 001e 0FC4     		stmia	r4!, {r0, r1, r2, r3}
 402 0020 95E80700 		ldm	r5, {r0, r1, r2}
 403 0024 84E80700 		stm	r4, {r0, r1, r2}
  59:Src/Gcode/VirtualPrinters_Gcode.c ****     continiuosPrinter.vY = command.FnY; currentCommand.yDirection = sign(command.dYn);  if (command
 404              		.loc 1 59 0
 405 0028 099A     		ldr	r2, [sp, #36]	@ float
 406 002a 1C4B     		ldr	r3, .L44+4
 407 002c 5A60     		str	r2, [r3, #4]	@ float
 408 002e 059C     		ldr	r4, [sp, #20]
 409 0030 2046     		mov	r0, r4
 410 0032 FFF7FEFF 		bl	sign
 411              	.LVL11:
 412 0036 3064     		str	r0, [r6, #64]
 413 0038 14B1     		cbz	r4, .L39
  59:Src/Gcode/VirtualPrinters_Gcode.c ****     continiuosPrinter.vY = command.FnY; currentCommand.yDirection = sign(command.dYn);  if (command
 414              		.loc 1 59 0 is_stmt 0 discriminator 1
 415 003a 0022     		movs	r2, #0
 416 003c 86F83C20 		strb	r2, [r6, #60]
 417              	.L39:
  60:Src/Gcode/VirtualPrinters_Gcode.c ****     continiuosPrinter.vZ = command.FnZ; currentCommand.zDirection = sign(command.dZn);  if (command
 418              		.loc 1 60 0 is_stmt 1
 419 0040 0A9A     		ldr	r2, [sp, #40]	@ float
 420 0042 164B     		ldr	r3, .L44+4
 421 0044 DA60     		str	r2, [r3, #12]	@ float
 422 0046 069C     		ldr	r4, [sp, #24]
 423 0048 2046     		mov	r0, r4
 424 004a FFF7FEFF 		bl	sign
 425              	.LVL12:
ARM GAS  /tmp/ccIr8f8d.s 			page 10


 426 004e 124B     		ldr	r3, .L44
 427 0050 9864     		str	r0, [r3, #72]
 428 0052 14B1     		cbz	r4, .L40
  60:Src/Gcode/VirtualPrinters_Gcode.c ****     continiuosPrinter.vZ = command.FnZ; currentCommand.zDirection = sign(command.dZn);  if (command
 429              		.loc 1 60 0 is_stmt 0 discriminator 1
 430 0054 0022     		movs	r2, #0
 431 0056 83F84420 		strb	r2, [r3, #68]
 432              	.L40:
  61:Src/Gcode/VirtualPrinters_Gcode.c ****     continiuosPrinter.vE = command.FnE; currentCommand.eDirection = sign(command.dEn);  if (command
 433              		.loc 1 61 0 is_stmt 1
 434 005a 0B9A     		ldr	r2, [sp, #44]	@ float
 435 005c 0F4B     		ldr	r3, .L44+4
 436 005e 5A61     		str	r2, [r3, #20]	@ float
 437 0060 079C     		ldr	r4, [sp, #28]
 438 0062 2046     		mov	r0, r4
 439 0064 FFF7FEFF 		bl	sign
 440              	.LVL13:
 441 0068 0B4B     		ldr	r3, .L44
 442 006a 1865     		str	r0, [r3, #80]
 443 006c 14B1     		cbz	r4, .L41
  61:Src/Gcode/VirtualPrinters_Gcode.c ****     continiuosPrinter.vE = command.FnE; currentCommand.eDirection = sign(command.dEn);  if (command
 444              		.loc 1 61 0 is_stmt 0 discriminator 1
 445 006e 0022     		movs	r2, #0
 446 0070 83F84C20 		strb	r2, [r3, #76]
 447              	.L41:
  62:Src/Gcode/VirtualPrinters_Gcode.c **** }
 448              		.loc 1 62 0 is_stmt 1
 449 0074 0C9A     		ldr	r2, [sp, #48]	@ float
 450 0076 094B     		ldr	r3, .L44+4
 451 0078 DA61     		str	r2, [r3, #28]	@ float
 452 007a 089C     		ldr	r4, [sp, #32]
 453 007c 2046     		mov	r0, r4
 454 007e FFF7FEFF 		bl	sign
 455              	.LVL14:
 456 0082 054B     		ldr	r3, .L44
 457 0084 9865     		str	r0, [r3, #88]
 458 0086 14B1     		cbz	r4, .L38
  62:Src/Gcode/VirtualPrinters_Gcode.c **** }
 459              		.loc 1 62 0 is_stmt 0 discriminator 1
 460 0088 0022     		movs	r2, #0
 461 008a 83F85420 		strb	r2, [r3, #84]
 462              	.L38:
  63:Src/Gcode/VirtualPrinters_Gcode.c **** 
 463              		.loc 1 63 0 is_stmt 1
 464 008e BDE87040 		pop	{r4, r5, r6, lr}
 465              	.LCFI6:
 466              		.cfi_restore 14
 467              		.cfi_restore 6
 468              		.cfi_restore 5
 469              		.cfi_restore 4
 470              		.cfi_def_cfa_offset 16
 471 0092 04B0     		add	sp, sp, #16
 472              	.LCFI7:
 473              		.cfi_def_cfa_offset 0
 474 0094 7047     		bx	lr
 475              	.L45:
 476 0096 00BF     		.align	2
ARM GAS  /tmp/ccIr8f8d.s 			page 11


 477              	.L44:
 478 0098 00000000 		.word	.LANCHOR0
 479 009c 00000000 		.word	.LANCHOR2
 480              		.cfi_endproc
 481              	.LFE6:
 483              		.section	.text.moveComleted,"ax",%progbits
 484              		.align	1
 485              		.global	moveComleted
 486              		.syntax unified
 487              		.thumb
 488              		.thumb_func
 489              		.fpu softvfp
 491              	moveComleted:
 492              	.LFB7:
  66:Src/Gcode/VirtualPrinters_Gcode.c ****     return currentCommand.xDone && currentCommand.yDone && currentCommand.zDone && currentCommand.e
 493              		.loc 1 66 0
 494              		.cfi_startproc
 495              		@ args = 0, pretend = 0, frame = 0
 496              		@ frame_needed = 0, uses_anonymous_args = 0
 497              		@ link register save eliminated.
  67:Src/Gcode/VirtualPrinters_Gcode.c **** }
 498              		.loc 1 67 0
 499 0000 0C4B     		ldr	r3, .L52
 500 0002 93F83C30 		ldrb	r3, [r3, #60]	@ zero_extendqisi2
 501 0006 6BB1     		cbz	r3, .L48
  67:Src/Gcode/VirtualPrinters_Gcode.c **** }
 502              		.loc 1 67 0 is_stmt 0 discriminator 1
 503 0008 0A4B     		ldr	r3, .L52
 504 000a 93F84430 		ldrb	r3, [r3, #68]	@ zero_extendqisi2
 505 000e 5BB1     		cbz	r3, .L49
  67:Src/Gcode/VirtualPrinters_Gcode.c **** }
 506              		.loc 1 67 0 discriminator 3
 507 0010 084B     		ldr	r3, .L52
 508 0012 93F84C30 		ldrb	r3, [r3, #76]	@ zero_extendqisi2
 509 0016 4BB1     		cbz	r3, .L50
  67:Src/Gcode/VirtualPrinters_Gcode.c **** }
 510              		.loc 1 67 0 discriminator 5
 511 0018 064B     		ldr	r3, .L52
 512 001a 93F85430 		ldrb	r3, [r3, #84]	@ zero_extendqisi2
 513 001e 3BB9     		cbnz	r3, .L51
  67:Src/Gcode/VirtualPrinters_Gcode.c **** }
 514              		.loc 1 67 0
 515 0020 0020     		movs	r0, #0
 516 0022 7047     		bx	lr
 517              	.L48:
 518 0024 0020     		movs	r0, #0
 519 0026 7047     		bx	lr
 520              	.L49:
 521 0028 0020     		movs	r0, #0
 522 002a 7047     		bx	lr
 523              	.L50:
 524 002c 0020     		movs	r0, #0
 525 002e 7047     		bx	lr
 526              	.L51:
 527 0030 0120     		movs	r0, #1
  68:Src/Gcode/VirtualPrinters_Gcode.c **** static void makeStepX_Gcode(void)
 528              		.loc 1 68 0 is_stmt 1
ARM GAS  /tmp/ccIr8f8d.s 			page 12


 529 0032 7047     		bx	lr
 530              	.L53:
 531              		.align	2
 532              	.L52:
 533 0034 00000000 		.word	.LANCHOR0
 534              		.cfi_endproc
 535              	.LFE7:
 537              		.global	__aeabi_fmul
 538              		.global	__aeabi_fadd
 539              		.global	__aeabi_i2f
 540              		.global	__aeabi_fsub
 541              		.section	.text.evaluatePrinter_Gcode,"ax",%progbits
 542              		.align	1
 543              		.global	evaluatePrinter_Gcode
 544              		.syntax unified
 545              		.thumb
 546              		.thumb_func
 547              		.fpu softvfp
 549              	evaluatePrinter_Gcode:
 550              	.LFB12:
  89:Src/Gcode/VirtualPrinters_Gcode.c **** 
  90:Src/Gcode/VirtualPrinters_Gcode.c **** _Bool evaluatePrinter_Gcode(void)
  91:Src/Gcode/VirtualPrinters_Gcode.c **** {
 551              		.loc 1 91 0
 552              		.cfi_startproc
 553              		@ args = 0, pretend = 0, frame = 0
 554              		@ frame_needed = 0, uses_anonymous_args = 0
 555 0000 70B5     		push	{r4, r5, r6, lr}
 556              	.LCFI8:
 557              		.cfi_def_cfa_offset 16
 558              		.cfi_offset 4, -16
 559              		.cfi_offset 5, -12
 560              		.cfi_offset 6, -8
 561              		.cfi_offset 14, -4
  92:Src/Gcode/VirtualPrinters_Gcode.c ****     if (moveComleted())
 562              		.loc 1 92 0
 563 0002 FFF7FEFF 		bl	moveComleted
 564              	.LVL15:
 565 0006 0446     		mov	r4, r0
 566 0008 98B9     		cbnz	r0, .L55
  93:Src/Gcode/VirtualPrinters_Gcode.c ****         return true;
  94:Src/Gcode/VirtualPrinters_Gcode.c ****     if (!currentCommand.xDone)
 567              		.loc 1 94 0
 568 000a 624B     		ldr	r3, .L74
 569 000c 93F83C30 		ldrb	r3, [r3, #60]	@ zero_extendqisi2
 570 0010 8BB1     		cbz	r3, .L65
 571              	.L56:
  95:Src/Gcode/VirtualPrinters_Gcode.c ****     {
  96:Src/Gcode/VirtualPrinters_Gcode.c ****         continiuosPrinter.vX += currentCommand.command.AnX*evaluationPeriod_Gcode;
  97:Src/Gcode/VirtualPrinters_Gcode.c ****         continiuosPrinter.X  += continiuosPrinter.vX*evaluationPeriod_Gcode;
  98:Src/Gcode/VirtualPrinters_Gcode.c ****         if (lroundf(continiuosPrinter.X - (float)discretePrinter.X) != 0) makeStepX_Gcode();
  99:Src/Gcode/VirtualPrinters_Gcode.c ****         if (discretePrinter.X == currentCommand.command.dXn) currentCommand.xDone = true;
 100:Src/Gcode/VirtualPrinters_Gcode.c ****     }
 101:Src/Gcode/VirtualPrinters_Gcode.c ****     if (!currentCommand.yDone)
 572              		.loc 1 101 0
 573 0012 604B     		ldr	r3, .L74
 574 0014 93F84430 		ldrb	r3, [r3, #68]	@ zero_extendqisi2
ARM GAS  /tmp/ccIr8f8d.s 			page 13


 575 0018 002B     		cmp	r3, #0
 576 001a 37D0     		beq	.L66
 577              	.L58:
 102:Src/Gcode/VirtualPrinters_Gcode.c ****     {
 103:Src/Gcode/VirtualPrinters_Gcode.c ****         continiuosPrinter.vY += currentCommand.command.AnY*evaluationPeriod_Gcode;
 104:Src/Gcode/VirtualPrinters_Gcode.c ****         continiuosPrinter.Y  += continiuosPrinter.vY*evaluationPeriod_Gcode;
 105:Src/Gcode/VirtualPrinters_Gcode.c ****         if (lroundf(continiuosPrinter.Y - (float)discretePrinter.Y) != 0) makeStepY_Gcode();
 106:Src/Gcode/VirtualPrinters_Gcode.c ****         if (discretePrinter.Y == currentCommand.command.dYn) currentCommand.yDone = true;
 107:Src/Gcode/VirtualPrinters_Gcode.c ****     }
 108:Src/Gcode/VirtualPrinters_Gcode.c ****     if (!currentCommand.zDone)
 578              		.loc 1 108 0
 579 001c 5D4B     		ldr	r3, .L74
 580 001e 93F84C30 		ldrb	r3, [r3, #76]	@ zero_extendqisi2
 581 0022 002B     		cmp	r3, #0
 582 0024 5DD0     		beq	.L67
 583              	.L60:
 109:Src/Gcode/VirtualPrinters_Gcode.c ****     {
 110:Src/Gcode/VirtualPrinters_Gcode.c ****         continiuosPrinter.vZ += currentCommand.command.AnZ*evaluationPeriod_Gcode;
 111:Src/Gcode/VirtualPrinters_Gcode.c ****         continiuosPrinter.Z  += continiuosPrinter.vZ*evaluationPeriod_Gcode;
 112:Src/Gcode/VirtualPrinters_Gcode.c ****         if (lroundf(continiuosPrinter.Z - (float)discretePrinter.Z) != 0) makeStepZ_Gcode();
 113:Src/Gcode/VirtualPrinters_Gcode.c ****         if (discretePrinter.Z == currentCommand.command.dZn) currentCommand.zDone = true;
 114:Src/Gcode/VirtualPrinters_Gcode.c ****     }
 115:Src/Gcode/VirtualPrinters_Gcode.c ****     if (!currentCommand.eDone)
 584              		.loc 1 115 0
 585 0026 5B4B     		ldr	r3, .L74
 586 0028 93F85450 		ldrb	r5, [r3, #84]	@ zero_extendqisi2
 587 002c 002D     		cmp	r5, #0
 588 002e 00F08480 		beq	.L68
 589              	.L55:
 116:Src/Gcode/VirtualPrinters_Gcode.c ****     {
 117:Src/Gcode/VirtualPrinters_Gcode.c ****         continiuosPrinter.vE += currentCommand.command.AnE*evaluationPeriod_Gcode;
 118:Src/Gcode/VirtualPrinters_Gcode.c ****         continiuosPrinter.E  += continiuosPrinter.vE*evaluationPeriod_Gcode;
 119:Src/Gcode/VirtualPrinters_Gcode.c ****         if (lroundf(continiuosPrinter.E - (float)discretePrinter.E) != 0) makeStepE_Gcode();
 120:Src/Gcode/VirtualPrinters_Gcode.c ****         if (discretePrinter.E == currentCommand.command.dEn) currentCommand.eDone = true;
 121:Src/Gcode/VirtualPrinters_Gcode.c ****     }
 122:Src/Gcode/VirtualPrinters_Gcode.c ****     return false;
 123:Src/Gcode/VirtualPrinters_Gcode.c **** }
 590              		.loc 1 123 0
 591 0032 2046     		mov	r0, r4
 592 0034 70BD     		pop	{r4, r5, r6, pc}
 593              	.L65:
  96:Src/Gcode/VirtualPrinters_Gcode.c ****         continiuosPrinter.X  += continiuosPrinter.vX*evaluationPeriod_Gcode;
 594              		.loc 1 96 0
 595 0036 5849     		ldr	r1, .L74+4
 596 0038 564B     		ldr	r3, .L74
 597 003a 586A     		ldr	r0, [r3, #36]	@ float
 598 003c FFF7FEFF 		bl	__aeabi_fmul
 599              	.LVL16:
 600 0040 564D     		ldr	r5, .L74+8
 601 0042 6968     		ldr	r1, [r5, #4]	@ float
 602 0044 FFF7FEFF 		bl	__aeabi_fadd
 603              	.LVL17:
 604 0048 6860     		str	r0, [r5, #4]	@ float
  97:Src/Gcode/VirtualPrinters_Gcode.c ****         if (lroundf(continiuosPrinter.X - (float)discretePrinter.X) != 0) makeStepX_Gcode();
 605              		.loc 1 97 0
 606 004a 5349     		ldr	r1, .L74+4
 607 004c FFF7FEFF 		bl	__aeabi_fmul
ARM GAS  /tmp/ccIr8f8d.s 			page 14


 608              	.LVL18:
 609 0050 2968     		ldr	r1, [r5]	@ float
 610 0052 FFF7FEFF 		bl	__aeabi_fadd
 611              	.LVL19:
 612 0056 0646     		mov	r6, r0
 613 0058 2860     		str	r0, [r5]	@ float
  98:Src/Gcode/VirtualPrinters_Gcode.c ****         if (discretePrinter.X == currentCommand.command.dXn) currentCommand.xDone = true;
 614              		.loc 1 98 0
 615 005a 514B     		ldr	r3, .L74+12
 616 005c 1868     		ldr	r0, [r3]
 617 005e FFF7FEFF 		bl	__aeabi_i2f
 618              	.LVL20:
 619 0062 0146     		mov	r1, r0
 620 0064 3046     		mov	r0, r6
 621 0066 FFF7FEFF 		bl	__aeabi_fsub
 622              	.LVL21:
 623 006a FFF7FEFF 		bl	lroundf
 624              	.LVL22:
 625 006e 50B9     		cbnz	r0, .L69
 626              	.L57:
  99:Src/Gcode/VirtualPrinters_Gcode.c ****     }
 627              		.loc 1 99 0
 628 0070 4B4B     		ldr	r3, .L74+12
 629 0072 1A68     		ldr	r2, [r3]
 630 0074 474B     		ldr	r3, .L74
 631 0076 5B68     		ldr	r3, [r3, #4]
 632 0078 9A42     		cmp	r2, r3
 633 007a CAD1     		bne	.L56
  99:Src/Gcode/VirtualPrinters_Gcode.c ****     }
 634              		.loc 1 99 0 is_stmt 0 discriminator 1
 635 007c 454B     		ldr	r3, .L74
 636 007e 0122     		movs	r2, #1
 637 0080 83F83C20 		strb	r2, [r3, #60]
 638 0084 C5E7     		b	.L56
 639              	.L69:
  98:Src/Gcode/VirtualPrinters_Gcode.c ****         if (discretePrinter.X == currentCommand.command.dXn) currentCommand.xDone = true;
 640              		.loc 1 98 0 is_stmt 1 discriminator 1
 641 0086 FFF7FEFF 		bl	makeStepX_Gcode
 642              	.LVL23:
 643 008a F1E7     		b	.L57
 644              	.L66:
 103:Src/Gcode/VirtualPrinters_Gcode.c ****         continiuosPrinter.Y  += continiuosPrinter.vY*evaluationPeriod_Gcode;
 645              		.loc 1 103 0
 646 008c 4249     		ldr	r1, .L74+4
 647 008e 414B     		ldr	r3, .L74
 648 0090 986A     		ldr	r0, [r3, #40]	@ float
 649 0092 FFF7FEFF 		bl	__aeabi_fmul
 650              	.LVL24:
 651 0096 414D     		ldr	r5, .L74+8
 652 0098 E968     		ldr	r1, [r5, #12]	@ float
 653 009a FFF7FEFF 		bl	__aeabi_fadd
 654              	.LVL25:
 655 009e E860     		str	r0, [r5, #12]	@ float
 104:Src/Gcode/VirtualPrinters_Gcode.c ****         if (lroundf(continiuosPrinter.Y - (float)discretePrinter.Y) != 0) makeStepY_Gcode();
 656              		.loc 1 104 0
 657 00a0 3D49     		ldr	r1, .L74+4
 658 00a2 FFF7FEFF 		bl	__aeabi_fmul
ARM GAS  /tmp/ccIr8f8d.s 			page 15


 659              	.LVL26:
 660 00a6 A968     		ldr	r1, [r5, #8]	@ float
 661 00a8 FFF7FEFF 		bl	__aeabi_fadd
 662              	.LVL27:
 663 00ac 0646     		mov	r6, r0
 664 00ae A860     		str	r0, [r5, #8]	@ float
 105:Src/Gcode/VirtualPrinters_Gcode.c ****         if (discretePrinter.Y == currentCommand.command.dYn) currentCommand.yDone = true;
 665              		.loc 1 105 0
 666 00b0 3B4B     		ldr	r3, .L74+12
 667 00b2 5868     		ldr	r0, [r3, #4]
 668 00b4 FFF7FEFF 		bl	__aeabi_i2f
 669              	.LVL28:
 670 00b8 0146     		mov	r1, r0
 671 00ba 3046     		mov	r0, r6
 672 00bc FFF7FEFF 		bl	__aeabi_fsub
 673              	.LVL29:
 674 00c0 FFF7FEFF 		bl	lroundf
 675              	.LVL30:
 676 00c4 50B9     		cbnz	r0, .L70
 677              	.L59:
 106:Src/Gcode/VirtualPrinters_Gcode.c ****     }
 678              		.loc 1 106 0
 679 00c6 364B     		ldr	r3, .L74+12
 680 00c8 5A68     		ldr	r2, [r3, #4]
 681 00ca 324B     		ldr	r3, .L74
 682 00cc 9B68     		ldr	r3, [r3, #8]
 683 00ce 9A42     		cmp	r2, r3
 684 00d0 A4D1     		bne	.L58
 106:Src/Gcode/VirtualPrinters_Gcode.c ****     }
 685              		.loc 1 106 0 is_stmt 0 discriminator 1
 686 00d2 304B     		ldr	r3, .L74
 687 00d4 0122     		movs	r2, #1
 688 00d6 83F84420 		strb	r2, [r3, #68]
 689 00da 9FE7     		b	.L58
 690              	.L70:
 105:Src/Gcode/VirtualPrinters_Gcode.c ****         if (discretePrinter.Y == currentCommand.command.dYn) currentCommand.yDone = true;
 691              		.loc 1 105 0 is_stmt 1 discriminator 1
 692 00dc FFF7FEFF 		bl	makeStepY_Gcode
 693              	.LVL31:
 694 00e0 F1E7     		b	.L59
 695              	.L67:
 110:Src/Gcode/VirtualPrinters_Gcode.c ****         continiuosPrinter.Z  += continiuosPrinter.vZ*evaluationPeriod_Gcode;
 696              		.loc 1 110 0
 697 00e2 2D49     		ldr	r1, .L74+4
 698 00e4 2B4B     		ldr	r3, .L74
 699 00e6 D86A     		ldr	r0, [r3, #44]	@ float
 700 00e8 FFF7FEFF 		bl	__aeabi_fmul
 701              	.LVL32:
 702 00ec 2B4D     		ldr	r5, .L74+8
 703 00ee 6969     		ldr	r1, [r5, #20]	@ float
 704 00f0 FFF7FEFF 		bl	__aeabi_fadd
 705              	.LVL33:
 706 00f4 6861     		str	r0, [r5, #20]	@ float
 111:Src/Gcode/VirtualPrinters_Gcode.c ****         if (lroundf(continiuosPrinter.Z - (float)discretePrinter.Z) != 0) makeStepZ_Gcode();
 707              		.loc 1 111 0
 708 00f6 2849     		ldr	r1, .L74+4
 709 00f8 FFF7FEFF 		bl	__aeabi_fmul
ARM GAS  /tmp/ccIr8f8d.s 			page 16


 710              	.LVL34:
 711 00fc 2969     		ldr	r1, [r5, #16]	@ float
 712 00fe FFF7FEFF 		bl	__aeabi_fadd
 713              	.LVL35:
 714 0102 0646     		mov	r6, r0
 715 0104 2861     		str	r0, [r5, #16]	@ float
 112:Src/Gcode/VirtualPrinters_Gcode.c ****         if (discretePrinter.Z == currentCommand.command.dZn) currentCommand.zDone = true;
 716              		.loc 1 112 0
 717 0106 264B     		ldr	r3, .L74+12
 718 0108 9868     		ldr	r0, [r3, #8]
 719 010a FFF7FEFF 		bl	__aeabi_i2f
 720              	.LVL36:
 721 010e 0146     		mov	r1, r0
 722 0110 3046     		mov	r0, r6
 723 0112 FFF7FEFF 		bl	__aeabi_fsub
 724              	.LVL37:
 725 0116 FFF7FEFF 		bl	lroundf
 726              	.LVL38:
 727 011a 58B9     		cbnz	r0, .L71
 728              	.L61:
 113:Src/Gcode/VirtualPrinters_Gcode.c ****     }
 729              		.loc 1 113 0
 730 011c 204B     		ldr	r3, .L74+12
 731 011e 9A68     		ldr	r2, [r3, #8]
 732 0120 1C4B     		ldr	r3, .L74
 733 0122 DB68     		ldr	r3, [r3, #12]
 734 0124 9A42     		cmp	r2, r3
 735 0126 7FF47EAF 		bne	.L60
 113:Src/Gcode/VirtualPrinters_Gcode.c ****     }
 736              		.loc 1 113 0 is_stmt 0 discriminator 1
 737 012a 1A4B     		ldr	r3, .L74
 738 012c 0122     		movs	r2, #1
 739 012e 83F84C20 		strb	r2, [r3, #76]
 740 0132 78E7     		b	.L60
 741              	.L71:
 112:Src/Gcode/VirtualPrinters_Gcode.c ****         if (discretePrinter.Z == currentCommand.command.dZn) currentCommand.zDone = true;
 742              		.loc 1 112 0 is_stmt 1 discriminator 1
 743 0134 FFF7FEFF 		bl	makeStepZ_Gcode
 744              	.LVL39:
 745 0138 F0E7     		b	.L61
 746              	.L68:
 117:Src/Gcode/VirtualPrinters_Gcode.c ****         continiuosPrinter.E  += continiuosPrinter.vE*evaluationPeriod_Gcode;
 747              		.loc 1 117 0
 748 013a 1749     		ldr	r1, .L74+4
 749 013c 186B     		ldr	r0, [r3, #48]	@ float
 750 013e FFF7FEFF 		bl	__aeabi_fmul
 751              	.LVL40:
 752 0142 164C     		ldr	r4, .L74+8
 753 0144 E169     		ldr	r1, [r4, #28]	@ float
 754 0146 FFF7FEFF 		bl	__aeabi_fadd
 755              	.LVL41:
 756 014a E061     		str	r0, [r4, #28]	@ float
 118:Src/Gcode/VirtualPrinters_Gcode.c ****         if (lroundf(continiuosPrinter.E - (float)discretePrinter.E) != 0) makeStepE_Gcode();
 757              		.loc 1 118 0
 758 014c 1249     		ldr	r1, .L74+4
 759 014e FFF7FEFF 		bl	__aeabi_fmul
 760              	.LVL42:
ARM GAS  /tmp/ccIr8f8d.s 			page 17


 761 0152 A169     		ldr	r1, [r4, #24]	@ float
 762 0154 FFF7FEFF 		bl	__aeabi_fadd
 763              	.LVL43:
 764 0158 0646     		mov	r6, r0
 765 015a A061     		str	r0, [r4, #24]	@ float
 119:Src/Gcode/VirtualPrinters_Gcode.c ****         if (discretePrinter.E == currentCommand.command.dEn) currentCommand.eDone = true;
 766              		.loc 1 119 0
 767 015c 104B     		ldr	r3, .L74+12
 768 015e D868     		ldr	r0, [r3, #12]
 769 0160 FFF7FEFF 		bl	__aeabi_i2f
 770              	.LVL44:
 771 0164 0146     		mov	r1, r0
 772 0166 3046     		mov	r0, r6
 773 0168 FFF7FEFF 		bl	__aeabi_fsub
 774              	.LVL45:
 775 016c FFF7FEFF 		bl	lroundf
 776              	.LVL46:
 777 0170 38B9     		cbnz	r0, .L72
 778              	.L62:
 120:Src/Gcode/VirtualPrinters_Gcode.c ****     }
 779              		.loc 1 120 0
 780 0172 0B4B     		ldr	r3, .L74+12
 781 0174 DA68     		ldr	r2, [r3, #12]
 782 0176 074B     		ldr	r3, .L74
 783 0178 1B69     		ldr	r3, [r3, #16]
 784 017a 9A42     		cmp	r2, r3
 785 017c 04D0     		beq	.L73
 122:Src/Gcode/VirtualPrinters_Gcode.c **** }
 786              		.loc 1 122 0
 787 017e 2C46     		mov	r4, r5
 788 0180 57E7     		b	.L55
 789              	.L72:
 119:Src/Gcode/VirtualPrinters_Gcode.c ****         if (discretePrinter.E == currentCommand.command.dEn) currentCommand.eDone = true;
 790              		.loc 1 119 0 discriminator 1
 791 0182 FFF7FEFF 		bl	makeStepE_Gcode
 792              	.LVL47:
 793 0186 F4E7     		b	.L62
 794              	.L73:
 120:Src/Gcode/VirtualPrinters_Gcode.c ****     }
 795              		.loc 1 120 0 discriminator 1
 796 0188 024B     		ldr	r3, .L74
 797 018a 0122     		movs	r2, #1
 798 018c 83F85420 		strb	r2, [r3, #84]
 122:Src/Gcode/VirtualPrinters_Gcode.c **** }
 799              		.loc 1 122 0 discriminator 1
 800 0190 2C46     		mov	r4, r5
 801 0192 4EE7     		b	.L55
 802              	.L75:
 803              		.align	2
 804              	.L74:
 805 0194 00000000 		.word	.LANCHOR0
 806 0198 6F12833A 		.word	981668463
 807 019c 00000000 		.word	.LANCHOR2
 808 01a0 00000000 		.word	.LANCHOR1
 809              		.cfi_endproc
 810              	.LFE12:
 812              		.global	evaluationPeriod_Gcode
ARM GAS  /tmp/ccIr8f8d.s 			page 18


 813              		.section	.bss.continiuosPrinter,"aw",%nobits
 814              		.align	2
 815              		.set	.LANCHOR2,. + 0
 818              	continiuosPrinter:
 819 0000 00000000 		.space	32
 819      00000000 
 819      00000000 
 819      00000000 
 819      00000000 
 820              		.section	.bss.currentCommand,"aw",%nobits
 821              		.align	2
 822              		.set	.LANCHOR0,. + 0
 825              	currentCommand:
 826 0000 00000000 		.space	92
 826      00000000 
 826      00000000 
 826      00000000 
 826      00000000 
 827              		.section	.bss.discretePrinter,"aw",%nobits
 828              		.align	2
 829              		.set	.LANCHOR1,. + 0
 832              	discretePrinter:
 833 0000 00000000 		.space	16
 833      00000000 
 833      00000000 
 833      00000000 
 834              		.section	.rodata.evaluationPeriod_Gcode,"a",%progbits
 835              		.align	2
 838              	evaluationPeriod_Gcode:
 839 0000 6F12833A 		.word	981668463
 840              		.text
 841              	.Letext0:
 842              		.file 2 "Inc/Gcode/Descritization_Gcode.h"
 843              		.file 3 "Inc/Gcode/GcodeConverter_Gcode.h"
 844              		.file 4 "Inc/Gcode/Buffer_Gcode.h"
 845              		.file 5 "Inc/Gcode/VirtualPrinters_Gcode.h"
 846              		.file 6 "/usr/arm-none-eabi/include/sys/lock.h"
 847              		.file 7 "/usr/arm-none-eabi/include/sys/_types.h"
 848              		.file 8 "/usr/lib/gcc/arm-none-eabi/7.3.1/include/stddef.h"
 849              		.file 9 "/usr/arm-none-eabi/include/sys/reent.h"
 850              		.file 10 "/usr/arm-none-eabi/include/math.h"
 851              		.file 11 "Inc/Motors/Driver_Motors.h"
ARM GAS  /tmp/ccIr8f8d.s 			page 19


DEFINED SYMBOLS
                            *ABS*:0000000000000000 VirtualPrinters_Gcode.c
     /tmp/ccIr8f8d.s:16     .text.sign:0000000000000000 $t
     /tmp/ccIr8f8d.s:22     .text.sign:0000000000000000 sign
     /tmp/ccIr8f8d.s:56     .text.makeStepX_Gcode:0000000000000000 $t
     /tmp/ccIr8f8d.s:62     .text.makeStepX_Gcode:0000000000000000 makeStepX_Gcode
     /tmp/ccIr8f8d.s:88     .text.makeStepX_Gcode:0000000000000014 $d
     /tmp/ccIr8f8d.s:94     .text.makeStepY_Gcode:0000000000000000 $t
     /tmp/ccIr8f8d.s:100    .text.makeStepY_Gcode:0000000000000000 makeStepY_Gcode
     /tmp/ccIr8f8d.s:126    .text.makeStepY_Gcode:0000000000000014 $d
     /tmp/ccIr8f8d.s:132    .text.makeStepZ_Gcode:0000000000000000 $t
     /tmp/ccIr8f8d.s:138    .text.makeStepZ_Gcode:0000000000000000 makeStepZ_Gcode
     /tmp/ccIr8f8d.s:164    .text.makeStepZ_Gcode:0000000000000014 $d
     /tmp/ccIr8f8d.s:170    .text.makeStepE_Gcode:0000000000000000 $t
     /tmp/ccIr8f8d.s:176    .text.makeStepE_Gcode:0000000000000000 makeStepE_Gcode
     /tmp/ccIr8f8d.s:202    .text.makeStepE_Gcode:0000000000000014 $d
     /tmp/ccIr8f8d.s:208    .text.virtualPrintersCreate_Gcode:0000000000000000 $t
     /tmp/ccIr8f8d.s:215    .text.virtualPrintersCreate_Gcode:0000000000000000 virtualPrintersCreate_Gcode
     /tmp/ccIr8f8d.s:253    .text.virtualPrintersCreate_Gcode:0000000000000038 $d
     /tmp/ccIr8f8d.s:260    .text.getCurrentX_Gcode:0000000000000000 $t
     /tmp/ccIr8f8d.s:267    .text.getCurrentX_Gcode:0000000000000000 getCurrentX_Gcode
     /tmp/ccIr8f8d.s:281    .text.getCurrentX_Gcode:0000000000000008 $d
     /tmp/ccIr8f8d.s:286    .text.getCurrentY_Gcode:0000000000000000 $t
     /tmp/ccIr8f8d.s:293    .text.getCurrentY_Gcode:0000000000000000 getCurrentY_Gcode
     /tmp/ccIr8f8d.s:307    .text.getCurrentY_Gcode:0000000000000008 $d
     /tmp/ccIr8f8d.s:312    .text.getCurrentZ_Gcode:0000000000000000 $t
     /tmp/ccIr8f8d.s:319    .text.getCurrentZ_Gcode:0000000000000000 getCurrentZ_Gcode
     /tmp/ccIr8f8d.s:333    .text.getCurrentZ_Gcode:0000000000000008 $d
     /tmp/ccIr8f8d.s:338    .text.getCurrentE_Gcode:0000000000000000 $t
     /tmp/ccIr8f8d.s:345    .text.getCurrentE_Gcode:0000000000000000 getCurrentE_Gcode
     /tmp/ccIr8f8d.s:359    .text.getCurrentE_Gcode:0000000000000008 $d
     /tmp/ccIr8f8d.s:364    .text.sendCommandToPrinter_Gcode:0000000000000000 $t
     /tmp/ccIr8f8d.s:371    .text.sendCommandToPrinter_Gcode:0000000000000000 sendCommandToPrinter_Gcode
     /tmp/ccIr8f8d.s:478    .text.sendCommandToPrinter_Gcode:0000000000000098 $d
     /tmp/ccIr8f8d.s:484    .text.moveComleted:0000000000000000 $t
     /tmp/ccIr8f8d.s:491    .text.moveComleted:0000000000000000 moveComleted
     /tmp/ccIr8f8d.s:533    .text.moveComleted:0000000000000034 $d
     /tmp/ccIr8f8d.s:542    .text.evaluatePrinter_Gcode:0000000000000000 $t
     /tmp/ccIr8f8d.s:549    .text.evaluatePrinter_Gcode:0000000000000000 evaluatePrinter_Gcode
     /tmp/ccIr8f8d.s:805    .text.evaluatePrinter_Gcode:0000000000000194 $d
     /tmp/ccIr8f8d.s:838    .rodata.evaluationPeriod_Gcode:0000000000000000 evaluationPeriod_Gcode
     /tmp/ccIr8f8d.s:814    .bss.continiuosPrinter:0000000000000000 $d
     /tmp/ccIr8f8d.s:818    .bss.continiuosPrinter:0000000000000000 continiuosPrinter
     /tmp/ccIr8f8d.s:821    .bss.currentCommand:0000000000000000 $d
     /tmp/ccIr8f8d.s:825    .bss.currentCommand:0000000000000000 currentCommand
     /tmp/ccIr8f8d.s:828    .bss.discretePrinter:0000000000000000 $d
     /tmp/ccIr8f8d.s:832    .bss.discretePrinter:0000000000000000 discretePrinter
     /tmp/ccIr8f8d.s:835    .rodata.evaluationPeriod_Gcode:0000000000000000 $d

UNDEFINED SYMBOLS
doStepX_Motors
doStepY_Motors
doStepZ_Motors
doStepE_Motors
__aeabi_fmul
__aeabi_fadd
__aeabi_i2f
ARM GAS  /tmp/ccIr8f8d.s 			page 20


__aeabi_fsub
lroundf
